
twain.gcc.elf:     file format elf32-littlearm


Disassembly of section .text:

00008000 <_start>:
    8000:	e320f000 	nop	{0}
    8004:	e320f000 	nop	{0}
    8008:	e320f000 	nop	{0}
    800c:	e3a0d602 	mov	sp, #2097152	; 0x200000
    8010:	eb0001a4 	bl	86a8 <notmain>

00008014 <hang>:
    8014:	eafffffe 	b	8014 <hang>

00008018 <PUT32>:
    8018:	e5801000 	str	r1, [r0]
    801c:	e12fff1e 	bx	lr

00008020 <GET32>:
    8020:	e5900000 	ldr	r0, [r0]
    8024:	e12fff1e 	bx	lr

00008028 <dummy>:
    8028:	e12fff1e 	bx	lr

0000802c <start_l1cache>:
    802c:	e3a00000 	mov	r0, #0
    8030:	ee070f17 	mcr	15, 0, r0, cr7, cr7, {0}
    8034:	ee080f17 	mcr	15, 0, r0, cr8, cr7, {0}
    8038:	ee110f10 	mrc	15, 0, r0, cr1, cr0, {0}
    803c:	e3800a01 	orr	r0, r0, #4096	; 0x1000
    8040:	e3800004 	orr	r0, r0, #4
    8044:	ee010f10 	mcr	15, 0, r0, cr1, cr0, {0}
    8048:	e12fff1e 	bx	lr

0000804c <stop_l1cache>:
    804c:	ee110f10 	mrc	15, 0, r0, cr1, cr0, {0}
    8050:	e3c00a01 	bic	r0, r0, #4096	; 0x1000
    8054:	e3c00004 	bic	r0, r0, #4
    8058:	ee010f10 	mcr	15, 0, r0, cr1, cr0, {0}
    805c:	e12fff1e 	bx	lr

00008060 <start_mmu>:
    8060:	e3a02000 	mov	r2, #0
    8064:	ee072f17 	mcr	15, 0, r2, cr7, cr7, {0}
    8068:	ee082f17 	mcr	15, 0, r2, cr8, cr7, {0}
    806c:	e3e02000 	mvn	r2, #0
    8070:	ee032f10 	mcr	15, 0, r2, cr3, cr0, {0}
    8074:	ee020f10 	mcr	15, 0, r0, cr2, cr0, {0}
    8078:	ee020f30 	mcr	15, 0, r0, cr2, cr0, {1}
    807c:	ee112f10 	mrc	15, 0, r2, cr1, cr0, {0}
    8080:	e1822001 	orr	r2, r2, r1
    8084:	ee012f10 	mcr	15, 0, r2, cr1, cr0, {0}
    8088:	e12fff1e 	bx	lr

0000808c <uart_putc>:
    808c:	e92d4010 	push	{r4, lr}
    8090:	e1a04000 	mov	r4, r0
    8094:	e59f0018 	ldr	r0, [pc, #24]	; 80b4 <uart_putc+0x28>
    8098:	ebffffe0 	bl	8020 <GET32>
    809c:	e3100020 	tst	r0, #32
    80a0:	0afffffb 	beq	8094 <uart_putc+0x8>
    80a4:	e59f000c 	ldr	r0, [pc, #12]	; 80b8 <uart_putc+0x2c>
    80a8:	e1a01004 	mov	r1, r4
    80ac:	e8bd4010 	pop	{r4, lr}
    80b0:	eaffffd8 	b	8018 <PUT32>
    80b4:	20215054 	eorcs	r5, r1, r4, asr r0
    80b8:	20215040 	eorcs	r5, r1, r0, asr #32

000080bc <hexstrings>:
    80bc:	e92d4070 	push	{r4, r5, r6, lr}
    80c0:	e1a06000 	mov	r6, r0
    80c4:	e3a04020 	mov	r4, #32
    80c8:	e2444004 	sub	r4, r4, #4
    80cc:	e1a01436 	lsr	r1, r6, r4
    80d0:	e201100f 	and	r1, r1, #15
    80d4:	e3510009 	cmp	r1, #9
    80d8:	82815037 	addhi	r5, r1, #55	; 0x37
    80dc:	92815030 	addls	r5, r1, #48	; 0x30
    80e0:	e59f003c 	ldr	r0, [pc, #60]	; 8124 <hexstrings+0x68>
    80e4:	ebffffcd 	bl	8020 <GET32>
    80e8:	e3100020 	tst	r0, #32
    80ec:	0afffffb 	beq	80e0 <hexstrings+0x24>
    80f0:	e1a01005 	mov	r1, r5
    80f4:	e59f002c 	ldr	r0, [pc, #44]	; 8128 <hexstrings+0x6c>
    80f8:	ebffffc6 	bl	8018 <PUT32>
    80fc:	e3540000 	cmp	r4, #0
    8100:	1afffff0 	bne	80c8 <hexstrings+0xc>
    8104:	e59f0018 	ldr	r0, [pc, #24]	; 8124 <hexstrings+0x68>
    8108:	ebffffc4 	bl	8020 <GET32>
    810c:	e3100020 	tst	r0, #32
    8110:	0afffffb 	beq	8104 <hexstrings+0x48>
    8114:	e59f000c 	ldr	r0, [pc, #12]	; 8128 <hexstrings+0x6c>
    8118:	e3a01020 	mov	r1, #32
    811c:	e8bd4070 	pop	{r4, r5, r6, lr}
    8120:	eaffffbc 	b	8018 <PUT32>
    8124:	20215054 	eorcs	r5, r1, r4, asr r0
    8128:	20215040 	eorcs	r5, r1, r0, asr #32

0000812c <hexstring>:
    812c:	e92d4070 	push	{r4, r5, r6, lr}
    8130:	e1a06000 	mov	r6, r0
    8134:	e3a04020 	mov	r4, #32
    8138:	e2444004 	sub	r4, r4, #4
    813c:	e1a01436 	lsr	r1, r6, r4
    8140:	e201100f 	and	r1, r1, #15
    8144:	e3510009 	cmp	r1, #9
    8148:	82815037 	addhi	r5, r1, #55	; 0x37
    814c:	92815030 	addls	r5, r1, #48	; 0x30
    8150:	e59f0074 	ldr	r0, [pc, #116]	; 81cc <hexstring+0xa0>
    8154:	ebffffb1 	bl	8020 <GET32>
    8158:	e3100020 	tst	r0, #32
    815c:	0afffffb 	beq	8150 <hexstring+0x24>
    8160:	e1a01005 	mov	r1, r5
    8164:	e59f0064 	ldr	r0, [pc, #100]	; 81d0 <hexstring+0xa4>
    8168:	ebffffaa 	bl	8018 <PUT32>
    816c:	e3540000 	cmp	r4, #0
    8170:	1afffff0 	bne	8138 <hexstring+0xc>
    8174:	e59f0050 	ldr	r0, [pc, #80]	; 81cc <hexstring+0xa0>
    8178:	ebffffa8 	bl	8020 <GET32>
    817c:	e3100020 	tst	r0, #32
    8180:	0afffffb 	beq	8174 <hexstring+0x48>
    8184:	e59f0044 	ldr	r0, [pc, #68]	; 81d0 <hexstring+0xa4>
    8188:	e3a01020 	mov	r1, #32
    818c:	ebffffa1 	bl	8018 <PUT32>
    8190:	e59f0034 	ldr	r0, [pc, #52]	; 81cc <hexstring+0xa0>
    8194:	ebffffa1 	bl	8020 <GET32>
    8198:	e3100020 	tst	r0, #32
    819c:	0afffffb 	beq	8190 <hexstring+0x64>
    81a0:	e59f0028 	ldr	r0, [pc, #40]	; 81d0 <hexstring+0xa4>
    81a4:	e3a0100d 	mov	r1, #13
    81a8:	ebffff9a 	bl	8018 <PUT32>
    81ac:	e59f0018 	ldr	r0, [pc, #24]	; 81cc <hexstring+0xa0>
    81b0:	ebffff9a 	bl	8020 <GET32>
    81b4:	e3100020 	tst	r0, #32
    81b8:	0afffffb 	beq	81ac <hexstring+0x80>
    81bc:	e59f000c 	ldr	r0, [pc, #12]	; 81d0 <hexstring+0xa4>
    81c0:	e3a0100a 	mov	r1, #10
    81c4:	e8bd4070 	pop	{r4, r5, r6, lr}
    81c8:	eaffff92 	b	8018 <PUT32>
    81cc:	20215054 	eorcs	r5, r1, r4, asr r0
    81d0:	20215040 	eorcs	r5, r1, r0, asr #32

000081d4 <uart_init>:
    81d4:	e92d4010 	push	{r4, lr}
    81d8:	e59f00d8 	ldr	r0, [pc, #216]	; 82b8 <uart_init+0xe4>
    81dc:	e3a01001 	mov	r1, #1
    81e0:	ebffff8c 	bl	8018 <PUT32>
    81e4:	e59f00d0 	ldr	r0, [pc, #208]	; 82bc <uart_init+0xe8>
    81e8:	e3a01000 	mov	r1, #0
    81ec:	ebffff89 	bl	8018 <PUT32>
    81f0:	e59f00c8 	ldr	r0, [pc, #200]	; 82c0 <uart_init+0xec>
    81f4:	e3a01000 	mov	r1, #0
    81f8:	ebffff86 	bl	8018 <PUT32>
    81fc:	e59f00c0 	ldr	r0, [pc, #192]	; 82c4 <uart_init+0xf0>
    8200:	e3a01003 	mov	r1, #3
    8204:	ebffff83 	bl	8018 <PUT32>
    8208:	e59f00b8 	ldr	r0, [pc, #184]	; 82c8 <uart_init+0xf4>
    820c:	e3a01000 	mov	r1, #0
    8210:	ebffff80 	bl	8018 <PUT32>
    8214:	e59f00a0 	ldr	r0, [pc, #160]	; 82bc <uart_init+0xe8>
    8218:	e3a01000 	mov	r1, #0
    821c:	ebffff7d 	bl	8018 <PUT32>
    8220:	e59f00a4 	ldr	r0, [pc, #164]	; 82cc <uart_init+0xf8>
    8224:	e3a010c6 	mov	r1, #198	; 0xc6
    8228:	ebffff7a 	bl	8018 <PUT32>
    822c:	e59f109c 	ldr	r1, [pc, #156]	; 82d0 <uart_init+0xfc>
    8230:	e59f009c 	ldr	r0, [pc, #156]	; 82d4 <uart_init+0x100>
    8234:	ebffff77 	bl	8018 <PUT32>
    8238:	e59f0098 	ldr	r0, [pc, #152]	; 82d8 <uart_init+0x104>
    823c:	ebffff77 	bl	8020 <GET32>
    8240:	e3c01a3f 	bic	r1, r0, #258048	; 0x3f000
    8244:	e3811a12 	orr	r1, r1, #73728	; 0x12000
    8248:	e59f0088 	ldr	r0, [pc, #136]	; 82d8 <uart_init+0x104>
    824c:	ebffff71 	bl	8018 <PUT32>
    8250:	e59f0084 	ldr	r0, [pc, #132]	; 82dc <uart_init+0x108>
    8254:	e3a01000 	mov	r1, #0
    8258:	ebffff6e 	bl	8018 <PUT32>
    825c:	e3a04000 	mov	r4, #0
    8260:	e1a00004 	mov	r0, r4
    8264:	e2844001 	add	r4, r4, #1
    8268:	ebffff6e 	bl	8028 <dummy>
    826c:	e3540096 	cmp	r4, #150	; 0x96
    8270:	1afffffa 	bne	8260 <uart_init+0x8c>
    8274:	e59f0064 	ldr	r0, [pc, #100]	; 82e0 <uart_init+0x10c>
    8278:	e3a01903 	mov	r1, #49152	; 0xc000
    827c:	ebffff65 	bl	8018 <PUT32>
    8280:	e3a04000 	mov	r4, #0
    8284:	e1a00004 	mov	r0, r4
    8288:	e2844001 	add	r4, r4, #1
    828c:	ebffff65 	bl	8028 <dummy>
    8290:	e3540096 	cmp	r4, #150	; 0x96
    8294:	1afffffa 	bne	8284 <uart_init+0xb0>
    8298:	e59f0040 	ldr	r0, [pc, #64]	; 82e0 <uart_init+0x10c>
    829c:	e3a01000 	mov	r1, #0
    82a0:	ebffff5c 	bl	8018 <PUT32>
    82a4:	e59f0014 	ldr	r0, [pc, #20]	; 82c0 <uart_init+0xec>
    82a8:	e3a01003 	mov	r1, #3
    82ac:	ebffff59 	bl	8018 <PUT32>
    82b0:	e3a00000 	mov	r0, #0
    82b4:	e8bd8010 	pop	{r4, pc}
    82b8:	20215004 	eorcs	r5, r1, r4
    82bc:	20215044 	eorcs	r5, r1, r4, asr #32
    82c0:	20215060 	eorcs	r5, r1, r0, rrx
    82c4:	2021504c 	eorcs	r5, r1, ip, asr #32
    82c8:	20215050 	eorcs	r5, r1, r0, asr r0
    82cc:	20215048 	eorcs	r5, r1, r8, asr #32
    82d0:	0000010e 	andeq	r0, r0, lr, lsl #2
    82d4:	20215068 	eorcs	r5, r1, r8, rrx
    82d8:	20200004 	eorcs	r0, r0, r4
    82dc:	20200094 	mlacs	r0, r4, r0, r0
    82e0:	20200098 	mlacs	r0, r8, r0, r0

000082e4 <init_timer>:
    82e4:	e92d4010 	push	{r4, lr}
    82e8:	e59f4018 	ldr	r4, [pc, #24]	; 8308 <init_timer+0x24>
    82ec:	e3a01000 	mov	r1, #0
    82f0:	e1a00004 	mov	r0, r4
    82f4:	ebffff47 	bl	8018 <PUT32>
    82f8:	e1a00004 	mov	r0, r4
    82fc:	e3a01c02 	mov	r1, #512	; 0x200
    8300:	e8bd4010 	pop	{r4, lr}
    8304:	eaffff43 	b	8018 <PUT32>
    8308:	2000b408 	andcs	fp, r0, r8, lsl #8

0000830c <timer_tick>:
    830c:	e59f0000 	ldr	r0, [pc]	; 8314 <timer_tick+0x8>
    8310:	eaffff42 	b	8020 <GET32>
    8314:	2000b420 	andcs	fp, r0, r0, lsr #8

00008318 <next_coarse_offset>:
    8318:	e31000ff 	tst	r0, #255	; 0xff
    831c:	012fff1e 	bxeq	lr
    8320:	e2800001 	add	r0, r0, #1
    8324:	e31000ff 	tst	r0, #255	; 0xff
    8328:	1afffffc 	bne	8320 <next_coarse_offset+0x8>
    832c:	e12fff1e 	bx	lr

00008330 <add_one>:
    8330:	e92d41f0 	push	{r4, r5, r6, r7, r8, lr}
    8334:	e1a06a20 	lsr	r6, r0, #20
    8338:	e1a04106 	lsl	r4, r6, #2
    833c:	e2844602 	add	r4, r4, #2097152	; 0x200000
    8340:	e1a05000 	mov	r5, r0
    8344:	e1a00004 	mov	r0, r4
    8348:	e1a07001 	mov	r7, r1
    834c:	ebffff33 	bl	8020 <GET32>
    8350:	e2508000 	subs	r8, r0, #0
    8354:	1a00001f 	bne	83d8 <add_one+0xa8>
    8358:	e59f20a0 	ldr	r2, [pc, #160]	; 8400 <add_one+0xd0>
    835c:	e5923000 	ldr	r3, [r2]
    8360:	e31300ff 	tst	r3, #255	; 0xff
    8364:	0a000002 	beq	8374 <add_one+0x44>
    8368:	e2833001 	add	r3, r3, #1
    836c:	e31300ff 	tst	r3, #255	; 0xff
    8370:	1afffffc 	bne	8368 <add_one+0x38>
    8374:	e283cc01 	add	ip, r3, #256	; 0x100
    8378:	e35c0902 	cmp	ip, #32768	; 0x8000
    837c:	2a000011 	bcs	83c8 <add_one+0x98>
    8380:	e1a03103 	lsl	r3, r3, #2
    8384:	e2835602 	add	r5, r3, #2097152	; 0x200000
    8388:	e1a00004 	mov	r0, r4
    838c:	e3851001 	orr	r1, r5, #1
    8390:	e582c000 	str	ip, [r2]
    8394:	ebffff1f 	bl	8018 <PUT32>
    8398:	e3877032 	orr	r7, r7, #50	; 0x32
    839c:	e1a06a06 	lsl	r6, r6, #20
    83a0:	e3a04000 	mov	r4, #0
    83a4:	e0861604 	add	r1, r6, r4, lsl #12
    83a8:	e0850104 	add	r0, r5, r4, lsl #2
    83ac:	e1811007 	orr	r1, r1, r7
    83b0:	e2844001 	add	r4, r4, #1
    83b4:	ebffff17 	bl	8018 <PUT32>
    83b8:	e3540c01 	cmp	r4, #256	; 0x100
    83bc:	1afffff8 	bne	83a4 <add_one+0x74>
    83c0:	e3a00000 	mov	r0, #0
    83c4:	e8bd81f0 	pop	{r4, r5, r6, r7, r8, pc}
    83c8:	e59f0034 	ldr	r0, [pc, #52]	; 8404 <add_one+0xd4>
    83cc:	ebffff56 	bl	812c <hexstring>
    83d0:	e3a00001 	mov	r0, #1
    83d4:	e8bd81f0 	pop	{r4, r5, r6, r7, r8, pc}
    83d8:	e1a00005 	mov	r0, r5
    83dc:	ebffff52 	bl	812c <hexstring>
    83e0:	e1a00004 	mov	r0, r4
    83e4:	ebffff50 	bl	812c <hexstring>
    83e8:	e1a00008 	mov	r0, r8
    83ec:	ebffff4e 	bl	812c <hexstring>
    83f0:	e59f0010 	ldr	r0, [pc, #16]	; 8408 <add_one+0xd8>
    83f4:	ebffff4c 	bl	812c <hexstring>
    83f8:	e3a00001 	mov	r0, #1
    83fc:	e8bd81f0 	pop	{r4, r5, r6, r7, r8, pc}
    8400:	00019a48 	andeq	r9, r1, r8, asr #20
    8404:	00000bad 	andeq	r0, r0, sp, lsr #23
    8408:	00badadd 	ldrsbteq	sp, [sl], sp

0000840c <xmemcpy>:
    840c:	e3520000 	cmp	r2, #0
    8410:	e92d00f0 	push	{r4, r5, r6, r7}
    8414:	e2427001 	sub	r7, r2, #1
    8418:	0a000025 	beq	84b4 <xmemcpy+0xa8>
    841c:	e281c004 	add	ip, r1, #4
    8420:	e2803004 	add	r3, r0, #4
    8424:	e1510003 	cmp	r1, r3
    8428:	3150000c 	cmpcc	r0, ip
    842c:	33a03000 	movcc	r3, #0
    8430:	23a03001 	movcs	r3, #1
    8434:	e181c000 	orr	ip, r1, r0
    8438:	e3520003 	cmp	r2, #3
    843c:	93a03000 	movls	r3, #0
    8440:	82033001 	andhi	r3, r3, #1
    8444:	e31c0003 	tst	ip, #3
    8448:	13a03000 	movne	r3, #0
    844c:	02033001 	andeq	r3, r3, #1
    8450:	e1a05122 	lsr	r5, r2, #2
    8454:	e2233001 	eor	r3, r3, #1
    8458:	e3550000 	cmp	r5, #0
    845c:	03833001 	orreq	r3, r3, #1
    8460:	e3530000 	cmp	r3, #0
    8464:	e1a06105 	lsl	r6, r5, #2
    8468:	1a000013 	bne	84bc <xmemcpy+0xb0>
    846c:	e1a0c003 	mov	ip, r3
    8470:	e7914003 	ldr	r4, [r1, r3]
    8474:	e28cc001 	add	ip, ip, #1
    8478:	e155000c 	cmp	r5, ip
    847c:	e7804003 	str	r4, [r0, r3]
    8480:	e2833004 	add	r3, r3, #4
    8484:	8afffff9 	bhi	8470 <xmemcpy+0x64>
    8488:	e1520006 	cmp	r2, r6
    848c:	e0811006 	add	r1, r1, r6
    8490:	e0667007 	rsb	r7, r6, r7
    8494:	e0802006 	add	r2, r0, r6
    8498:	0a000005 	beq	84b4 <xmemcpy+0xa8>
    849c:	e081c007 	add	ip, r1, r7
    84a0:	e2413001 	sub	r3, r1, #1
    84a4:	e5f31001 	ldrb	r1, [r3, #1]!
    84a8:	e153000c 	cmp	r3, ip
    84ac:	e4c21001 	strb	r1, [r2], #1
    84b0:	1afffffb 	bne	84a4 <xmemcpy+0x98>
    84b4:	e8bd00f0 	pop	{r4, r5, r6, r7}
    84b8:	e12fff1e 	bx	lr
    84bc:	e1a02000 	mov	r2, r0
    84c0:	eafffff5 	b	849c <xmemcpy+0x90>

000084c4 <xmemset>:
    84c4:	e3520000 	cmp	r2, #0
    84c8:	e92d01f0 	push	{r4, r5, r6, r7, r8}
    84cc:	e2424001 	sub	r4, r2, #1
    84d0:	0a000028 	beq	8578 <xmemset+0xb4>
    84d4:	e2605000 	rsb	r5, r0, #0
    84d8:	e2055003 	and	r5, r5, #3
    84dc:	e1550002 	cmp	r5, r2
    84e0:	21a05002 	movcs	r5, r2
    84e4:	e3520003 	cmp	r2, #3
    84e8:	e6ef1071 	uxtb	r1, r1
    84ec:	91a05002 	movls	r5, r2
    84f0:	8a000022 	bhi	8580 <xmemset+0xbc>
    84f4:	e1a0c000 	mov	ip, r0
    84f8:	e1a0300c 	mov	r3, ip
    84fc:	e4c31001 	strb	r1, [r3], #1
    8500:	e060c003 	rsb	ip, r0, r3
    8504:	e15c0005 	cmp	ip, r5
    8508:	e2444001 	sub	r4, r4, #1
    850c:	e1a0c003 	mov	ip, r3
    8510:	3afffff8 	bcc	84f8 <xmemset+0x34>
    8514:	e1520005 	cmp	r2, r5
    8518:	0a000016 	beq	8578 <xmemset+0xb4>
    851c:	e0652002 	rsb	r2, r5, r2
    8520:	e1a06122 	lsr	r6, r2, #2
    8524:	e1b08106 	lsls	r8, r6, #2
    8528:	0a00000d 	beq	8564 <xmemset+0xa0>
    852c:	e6efc071 	uxtb	ip, r1
    8530:	e18c740c 	orr	r7, ip, ip, lsl #8
    8534:	e187780c 	orr	r7, r7, ip, lsl #16
    8538:	e1877c0c 	orr	r7, r7, ip, lsl #24
    853c:	e0805005 	add	r5, r0, r5
    8540:	e3a0c000 	mov	ip, #0
    8544:	e28cc001 	add	ip, ip, #1
    8548:	e15c0006 	cmp	ip, r6
    854c:	e4857004 	str	r7, [r5], #4
    8550:	3afffffb 	bcc	8544 <xmemset+0x80>
    8554:	e1520008 	cmp	r2, r8
    8558:	e0833008 	add	r3, r3, r8
    855c:	e0684004 	rsb	r4, r8, r4
    8560:	0a000004 	beq	8578 <xmemset+0xb4>
    8564:	e2844001 	add	r4, r4, #1
    8568:	e0834004 	add	r4, r3, r4
    856c:	e4c31001 	strb	r1, [r3], #1
    8570:	e1530004 	cmp	r3, r4
    8574:	1afffffc 	bne	856c <xmemset+0xa8>
    8578:	e8bd01f0 	pop	{r4, r5, r6, r7, r8}
    857c:	e12fff1e 	bx	lr
    8580:	e3550000 	cmp	r5, #0
    8584:	1affffda 	bne	84f4 <xmemset+0x30>
    8588:	e1a03000 	mov	r3, r0
    858c:	eaffffe2 	b	851c <xmemset+0x58>

00008590 <xmalloc>:
    8590:	e59f2018 	ldr	r2, [pc, #24]	; 85b0 <xmalloc+0x20>
    8594:	e5923000 	ldr	r3, [r2]
    8598:	e2831003 	add	r1, r3, #3
    859c:	e0810000 	add	r0, r1, r0
    85a0:	e3c01003 	bic	r1, r0, #3
    85a4:	e5821000 	str	r1, [r2]
    85a8:	e1a00003 	mov	r0, r3
    85ac:	e12fff1e 	bx	lr
    85b0:	0001ba4c 	andeq	fp, r1, ip, asr #20

000085b4 <xcalloc>:
    85b4:	e59f30e4 	ldr	r3, [pc, #228]	; 86a0 <xcalloc+0xec>
    85b8:	e0010190 	mul	r1, r0, r1
    85bc:	e5930000 	ldr	r0, [r3]
    85c0:	e3510000 	cmp	r1, #0
    85c4:	e2802003 	add	r2, r0, #3
    85c8:	e0822001 	add	r2, r2, r1
    85cc:	e3c22003 	bic	r2, r2, #3
    85d0:	e92d00f0 	push	{r4, r5, r6, r7}
    85d4:	e241c001 	sub	ip, r1, #1
    85d8:	e5832000 	str	r2, [r3]
    85dc:	0a000029 	beq	8688 <xcalloc+0xd4>
    85e0:	e2605000 	rsb	r5, r0, #0
    85e4:	e2055003 	and	r5, r5, #3
    85e8:	e1550001 	cmp	r5, r1
    85ec:	21a05001 	movcs	r5, r1
    85f0:	e3510003 	cmp	r1, #3
    85f4:	91a05001 	movls	r5, r1
    85f8:	8a000024 	bhi	8690 <xcalloc+0xdc>
    85fc:	e2802001 	add	r2, r0, #1
    8600:	e1e07000 	mvn	r7, r0
    8604:	e3a06000 	mov	r6, #0
    8608:	e1a03002 	mov	r3, r2
    860c:	e5426001 	strb	r6, [r2, #-1]
    8610:	e2822001 	add	r2, r2, #1
    8614:	e0874002 	add	r4, r7, r2
    8618:	e1540005 	cmp	r4, r5
    861c:	e24cc001 	sub	ip, ip, #1
    8620:	3afffff8 	bcc	8608 <xcalloc+0x54>
    8624:	e1510005 	cmp	r1, r5
    8628:	0a000016 	beq	8688 <xcalloc+0xd4>
    862c:	e0657001 	rsb	r7, r5, r1
    8630:	e1a04127 	lsr	r4, r7, #2
    8634:	e1b06104 	lsls	r6, r4, #2
    8638:	0a00000a 	beq	8668 <xcalloc+0xb4>
    863c:	e3a02000 	mov	r2, #0
    8640:	e0801005 	add	r1, r0, r5
    8644:	e1a05002 	mov	r5, r2
    8648:	e2822001 	add	r2, r2, #1
    864c:	e1520004 	cmp	r2, r4
    8650:	e4815004 	str	r5, [r1], #4
    8654:	3afffffb 	bcc	8648 <xcalloc+0x94>
    8658:	e1570006 	cmp	r7, r6
    865c:	e0833006 	add	r3, r3, r6
    8660:	e066c00c 	rsb	ip, r6, ip
    8664:	0a000007 	beq	8688 <xcalloc+0xd4>
    8668:	e28cc002 	add	ip, ip, #2
    866c:	e083c00c 	add	ip, r3, ip
    8670:	e3a02000 	mov	r2, #0
    8674:	e2833001 	add	r3, r3, #1
    8678:	e5432001 	strb	r2, [r3, #-1]
    867c:	e2833001 	add	r3, r3, #1
    8680:	e153000c 	cmp	r3, ip
    8684:	1afffffb 	bne	8678 <xcalloc+0xc4>
    8688:	e8bd00f0 	pop	{r4, r5, r6, r7}
    868c:	e12fff1e 	bx	lr
    8690:	e3550000 	cmp	r5, #0
    8694:	1affffd8 	bne	85fc <xcalloc+0x48>
    8698:	e1a03000 	mov	r3, r0
    869c:	eaffffe2 	b	862c <xcalloc+0x78>
    86a0:	0001ba4c 	andeq	fp, r1, ip, asr #20

000086a4 <xfree>:
    86a4:	e12fff1e 	bx	lr

000086a8 <notmain>:
    86a8:	e92d45f0 	push	{r4, r5, r6, r7, r8, sl, lr}
    86ac:	e24dd00c 	sub	sp, sp, #12
    86b0:	ebfffe5d 	bl	802c <start_l1cache>
    86b4:	e59f6500 	ldr	r6, [pc, #1280]	; 8bbc <notmain+0x514>
    86b8:	ebfffec5 	bl	81d4 <uart_init>
    86bc:	e59f04fc 	ldr	r0, [pc, #1276]	; 8bc0 <notmain+0x518>
    86c0:	ebfffe99 	bl	812c <hexstring>
    86c4:	e59f44f8 	ldr	r4, [pc, #1272]	; 8bc4 <notmain+0x51c>
    86c8:	e3a03000 	mov	r3, #0
    86cc:	e5863000 	str	r3, [r6]
    86d0:	e1a00103 	lsl	r0, r3, #2
    86d4:	e2800602 	add	r0, r0, #2097152	; 0x200000
    86d8:	e3a01000 	mov	r1, #0
    86dc:	ebfffe4d 	bl	8018 <PUT32>
    86e0:	e5963000 	ldr	r3, [r6]
    86e4:	e59f54d0 	ldr	r5, [pc, #1232]	; 8bbc <notmain+0x514>
    86e8:	e2833001 	add	r3, r3, #1
    86ec:	e1530004 	cmp	r3, r4
    86f0:	e5863000 	str	r3, [r6]
    86f4:	9afffff5 	bls	86d0 <notmain+0x28>
    86f8:	e3a00602 	mov	r0, #2097152	; 0x200000
    86fc:	ebfffe47 	bl	8020 <GET32>
    8700:	e2504000 	subs	r4, r0, #0
    8704:	1a00010b 	bne	8b38 <notmain+0x490>
    8708:	e5953000 	ldr	r3, [r5]
    870c:	e31300ff 	tst	r3, #255	; 0xff
    8710:	0a000002 	beq	8720 <notmain+0x78>
    8714:	e2833001 	add	r3, r3, #1
    8718:	e31300ff 	tst	r3, #255	; 0xff
    871c:	1afffffc 	bne	8714 <notmain+0x6c>
    8720:	e2832c01 	add	r2, r3, #256	; 0x100
    8724:	e3520902 	cmp	r2, #32768	; 0x8000
    8728:	2a0000fd 	bcs	8b24 <notmain+0x47c>
    872c:	e1a03103 	lsl	r3, r3, #2
    8730:	e2835602 	add	r5, r3, #2097152	; 0x200000
    8734:	e3851001 	orr	r1, r5, #1
    8738:	e3a00602 	mov	r0, #2097152	; 0x200000
    873c:	e5862000 	str	r2, [r6]
    8740:	ebfffe34 	bl	8018 <PUT32>
    8744:	e3a04000 	mov	r4, #0
    8748:	e1a01604 	lsl	r1, r4, #12
    874c:	e0850104 	add	r0, r5, r4, lsl #2
    8750:	e381103e 	orr	r1, r1, #62	; 0x3e
    8754:	e2844001 	add	r4, r4, #1
    8758:	ebfffe2e 	bl	8018 <PUT32>
    875c:	e3540c01 	cmp	r4, #256	; 0x100
    8760:	1afffff8 	bne	8748 <notmain+0xa0>
    8764:	e59f045c 	ldr	r0, [pc, #1116]	; 8bc8 <notmain+0x520>
    8768:	ebfffe2c 	bl	8020 <GET32>
    876c:	e2504000 	subs	r4, r0, #0
    8770:	1a0000f9 	bne	8b5c <notmain+0x4b4>
    8774:	e5963000 	ldr	r3, [r6]
    8778:	e31300ff 	tst	r3, #255	; 0xff
    877c:	0a000002 	beq	878c <notmain+0xe4>
    8780:	e2833001 	add	r3, r3, #1
    8784:	e31300ff 	tst	r3, #255	; 0xff
    8788:	1afffffc 	bne	8780 <notmain+0xd8>
    878c:	e2832c01 	add	r2, r3, #256	; 0x100
    8790:	e3520902 	cmp	r2, #32768	; 0x8000
    8794:	2a0000e2 	bcs	8b24 <notmain+0x47c>
    8798:	e1a03103 	lsl	r3, r3, #2
    879c:	e2835602 	add	r5, r3, #2097152	; 0x200000
    87a0:	e3851001 	orr	r1, r5, #1
    87a4:	e59f041c 	ldr	r0, [pc, #1052]	; 8bc8 <notmain+0x520>
    87a8:	e5862000 	str	r2, [r6]
    87ac:	ebfffe19 	bl	8018 <PUT32>
    87b0:	e3a04000 	mov	r4, #0
    87b4:	e1a01604 	lsl	r1, r4, #12
    87b8:	e2811601 	add	r1, r1, #1048576	; 0x100000
    87bc:	e0850104 	add	r0, r5, r4, lsl #2
    87c0:	e381103e 	orr	r1, r1, #62	; 0x3e
    87c4:	e2844001 	add	r4, r4, #1
    87c8:	ebfffe12 	bl	8018 <PUT32>
    87cc:	e3540c01 	cmp	r4, #256	; 0x100
    87d0:	1afffff7 	bne	87b4 <notmain+0x10c>
    87d4:	e59f03f0 	ldr	r0, [pc, #1008]	; 8bcc <notmain+0x524>
    87d8:	ebfffe10 	bl	8020 <GET32>
    87dc:	e2504000 	subs	r4, r0, #0
    87e0:	1a0000e1 	bne	8b6c <notmain+0x4c4>
    87e4:	e5963000 	ldr	r3, [r6]
    87e8:	e31300ff 	tst	r3, #255	; 0xff
    87ec:	0a000002 	beq	87fc <notmain+0x154>
    87f0:	e2833001 	add	r3, r3, #1
    87f4:	e31300ff 	tst	r3, #255	; 0xff
    87f8:	1afffffc 	bne	87f0 <notmain+0x148>
    87fc:	e2832c01 	add	r2, r3, #256	; 0x100
    8800:	e3520902 	cmp	r2, #32768	; 0x8000
    8804:	2a0000c6 	bcs	8b24 <notmain+0x47c>
    8808:	e1a03103 	lsl	r3, r3, #2
    880c:	e2835602 	add	r5, r3, #2097152	; 0x200000
    8810:	e3851001 	orr	r1, r5, #1
    8814:	e59f03b0 	ldr	r0, [pc, #944]	; 8bcc <notmain+0x524>
    8818:	e5862000 	str	r2, [r6]
    881c:	ebfffdfd 	bl	8018 <PUT32>
    8820:	e3a04000 	mov	r4, #0
    8824:	e1a01604 	lsl	r1, r4, #12
    8828:	e2811602 	add	r1, r1, #2097152	; 0x200000
    882c:	e0850104 	add	r0, r5, r4, lsl #2
    8830:	e381103e 	orr	r1, r1, #62	; 0x3e
    8834:	e2844001 	add	r4, r4, #1
    8838:	ebfffdf6 	bl	8018 <PUT32>
    883c:	e3540c01 	cmp	r4, #256	; 0x100
    8840:	1afffff7 	bne	8824 <notmain+0x17c>
    8844:	e59f0384 	ldr	r0, [pc, #900]	; 8bd0 <notmain+0x528>
    8848:	ebfffdf4 	bl	8020 <GET32>
    884c:	e2504000 	subs	r4, r0, #0
    8850:	1a0000c9 	bne	8b7c <notmain+0x4d4>
    8854:	e5963000 	ldr	r3, [r6]
    8858:	e31300ff 	tst	r3, #255	; 0xff
    885c:	0a000002 	beq	886c <notmain+0x1c4>
    8860:	e2833001 	add	r3, r3, #1
    8864:	e31300ff 	tst	r3, #255	; 0xff
    8868:	1afffffc 	bne	8860 <notmain+0x1b8>
    886c:	e2832c01 	add	r2, r3, #256	; 0x100
    8870:	e3520902 	cmp	r2, #32768	; 0x8000
    8874:	2a0000aa 	bcs	8b24 <notmain+0x47c>
    8878:	e1a03103 	lsl	r3, r3, #2
    887c:	e2835602 	add	r5, r3, #2097152	; 0x200000
    8880:	e3851001 	orr	r1, r5, #1
    8884:	e59f0344 	ldr	r0, [pc, #836]	; 8bd0 <notmain+0x528>
    8888:	e5862000 	str	r2, [r6]
    888c:	ebfffde1 	bl	8018 <PUT32>
    8890:	e3a04000 	mov	r4, #0
    8894:	e1a01604 	lsl	r1, r4, #12
    8898:	e2811202 	add	r1, r1, #536870912	; 0x20000000
    889c:	e0850104 	add	r0, r5, r4, lsl #2
    88a0:	e3811032 	orr	r1, r1, #50	; 0x32
    88a4:	e2844001 	add	r4, r4, #1
    88a8:	ebfffdda 	bl	8018 <PUT32>
    88ac:	e3540c01 	cmp	r4, #256	; 0x100
    88b0:	1afffff7 	bne	8894 <notmain+0x1ec>
    88b4:	e59f0318 	ldr	r0, [pc, #792]	; 8bd4 <notmain+0x52c>
    88b8:	ebfffdd8 	bl	8020 <GET32>
    88bc:	e2504000 	subs	r4, r0, #0
    88c0:	1a0000b1 	bne	8b8c <notmain+0x4e4>
    88c4:	e5963000 	ldr	r3, [r6]
    88c8:	e31300ff 	tst	r3, #255	; 0xff
    88cc:	0a000002 	beq	88dc <notmain+0x234>
    88d0:	e2833001 	add	r3, r3, #1
    88d4:	e31300ff 	tst	r3, #255	; 0xff
    88d8:	1afffffc 	bne	88d0 <notmain+0x228>
    88dc:	e2832c01 	add	r2, r3, #256	; 0x100
    88e0:	e3520902 	cmp	r2, #32768	; 0x8000
    88e4:	2a00008e 	bcs	8b24 <notmain+0x47c>
    88e8:	e1a03103 	lsl	r3, r3, #2
    88ec:	e2835602 	add	r5, r3, #2097152	; 0x200000
    88f0:	e3851001 	orr	r1, r5, #1
    88f4:	e59f02d8 	ldr	r0, [pc, #728]	; 8bd4 <notmain+0x52c>
    88f8:	e5862000 	str	r2, [r6]
    88fc:	ebfffdc5 	bl	8018 <PUT32>
    8900:	e3a04000 	mov	r4, #0
    8904:	e1a01604 	lsl	r1, r4, #12
    8908:	e2811202 	add	r1, r1, #536870912	; 0x20000000
    890c:	e2811601 	add	r1, r1, #1048576	; 0x100000
    8910:	e0850104 	add	r0, r5, r4, lsl #2
    8914:	e3811032 	orr	r1, r1, #50	; 0x32
    8918:	e2844001 	add	r4, r4, #1
    891c:	ebfffdbd 	bl	8018 <PUT32>
    8920:	e3540c01 	cmp	r4, #256	; 0x100
    8924:	1afffff6 	bne	8904 <notmain+0x25c>
    8928:	e59f02a8 	ldr	r0, [pc, #680]	; 8bd8 <notmain+0x530>
    892c:	ebfffdbb 	bl	8020 <GET32>
    8930:	e2504000 	subs	r4, r0, #0
    8934:	1a000098 	bne	8b9c <notmain+0x4f4>
    8938:	e5963000 	ldr	r3, [r6]
    893c:	e31300ff 	tst	r3, #255	; 0xff
    8940:	0a000002 	beq	8950 <notmain+0x2a8>
    8944:	e2833001 	add	r3, r3, #1
    8948:	e31300ff 	tst	r3, #255	; 0xff
    894c:	1afffffc 	bne	8944 <notmain+0x29c>
    8950:	e2832c01 	add	r2, r3, #256	; 0x100
    8954:	e3520902 	cmp	r2, #32768	; 0x8000
    8958:	2a000071 	bcs	8b24 <notmain+0x47c>
    895c:	e1a03103 	lsl	r3, r3, #2
    8960:	e2835602 	add	r5, r3, #2097152	; 0x200000
    8964:	e3851001 	orr	r1, r5, #1
    8968:	e59f0268 	ldr	r0, [pc, #616]	; 8bd8 <notmain+0x530>
    896c:	e5862000 	str	r2, [r6]
    8970:	ebfffda8 	bl	8018 <PUT32>
    8974:	e3a04000 	mov	r4, #0
    8978:	e1a01604 	lsl	r1, r4, #12
    897c:	e2811202 	add	r1, r1, #536870912	; 0x20000000
    8980:	e2811602 	add	r1, r1, #2097152	; 0x200000
    8984:	e0850104 	add	r0, r5, r4, lsl #2
    8988:	e3811032 	orr	r1, r1, #50	; 0x32
    898c:	e2844001 	add	r4, r4, #1
    8990:	ebfffda0 	bl	8018 <PUT32>
    8994:	e3540c01 	cmp	r4, #256	; 0x100
    8998:	1afffff6 	bne	8978 <notmain+0x2d0>
    899c:	e59f1238 	ldr	r1, [pc, #568]	; 8bdc <notmain+0x534>
    89a0:	e3a00602 	mov	r0, #2097152	; 0x200000
    89a4:	e59f7234 	ldr	r7, [pc, #564]	; 8be0 <notmain+0x538>
    89a8:	ebfffdac 	bl	8060 <start_mmu>
    89ac:	ebfffe4c 	bl	82e4 <init_timer>
    89b0:	e3a03803 	mov	r3, #196608	; 0x30000
    89b4:	e5873000 	str	r3, [r7]
    89b8:	ebfffe53 	bl	830c <timer_tick>
    89bc:	e3a04a02 	mov	r4, #8192	; 0x2000
    89c0:	e28d1008 	add	r1, sp, #8
    89c4:	e1a05000 	mov	r5, r0
    89c8:	e5214008 	str	r4, [r1, #-8]!
    89cc:	e1a03004 	mov	r3, r4
    89d0:	e1a0100d 	mov	r1, sp
    89d4:	e59f2208 	ldr	r2, [pc, #520]	; 8be4 <notmain+0x53c>
    89d8:	e59f0208 	ldr	r0, [pc, #520]	; 8be8 <notmain+0x540>
    89dc:	eb00110a 	bl	ce0c <compress>
    89e0:	e28d1008 	add	r1, sp, #8
    89e4:	e5214004 	str	r4, [r1, #-4]!
    89e8:	e59f21fc 	ldr	r2, [pc, #508]	; 8bec <notmain+0x544>
    89ec:	e59f31fc 	ldr	r3, [pc, #508]	; 8bf0 <notmain+0x548>
    89f0:	e1a08000 	mov	r8, r0
    89f4:	e59f01f8 	ldr	r0, [pc, #504]	; 8bf4 <notmain+0x54c>
    89f8:	eb000086 	bl	8c18 <uncompress>
    89fc:	e1a0a000 	mov	sl, r0
    8a00:	ebfffe41 	bl	830c <timer_tick>
    8a04:	e1a06000 	mov	r6, r0
    8a08:	e59f01e8 	ldr	r0, [pc, #488]	; 8bf8 <notmain+0x550>
    8a0c:	ebfffdc6 	bl	812c <hexstring>
    8a10:	e5970000 	ldr	r0, [r7]
    8a14:	ebfffdc4 	bl	812c <hexstring>
    8a18:	e1a00008 	mov	r0, r8
    8a1c:	ebfffdc2 	bl	812c <hexstring>
    8a20:	e59d0000 	ldr	r0, [sp]
    8a24:	ebfffdc0 	bl	812c <hexstring>
    8a28:	e1a0000a 	mov	r0, sl
    8a2c:	ebfffdbe 	bl	812c <hexstring>
    8a30:	e59d0004 	ldr	r0, [sp, #4]
    8a34:	ebfffdbc 	bl	812c <hexstring>
    8a38:	e59f01bc 	ldr	r0, [pc, #444]	; 8bfc <notmain+0x554>
    8a3c:	ebfffdba 	bl	812c <hexstring>
    8a40:	e1a00005 	mov	r0, r5
    8a44:	ebfffd9c 	bl	80bc <hexstrings>
    8a48:	e1a00006 	mov	r0, r6
    8a4c:	ebfffd9a 	bl	80bc <hexstrings>
    8a50:	e0650006 	rsb	r0, r5, r6
    8a54:	ebfffdb4 	bl	812c <hexstring>
    8a58:	e59f01a0 	ldr	r0, [pc, #416]	; 8c00 <notmain+0x558>
    8a5c:	ebfffdb2 	bl	812c <hexstring>
    8a60:	e59d0000 	ldr	r0, [sp]
    8a64:	ebfffd94 	bl	80bc <hexstrings>
    8a68:	e59f0180 	ldr	r0, [pc, #384]	; 8bf0 <notmain+0x548>
    8a6c:	ebfffdae 	bl	812c <hexstring>
    8a70:	e59d0004 	ldr	r0, [sp, #4]
    8a74:	ebfffd90 	bl	80bc <hexstrings>
    8a78:	e1a00004 	mov	r0, r4
    8a7c:	ebfffdaa 	bl	812c <hexstring>
    8a80:	e59f4160 	ldr	r4, [pc, #352]	; 8be8 <notmain+0x540>
    8a84:	e3a03000 	mov	r3, #0
    8a88:	e59fe15c 	ldr	lr, [pc, #348]	; 8bec <notmain+0x544>
    8a8c:	e59fc15c 	ldr	ip, [pc, #348]	; 8bf0 <notmain+0x548>
    8a90:	e1a02003 	mov	r2, r3
    8a94:	e7d40003 	ldrb	r0, [r4, r3]
    8a98:	e7de1003 	ldrb	r1, [lr, r3]
    8a9c:	e2833001 	add	r3, r3, #1
    8aa0:	e1500001 	cmp	r0, r1
    8aa4:	12822001 	addne	r2, r2, #1
    8aa8:	e153000c 	cmp	r3, ip
    8aac:	e1a00002 	mov	r0, r2
    8ab0:	1afffff7 	bne	8a94 <notmain+0x3ec>
    8ab4:	e3a03000 	mov	r3, #0
    8ab8:	e59fe134 	ldr	lr, [pc, #308]	; 8bf4 <notmain+0x54c>
    8abc:	e59fc120 	ldr	ip, [pc, #288]	; 8be4 <notmain+0x53c>
    8ac0:	e1a02003 	mov	r2, r3
    8ac4:	e7de4003 	ldrb	r4, [lr, r3]
    8ac8:	e7dc1003 	ldrb	r1, [ip, r3]
    8acc:	e2833001 	add	r3, r3, #1
    8ad0:	e1540001 	cmp	r4, r1
    8ad4:	01a04002 	moveq	r4, r2
    8ad8:	12824001 	addne	r4, r2, #1
    8adc:	e3530a02 	cmp	r3, #8192	; 0x2000
    8ae0:	e1a02004 	mov	r2, r4
    8ae4:	1afffff6 	bne	8ac4 <notmain+0x41c>
    8ae8:	e3500000 	cmp	r0, #0
    8aec:	0a000030 	beq	8bb4 <notmain+0x50c>
    8af0:	ebfffd71 	bl	80bc <hexstrings>
    8af4:	e59f0108 	ldr	r0, [pc, #264]	; 8c04 <notmain+0x55c>
    8af8:	ebfffd8b 	bl	812c <hexstring>
    8afc:	e2540000 	subs	r0, r4, #0
    8b00:	0a000029 	beq	8bac <notmain+0x504>
    8b04:	ebfffd6c 	bl	80bc <hexstrings>
    8b08:	e59f00f4 	ldr	r0, [pc, #244]	; 8c04 <notmain+0x55c>
    8b0c:	ebfffd86 	bl	812c <hexstring>
    8b10:	e59f00a8 	ldr	r0, [pc, #168]	; 8bc0 <notmain+0x518>
    8b14:	ebfffd84 	bl	812c <hexstring>
    8b18:	ebfffd4b 	bl	804c <stop_l1cache>
    8b1c:	e3a00000 	mov	r0, #0
    8b20:	ea000002 	b	8b30 <notmain+0x488>
    8b24:	e59f00dc 	ldr	r0, [pc, #220]	; 8c08 <notmain+0x560>
    8b28:	ebfffd7f 	bl	812c <hexstring>
    8b2c:	e3a00001 	mov	r0, #1
    8b30:	e28dd00c 	add	sp, sp, #12
    8b34:	e8bd85f0 	pop	{r4, r5, r6, r7, r8, sl, pc}
    8b38:	e3a00000 	mov	r0, #0
    8b3c:	ebfffd7a 	bl	812c <hexstring>
    8b40:	e3a00602 	mov	r0, #2097152	; 0x200000
    8b44:	ebfffd78 	bl	812c <hexstring>
    8b48:	e1a00004 	mov	r0, r4
    8b4c:	ebfffd76 	bl	812c <hexstring>
    8b50:	e59f00b4 	ldr	r0, [pc, #180]	; 8c0c <notmain+0x564>
    8b54:	ebfffd74 	bl	812c <hexstring>
    8b58:	eafffff3 	b	8b2c <notmain+0x484>
    8b5c:	e3a00601 	mov	r0, #1048576	; 0x100000
    8b60:	ebfffd71 	bl	812c <hexstring>
    8b64:	e59f005c 	ldr	r0, [pc, #92]	; 8bc8 <notmain+0x520>
    8b68:	eafffff5 	b	8b44 <notmain+0x49c>
    8b6c:	e3a00602 	mov	r0, #2097152	; 0x200000
    8b70:	ebfffd6d 	bl	812c <hexstring>
    8b74:	e59f0050 	ldr	r0, [pc, #80]	; 8bcc <notmain+0x524>
    8b78:	eafffff1 	b	8b44 <notmain+0x49c>
    8b7c:	e3a00202 	mov	r0, #536870912	; 0x20000000
    8b80:	ebfffd69 	bl	812c <hexstring>
    8b84:	e59f0044 	ldr	r0, [pc, #68]	; 8bd0 <notmain+0x528>
    8b88:	eaffffed 	b	8b44 <notmain+0x49c>
    8b8c:	e59f007c 	ldr	r0, [pc, #124]	; 8c10 <notmain+0x568>
    8b90:	ebfffd65 	bl	812c <hexstring>
    8b94:	e59f0038 	ldr	r0, [pc, #56]	; 8bd4 <notmain+0x52c>
    8b98:	eaffffe9 	b	8b44 <notmain+0x49c>
    8b9c:	e59f0070 	ldr	r0, [pc, #112]	; 8c14 <notmain+0x56c>
    8ba0:	ebfffd61 	bl	812c <hexstring>
    8ba4:	e59f002c 	ldr	r0, [pc, #44]	; 8bd8 <notmain+0x530>
    8ba8:	eaffffe5 	b	8b44 <notmain+0x49c>
    8bac:	ebfffd5e 	bl	812c <hexstring>
    8bb0:	eaffffd6 	b	8b10 <notmain+0x468>
    8bb4:	ebfffd5c 	bl	812c <hexstring>
    8bb8:	eaffffcf 	b	8afc <notmain+0x454>
    8bbc:	00019a48 	andeq	r9, r1, r8, asr #20
    8bc0:	12345678 	eorsne	r5, r4, #125829120	; 0x7800000
    8bc4:	00000fff 	strdeq	r0, [r0], -pc	; <UNPREDICTABLE>
    8bc8:	00200004 	eoreq	r0, r0, r4
    8bcc:	00200008 	eoreq	r0, r0, r8
    8bd0:	00200800 	eoreq	r0, r0, r0, lsl #16
    8bd4:	00200804 	eoreq	r0, r0, r4, lsl #16
    8bd8:	00200808 	eoreq	r0, r0, r8, lsl #16
    8bdc:	00800005 	addeq	r0, r0, r5
    8be0:	0001ba4c 	andeq	fp, r1, ip, asr #20
    8be4:	00015a0c 	andeq	r5, r1, ip, lsl #20
    8be8:	00017a48 	andeq	r7, r1, r8, asr #20
    8bec:	00014a88 	andeq	r4, r1, r8, lsl #21
    8bf0:	00000f81 	andeq	r0, r0, r1, lsl #31
    8bf4:	00019a4c 	andeq	r9, r1, ip, asr #20
    8bf8:	00001111 	andeq	r1, r0, r1, lsl r1
    8bfc:	00002222 	andeq	r2, r0, r2, lsr #4
    8c00:	00003333 	andeq	r3, r0, r3, lsr r3
    8c04:	00badbad 	adcseq	sp, sl, sp, lsr #23
    8c08:	00000bad 	andeq	r0, r0, sp, lsr #23
    8c0c:	00badadd 	ldrsbteq	sp, [sl], sp
    8c10:	20100000 	andscs	r0, r0, r0
    8c14:	20200000 	eorcs	r0, r0, r0

00008c18 <uncompress>:
    8c18:	e92d4030 	push	{r4, r5, lr}
    8c1c:	e591e000 	ldr	lr, [r1]
    8c20:	e24dd03c 	sub	sp, sp, #60	; 0x3c
    8c24:	e3a0c000 	mov	ip, #0
    8c28:	e58d2004 	str	r2, [sp, #4]
    8c2c:	e58d0010 	str	r0, [sp, #16]
    8c30:	e1a05001 	mov	r5, r1
    8c34:	e28d0004 	add	r0, sp, #4
    8c38:	e59f1088 	ldr	r1, [pc, #136]	; 8cc8 <uncompress+0xb0>
    8c3c:	e3a02034 	mov	r2, #52	; 0x34
    8c40:	e58d3008 	str	r3, [sp, #8]
    8c44:	e58de014 	str	lr, [sp, #20]
    8c48:	e58dc020 	str	ip, [sp, #32]
    8c4c:	e58dc024 	str	ip, [sp, #36]	; 0x24
    8c50:	eb00013e 	bl	9150 <inflateInit_>
    8c54:	e2504000 	subs	r4, r0, #0
    8c58:	0a000002 	beq	8c68 <uncompress+0x50>
    8c5c:	e1a00004 	mov	r0, r4
    8c60:	e28dd03c 	add	sp, sp, #60	; 0x3c
    8c64:	e8bd8030 	pop	{r4, r5, pc}
    8c68:	e28d0004 	add	r0, sp, #4
    8c6c:	e3a01004 	mov	r1, #4
    8c70:	eb000188 	bl	9298 <inflate>
    8c74:	e3500001 	cmp	r0, #1
    8c78:	e1a04000 	mov	r4, r0
    8c7c:	0a000009 	beq	8ca8 <uncompress+0x90>
    8c80:	e28d0004 	add	r0, sp, #4
    8c84:	eb000814 	bl	acdc <inflateEnd>
    8c88:	e3540002 	cmp	r4, #2
    8c8c:	0a00000b 	beq	8cc0 <uncompress+0xa8>
    8c90:	e3740005 	cmn	r4, #5
    8c94:	1afffff0 	bne	8c5c <uncompress+0x44>
    8c98:	e59d3008 	ldr	r3, [sp, #8]
    8c9c:	e3530000 	cmp	r3, #0
    8ca0:	03e04002 	mvneq	r4, #2
    8ca4:	eaffffec 	b	8c5c <uncompress+0x44>
    8ca8:	e59d3018 	ldr	r3, [sp, #24]
    8cac:	e28d0004 	add	r0, sp, #4
    8cb0:	e5853000 	str	r3, [r5]
    8cb4:	eb000808 	bl	acdc <inflateEnd>
    8cb8:	e1a04000 	mov	r4, r0
    8cbc:	eaffffe6 	b	8c5c <uncompress+0x44>
    8cc0:	e3e04002 	mvn	r4, #2
    8cc4:	eaffffe4 	b	8c5c <uncompress+0x44>
    8cc8:	000131bc 			; <UNDEFINED> instruction: 0x000131bc

00008ccc <updatewindow>:
    8ccc:	e92d40f8 	push	{r3, r4, r5, r6, r7, lr}
    8cd0:	e5904018 	ldr	r4, [r0, #24]
    8cd4:	e1a06000 	mov	r6, r0
    8cd8:	e5940034 	ldr	r0, [r4, #52]	; 0x34
    8cdc:	e1a05001 	mov	r5, r1
    8ce0:	e3500000 	cmp	r0, #0
    8ce4:	0a00003e 	beq	8de4 <updatewindow+0x118>
    8ce8:	e5942028 	ldr	r2, [r4, #40]	; 0x28
    8cec:	e3520000 	cmp	r2, #0
    8cf0:	0a00001c 	beq	8d68 <updatewindow+0x9c>
    8cf4:	e5963010 	ldr	r3, [r6, #16]
    8cf8:	e0635005 	rsb	r5, r3, r5
    8cfc:	e1550002 	cmp	r5, r2
    8d00:	2a000023 	bcs	8d94 <updatewindow+0xc8>
    8d04:	e5943030 	ldr	r3, [r4, #48]	; 0x30
    8d08:	e596100c 	ldr	r1, [r6, #12]
    8d0c:	e0632002 	rsb	r2, r3, r2
    8d10:	e1520005 	cmp	r2, r5
    8d14:	31a07002 	movcc	r7, r2
    8d18:	21a07005 	movcs	r7, r5
    8d1c:	e0651001 	rsb	r1, r5, r1
    8d20:	e0800003 	add	r0, r0, r3
    8d24:	e1a02007 	mov	r2, r7
    8d28:	ebfffdb7 	bl	840c <xmemcpy>
    8d2c:	e0555007 	subs	r5, r5, r7
    8d30:	1a000021 	bne	8dbc <updatewindow+0xf0>
    8d34:	e5941030 	ldr	r1, [r4, #48]	; 0x30
    8d38:	e5943028 	ldr	r3, [r4, #40]	; 0x28
    8d3c:	e0871001 	add	r1, r7, r1
    8d40:	e594202c 	ldr	r2, [r4, #44]	; 0x2c
    8d44:	e1510003 	cmp	r1, r3
    8d48:	e5841030 	str	r1, [r4, #48]	; 0x30
    8d4c:	05845030 	streq	r5, [r4, #48]	; 0x30
    8d50:	e1530002 	cmp	r3, r2
    8d54:	9a000016 	bls	8db4 <updatewindow+0xe8>
    8d58:	e0872002 	add	r2, r7, r2
    8d5c:	e584202c 	str	r2, [r4, #44]	; 0x2c
    8d60:	e3a00000 	mov	r0, #0
    8d64:	e8bd80f8 	pop	{r3, r4, r5, r6, r7, pc}
    8d68:	e5943024 	ldr	r3, [r4, #36]	; 0x24
    8d6c:	e3a02001 	mov	r2, #1
    8d70:	e1a02312 	lsl	r2, r2, r3
    8d74:	e3a03000 	mov	r3, #0
    8d78:	e5843030 	str	r3, [r4, #48]	; 0x30
    8d7c:	e584302c 	str	r3, [r4, #44]	; 0x2c
    8d80:	e5963010 	ldr	r3, [r6, #16]
    8d84:	e5842028 	str	r2, [r4, #40]	; 0x28
    8d88:	e0635005 	rsb	r5, r3, r5
    8d8c:	e1550002 	cmp	r5, r2
    8d90:	3affffdb 	bcc	8d04 <updatewindow+0x38>
    8d94:	e596100c 	ldr	r1, [r6, #12]
    8d98:	e0621001 	rsb	r1, r2, r1
    8d9c:	ebfffd9a 	bl	840c <xmemcpy>
    8da0:	e5943028 	ldr	r3, [r4, #40]	; 0x28
    8da4:	e3a00000 	mov	r0, #0
    8da8:	e584302c 	str	r3, [r4, #44]	; 0x2c
    8dac:	e5840030 	str	r0, [r4, #48]	; 0x30
    8db0:	e8bd80f8 	pop	{r3, r4, r5, r6, r7, pc}
    8db4:	e3a00000 	mov	r0, #0
    8db8:	e8bd80f8 	pop	{r3, r4, r5, r6, r7, pc}
    8dbc:	e596100c 	ldr	r1, [r6, #12]
    8dc0:	e5940034 	ldr	r0, [r4, #52]	; 0x34
    8dc4:	e0651001 	rsb	r1, r5, r1
    8dc8:	e1a02005 	mov	r2, r5
    8dcc:	ebfffd8e 	bl	840c <xmemcpy>
    8dd0:	e5943028 	ldr	r3, [r4, #40]	; 0x28
    8dd4:	e5845030 	str	r5, [r4, #48]	; 0x30
    8dd8:	e584302c 	str	r3, [r4, #44]	; 0x2c
    8ddc:	e3a00000 	mov	r0, #0
    8de0:	e8bd80f8 	pop	{r3, r4, r5, r6, r7, pc}
    8de4:	e5941024 	ldr	r1, [r4, #36]	; 0x24
    8de8:	e3a07001 	mov	r7, #1
    8dec:	e1a01117 	lsl	r1, r7, r1
    8df0:	e1a02007 	mov	r2, r7
    8df4:	e596301c 	ldr	r3, [r6, #28]
    8df8:	e5960024 	ldr	r0, [r6, #36]	; 0x24
    8dfc:	e12fff33 	blx	r3
    8e00:	e3500000 	cmp	r0, #0
    8e04:	e5840034 	str	r0, [r4, #52]	; 0x34
    8e08:	1affffb6 	bne	8ce8 <updatewindow+0x1c>
    8e0c:	e1a00007 	mov	r0, r7
    8e10:	e8bd80f8 	pop	{r3, r4, r5, r6, r7, pc}

00008e14 <inflateResetKeep>:
    8e14:	e3500000 	cmp	r0, #0
    8e18:	e92d0070 	push	{r4, r5, r6}
    8e1c:	0a00001f 	beq	8ea0 <inflateResetKeep+0x8c>
    8e20:	e5903018 	ldr	r3, [r0, #24]
    8e24:	e3530000 	cmp	r3, #0
    8e28:	0a00001c 	beq	8ea0 <inflateResetKeep+0x8c>
    8e2c:	e5931008 	ldr	r1, [r3, #8]
    8e30:	e3a02000 	mov	r2, #0
    8e34:	e1510002 	cmp	r1, r2
    8e38:	12011001 	andne	r1, r1, #1
    8e3c:	e59f5064 	ldr	r5, [pc, #100]	; 8ea8 <inflateResetKeep+0x94>
    8e40:	e583201c 	str	r2, [r3, #28]
    8e44:	e3e06000 	mvn	r6, #0
    8e48:	e5802014 	str	r2, [r0, #20]
    8e4c:	e5802008 	str	r2, [r0, #8]
    8e50:	1580102c 	strne	r1, [r0, #44]	; 0x2c
    8e54:	e2832e53 	add	r2, r3, #1328	; 0x530
    8e58:	e3a00000 	mov	r0, #0
    8e5c:	e3a04902 	mov	r4, #32768	; 0x8000
    8e60:	e3a01d6f 	mov	r1, #7104	; 0x1bc0
    8e64:	e3a0c001 	mov	ip, #1
    8e68:	e7836005 	str	r6, [r3, r5]
    8e6c:	e5830000 	str	r0, [r3]
    8e70:	e5830004 	str	r0, [r3, #4]
    8e74:	e583000c 	str	r0, [r3, #12]
    8e78:	e5830020 	str	r0, [r3, #32]
    8e7c:	e5830038 	str	r0, [r3, #56]	; 0x38
    8e80:	e583003c 	str	r0, [r3, #60]	; 0x3c
    8e84:	e5834014 	str	r4, [r3, #20]
    8e88:	e583206c 	str	r2, [r3, #108]	; 0x6c
    8e8c:	e5832050 	str	r2, [r3, #80]	; 0x50
    8e90:	e583204c 	str	r2, [r3, #76]	; 0x4c
    8e94:	e783c001 	str	ip, [r3, r1]
    8e98:	e8bd0070 	pop	{r4, r5, r6}
    8e9c:	e12fff1e 	bx	lr
    8ea0:	e3e00001 	mvn	r0, #1
    8ea4:	eafffffb 	b	8e98 <inflateResetKeep+0x84>
    8ea8:	00001bc4 	andeq	r1, r0, r4, asr #23

00008eac <inflateReset>:
    8eac:	e3500000 	cmp	r0, #0
    8eb0:	e92d0070 	push	{r4, r5, r6}
    8eb4:	0a000022 	beq	8f44 <inflateReset+0x98>
    8eb8:	e5903018 	ldr	r3, [r0, #24]
    8ebc:	e3530000 	cmp	r3, #0
    8ec0:	0a00001f 	beq	8f44 <inflateReset+0x98>
    8ec4:	e5931008 	ldr	r1, [r3, #8]
    8ec8:	e3a02000 	mov	r2, #0
    8ecc:	e1510002 	cmp	r1, r2
    8ed0:	12011001 	andne	r1, r1, #1
    8ed4:	e59f5070 	ldr	r5, [pc, #112]	; 8f4c <inflateReset+0xa0>
    8ed8:	e5832028 	str	r2, [r3, #40]	; 0x28
    8edc:	e583202c 	str	r2, [r3, #44]	; 0x2c
    8ee0:	e5832030 	str	r2, [r3, #48]	; 0x30
    8ee4:	e583201c 	str	r2, [r3, #28]
    8ee8:	e3e06000 	mvn	r6, #0
    8eec:	e5802014 	str	r2, [r0, #20]
    8ef0:	e5802008 	str	r2, [r0, #8]
    8ef4:	1580102c 	strne	r1, [r0, #44]	; 0x2c
    8ef8:	e2832e53 	add	r2, r3, #1328	; 0x530
    8efc:	e3a00000 	mov	r0, #0
    8f00:	e3a04902 	mov	r4, #32768	; 0x8000
    8f04:	e3a01d6f 	mov	r1, #7104	; 0x1bc0
    8f08:	e3a0c001 	mov	ip, #1
    8f0c:	e7836005 	str	r6, [r3, r5]
    8f10:	e5830000 	str	r0, [r3]
    8f14:	e5830004 	str	r0, [r3, #4]
    8f18:	e583000c 	str	r0, [r3, #12]
    8f1c:	e5830020 	str	r0, [r3, #32]
    8f20:	e5830038 	str	r0, [r3, #56]	; 0x38
    8f24:	e583003c 	str	r0, [r3, #60]	; 0x3c
    8f28:	e5834014 	str	r4, [r3, #20]
    8f2c:	e583206c 	str	r2, [r3, #108]	; 0x6c
    8f30:	e5832050 	str	r2, [r3, #80]	; 0x50
    8f34:	e583204c 	str	r2, [r3, #76]	; 0x4c
    8f38:	e783c001 	str	ip, [r3, r1]
    8f3c:	e8bd0070 	pop	{r4, r5, r6}
    8f40:	e12fff1e 	bx	lr
    8f44:	e3e00001 	mvn	r0, #1
    8f48:	eafffffb 	b	8f3c <inflateReset+0x90>
    8f4c:	00001bc4 	andeq	r1, r0, r4, asr #23

00008f50 <inflateReset2>:
    8f50:	e92d41f0 	push	{r4, r5, r6, r7, r8, lr}
    8f54:	e2506000 	subs	r6, r0, #0
    8f58:	e1a04001 	mov	r4, r1
    8f5c:	0a00001f 	beq	8fe0 <inflateReset2+0x90>
    8f60:	e5965018 	ldr	r5, [r6, #24]
    8f64:	e3550000 	cmp	r5, #0
    8f68:	0a00001c 	beq	8fe0 <inflateReset2+0x90>
    8f6c:	e3510000 	cmp	r1, #0
    8f70:	b2614000 	rsblt	r4, r1, #0
    8f74:	b3a07000 	movlt	r7, #0
    8f78:	ba000003 	blt	8f8c <inflateReset2+0x3c>
    8f7c:	e1a07244 	asr	r7, r4, #4
    8f80:	e354002f 	cmp	r4, #47	; 0x2f
    8f84:	e2877001 	add	r7, r7, #1
    8f88:	d204400f 	andle	r4, r4, #15
    8f8c:	e2443008 	sub	r3, r4, #8
    8f90:	e3540000 	cmp	r4, #0
    8f94:	13530007 	cmpne	r3, #7
    8f98:	93a08000 	movls	r8, #0
    8f9c:	83a08001 	movhi	r8, #1
    8fa0:	8a00000e 	bhi	8fe0 <inflateReset2+0x90>
    8fa4:	e5951034 	ldr	r1, [r5, #52]	; 0x34
    8fa8:	e3510000 	cmp	r1, #0
    8fac:	0a00000d 	beq	8fe8 <inflateReset2+0x98>
    8fb0:	e5952024 	ldr	r2, [r5, #36]	; 0x24
    8fb4:	e1540002 	cmp	r4, r2
    8fb8:	0a00000a 	beq	8fe8 <inflateReset2+0x98>
    8fbc:	e5963020 	ldr	r3, [r6, #32]
    8fc0:	e5960024 	ldr	r0, [r6, #36]	; 0x24
    8fc4:	e12fff33 	blx	r3
    8fc8:	e5963018 	ldr	r3, [r6, #24]
    8fcc:	e5858034 	str	r8, [r5, #52]	; 0x34
    8fd0:	e3530000 	cmp	r3, #0
    8fd4:	e5857008 	str	r7, [r5, #8]
    8fd8:	e5854024 	str	r4, [r5, #36]	; 0x24
    8fdc:	1a000004 	bne	8ff4 <inflateReset2+0xa4>
    8fe0:	e3e00001 	mvn	r0, #1
    8fe4:	e8bd81f0 	pop	{r4, r5, r6, r7, r8, pc}
    8fe8:	e5857008 	str	r7, [r5, #8]
    8fec:	e5854024 	str	r4, [r5, #36]	; 0x24
    8ff0:	e1a03005 	mov	r3, r5
    8ff4:	e5931008 	ldr	r1, [r3, #8]
    8ff8:	e3a02000 	mov	r2, #0
    8ffc:	e1510002 	cmp	r1, r2
    9000:	12011001 	andne	r1, r1, #1
    9004:	e59f5064 	ldr	r5, [pc, #100]	; 9070 <inflateReset2+0x120>
    9008:	e3a00000 	mov	r0, #0
    900c:	e5832028 	str	r2, [r3, #40]	; 0x28
    9010:	e583202c 	str	r2, [r3, #44]	; 0x2c
    9014:	e5832030 	str	r2, [r3, #48]	; 0x30
    9018:	e583201c 	str	r2, [r3, #28]
    901c:	e3a04902 	mov	r4, #32768	; 0x8000
    9020:	e5862014 	str	r2, [r6, #20]
    9024:	e5862008 	str	r2, [r6, #8]
    9028:	1586102c 	strne	r1, [r6, #44]	; 0x2c
    902c:	e2832e53 	add	r2, r3, #1328	; 0x530
    9030:	e3e06000 	mvn	r6, #0
    9034:	e3a01d6f 	mov	r1, #7104	; 0x1bc0
    9038:	e3a0c001 	mov	ip, #1
    903c:	e7836005 	str	r6, [r3, r5]
    9040:	e5830000 	str	r0, [r3]
    9044:	e5830004 	str	r0, [r3, #4]
    9048:	e583000c 	str	r0, [r3, #12]
    904c:	e5830020 	str	r0, [r3, #32]
    9050:	e5830038 	str	r0, [r3, #56]	; 0x38
    9054:	e583003c 	str	r0, [r3, #60]	; 0x3c
    9058:	e5834014 	str	r4, [r3, #20]
    905c:	e583206c 	str	r2, [r3, #108]	; 0x6c
    9060:	e5832050 	str	r2, [r3, #80]	; 0x50
    9064:	e583204c 	str	r2, [r3, #76]	; 0x4c
    9068:	e783c001 	str	ip, [r3, r1]
    906c:	e8bd81f0 	pop	{r4, r5, r6, r7, r8, pc}
    9070:	00001bc4 	andeq	r1, r0, r4, asr #23

00009074 <inflateInit2_>:
    9074:	e3520000 	cmp	r2, #0
    9078:	e92d40f8 	push	{r3, r4, r5, r6, r7, lr}
    907c:	e1a04000 	mov	r4, r0
    9080:	e1a06001 	mov	r6, r1
    9084:	0a000027 	beq	9128 <inflateInit2_+0xb4>
    9088:	e5d22000 	ldrb	r2, [r2]
    908c:	e3520031 	cmp	r2, #49	; 0x31
    9090:	1a000024 	bne	9128 <inflateInit2_+0xb4>
    9094:	e3530034 	cmp	r3, #52	; 0x34
    9098:	1a000022 	bne	9128 <inflateInit2_+0xb4>
    909c:	e3500000 	cmp	r0, #0
    90a0:	0a000025 	beq	913c <inflateInit2_+0xc8>
    90a4:	e590301c 	ldr	r3, [r0, #28]
    90a8:	e3a01001 	mov	r1, #1
    90ac:	e3530000 	cmp	r3, #0
    90b0:	059f208c 	ldreq	r2, [pc, #140]	; 9144 <inflateInit2_+0xd0>
    90b4:	05803024 	streq	r3, [r0, #36]	; 0x24
    90b8:	0580201c 	streq	r2, [r0, #28]
    90bc:	01a03002 	moveq	r3, r2
    90c0:	e5902020 	ldr	r2, [r0, #32]
    90c4:	e3520000 	cmp	r2, #0
    90c8:	059f2078 	ldreq	r2, [pc, #120]	; 9148 <inflateInit2_+0xd4>
    90cc:	05802020 	streq	r2, [r0, #32]
    90d0:	e5900024 	ldr	r0, [r0, #36]	; 0x24
    90d4:	e59f2070 	ldr	r2, [pc, #112]	; 914c <inflateInit2_+0xd8>
    90d8:	e12fff33 	blx	r3
    90dc:	e2505000 	subs	r5, r0, #0
    90e0:	0a000013 	beq	9134 <inflateInit2_+0xc0>
    90e4:	e3a07000 	mov	r7, #0
    90e8:	e5845018 	str	r5, [r4, #24]
    90ec:	e1a01006 	mov	r1, r6
    90f0:	e5857034 	str	r7, [r5, #52]	; 0x34
    90f4:	e1a00004 	mov	r0, r4
    90f8:	ebffff94 	bl	8f50 <inflateReset2>
    90fc:	e2506000 	subs	r6, r0, #0
    9100:	1a000001 	bne	910c <inflateInit2_+0x98>
    9104:	e1a00006 	mov	r0, r6
    9108:	e8bd80f8 	pop	{r3, r4, r5, r6, r7, pc}
    910c:	e5940024 	ldr	r0, [r4, #36]	; 0x24
    9110:	e1a01005 	mov	r1, r5
    9114:	e5943020 	ldr	r3, [r4, #32]
    9118:	e12fff33 	blx	r3
    911c:	e5847018 	str	r7, [r4, #24]
    9120:	e1a00006 	mov	r0, r6
    9124:	e8bd80f8 	pop	{r3, r4, r5, r6, r7, pc}
    9128:	e3e06005 	mvn	r6, #5
    912c:	e1a00006 	mov	r0, r6
    9130:	e8bd80f8 	pop	{r3, r4, r5, r6, r7, pc}
    9134:	e3e06003 	mvn	r6, #3
    9138:	eafffff1 	b	9104 <inflateInit2_+0x90>
    913c:	e3e06001 	mvn	r6, #1
    9140:	eaffffef 	b	9104 <inflateInit2_+0x90>
    9144:	0000cd60 	andeq	ip, r0, r0, ror #26
    9148:	0000cd68 	andeq	ip, r0, r8, ror #26
    914c:	00001bcc 	andeq	r1, r0, ip, asr #23

00009150 <inflateInit_>:
    9150:	e3510000 	cmp	r1, #0
    9154:	e92d40f8 	push	{r3, r4, r5, r6, r7, lr}
    9158:	e1a04000 	mov	r4, r0
    915c:	0a000027 	beq	9200 <inflateInit_+0xb0>
    9160:	e5d13000 	ldrb	r3, [r1]
    9164:	e3530031 	cmp	r3, #49	; 0x31
    9168:	1a000024 	bne	9200 <inflateInit_+0xb0>
    916c:	e3520034 	cmp	r2, #52	; 0x34
    9170:	1a000022 	bne	9200 <inflateInit_+0xb0>
    9174:	e3500000 	cmp	r0, #0
    9178:	0a000025 	beq	9214 <inflateInit_+0xc4>
    917c:	e590301c 	ldr	r3, [r0, #28]
    9180:	e3a01001 	mov	r1, #1
    9184:	e3530000 	cmp	r3, #0
    9188:	059f208c 	ldreq	r2, [pc, #140]	; 921c <inflateInit_+0xcc>
    918c:	05803024 	streq	r3, [r0, #36]	; 0x24
    9190:	0580201c 	streq	r2, [r0, #28]
    9194:	01a03002 	moveq	r3, r2
    9198:	e5902020 	ldr	r2, [r0, #32]
    919c:	e3520000 	cmp	r2, #0
    91a0:	059f2078 	ldreq	r2, [pc, #120]	; 9220 <inflateInit_+0xd0>
    91a4:	05802020 	streq	r2, [r0, #32]
    91a8:	e5900024 	ldr	r0, [r0, #36]	; 0x24
    91ac:	e59f2070 	ldr	r2, [pc, #112]	; 9224 <inflateInit_+0xd4>
    91b0:	e12fff33 	blx	r3
    91b4:	e2505000 	subs	r5, r0, #0
    91b8:	0a000013 	beq	920c <inflateInit_+0xbc>
    91bc:	e3a07000 	mov	r7, #0
    91c0:	e5845018 	str	r5, [r4, #24]
    91c4:	e1a00004 	mov	r0, r4
    91c8:	e5857034 	str	r7, [r5, #52]	; 0x34
    91cc:	e3a0100f 	mov	r1, #15
    91d0:	ebffff5e 	bl	8f50 <inflateReset2>
    91d4:	e2506000 	subs	r6, r0, #0
    91d8:	1a000001 	bne	91e4 <inflateInit_+0x94>
    91dc:	e1a00006 	mov	r0, r6
    91e0:	e8bd80f8 	pop	{r3, r4, r5, r6, r7, pc}
    91e4:	e5940024 	ldr	r0, [r4, #36]	; 0x24
    91e8:	e1a01005 	mov	r1, r5
    91ec:	e5943020 	ldr	r3, [r4, #32]
    91f0:	e12fff33 	blx	r3
    91f4:	e5847018 	str	r7, [r4, #24]
    91f8:	e1a00006 	mov	r0, r6
    91fc:	e8bd80f8 	pop	{r3, r4, r5, r6, r7, pc}
    9200:	e3e06005 	mvn	r6, #5
    9204:	e1a00006 	mov	r0, r6
    9208:	e8bd80f8 	pop	{r3, r4, r5, r6, r7, pc}
    920c:	e3e06003 	mvn	r6, #3
    9210:	eafffff1 	b	91dc <inflateInit_+0x8c>
    9214:	e3e06001 	mvn	r6, #1
    9218:	eaffffef 	b	91dc <inflateInit_+0x8c>
    921c:	0000cd60 	andeq	ip, r0, r0, ror #26
    9220:	0000cd68 	andeq	ip, r0, r8, ror #26
    9224:	00001bcc 	andeq	r1, r0, ip, asr #23

00009228 <inflatePrime>:
    9228:	e3500000 	cmp	r0, #0
    922c:	e52d4004 	push	{r4}		; (str r4, [sp, #-4]!)
    9230:	0a000016 	beq	9290 <inflatePrime+0x68>
    9234:	e5903018 	ldr	r3, [r0, #24]
    9238:	e3530000 	cmp	r3, #0
    923c:	0a000013 	beq	9290 <inflatePrime+0x68>
    9240:	e3510000 	cmp	r1, #0
    9244:	b3a00000 	movlt	r0, #0
    9248:	b5830038 	strlt	r0, [r3, #56]	; 0x38
    924c:	b583003c 	strlt	r0, [r3, #60]	; 0x3c
    9250:	ba00000c 	blt	9288 <inflatePrime+0x60>
    9254:	e3510010 	cmp	r1, #16
    9258:	ca00000c 	bgt	9290 <inflatePrime+0x68>
    925c:	e593003c 	ldr	r0, [r3, #60]	; 0x3c
    9260:	e081c000 	add	ip, r1, r0
    9264:	e35c0020 	cmp	ip, #32
    9268:	8a000008 	bhi	9290 <inflatePrime+0x68>
    926c:	e3e04000 	mvn	r4, #0
    9270:	e1c21114 	bic	r1, r2, r4, lsl r1
    9274:	e5934038 	ldr	r4, [r3, #56]	; 0x38
    9278:	e583c03c 	str	ip, [r3, #60]	; 0x3c
    927c:	e0841011 	add	r1, r4, r1, lsl r0
    9280:	e3a00000 	mov	r0, #0
    9284:	e5831038 	str	r1, [r3, #56]	; 0x38
    9288:	e8bd0010 	pop	{r4}
    928c:	e12fff1e 	bx	lr
    9290:	e3e00001 	mvn	r0, #1
    9294:	eafffffb 	b	9288 <inflatePrime+0x60>

00009298 <inflate>:
    9298:	e92d4ff0 	push	{r4, r5, r6, r7, r8, r9, sl, fp, lr}
    929c:	e250a000 	subs	sl, r0, #0
    92a0:	e24dd04c 	sub	sp, sp, #76	; 0x4c
    92a4:	e58d101c 	str	r1, [sp, #28]
    92a8:	0a00059b 	beq	a91c <inflate+0x1684>
    92ac:	e59a8018 	ldr	r8, [sl, #24]
    92b0:	e3580000 	cmp	r8, #0
    92b4:	0a00017d 	beq	98b0 <inflate+0x618>
    92b8:	e59a400c 	ldr	r4, [sl, #12]
    92bc:	e3540000 	cmp	r4, #0
    92c0:	e58d4010 	str	r4, [sp, #16]
    92c4:	0a000621 	beq	ab50 <inflate+0x18b8>
    92c8:	e59ab000 	ldr	fp, [sl]
    92cc:	e35b0000 	cmp	fp, #0
    92d0:	0a0004c9 	beq	a5fc <inflate+0x1364>
    92d4:	e59ac004 	ldr	ip, [sl, #4]
    92d8:	e58dc018 	str	ip, [sp, #24]
    92dc:	e5983000 	ldr	r3, [r8]
    92e0:	e59a4010 	ldr	r4, [sl, #16]
    92e4:	e59dc01c 	ldr	ip, [sp, #28]
    92e8:	e353000b 	cmp	r3, #11
    92ec:	03a0300c 	moveq	r3, #12
    92f0:	e58d400c 	str	r4, [sp, #12]
    92f4:	e58d4014 	str	r4, [sp, #20]
    92f8:	e24cc005 	sub	ip, ip, #5
    92fc:	e3a04000 	mov	r4, #0
    9300:	e5986038 	ldr	r6, [r8, #56]	; 0x38
    9304:	e598703c 	ldr	r7, [r8, #60]	; 0x3c
    9308:	e59d9018 	ldr	r9, [sp, #24]
    930c:	05883000 	streq	r3, [r8]
    9310:	e58dc024 	str	ip, [sp, #36]	; 0x24
    9314:	e58d4008 	str	r4, [sp, #8]
    9318:	e353001e 	cmp	r3, #30
    931c:	979ff103 	ldrls	pc, [pc, r3, lsl #2]
    9320:	ea000162 	b	98b0 <inflate+0x618>
    9324:	00009e00 	andeq	r9, r0, r0, lsl #28
    9328:	0000a454 	andeq	sl, r0, r4, asr r4
    932c:	000098bc 			; <UNDEFINED> instruction: 0x000098bc
    9330:	0000a104 	andeq	sl, r0, r4, lsl #2
    9334:	00009fd0 	ldrdeq	r9, [r0], -r0
    9338:	0000a048 	andeq	sl, r0, r8, asr #32
    933c:	0000a3b0 			; <UNDEFINED> instruction: 0x0000a3b0
    9340:	00009ee8 	andeq	r9, r0, r8, ror #29
    9344:	00009fc8 	andeq	r9, r0, r8, asr #31
    9348:	000093a0 	andeq	r9, r0, r0, lsr #7
    934c:	00009410 	andeq	r9, r0, r0, lsl r4
    9350:	0000943c 	andeq	r9, r0, ip, lsr r4
    9354:	00009448 	andeq	r9, r0, r8, asr #8
    9358:	0000a500 	andeq	sl, r0, r0, lsl #10
    935c:	0000a298 	muleq	r0, r8, r2
    9360:	0000a30c 	andeq	sl, r0, ip, lsl #6
    9364:	0000a314 	andeq	sl, r0, r4, lsl r3
    9368:	00009af0 	strdeq	r9, [r0], -r0
    936c:	00009be4 	andeq	r9, r0, r4, ror #23
    9370:	00009668 	andeq	r9, r0, r8, ror #12
    9374:	00009670 	andeq	r9, r0, r0, ror r6
    9378:	00009730 	andeq	r9, r0, r0, lsr r7
    937c:	00009750 	andeq	r9, r0, r0, asr r7
    9380:	000094c8 	andeq	r9, r0, r8, asr #9
    9384:	00009544 	andeq	r9, r0, r4, asr #10
    9388:	0000a188 	andeq	sl, r0, r8, lsl #3
    938c:	0000a1b8 			; <UNDEFINED> instruction: 0x0000a1b8
    9390:	00009924 	andeq	r9, r0, r4, lsr #18
    9394:	000099a0 	andeq	r9, r0, r0, lsr #19
    9398:	00009df4 	strdeq	r9, [r0], -r4
    939c:	0000989c 	muleq	r0, ip, r8
    93a0:	e357001f 	cmp	r7, #31
    93a4:	8a00000c 	bhi	93dc <inflate+0x144>
    93a8:	e3590000 	cmp	r9, #0
    93ac:	0a00017d 	beq	99a8 <inflate+0x710>
    93b0:	e1a0300b 	mov	r3, fp
    93b4:	ea000001 	b	93c0 <inflate+0x128>
    93b8:	e3590000 	cmp	r9, #0
    93bc:	0a000179 	beq	99a8 <inflate+0x710>
    93c0:	e4d32001 	ldrb	r2, [r3], #1
    93c4:	e2499001 	sub	r9, r9, #1
    93c8:	e0866712 	add	r6, r6, r2, lsl r7
    93cc:	e2877008 	add	r7, r7, #8
    93d0:	e357001f 	cmp	r7, #31
    93d4:	e1a0b003 	mov	fp, r3
    93d8:	9afffff6 	bls	93b8 <inflate+0x120>
    93dc:	e1a02c26 	lsr	r2, r6, #24
    93e0:	e1a03426 	lsr	r3, r6, #8
    93e4:	e0822c06 	add	r2, r2, r6, lsl #24
    93e8:	e2033cff 	and	r3, r3, #65280	; 0xff00
    93ec:	e0823003 	add	r3, r2, r3
    93f0:	e2066cff 	and	r6, r6, #65280	; 0xff00
    93f4:	e0833406 	add	r3, r3, r6, lsl #8
    93f8:	e3a0200a 	mov	r2, #10
    93fc:	e3a06000 	mov	r6, #0
    9400:	e5883018 	str	r3, [r8, #24]
    9404:	e1a07006 	mov	r7, r6
    9408:	e58a302c 	str	r3, [sl, #44]	; 0x2c
    940c:	e5882000 	str	r2, [r8]
    9410:	e598300c 	ldr	r3, [r8, #12]
    9414:	e3530000 	cmp	r3, #0
    9418:	0a0005f0 	beq	abe0 <inflate+0x1948>
    941c:	e3a00000 	mov	r0, #0
    9420:	e1a01000 	mov	r1, r0
    9424:	e1a02000 	mov	r2, r0
    9428:	eb000892 	bl	b678 <adler32>
    942c:	e3a0300b 	mov	r3, #11
    9430:	e5880018 	str	r0, [r8, #24]
    9434:	e58a002c 	str	r0, [sl, #44]	; 0x2c
    9438:	e5883000 	str	r3, [r8]
    943c:	e59d4024 	ldr	r4, [sp, #36]	; 0x24
    9440:	e3540001 	cmp	r4, #1
    9444:	9a000157 	bls	99a8 <inflate+0x710>
    9448:	e5983004 	ldr	r3, [r8, #4]
    944c:	e3530000 	cmp	r3, #0
    9450:	1a000016 	bne	94b0 <inflate+0x218>
    9454:	e3570002 	cmp	r7, #2
    9458:	8a000005 	bhi	9474 <inflate+0x1dc>
    945c:	e3590000 	cmp	r9, #0
    9460:	0a000150 	beq	99a8 <inflate+0x710>
    9464:	e4db3001 	ldrb	r3, [fp], #1
    9468:	e2499001 	sub	r9, r9, #1
    946c:	e0866713 	add	r6, r6, r3, lsl r7
    9470:	e2877008 	add	r7, r7, #8
    9474:	e1a020a6 	lsr	r2, r6, #1
    9478:	e2023003 	and	r3, r2, #3
    947c:	e2061001 	and	r1, r6, #1
    9480:	e3530002 	cmp	r3, #2
    9484:	e5881004 	str	r1, [r8, #4]
    9488:	0a0004e2 	beq	a818 <inflate+0x1580>
    948c:	e3530003 	cmp	r3, #3
    9490:	0a000568 	beq	aa38 <inflate+0x17a0>
    9494:	e3530001 	cmp	r3, #1
    9498:	0a000556 	beq	a9f8 <inflate+0x1760>
    949c:	e3a0300d 	mov	r3, #13
    94a0:	e5883000 	str	r3, [r8]
    94a4:	e1a06122 	lsr	r6, r2, #2
    94a8:	e2477003 	sub	r7, r7, #3
    94ac:	eaffff99 	b	9318 <inflate+0x80>
    94b0:	e2072007 	and	r2, r7, #7
    94b4:	e3a0301a 	mov	r3, #26
    94b8:	e1a06236 	lsr	r6, r6, r2
    94bc:	e3c77007 	bic	r7, r7, #7
    94c0:	e5883000 	str	r3, [r8]
    94c4:	eaffff93 	b	9318 <inflate+0x80>
    94c8:	e5981048 	ldr	r1, [r8, #72]	; 0x48
    94cc:	e3510000 	cmp	r1, #0
    94d0:	0a000019 	beq	953c <inflate+0x2a4>
    94d4:	e1570001 	cmp	r7, r1
    94d8:	2a00000c 	bcs	9510 <inflate+0x278>
    94dc:	e3590000 	cmp	r9, #0
    94e0:	0a000130 	beq	99a8 <inflate+0x710>
    94e4:	e1a0300b 	mov	r3, fp
    94e8:	ea000001 	b	94f4 <inflate+0x25c>
    94ec:	e3590000 	cmp	r9, #0
    94f0:	0a00012c 	beq	99a8 <inflate+0x710>
    94f4:	e4d32001 	ldrb	r2, [r3], #1
    94f8:	e2499001 	sub	r9, r9, #1
    94fc:	e0866712 	add	r6, r6, r2, lsl r7
    9500:	e2877008 	add	r7, r7, #8
    9504:	e1570001 	cmp	r7, r1
    9508:	e1a0b003 	mov	fp, r3
    950c:	3afffff6 	bcc	94ec <inflate+0x254>
    9510:	e3e00000 	mvn	r0, #0
    9514:	e1c60110 	bic	r0, r6, r0, lsl r1
    9518:	e1a06136 	lsr	r6, r6, r1
    951c:	e59f3fb4 	ldr	r3, [pc, #4020]	; a4d8 <inflate+0x1240>
    9520:	e598c044 	ldr	ip, [r8, #68]	; 0x44
    9524:	e7982003 	ldr	r2, [r8, r3]
    9528:	e08c0000 	add	r0, ip, r0
    952c:	e0812002 	add	r2, r1, r2
    9530:	e0617007 	rsb	r7, r1, r7
    9534:	e5880044 	str	r0, [r8, #68]	; 0x44
    9538:	e7882003 	str	r2, [r8, r3]
    953c:	e3a03018 	mov	r3, #24
    9540:	e5883000 	str	r3, [r8]
    9544:	e59dc00c 	ldr	ip, [sp, #12]
    9548:	e35c0000 	cmp	ip, #0
    954c:	0a000115 	beq	99a8 <inflate+0x710>
    9550:	e59d4014 	ldr	r4, [sp, #20]
    9554:	e1a0100c 	mov	r1, ip
    9558:	e598c044 	ldr	ip, [r8, #68]	; 0x44
    955c:	e0610004 	rsb	r0, r1, r4
    9560:	e150000c 	cmp	r0, ip
    9564:	2a00042e 	bcs	a624 <inflate+0x138c>
    9568:	e598302c 	ldr	r3, [r8, #44]	; 0x2c
    956c:	e060000c 	rsb	r0, r0, ip
    9570:	e1500003 	cmp	r0, r3
    9574:	9a000003 	bls	9588 <inflate+0x2f0>
    9578:	e3a03d6f 	mov	r3, #7104	; 0x1bc0
    957c:	e7983003 	ldr	r3, [r8, r3]
    9580:	e3530000 	cmp	r3, #0
    9584:	1a00028c 	bne	9fbc <inflate+0xd24>
    9588:	e5983030 	ldr	r3, [r8, #48]	; 0x30
    958c:	e59d4010 	ldr	r4, [sp, #16]
    9590:	e1500003 	cmp	r0, r3
    9594:	85982028 	ldrhi	r2, [r8, #40]	; 0x28
    9598:	80630000 	rsbhi	r0, r3, r0
    959c:	80603002 	rsbhi	r3, r0, r2
    95a0:	8598c034 	ldrhi	ip, [r8, #52]	; 0x34
    95a4:	9598c034 	ldrls	ip, [r8, #52]	; 0x34
    95a8:	e5982040 	ldr	r2, [r8, #64]	; 0x40
    95ac:	90603003 	rsbls	r3, r0, r3
    95b0:	e08cc003 	add	ip, ip, r3
    95b4:	e1500002 	cmp	r0, r2
    95b8:	21a00002 	movcs	r0, r2
    95bc:	ea00041c 	b	a634 <inflate+0x139c>
    95c0:	e3a03e27 	mov	r3, #624	; 0x270
    95c4:	e19830b3 	ldrh	r3, [r8, r3]
    95c8:	e3530000 	cmp	r3, #0
    95cc:	0a00027a 	beq	9fbc <inflate+0xd24>
    95d0:	e2883e53 	add	r3, r8, #1328	; 0x530
    95d4:	e3a00009 	mov	r0, #9
    95d8:	e2881054 	add	r1, r8, #84	; 0x54
    95dc:	e288406c 	add	r4, r8, #108	; 0x6c
    95e0:	e2885e2f 	add	r5, r8, #752	; 0x2f0
    95e4:	e588306c 	str	r3, [r8, #108]	; 0x6c
    95e8:	e588304c 	str	r3, [r8, #76]	; 0x4c
    95ec:	e5880054 	str	r0, [r8, #84]	; 0x54
    95f0:	e59d2028 	ldr	r2, [sp, #40]	; 0x28
    95f4:	e88d0022 	stm	sp, {r1, r5}
    95f8:	e1a03004 	mov	r3, r4
    95fc:	e3a00001 	mov	r0, #1
    9600:	e2881070 	add	r1, r8, #112	; 0x70
    9604:	eb000bd0 	bl	c54c <inflate_table>
    9608:	e3500000 	cmp	r0, #0
    960c:	e58d0008 	str	r0, [sp, #8]
    9610:	1a000269 	bne	9fbc <inflate+0xd24>
    9614:	e598306c 	ldr	r3, [r8, #108]	; 0x6c
    9618:	e3a02006 	mov	r2, #6
    961c:	e5883050 	str	r3, [r8, #80]	; 0x50
    9620:	e2883058 	add	r3, r8, #88	; 0x58
    9624:	e5981060 	ldr	r1, [r8, #96]	; 0x60
    9628:	e5882058 	str	r2, [r8, #88]	; 0x58
    962c:	e88d0028 	stm	sp, {r3, r5}
    9630:	e2811038 	add	r1, r1, #56	; 0x38
    9634:	e1a03004 	mov	r3, r4
    9638:	e0881081 	add	r1, r8, r1, lsl #1
    963c:	e5982064 	ldr	r2, [r8, #100]	; 0x64
    9640:	e3a00002 	mov	r0, #2
    9644:	eb000bc0 	bl	c54c <inflate_table>
    9648:	e3500000 	cmp	r0, #0
    964c:	e58d0008 	str	r0, [sp, #8]
    9650:	1a000259 	bne	9fbc <inflate+0xd24>
    9654:	e59d401c 	ldr	r4, [sp, #28]
    9658:	e3a03013 	mov	r3, #19
    965c:	e3540006 	cmp	r4, #6
    9660:	e5883000 	str	r3, [r8]
    9664:	0a0000cf 	beq	99a8 <inflate+0x710>
    9668:	e3a03014 	mov	r3, #20
    966c:	e5883000 	str	r3, [r8]
    9670:	e59f3e64 	ldr	r3, [pc, #3684]	; a4dc <inflate+0x1244>
    9674:	e59dc00c 	ldr	ip, [sp, #12]
    9678:	e3590005 	cmp	r9, #5
    967c:	815c0003 	cmphi	ip, r3
    9680:	93a03000 	movls	r3, #0
    9684:	83a03001 	movhi	r3, #1
    9688:	8a00046b 	bhi	a83c <inflate+0x15a4>
    968c:	e5982054 	ldr	r2, [r8, #84]	; 0x54
    9690:	e3e04000 	mvn	r4, #0
    9694:	e1e04214 	mvn	r4, r4, lsl r2
    9698:	e59fce38 	ldr	ip, [pc, #3640]	; a4d8 <inflate+0x1240>
    969c:	e598204c 	ldr	r2, [r8, #76]	; 0x4c
    96a0:	e0061004 	and	r1, r6, r4
    96a4:	e0820101 	add	r0, r2, r1, lsl #2
    96a8:	e788300c 	str	r3, [r8, ip]
    96ac:	e5d03001 	ldrb	r3, [r0, #1]
    96b0:	e7d21101 	ldrb	r1, [r2, r1, lsl #2]
    96b4:	e1570003 	cmp	r7, r3
    96b8:	e1d000b2 	ldrh	r0, [r0, #2]
    96bc:	2a000011 	bcs	9708 <inflate+0x470>
    96c0:	e3590000 	cmp	r9, #0
    96c4:	0a0000b7 	beq	99a8 <inflate+0x710>
    96c8:	e1a0c00b 	mov	ip, fp
    96cc:	ea000001 	b	96d8 <inflate+0x440>
    96d0:	e3590000 	cmp	r9, #0
    96d4:	0a0000b3 	beq	99a8 <inflate+0x710>
    96d8:	e4dc3001 	ldrb	r3, [ip], #1
    96dc:	e2499001 	sub	r9, r9, #1
    96e0:	e0866713 	add	r6, r6, r3, lsl r7
    96e4:	e0061004 	and	r1, r6, r4
    96e8:	e0820101 	add	r0, r2, r1, lsl #2
    96ec:	e5d03001 	ldrb	r3, [r0, #1]
    96f0:	e2877008 	add	r7, r7, #8
    96f4:	e1530007 	cmp	r3, r7
    96f8:	e7d21101 	ldrb	r1, [r2, r1, lsl #2]
    96fc:	e1d000b2 	ldrh	r0, [r0, #2]
    9700:	e1a0b00c 	mov	fp, ip
    9704:	8afffff1 	bhi	96d0 <inflate+0x438>
    9708:	e3510000 	cmp	r1, #0
    970c:	1a000468 	bne	a8b4 <inflate+0x161c>
    9710:	e1a06336 	lsr	r6, r6, r3
    9714:	e59f2dbc 	ldr	r2, [pc, #3516]	; a4d8 <inflate+0x1240>
    9718:	e0637007 	rsb	r7, r3, r7
    971c:	e5880040 	str	r0, [r8, #64]	; 0x40
    9720:	e7883002 	str	r3, [r8, r2]
    9724:	e3a03019 	mov	r3, #25
    9728:	e5883000 	str	r3, [r8]
    972c:	eafffef9 	b	9318 <inflate+0x80>
    9730:	e5981048 	ldr	r1, [r8, #72]	; 0x48
    9734:	e3510000 	cmp	r1, #0
    9738:	1a0003f9 	bne	a724 <inflate+0x148c>
    973c:	e5983040 	ldr	r3, [r8, #64]	; 0x40
    9740:	e59f1d98 	ldr	r1, [pc, #3480]	; a4e0 <inflate+0x1248>
    9744:	e3a02016 	mov	r2, #22
    9748:	e7883001 	str	r3, [r8, r1]
    974c:	e5882000 	str	r2, [r8]
    9750:	e5983058 	ldr	r3, [r8, #88]	; 0x58
    9754:	e3e05000 	mvn	r5, #0
    9758:	e1e05315 	mvn	r5, r5, lsl r3
    975c:	e5982050 	ldr	r2, [r8, #80]	; 0x50
    9760:	e0061005 	and	r1, r6, r5
    9764:	e0820101 	add	r0, r2, r1, lsl #2
    9768:	e5d03001 	ldrb	r3, [r0, #1]
    976c:	e7d21101 	ldrb	r1, [r2, r1, lsl #2]
    9770:	e1570003 	cmp	r7, r3
    9774:	e1d000b2 	ldrh	r0, [r0, #2]
    9778:	e1a0c003 	mov	ip, r3
    977c:	2a000012 	bcs	97cc <inflate+0x534>
    9780:	e3590000 	cmp	r9, #0
    9784:	0a000087 	beq	99a8 <inflate+0x710>
    9788:	e1a0400b 	mov	r4, fp
    978c:	ea000001 	b	9798 <inflate+0x500>
    9790:	e3590000 	cmp	r9, #0
    9794:	0a000083 	beq	99a8 <inflate+0x710>
    9798:	e4d43001 	ldrb	r3, [r4], #1
    979c:	e2499001 	sub	r9, r9, #1
    97a0:	e0866713 	add	r6, r6, r3, lsl r7
    97a4:	e0061005 	and	r1, r6, r5
    97a8:	e0820101 	add	r0, r2, r1, lsl #2
    97ac:	e5d03001 	ldrb	r3, [r0, #1]
    97b0:	e2877008 	add	r7, r7, #8
    97b4:	e1530007 	cmp	r3, r7
    97b8:	e7d21101 	ldrb	r1, [r2, r1, lsl #2]
    97bc:	e1d000b2 	ldrh	r0, [r0, #2]
    97c0:	e1a0c003 	mov	ip, r3
    97c4:	e1a0b004 	mov	fp, r4
    97c8:	8afffff0 	bhi	9790 <inflate+0x4f8>
    97cc:	e31100f0 	tst	r1, #240	; 0xf0
    97d0:	1a0003f9 	bne	a7bc <inflate+0x1524>
    97d4:	e1a05003 	mov	r5, r3
    97d8:	e0831001 	add	r1, r3, r1
    97dc:	e3e03000 	mvn	r3, #0
    97e0:	e1e03113 	mvn	r3, r3, lsl r1
    97e4:	e0031006 	and	r1, r3, r6
    97e8:	e0801531 	add	r1, r0, r1, lsr r5
    97ec:	e58d0020 	str	r0, [sp, #32]
    97f0:	e0820101 	add	r0, r2, r1, lsl #2
    97f4:	e58d3028 	str	r3, [sp, #40]	; 0x28
    97f8:	e5d03001 	ldrb	r3, [r0, #1]
    97fc:	e7d21101 	ldrb	r1, [r2, r1, lsl #2]
    9800:	e0854003 	add	r4, r5, r3
    9804:	e1570004 	cmp	r7, r4
    9808:	e1d000b2 	ldrh	r0, [r0, #2]
    980c:	2a00001a 	bcs	987c <inflate+0x5e4>
    9810:	e3590000 	cmp	r9, #0
    9814:	0a000063 	beq	99a8 <inflate+0x710>
    9818:	e1a0400b 	mov	r4, fp
    981c:	e58d8030 	str	r8, [sp, #48]	; 0x30
    9820:	e58dc02c 	str	ip, [sp, #44]	; 0x2c
    9824:	e59d8020 	ldr	r8, [sp, #32]
    9828:	e59db028 	ldr	fp, [sp, #40]	; 0x28
    982c:	ea000001 	b	9838 <inflate+0x5a0>
    9830:	e3590000 	cmp	r9, #0
    9834:	0a00043b 	beq	a928 <inflate+0x1690>
    9838:	e4d43001 	ldrb	r3, [r4], #1
    983c:	e2499001 	sub	r9, r9, #1
    9840:	e0866713 	add	r6, r6, r3, lsl r7
    9844:	e006100b 	and	r1, r6, fp
    9848:	e0881531 	add	r1, r8, r1, lsr r5
    984c:	e0820101 	add	r0, r2, r1, lsl #2
    9850:	e5d03001 	ldrb	r3, [r0, #1]
    9854:	e2877008 	add	r7, r7, #8
    9858:	e083c005 	add	ip, r3, r5
    985c:	e15c0007 	cmp	ip, r7
    9860:	e7d21101 	ldrb	r1, [r2, r1, lsl #2]
    9864:	e1d000b2 	ldrh	r0, [r0, #2]
    9868:	e1a0c004 	mov	ip, r4
    986c:	8affffef 	bhi	9830 <inflate+0x598>
    9870:	e59d8030 	ldr	r8, [sp, #48]	; 0x30
    9874:	e59dc02c 	ldr	ip, [sp, #44]	; 0x2c
    9878:	e1a0b004 	mov	fp, r4
    987c:	e59f2c54 	ldr	r2, [pc, #3156]	; a4d8 <inflate+0x1240>
    9880:	e1a06536 	lsr	r6, r6, r5
    9884:	e7982002 	ldr	r2, [r8, r2]
    9888:	e06c7007 	rsb	r7, ip, r7
    988c:	e0855002 	add	r5, r5, r2
    9890:	ea0003cb 	b	a7c4 <inflate+0x152c>
    9894:	e3a0301e 	mov	r3, #30
    9898:	e5883000 	str	r3, [r8]
    989c:	e3e0c003 	mvn	ip, #3
    98a0:	e58dc008 	str	ip, [sp, #8]
    98a4:	e59d0008 	ldr	r0, [sp, #8]
    98a8:	e28dd04c 	add	sp, sp, #76	; 0x4c
    98ac:	e8bd8ff0 	pop	{r4, r5, r6, r7, r8, r9, sl, fp, pc}
    98b0:	e3e04001 	mvn	r4, #1
    98b4:	e58d4008 	str	r4, [sp, #8]
    98b8:	eafffff9 	b	98a4 <inflate+0x60c>
    98bc:	e357001f 	cmp	r7, #31
    98c0:	8a00000c 	bhi	98f8 <inflate+0x660>
    98c4:	e3590000 	cmp	r9, #0
    98c8:	0a000036 	beq	99a8 <inflate+0x710>
    98cc:	e1a0300b 	mov	r3, fp
    98d0:	ea000001 	b	98dc <inflate+0x644>
    98d4:	e3590000 	cmp	r9, #0
    98d8:	0a000032 	beq	99a8 <inflate+0x710>
    98dc:	e4d32001 	ldrb	r2, [r3], #1
    98e0:	e2499001 	sub	r9, r9, #1
    98e4:	e0866712 	add	r6, r6, r2, lsl r7
    98e8:	e2877008 	add	r7, r7, #8
    98ec:	e357001f 	cmp	r7, #31
    98f0:	e1a0b003 	mov	fp, r3
    98f4:	9afffff6 	bls	98d4 <inflate+0x63c>
    98f8:	e5983020 	ldr	r3, [r8, #32]
    98fc:	e3530000 	cmp	r3, #0
    9900:	15836004 	strne	r6, [r3, #4]
    9904:	e5983010 	ldr	r3, [r8, #16]
    9908:	e3130c02 	tst	r3, #512	; 0x200
    990c:	1a000459 	bne	aa78 <inflate+0x17e0>
    9910:	e3a03003 	mov	r3, #3
    9914:	e3a07000 	mov	r7, #0
    9918:	e5883000 	str	r3, [r8]
    991c:	e1a06007 	mov	r6, r7
    9920:	ea0001f9 	b	a10c <inflate+0xe74>
    9924:	e5983008 	ldr	r3, [r8, #8]
    9928:	e3530000 	cmp	r3, #0
    992c:	0a000016 	beq	998c <inflate+0x6f4>
    9930:	e5983010 	ldr	r3, [r8, #16]
    9934:	e3530000 	cmp	r3, #0
    9938:	0a000013 	beq	998c <inflate+0x6f4>
    993c:	e357001f 	cmp	r7, #31
    9940:	8a00000c 	bhi	9978 <inflate+0x6e0>
    9944:	e3590000 	cmp	r9, #0
    9948:	0a000016 	beq	99a8 <inflate+0x710>
    994c:	e1a0300b 	mov	r3, fp
    9950:	ea000001 	b	995c <inflate+0x6c4>
    9954:	e3590000 	cmp	r9, #0
    9958:	0a000012 	beq	99a8 <inflate+0x710>
    995c:	e4d32001 	ldrb	r2, [r3], #1
    9960:	e2499001 	sub	r9, r9, #1
    9964:	e0866712 	add	r6, r6, r2, lsl r7
    9968:	e2877008 	add	r7, r7, #8
    996c:	e357001f 	cmp	r7, #31
    9970:	e1a0b003 	mov	fp, r3
    9974:	9afffff6 	bls	9954 <inflate+0x6bc>
    9978:	e598301c 	ldr	r3, [r8, #28]
    997c:	e1530006 	cmp	r3, r6
    9980:	1a00018d 	bne	9fbc <inflate+0xd24>
    9984:	e3a07000 	mov	r7, #0
    9988:	e1a06007 	mov	r6, r7
    998c:	e3a0301c 	mov	r3, #28
    9990:	e3a0c001 	mov	ip, #1
    9994:	e5883000 	str	r3, [r8]
    9998:	e58dc008 	str	ip, [sp, #8]
    999c:	ea000001 	b	99a8 <inflate+0x710>
    99a0:	e3a04001 	mov	r4, #1
    99a4:	e58d4008 	str	r4, [sp, #8]
    99a8:	e5983028 	ldr	r3, [r8, #40]	; 0x28
    99ac:	e59dc010 	ldr	ip, [sp, #16]
    99b0:	e59d400c 	ldr	r4, [sp, #12]
    99b4:	e3530000 	cmp	r3, #0
    99b8:	e58ac00c 	str	ip, [sl, #12]
    99bc:	e58a4010 	str	r4, [sl, #16]
    99c0:	e58ab000 	str	fp, [sl]
    99c4:	e58a9004 	str	r9, [sl, #4]
    99c8:	e5886038 	str	r6, [r8, #56]	; 0x38
    99cc:	e588703c 	str	r7, [r8, #60]	; 0x3c
    99d0:	1a00000a 	bne	9a00 <inflate+0x768>
    99d4:	e59dc014 	ldr	ip, [sp, #20]
    99d8:	e154000c 	cmp	r4, ip
    99dc:	0a00000c 	beq	9a14 <inflate+0x77c>
    99e0:	e5983000 	ldr	r3, [r8]
    99e4:	e353001c 	cmp	r3, #28
    99e8:	8a000009 	bhi	9a14 <inflate+0x77c>
    99ec:	e3530019 	cmp	r3, #25
    99f0:	9a000002 	bls	9a00 <inflate+0x768>
    99f4:	e59d401c 	ldr	r4, [sp, #28]
    99f8:	e3540004 	cmp	r4, #4
    99fc:	0a000004 	beq	9a14 <inflate+0x77c>
    9a00:	e1a0000a 	mov	r0, sl
    9a04:	e59d1014 	ldr	r1, [sp, #20]
    9a08:	ebfffcaf 	bl	8ccc <updatewindow>
    9a0c:	e3500000 	cmp	r0, #0
    9a10:	1affff9f 	bne	9894 <inflate+0x5fc>
    9a14:	e59a5004 	ldr	r5, [sl, #4]
    9a18:	e59dc018 	ldr	ip, [sp, #24]
    9a1c:	e59a4010 	ldr	r4, [sl, #16]
    9a20:	e065500c 	rsb	r5, r5, ip
    9a24:	e59dc014 	ldr	ip, [sp, #20]
    9a28:	e598301c 	ldr	r3, [r8, #28]
    9a2c:	e59a1008 	ldr	r1, [sl, #8]
    9a30:	e59a2014 	ldr	r2, [sl, #20]
    9a34:	e5980008 	ldr	r0, [r8, #8]
    9a38:	e064400c 	rsb	r4, r4, ip
    9a3c:	e0811005 	add	r1, r1, r5
    9a40:	e0822004 	add	r2, r2, r4
    9a44:	e0833004 	add	r3, r3, r4
    9a48:	e3500000 	cmp	r0, #0
    9a4c:	e58a1008 	str	r1, [sl, #8]
    9a50:	e58a2014 	str	r2, [sl, #20]
    9a54:	e588301c 	str	r3, [r8, #28]
    9a58:	0a00000b 	beq	9a8c <inflate+0x7f4>
    9a5c:	e3540000 	cmp	r4, #0
    9a60:	0a000009 	beq	9a8c <inflate+0x7f4>
    9a64:	e5983010 	ldr	r3, [r8, #16]
    9a68:	e59a100c 	ldr	r1, [sl, #12]
    9a6c:	e3530000 	cmp	r3, #0
    9a70:	e5980018 	ldr	r0, [r8, #24]
    9a74:	e0641001 	rsb	r1, r4, r1
    9a78:	e1a02004 	mov	r2, r4
    9a7c:	0a0002e3 	beq	a610 <inflate+0x1378>
    9a80:	eb0006af 	bl	b544 <crc32>
    9a84:	e5880018 	str	r0, [r8, #24]
    9a88:	e58a002c 	str	r0, [sl, #44]	; 0x2c
    9a8c:	e5982004 	ldr	r2, [r8, #4]
    9a90:	e5983000 	ldr	r3, [r8]
    9a94:	e3520000 	cmp	r2, #0
    9a98:	e598103c 	ldr	r1, [r8, #60]	; 0x3c
    9a9c:	13a02040 	movne	r2, #64	; 0x40
    9aa0:	03a02000 	moveq	r2, #0
    9aa4:	e353000b 	cmp	r3, #11
    9aa8:	e0822001 	add	r2, r2, r1
    9aac:	0a0002bc 	beq	a5a4 <inflate+0x130c>
    9ab0:	e3530013 	cmp	r3, #19
    9ab4:	1353000e 	cmpne	r3, #14
    9ab8:	03a03c01 	moveq	r3, #256	; 0x100
    9abc:	1a0002b9 	bne	a5a8 <inflate+0x1310>
    9ac0:	e0822003 	add	r2, r2, r3
    9ac4:	e1944005 	orrs	r4, r4, r5
    9ac8:	e58a2028 	str	r2, [sl, #40]	; 0x28
    9acc:	0a000002 	beq	9adc <inflate+0x844>
    9ad0:	e59d401c 	ldr	r4, [sp, #28]
    9ad4:	e3540004 	cmp	r4, #4
    9ad8:	1affff71 	bne	98a4 <inflate+0x60c>
    9adc:	e59dc008 	ldr	ip, [sp, #8]
    9ae0:	e35c0000 	cmp	ip, #0
    9ae4:	03e0c004 	mvneq	ip, #4
    9ae8:	e58dc008 	str	ip, [sp, #8]
    9aec:	eaffff6c 	b	98a4 <inflate+0x60c>
    9af0:	e598205c 	ldr	r2, [r8, #92]	; 0x5c
    9af4:	e5983068 	ldr	r3, [r8, #104]	; 0x68
    9af8:	e1520003 	cmp	r2, r3
    9afc:	9a000014 	bls	9b54 <inflate+0x8bc>
    9b00:	e59f19dc 	ldr	r1, [pc, #2524]	; a4e4 <inflate+0x124c>
    9b04:	e2430001 	sub	r0, r3, #1
    9b08:	e0810080 	add	r0, r1, r0, lsl #1
    9b0c:	e3570002 	cmp	r7, #2
    9b10:	8a000005 	bhi	9b2c <inflate+0x894>
    9b14:	e3590000 	cmp	r9, #0
    9b18:	0affffa2 	beq	99a8 <inflate+0x710>
    9b1c:	e4db1001 	ldrb	r1, [fp], #1
    9b20:	e2499001 	sub	r9, r9, #1
    9b24:	e0866711 	add	r6, r6, r1, lsl r7
    9b28:	e2877008 	add	r7, r7, #8
    9b2c:	e1f010b2 	ldrh	r1, [r0, #2]!
    9b30:	e2833001 	add	r3, r3, #1
    9b34:	e206c007 	and	ip, r6, #7
    9b38:	e0881081 	add	r1, r8, r1, lsl #1
    9b3c:	e1530002 	cmp	r3, r2
    9b40:	e2477003 	sub	r7, r7, #3
    9b44:	e5883068 	str	r3, [r8, #104]	; 0x68
    9b48:	e1c1c7b0 	strh	ip, [r1, #112]	; 0x70
    9b4c:	e1a061a6 	lsr	r6, r6, #3
    9b50:	3affffed 	bcc	9b0c <inflate+0x874>
    9b54:	e3530012 	cmp	r3, #18
    9b58:	8a00000c 	bhi	9b90 <inflate+0x8f8>
    9b5c:	e59f2980 	ldr	r2, [pc, #2432]	; a4e4 <inflate+0x124c>
    9b60:	e2433001 	sub	r3, r3, #1
    9b64:	e0823083 	add	r3, r2, r3, lsl #1
    9b68:	e3a01000 	mov	r1, #0
    9b6c:	e1f320b2 	ldrh	r2, [r3, #2]!
    9b70:	e59f4970 	ldr	r4, [pc, #2416]	; a4e8 <inflate+0x1250>
    9b74:	e2822038 	add	r2, r2, #56	; 0x38
    9b78:	e1a02082 	lsl	r2, r2, #1
    9b7c:	e1530004 	cmp	r3, r4
    9b80:	e18810b2 	strh	r1, [r8, r2]
    9b84:	1afffff8 	bne	9b6c <inflate+0x8d4>
    9b88:	e3a03013 	mov	r3, #19
    9b8c:	e5883068 	str	r3, [r8, #104]	; 0x68
    9b90:	e2883e53 	add	r3, r8, #1328	; 0x530
    9b94:	e3a00007 	mov	r0, #7
    9b98:	e2881054 	add	r1, r8, #84	; 0x54
    9b9c:	e2882e2f 	add	r2, r8, #752	; 0x2f0
    9ba0:	e588306c 	str	r3, [r8, #108]	; 0x6c
    9ba4:	e588304c 	str	r3, [r8, #76]	; 0x4c
    9ba8:	e5880054 	str	r0, [r8, #84]	; 0x54
    9bac:	e288306c 	add	r3, r8, #108	; 0x6c
    9bb0:	e88d0006 	stm	sp, {r1, r2}
    9bb4:	e3a00000 	mov	r0, #0
    9bb8:	e2881070 	add	r1, r8, #112	; 0x70
    9bbc:	e3a02013 	mov	r2, #19
    9bc0:	eb000a61 	bl	c54c <inflate_table>
    9bc4:	e3500000 	cmp	r0, #0
    9bc8:	e58d0008 	str	r0, [sp, #8]
    9bcc:	1a0000fa 	bne	9fbc <inflate+0xd24>
    9bd0:	e3a03012 	mov	r3, #18
    9bd4:	e5880068 	str	r0, [r8, #104]	; 0x68
    9bd8:	e5883000 	str	r3, [r8]
    9bdc:	e1a05000 	mov	r5, r0
    9be0:	ea000000 	b	9be8 <inflate+0x950>
    9be4:	e5985068 	ldr	r5, [r8, #104]	; 0x68
    9be8:	e5980060 	ldr	r0, [r8, #96]	; 0x60
    9bec:	e5983064 	ldr	r3, [r8, #100]	; 0x64
    9bf0:	e2881070 	add	r1, r8, #112	; 0x70
    9bf4:	e0833000 	add	r3, r3, r0
    9bf8:	e58d1030 	str	r1, [sp, #48]	; 0x30
    9bfc:	e58d0028 	str	r0, [sp, #40]	; 0x28
    9c00:	e58d3020 	str	r3, [sp, #32]
    9c04:	e1a01003 	mov	r1, r3
    9c08:	e1550001 	cmp	r5, r1
    9c0c:	2afffe6b 	bcs	95c0 <inflate+0x328>
    9c10:	e598c054 	ldr	ip, [r8, #84]	; 0x54
    9c14:	e3a02001 	mov	r2, #1
    9c18:	e1a0cc12 	lsl	ip, r2, ip
    9c1c:	e598004c 	ldr	r0, [r8, #76]	; 0x4c
    9c20:	e24cc001 	sub	ip, ip, #1
    9c24:	e006300c 	and	r3, r6, ip
    9c28:	e0803103 	add	r3, r0, r3, lsl #2
    9c2c:	e5d31001 	ldrb	r1, [r3, #1]
    9c30:	e1d320b2 	ldrh	r2, [r3, #2]
    9c34:	e1570001 	cmp	r7, r1
    9c38:	2a000010 	bcs	9c80 <inflate+0x9e8>
    9c3c:	e3590000 	cmp	r9, #0
    9c40:	0affff58 	beq	99a8 <inflate+0x710>
    9c44:	e1a0300b 	mov	r3, fp
    9c48:	ea000001 	b	9c54 <inflate+0x9bc>
    9c4c:	e3590000 	cmp	r9, #0
    9c50:	0affff54 	beq	99a8 <inflate+0x710>
    9c54:	e4d32001 	ldrb	r2, [r3], #1
    9c58:	e2499001 	sub	r9, r9, #1
    9c5c:	e0866712 	add	r6, r6, r2, lsl r7
    9c60:	e006200c 	and	r2, r6, ip
    9c64:	e0802102 	add	r2, r0, r2, lsl #2
    9c68:	e5d21001 	ldrb	r1, [r2, #1]
    9c6c:	e2877008 	add	r7, r7, #8
    9c70:	e1510007 	cmp	r1, r7
    9c74:	e1d220b2 	ldrh	r2, [r2, #2]
    9c78:	e1a0b003 	mov	fp, r3
    9c7c:	8afffff2 	bhi	9c4c <inflate+0x9b4>
    9c80:	e352000f 	cmp	r2, #15
    9c84:	9a0002db 	bls	a7f8 <inflate+0x1560>
    9c88:	e3520010 	cmp	r2, #16
    9c8c:	0a000393 	beq	aae0 <inflate+0x1848>
    9c90:	e3520011 	cmp	r2, #17
    9c94:	0a0003b0 	beq	ab5c <inflate+0x18c4>
    9c98:	e2810007 	add	r0, r1, #7
    9c9c:	e1570000 	cmp	r7, r0
    9ca0:	2a00000c 	bcs	9cd8 <inflate+0xa40>
    9ca4:	e3590000 	cmp	r9, #0
    9ca8:	0affff3e 	beq	99a8 <inflate+0x710>
    9cac:	e1a0300b 	mov	r3, fp
    9cb0:	ea000001 	b	9cbc <inflate+0xa24>
    9cb4:	e3590000 	cmp	r9, #0
    9cb8:	0affff3a 	beq	99a8 <inflate+0x710>
    9cbc:	e4d32001 	ldrb	r2, [r3], #1
    9cc0:	e2499001 	sub	r9, r9, #1
    9cc4:	e0866712 	add	r6, r6, r2, lsl r7
    9cc8:	e2877008 	add	r7, r7, #8
    9ccc:	e1570000 	cmp	r7, r0
    9cd0:	e1a0b003 	mov	fp, r3
    9cd4:	3afffff6 	bcc	9cb4 <inflate+0xa1c>
    9cd8:	e1a06136 	lsr	r6, r6, r1
    9cdc:	e3e03006 	mvn	r3, #6
    9ce0:	e206207f 	and	r2, r6, #127	; 0x7f
    9ce4:	e0613003 	rsb	r3, r1, r3
    9ce8:	e282200b 	add	r2, r2, #11
    9cec:	e58d202c 	str	r2, [sp, #44]	; 0x2c
    9cf0:	e1a063a6 	lsr	r6, r6, #7
    9cf4:	e0877003 	add	r7, r7, r3
    9cf8:	e3a00000 	mov	r0, #0
    9cfc:	e59d3020 	ldr	r3, [sp, #32]
    9d00:	e0822005 	add	r2, r2, r5
    9d04:	e1520003 	cmp	r2, r3
    9d08:	e58d2034 	str	r2, [sp, #52]	; 0x34
    9d0c:	8a0003e9 	bhi	acb8 <inflate+0x1a20>
    9d10:	e2854038 	add	r4, r5, #56	; 0x38
    9d14:	e0882084 	add	r2, r8, r4, lsl #1
    9d18:	e59dc02c 	ldr	ip, [sp, #44]	; 0x2c
    9d1c:	e2122002 	ands	r2, r2, #2
    9d20:	13e02000 	mvnne	r2, #0
    9d24:	e2022001 	and	r2, r2, #1
    9d28:	e15c0002 	cmp	ip, r2
    9d2c:	31a0200c 	movcc	r2, ip
    9d30:	e3120001 	tst	r2, #1
    9d34:	e24c1001 	sub	r1, ip, #1
    9d38:	1285c037 	addne	ip, r5, #55	; 0x37
    9d3c:	e58d4038 	str	r4, [sp, #56]	; 0x38
    9d40:	e6ff0070 	uxth	r0, r0
    9d44:	1088c08c 	addne	ip, r8, ip, lsl #1
    9d48:	11a03005 	movne	r3, r5
    9d4c:	0a0003e0 	beq	acd4 <inflate+0x1a3c>
    9d50:	e2833001 	add	r3, r3, #1
    9d54:	e0654003 	rsb	r4, r5, r3
    9d58:	e1520004 	cmp	r2, r4
    9d5c:	e1ec00b2 	strh	r0, [ip, #2]!
    9d60:	e2411001 	sub	r1, r1, #1
    9d64:	8afffff9 	bhi	9d50 <inflate+0xab8>
    9d68:	e59d402c 	ldr	r4, [sp, #44]	; 0x2c
    9d6c:	e0624004 	rsb	r4, r2, r4
    9d70:	e58d403c 	str	r4, [sp, #60]	; 0x3c
    9d74:	e1a040a4 	lsr	r4, r4, #1
    9d78:	e1b0c084 	lsls	ip, r4, #1
    9d7c:	e58dc02c 	str	ip, [sp, #44]	; 0x2c
    9d80:	0a00000e 	beq	9dc0 <inflate+0xb28>
    9d84:	e59dc038 	ldr	ip, [sp, #56]	; 0x38
    9d88:	e1805800 	orr	r5, r0, r0, lsl #16
    9d8c:	e082200c 	add	r2, r2, ip
    9d90:	e088c082 	add	ip, r8, r2, lsl #1
    9d94:	e3a02000 	mov	r2, #0
    9d98:	e2822001 	add	r2, r2, #1
    9d9c:	e1520004 	cmp	r2, r4
    9da0:	e48c5004 	str	r5, [ip], #4
    9da4:	3afffffb 	bcc	9d98 <inflate+0xb00>
    9da8:	e59d402c 	ldr	r4, [sp, #44]	; 0x2c
    9dac:	e59d203c 	ldr	r2, [sp, #60]	; 0x3c
    9db0:	e0641001 	rsb	r1, r4, r1
    9db4:	e1520004 	cmp	r2, r4
    9db8:	e0833004 	add	r3, r3, r4
    9dbc:	0a000007 	beq	9de0 <inflate+0xb48>
    9dc0:	e59dc030 	ldr	ip, [sp, #48]	; 0x30
    9dc4:	e0832001 	add	r2, r3, r1
    9dc8:	e2833037 	add	r3, r3, #55	; 0x37
    9dcc:	e08c2082 	add	r2, ip, r2, lsl #1
    9dd0:	e0883083 	add	r3, r8, r3, lsl #1
    9dd4:	e1e300b2 	strh	r0, [r3, #2]!
    9dd8:	e1530002 	cmp	r3, r2
    9ddc:	1afffffc 	bne	9dd4 <inflate+0xb3c>
    9de0:	e59d0034 	ldr	r0, [sp, #52]	; 0x34
    9de4:	e59d1020 	ldr	r1, [sp, #32]
    9de8:	e5880068 	str	r0, [r8, #104]	; 0x68
    9dec:	e1a05000 	mov	r5, r0
    9df0:	eaffff84 	b	9c08 <inflate+0x970>
    9df4:	e3e03002 	mvn	r3, #2
    9df8:	e58d3008 	str	r3, [sp, #8]
    9dfc:	eafffee9 	b	99a8 <inflate+0x710>
    9e00:	e5981008 	ldr	r1, [r8, #8]
    9e04:	e3510000 	cmp	r1, #0
    9e08:	0a000268 	beq	a7b0 <inflate+0x1518>
    9e0c:	e357000f 	cmp	r7, #15
    9e10:	8a00000c 	bhi	9e48 <inflate+0xbb0>
    9e14:	e3590000 	cmp	r9, #0
    9e18:	0afffee2 	beq	99a8 <inflate+0x710>
    9e1c:	e1a0300b 	mov	r3, fp
    9e20:	ea000001 	b	9e2c <inflate+0xb94>
    9e24:	e3590000 	cmp	r9, #0
    9e28:	0afffede 	beq	99a8 <inflate+0x710>
    9e2c:	e4d32001 	ldrb	r2, [r3], #1
    9e30:	e2499001 	sub	r9, r9, #1
    9e34:	e0866712 	add	r6, r6, r2, lsl r7
    9e38:	e2877008 	add	r7, r7, #8
    9e3c:	e357000f 	cmp	r7, #15
    9e40:	e1a0b003 	mov	fp, r3
    9e44:	9afffff6 	bls	9e24 <inflate+0xb8c>
    9e48:	e3110002 	tst	r1, #2
    9e4c:	0a000002 	beq	9e5c <inflate+0xbc4>
    9e50:	e59f3694 	ldr	r3, [pc, #1684]	; a4ec <inflate+0x1254>
    9e54:	e1560003 	cmp	r6, r3
    9e58:	0a000374 	beq	ac30 <inflate+0x1998>
    9e5c:	e5983020 	ldr	r3, [r8, #32]
    9e60:	e3a02000 	mov	r2, #0
    9e64:	e1530002 	cmp	r3, r2
    9e68:	e5882010 	str	r2, [r8, #16]
    9e6c:	13e02000 	mvnne	r2, #0
    9e70:	15832030 	strne	r2, [r3, #48]	; 0x30
    9e74:	e3110001 	tst	r1, #1
    9e78:	0a00004f 	beq	9fbc <inflate+0xd24>
    9e7c:	e1a02c06 	lsl	r2, r6, #24
    9e80:	e1a03426 	lsr	r3, r6, #8
    9e84:	e59f0664 	ldr	r0, [pc, #1636]	; a4f0 <inflate+0x1258>
    9e88:	e0833822 	add	r3, r3, r2, lsr #16
    9e8c:	e0820390 	umull	r0, r2, r0, r3
    9e90:	e0621003 	rsb	r1, r2, r3
    9e94:	e08220a1 	add	r2, r2, r1, lsr #1
    9e98:	e1a02222 	lsr	r2, r2, #4
    9e9c:	e0622282 	rsb	r2, r2, r2, lsl #5
    9ea0:	e1530002 	cmp	r3, r2
    9ea4:	1a000044 	bne	9fbc <inflate+0xd24>
    9ea8:	e206300f 	and	r3, r6, #15
    9eac:	e3530008 	cmp	r3, #8
    9eb0:	1a000041 	bne	9fbc <inflate+0xd24>
    9eb4:	e5982024 	ldr	r2, [r8, #36]	; 0x24
    9eb8:	e1a06226 	lsr	r6, r6, #4
    9ebc:	e206300f 	and	r3, r6, #15
    9ec0:	e3520000 	cmp	r2, #0
    9ec4:	e2833008 	add	r3, r3, #8
    9ec8:	05883024 	streq	r3, [r8, #36]	; 0x24
    9ecc:	0a000369 	beq	ac78 <inflate+0x19e0>
    9ed0:	e1530002 	cmp	r3, r2
    9ed4:	9a000367 	bls	ac78 <inflate+0x19e0>
    9ed8:	e3a0301d 	mov	r3, #29
    9edc:	e2477004 	sub	r7, r7, #4
    9ee0:	e5883000 	str	r3, [r8]
    9ee4:	eafffd0b 	b	9318 <inflate+0x80>
    9ee8:	e5981010 	ldr	r1, [r8, #16]
    9eec:	e2113a01 	ands	r3, r1, #4096	; 0x1000
    9ef0:	0a000153 	beq	a444 <inflate+0x11ac>
    9ef4:	e3590000 	cmp	r9, #0
    9ef8:	0afffeaa 	beq	99a8 <inflate+0x710>
    9efc:	e3a04000 	mov	r4, #0
    9f00:	e5983020 	ldr	r3, [r8, #32]
    9f04:	e7db5004 	ldrb	r5, [fp, r4]
    9f08:	e3530000 	cmp	r3, #0
    9f0c:	e2844001 	add	r4, r4, #1
    9f10:	0a000008 	beq	9f38 <inflate+0xca0>
    9f14:	e5932024 	ldr	r2, [r3, #36]	; 0x24
    9f18:	e3520000 	cmp	r2, #0
    9f1c:	0a000005 	beq	9f38 <inflate+0xca0>
    9f20:	e5931028 	ldr	r1, [r3, #40]	; 0x28
    9f24:	e5983040 	ldr	r3, [r8, #64]	; 0x40
    9f28:	e1530001 	cmp	r3, r1
    9f2c:	32831001 	addcc	r1, r3, #1
    9f30:	37c25003 	strbcc	r5, [r2, r3]
    9f34:	35881040 	strcc	r1, [r8, #64]	; 0x40
    9f38:	e3550000 	cmp	r5, #0
    9f3c:	11540009 	cmpne	r4, r9
    9f40:	3affffee 	bcc	9f00 <inflate+0xc68>
    9f44:	e5983010 	ldr	r3, [r8, #16]
    9f48:	e3130c02 	tst	r3, #512	; 0x200
    9f4c:	1a000234 	bne	a824 <inflate+0x158c>
    9f50:	e3550000 	cmp	r5, #0
    9f54:	e0649009 	rsb	r9, r4, r9
    9f58:	e08bb004 	add	fp, fp, r4
    9f5c:	1afffe91 	bne	99a8 <inflate+0x710>
    9f60:	e5981010 	ldr	r1, [r8, #16]
    9f64:	e3a03008 	mov	r3, #8
    9f68:	e5883000 	str	r3, [r8]
    9f6c:	e3110c02 	tst	r1, #512	; 0x200
    9f70:	0a000190 	beq	a5b8 <inflate+0x1320>
    9f74:	e357000f 	cmp	r7, #15
    9f78:	8a00000c 	bhi	9fb0 <inflate+0xd18>
    9f7c:	e3590000 	cmp	r9, #0
    9f80:	0afffe88 	beq	99a8 <inflate+0x710>
    9f84:	e1a0300b 	mov	r3, fp
    9f88:	ea000001 	b	9f94 <inflate+0xcfc>
    9f8c:	e3590000 	cmp	r9, #0
    9f90:	0afffe84 	beq	99a8 <inflate+0x710>
    9f94:	e4d32001 	ldrb	r2, [r3], #1
    9f98:	e2499001 	sub	r9, r9, #1
    9f9c:	e0866712 	add	r6, r6, r2, lsl r7
    9fa0:	e2877008 	add	r7, r7, #8
    9fa4:	e357000f 	cmp	r7, #15
    9fa8:	e1a0b003 	mov	fp, r3
    9fac:	9afffff6 	bls	9f8c <inflate+0xcf4>
    9fb0:	e1d831b8 	ldrh	r3, [r8, #24]
    9fb4:	e1530006 	cmp	r3, r6
    9fb8:	0a00017c 	beq	a5b0 <inflate+0x1318>
    9fbc:	e3a0301d 	mov	r3, #29
    9fc0:	e5883000 	str	r3, [r8]
    9fc4:	eafffcd3 	b	9318 <inflate+0x80>
    9fc8:	e5981010 	ldr	r1, [r8, #16]
    9fcc:	eaffffe6 	b	9f6c <inflate+0xcd4>
    9fd0:	e598c010 	ldr	ip, [r8, #16]
    9fd4:	e31c0b01 	tst	ip, #1024	; 0x400
    9fd8:	e1a0100c 	mov	r1, ip
    9fdc:	0a000168 	beq	a584 <inflate+0x12ec>
    9fe0:	e357000f 	cmp	r7, #15
    9fe4:	8a00000c 	bhi	a01c <inflate+0xd84>
    9fe8:	e3590000 	cmp	r9, #0
    9fec:	0afffe6d 	beq	99a8 <inflate+0x710>
    9ff0:	e1a0300b 	mov	r3, fp
    9ff4:	ea000001 	b	a000 <inflate+0xd68>
    9ff8:	e3590000 	cmp	r9, #0
    9ffc:	0afffe69 	beq	99a8 <inflate+0x710>
    a000:	e4d32001 	ldrb	r2, [r3], #1
    a004:	e2499001 	sub	r9, r9, #1
    a008:	e0866712 	add	r6, r6, r2, lsl r7
    a00c:	e2877008 	add	r7, r7, #8
    a010:	e357000f 	cmp	r7, #15
    a014:	e1a0b003 	mov	fp, r3
    a018:	9afffff6 	bls	9ff8 <inflate+0xd60>
    a01c:	e5983020 	ldr	r3, [r8, #32]
    a020:	e5886040 	str	r6, [r8, #64]	; 0x40
    a024:	e3530000 	cmp	r3, #0
    a028:	15836014 	strne	r6, [r3, #20]
    a02c:	e21c3c02 	ands	r3, ip, #512	; 0x200
    a030:	1a00029d 	bne	aaac <inflate+0x1814>
    a034:	e1a06003 	mov	r6, r3
    a038:	e1a0100c 	mov	r1, ip
    a03c:	e20c3b01 	and	r3, ip, #1024	; 0x400
    a040:	e1a07006 	mov	r7, r6
    a044:	ea000153 	b	a598 <inflate+0x1300>
    a048:	e5981010 	ldr	r1, [r8, #16]
    a04c:	e2013b01 	and	r3, r1, #1024	; 0x400
    a050:	e3530000 	cmp	r3, #0
    a054:	0a000020 	beq	a0dc <inflate+0xe44>
    a058:	e5983040 	ldr	r3, [r8, #64]	; 0x40
    a05c:	e1590003 	cmp	r9, r3
    a060:	31a04009 	movcc	r4, r9
    a064:	21a04003 	movcs	r4, r3
    a068:	e3540000 	cmp	r4, #0
    a06c:	0a000017 	beq	a0d0 <inflate+0xe38>
    a070:	e5982020 	ldr	r2, [r8, #32]
    a074:	e3520000 	cmp	r2, #0
    a078:	0a00000d 	beq	a0b4 <inflate+0xe1c>
    a07c:	e5920010 	ldr	r0, [r2, #16]
    a080:	e3500000 	cmp	r0, #0
    a084:	0a00000a 	beq	a0b4 <inflate+0xe1c>
    a088:	e5921014 	ldr	r1, [r2, #20]
    a08c:	e5922018 	ldr	r2, [r2, #24]
    a090:	e0633001 	rsb	r3, r3, r1
    a094:	e0841003 	add	r1, r4, r3
    a098:	e1510002 	cmp	r1, r2
    a09c:	e0800003 	add	r0, r0, r3
    a0a0:	e1a0100b 	mov	r1, fp
    a0a4:	80632002 	rsbhi	r2, r3, r2
    a0a8:	91a02004 	movls	r2, r4
    a0ac:	ebfff8d6 	bl	840c <xmemcpy>
    a0b0:	e5981010 	ldr	r1, [r8, #16]
    a0b4:	e3110c02 	tst	r1, #512	; 0x200
    a0b8:	1a000261 	bne	aa44 <inflate+0x17ac>
    a0bc:	e5983040 	ldr	r3, [r8, #64]	; 0x40
    a0c0:	e0649009 	rsb	r9, r4, r9
    a0c4:	e0643003 	rsb	r3, r4, r3
    a0c8:	e08bb004 	add	fp, fp, r4
    a0cc:	e5883040 	str	r3, [r8, #64]	; 0x40
    a0d0:	e3530000 	cmp	r3, #0
    a0d4:	1afffe33 	bne	99a8 <inflate+0x710>
    a0d8:	e5981010 	ldr	r1, [r8, #16]
    a0dc:	e3a02000 	mov	r2, #0
    a0e0:	e3a03006 	mov	r3, #6
    a0e4:	e5882040 	str	r2, [r8, #64]	; 0x40
    a0e8:	e2112b02 	ands	r2, r1, #2048	; 0x800
    a0ec:	e5883000 	str	r3, [r8]
    a0f0:	1a0000b1 	bne	a3bc <inflate+0x1124>
    a0f4:	e5983020 	ldr	r3, [r8, #32]
    a0f8:	e3530000 	cmp	r3, #0
    a0fc:	1583201c 	strne	r2, [r3, #28]
    a100:	ea0000c9 	b	a42c <inflate+0x1194>
    a104:	e357000f 	cmp	r7, #15
    a108:	8a00000c 	bhi	a140 <inflate+0xea8>
    a10c:	e3590000 	cmp	r9, #0
    a110:	0afffe24 	beq	99a8 <inflate+0x710>
    a114:	e1a0300b 	mov	r3, fp
    a118:	ea000001 	b	a124 <inflate+0xe8c>
    a11c:	e3590000 	cmp	r9, #0
    a120:	0afffe20 	beq	99a8 <inflate+0x710>
    a124:	e4d32001 	ldrb	r2, [r3], #1
    a128:	e2499001 	sub	r9, r9, #1
    a12c:	e0866712 	add	r6, r6, r2, lsl r7
    a130:	e2877008 	add	r7, r7, #8
    a134:	e357000f 	cmp	r7, #15
    a138:	e1a0b003 	mov	fp, r3
    a13c:	9afffff6 	bls	a11c <inflate+0xe84>
    a140:	e5983020 	ldr	r3, [r8, #32]
    a144:	e598c010 	ldr	ip, [r8, #16]
    a148:	e3530000 	cmp	r3, #0
    a14c:	16ef1076 	uxtbne	r1, r6
    a150:	11a02426 	lsrne	r2, r6, #8
    a154:	15831008 	strne	r1, [r3, #8]
    a158:	1583200c 	strne	r2, [r3, #12]
    a15c:	e31c0c02 	tst	ip, #512	; 0x200
    a160:	e1a0100c 	mov	r1, ip
    a164:	1a0001e1 	bne	a8f0 <inflate+0x1658>
    a168:	e3a03004 	mov	r3, #4
    a16c:	e21c7b01 	ands	r7, ip, #1024	; 0x400
    a170:	e5883000 	str	r3, [r8]
    a174:	01a06007 	moveq	r6, r7
    a178:	0a000101 	beq	a584 <inflate+0x12ec>
    a17c:	e3a07000 	mov	r7, #0
    a180:	e1a06007 	mov	r6, r7
    a184:	eaffff97 	b	9fe8 <inflate+0xd50>
    a188:	e59dc00c 	ldr	ip, [sp, #12]
    a18c:	e35c0000 	cmp	ip, #0
    a190:	0afffe04 	beq	99a8 <inflate+0x710>
    a194:	e59d4010 	ldr	r4, [sp, #16]
    a198:	e5982040 	ldr	r2, [r8, #64]	; 0x40
    a19c:	e3a03014 	mov	r3, #20
    a1a0:	e4c42001 	strb	r2, [r4], #1
    a1a4:	e24cc001 	sub	ip, ip, #1
    a1a8:	e58dc00c 	str	ip, [sp, #12]
    a1ac:	e58d4010 	str	r4, [sp, #16]
    a1b0:	e5883000 	str	r3, [r8]
    a1b4:	eafffc57 	b	9318 <inflate+0x80>
    a1b8:	e5983008 	ldr	r3, [r8, #8]
    a1bc:	e3530000 	cmp	r3, #0
    a1c0:	0a000177 	beq	a7a4 <inflate+0x150c>
    a1c4:	e357001f 	cmp	r7, #31
    a1c8:	8a00000c 	bhi	a200 <inflate+0xf68>
    a1cc:	e3590000 	cmp	r9, #0
    a1d0:	0afffdf4 	beq	99a8 <inflate+0x710>
    a1d4:	e1a0300b 	mov	r3, fp
    a1d8:	ea000001 	b	a1e4 <inflate+0xf4c>
    a1dc:	e3590000 	cmp	r9, #0
    a1e0:	0afffdf0 	beq	99a8 <inflate+0x710>
    a1e4:	e4d32001 	ldrb	r2, [r3], #1
    a1e8:	e2499001 	sub	r9, r9, #1
    a1ec:	e0866712 	add	r6, r6, r2, lsl r7
    a1f0:	e2877008 	add	r7, r7, #8
    a1f4:	e357001f 	cmp	r7, #31
    a1f8:	e1a0b003 	mov	fp, r3
    a1fc:	9afffff6 	bls	a1dc <inflate+0xf44>
    a200:	e59dc014 	ldr	ip, [sp, #20]
    a204:	e59d400c 	ldr	r4, [sp, #12]
    a208:	e59a1014 	ldr	r1, [sl, #20]
    a20c:	e598301c 	ldr	r3, [r8, #28]
    a210:	e064200c 	rsb	r2, r4, ip
    a214:	e0811002 	add	r1, r1, r2
    a218:	e0833002 	add	r3, r3, r2
    a21c:	e3520000 	cmp	r2, #0
    a220:	e58a1014 	str	r1, [sl, #20]
    a224:	e588301c 	str	r3, [r8, #28]
    a228:	0a000008 	beq	a250 <inflate+0xfb8>
    a22c:	e5983010 	ldr	r3, [r8, #16]
    a230:	e5980018 	ldr	r0, [r8, #24]
    a234:	e3530000 	cmp	r3, #0
    a238:	0a000264 	beq	abd0 <inflate+0x1938>
    a23c:	e59dc010 	ldr	ip, [sp, #16]
    a240:	e062100c 	rsb	r1, r2, ip
    a244:	eb0004be 	bl	b544 <crc32>
    a248:	e5880018 	str	r0, [r8, #24]
    a24c:	e58a002c 	str	r0, [sl, #44]	; 0x2c
    a250:	e5983010 	ldr	r3, [r8, #16]
    a254:	e3530000 	cmp	r3, #0
    a258:	01a02c26 	lsreq	r2, r6, #24
    a25c:	01a03426 	lsreq	r3, r6, #8
    a260:	00822c06 	addeq	r2, r2, r6, lsl #24
    a264:	02033cff 	andeq	r3, r3, #65280	; 0xff00
    a268:	00823003 	addeq	r3, r2, r3
    a26c:	02062cff 	andeq	r2, r6, #65280	; 0xff00
    a270:	00832402 	addeq	r2, r3, r2, lsl #8
    a274:	e5983018 	ldr	r3, [r8, #24]
    a278:	11a02006 	movne	r2, r6
    a27c:	e1520003 	cmp	r2, r3
    a280:	0a000142 	beq	a790 <inflate+0x14f8>
    a284:	e59d400c 	ldr	r4, [sp, #12]
    a288:	e3a0301d 	mov	r3, #29
    a28c:	e5883000 	str	r3, [r8]
    a290:	e58d4014 	str	r4, [sp, #20]
    a294:	eafffc1f 	b	9318 <inflate+0x80>
    a298:	e5984040 	ldr	r4, [r8, #64]	; 0x40
    a29c:	e3a0300f 	mov	r3, #15
    a2a0:	e5883000 	str	r3, [r8]
    a2a4:	e3540000 	cmp	r4, #0
    a2a8:	0a0000da 	beq	a618 <inflate+0x1380>
    a2ac:	e59dc00c 	ldr	ip, [sp, #12]
    a2b0:	e1590004 	cmp	r9, r4
    a2b4:	31a04009 	movcc	r4, r9
    a2b8:	e154000c 	cmp	r4, ip
    a2bc:	21a0400c 	movcs	r4, ip
    a2c0:	e3540000 	cmp	r4, #0
    a2c4:	0afffdb7 	beq	99a8 <inflate+0x710>
    a2c8:	e1a0100b 	mov	r1, fp
    a2cc:	e59d0010 	ldr	r0, [sp, #16]
    a2d0:	e1a02004 	mov	r2, r4
    a2d4:	ebfff84c 	bl	840c <xmemcpy>
    a2d8:	e59dc00c 	ldr	ip, [sp, #12]
    a2dc:	e5983040 	ldr	r3, [r8, #64]	; 0x40
    a2e0:	e064c00c 	rsb	ip, r4, ip
    a2e4:	e58dc00c 	str	ip, [sp, #12]
    a2e8:	e59dc010 	ldr	ip, [sp, #16]
    a2ec:	e0643003 	rsb	r3, r4, r3
    a2f0:	e08cc004 	add	ip, ip, r4
    a2f4:	e5883040 	str	r3, [r8, #64]	; 0x40
    a2f8:	e0649009 	rsb	r9, r4, r9
    a2fc:	e58dc010 	str	ip, [sp, #16]
    a300:	e08bb004 	add	fp, fp, r4
    a304:	e5983000 	ldr	r3, [r8]
    a308:	eafffc02 	b	9318 <inflate+0x80>
    a30c:	e5984040 	ldr	r4, [r8, #64]	; 0x40
    a310:	eaffffe3 	b	a2a4 <inflate+0x100c>
    a314:	e357000d 	cmp	r7, #13
    a318:	8a00000c 	bhi	a350 <inflate+0x10b8>
    a31c:	e3590000 	cmp	r9, #0
    a320:	0afffda0 	beq	99a8 <inflate+0x710>
    a324:	e1a0300b 	mov	r3, fp
    a328:	ea000001 	b	a334 <inflate+0x109c>
    a32c:	e3590000 	cmp	r9, #0
    a330:	0afffd9c 	beq	99a8 <inflate+0x710>
    a334:	e4d32001 	ldrb	r2, [r3], #1
    a338:	e2499001 	sub	r9, r9, #1
    a33c:	e0866712 	add	r6, r6, r2, lsl r7
    a340:	e2877008 	add	r7, r7, #8
    a344:	e357000d 	cmp	r7, #13
    a348:	e1a0b003 	mov	fp, r3
    a34c:	9afffff6 	bls	a32c <inflate+0x1094>
    a350:	e206301f 	and	r3, r6, #31
    a354:	e1a012a6 	lsr	r1, r6, #5
    a358:	e1a02526 	lsr	r2, r6, #10
    a35c:	e2833c01 	add	r3, r3, #256	; 0x100
    a360:	e59f018c 	ldr	r0, [pc, #396]	; a4f4 <inflate+0x125c>
    a364:	e2833001 	add	r3, r3, #1
    a368:	e201101f 	and	r1, r1, #31
    a36c:	e202200f 	and	r2, r2, #15
    a370:	e2811001 	add	r1, r1, #1
    a374:	e2822004 	add	r2, r2, #4
    a378:	e1530000 	cmp	r3, r0
    a37c:	e247700e 	sub	r7, r7, #14
    a380:	e5883060 	str	r3, [r8, #96]	; 0x60
    a384:	e5881064 	str	r1, [r8, #100]	; 0x64
    a388:	e588205c 	str	r2, [r8, #92]	; 0x5c
    a38c:	e1a06726 	lsr	r6, r6, #14
    a390:	8affff09 	bhi	9fbc <inflate+0xd24>
    a394:	e351001e 	cmp	r1, #30
    a398:	8affff07 	bhi	9fbc <inflate+0xd24>
    a39c:	e3a03000 	mov	r3, #0
    a3a0:	e3a01011 	mov	r1, #17
    a3a4:	e5883068 	str	r3, [r8, #104]	; 0x68
    a3a8:	e5881000 	str	r1, [r8]
    a3ac:	eafffdd3 	b	9b00 <inflate+0x868>
    a3b0:	e5981010 	ldr	r1, [r8, #16]
    a3b4:	e2112b02 	ands	r2, r1, #2048	; 0x800
    a3b8:	0affff4d 	beq	a0f4 <inflate+0xe5c>
    a3bc:	e3590000 	cmp	r9, #0
    a3c0:	0afffd78 	beq	99a8 <inflate+0x710>
    a3c4:	e3a04000 	mov	r4, #0
    a3c8:	e5983020 	ldr	r3, [r8, #32]
    a3cc:	e7db5004 	ldrb	r5, [fp, r4]
    a3d0:	e3530000 	cmp	r3, #0
    a3d4:	e2844001 	add	r4, r4, #1
    a3d8:	0a000008 	beq	a400 <inflate+0x1168>
    a3dc:	e593201c 	ldr	r2, [r3, #28]
    a3e0:	e3520000 	cmp	r2, #0
    a3e4:	0a000005 	beq	a400 <inflate+0x1168>
    a3e8:	e5931020 	ldr	r1, [r3, #32]
    a3ec:	e5983040 	ldr	r3, [r8, #64]	; 0x40
    a3f0:	e1530001 	cmp	r3, r1
    a3f4:	32831001 	addcc	r1, r3, #1
    a3f8:	37c25003 	strbcc	r5, [r2, r3]
    a3fc:	35881040 	strcc	r1, [r8, #64]	; 0x40
    a400:	e3550000 	cmp	r5, #0
    a404:	11540009 	cmpne	r4, r9
    a408:	3affffee 	bcc	a3c8 <inflate+0x1130>
    a40c:	e5983010 	ldr	r3, [r8, #16]
    a410:	e3130c02 	tst	r3, #512	; 0x200
    a414:	1a000120 	bne	a89c <inflate+0x1604>
    a418:	e3550000 	cmp	r5, #0
    a41c:	e0649009 	rsb	r9, r4, r9
    a420:	e08bb004 	add	fp, fp, r4
    a424:	1afffd5f 	bne	99a8 <inflate+0x710>
    a428:	e5981010 	ldr	r1, [r8, #16]
    a42c:	e3a03007 	mov	r3, #7
    a430:	e3a02000 	mov	r2, #0
    a434:	e5883000 	str	r3, [r8]
    a438:	e2113a01 	ands	r3, r1, #4096	; 0x1000
    a43c:	e5882040 	str	r2, [r8, #64]	; 0x40
    a440:	1afffeab 	bne	9ef4 <inflate+0xc5c>
    a444:	e5982020 	ldr	r2, [r8, #32]
    a448:	e3520000 	cmp	r2, #0
    a44c:	15823024 	strne	r3, [r2, #36]	; 0x24
    a450:	eafffec3 	b	9f64 <inflate+0xccc>
    a454:	e357000f 	cmp	r7, #15
    a458:	8a00000c 	bhi	a490 <inflate+0x11f8>
    a45c:	e3590000 	cmp	r9, #0
    a460:	0afffd50 	beq	99a8 <inflate+0x710>
    a464:	e1a0300b 	mov	r3, fp
    a468:	ea000001 	b	a474 <inflate+0x11dc>
    a46c:	e3590000 	cmp	r9, #0
    a470:	0afffd4c 	beq	99a8 <inflate+0x710>
    a474:	e4d32001 	ldrb	r2, [r3], #1
    a478:	e2499001 	sub	r9, r9, #1
    a47c:	e0866712 	add	r6, r6, r2, lsl r7
    a480:	e2877008 	add	r7, r7, #8
    a484:	e357000f 	cmp	r7, #15
    a488:	e1a0b003 	mov	fp, r3
    a48c:	9afffff6 	bls	a46c <inflate+0x11d4>
    a490:	e6ef3076 	uxtb	r3, r6
    a494:	e3530008 	cmp	r3, #8
    a498:	e5886010 	str	r6, [r8, #16]
    a49c:	1afffec6 	bne	9fbc <inflate+0xd24>
    a4a0:	e3160a0e 	tst	r6, #57344	; 0xe000
    a4a4:	1afffec4 	bne	9fbc <inflate+0xd24>
    a4a8:	e5983020 	ldr	r3, [r8, #32]
    a4ac:	e3530000 	cmp	r3, #0
    a4b0:	11a02426 	lsrne	r2, r6, #8
    a4b4:	12022001 	andne	r2, r2, #1
    a4b8:	15832000 	strne	r2, [r3]
    a4bc:	e3160c02 	tst	r6, #512	; 0x200
    a4c0:	1a0001d1 	bne	ac0c <inflate+0x1974>
    a4c4:	e3a03002 	mov	r3, #2
    a4c8:	e3a07000 	mov	r7, #0
    a4cc:	e5883000 	str	r3, [r8]
    a4d0:	e1a06007 	mov	r6, r7
    a4d4:	eafffcfa 	b	98c4 <inflate+0x62c>
    a4d8:	00001bc4 	andeq	r1, r0, r4, asr #23
    a4dc:	00000101 	andeq	r0, r0, r1, lsl #2
    a4e0:	00001bc8 	andeq	r1, r0, r8, asr #23
    a4e4:	00013a44 	andeq	r3, r1, r4, asr #20
    a4e8:	00013a68 	andeq	r3, r1, r8, ror #20
    a4ec:	00008b1f 	andeq	r8, r0, pc, lsl fp
    a4f0:	08421085 	stmdaeq	r2, {r0, r2, r7, ip}^
    a4f4:	0000011e 	andeq	r0, r0, lr, lsl r1
    a4f8:	00001bc4 	andeq	r1, r0, r4, asr #23
    a4fc:	000131c4 	andeq	r3, r1, r4, asr #3
    a500:	e2073007 	and	r3, r7, #7
    a504:	e3c77007 	bic	r7, r7, #7
    a508:	e357001f 	cmp	r7, #31
    a50c:	e1a06336 	lsr	r6, r6, r3
    a510:	8a00000c 	bhi	a548 <inflate+0x12b0>
    a514:	e3590000 	cmp	r9, #0
    a518:	0afffd22 	beq	99a8 <inflate+0x710>
    a51c:	e1a0300b 	mov	r3, fp
    a520:	ea000001 	b	a52c <inflate+0x1294>
    a524:	e3590000 	cmp	r9, #0
    a528:	0afffd1e 	beq	99a8 <inflate+0x710>
    a52c:	e4d32001 	ldrb	r2, [r3], #1
    a530:	e2499001 	sub	r9, r9, #1
    a534:	e0866712 	add	r6, r6, r2, lsl r7
    a538:	e2877008 	add	r7, r7, #8
    a53c:	e357001f 	cmp	r7, #31
    a540:	e1a0b003 	mov	fp, r3
    a544:	9afffff6 	bls	a524 <inflate+0x128c>
    a548:	e1a03826 	lsr	r3, r6, #16
    a54c:	e2233cff 	eor	r3, r3, #65280	; 0xff00
    a550:	e22330ff 	eor	r3, r3, #255	; 0xff
    a554:	e6ff4076 	uxth	r4, r6
    a558:	e1540003 	cmp	r4, r3
    a55c:	1afffe96 	bne	9fbc <inflate+0xd24>
    a560:	e59dc01c 	ldr	ip, [sp, #28]
    a564:	e3a07000 	mov	r7, #0
    a568:	e3a0300e 	mov	r3, #14
    a56c:	e35c0006 	cmp	ip, #6
    a570:	e1a06007 	mov	r6, r7
    a574:	e5884040 	str	r4, [r8, #64]	; 0x40
    a578:	e5883000 	str	r3, [r8]
    a57c:	1affff46 	bne	a29c <inflate+0x1004>
    a580:	eafffd08 	b	99a8 <inflate+0x710>
    a584:	e5982020 	ldr	r2, [r8, #32]
    a588:	e3520000 	cmp	r2, #0
    a58c:	13a03000 	movne	r3, #0
    a590:	15823010 	strne	r3, [r2, #16]
    a594:	01a03002 	moveq	r3, r2
    a598:	e3a02005 	mov	r2, #5
    a59c:	e5882000 	str	r2, [r8]
    a5a0:	eafffeaa 	b	a050 <inflate+0xdb8>
    a5a4:	e2822080 	add	r2, r2, #128	; 0x80
    a5a8:	e3a03000 	mov	r3, #0
    a5ac:	eafffd43 	b	9ac0 <inflate+0x828>
    a5b0:	e3a07000 	mov	r7, #0
    a5b4:	e1a06007 	mov	r6, r7
    a5b8:	e5983020 	ldr	r3, [r8, #32]
    a5bc:	e3a00000 	mov	r0, #0
    a5c0:	e3530000 	cmp	r3, #0
    a5c4:	11a014c1 	asrne	r1, r1, #9
    a5c8:	12011001 	andne	r1, r1, #1
    a5cc:	13a02001 	movne	r2, #1
    a5d0:	1583102c 	strne	r1, [r3, #44]	; 0x2c
    a5d4:	15832030 	strne	r2, [r3, #48]	; 0x30
    a5d8:	e1a01000 	mov	r1, r0
    a5dc:	e1a02000 	mov	r2, r0
    a5e0:	eb0003d7 	bl	b544 <crc32>
    a5e4:	e3a0200b 	mov	r2, #11
    a5e8:	e5880018 	str	r0, [r8, #24]
    a5ec:	e1a03002 	mov	r3, r2
    a5f0:	e58a002c 	str	r0, [sl, #44]	; 0x2c
    a5f4:	e5882000 	str	r2, [r8]
    a5f8:	eafffb46 	b	9318 <inflate+0x80>
    a5fc:	e59a3004 	ldr	r3, [sl, #4]
    a600:	e3530000 	cmp	r3, #0
    a604:	1a0000c4 	bne	a91c <inflate+0x1684>
    a608:	e58db018 	str	fp, [sp, #24]
    a60c:	eafffb32 	b	92dc <inflate+0x44>
    a610:	eb000418 	bl	b678 <adler32>
    a614:	eafffd1a 	b	9a84 <inflate+0x7ec>
    a618:	e3a0300b 	mov	r3, #11
    a61c:	e5883000 	str	r3, [r8]
    a620:	eafffb3c 	b	9318 <inflate+0x80>
    a624:	e5980040 	ldr	r0, [r8, #64]	; 0x40
    a628:	e59d4010 	ldr	r4, [sp, #16]
    a62c:	e1a02000 	mov	r2, r0
    a630:	e06cc004 	rsb	ip, ip, r4
    a634:	e2843004 	add	r3, r4, #4
    a638:	e59d400c 	ldr	r4, [sp, #12]
    a63c:	e28c1004 	add	r1, ip, #4
    a640:	e1500004 	cmp	r0, r4
    a644:	21a00004 	movcs	r0, r4
    a648:	e59d4010 	ldr	r4, [sp, #16]
    a64c:	e1a05120 	lsr	r5, r0, #2
    a650:	e15c0003 	cmp	ip, r3
    a654:	31540001 	cmpcc	r4, r1
    a658:	33a03000 	movcc	r3, #0
    a65c:	23a03001 	movcs	r3, #1
    a660:	e18c1004 	orr	r1, ip, r4
    a664:	e3500003 	cmp	r0, #3
    a668:	93a03000 	movls	r3, #0
    a66c:	82033001 	andhi	r3, r3, #1
    a670:	e3110003 	tst	r1, #3
    a674:	13a03000 	movne	r3, #0
    a678:	02033001 	andeq	r3, r3, #1
    a67c:	e59d400c 	ldr	r4, [sp, #12]
    a680:	e2233001 	eor	r3, r3, #1
    a684:	e3550000 	cmp	r5, #0
    a688:	03833001 	orreq	r3, r3, #1
    a68c:	e0604004 	rsb	r4, r0, r4
    a690:	e0602002 	rsb	r2, r0, r2
    a694:	e3530000 	cmp	r3, #0
    a698:	e58d400c 	str	r4, [sp, #12]
    a69c:	e5882040 	str	r2, [r8, #64]	; 0x40
    a6a0:	e1a04105 	lsl	r4, r5, #2
    a6a4:	1a000187 	bne	acc8 <inflate+0x1a30>
    a6a8:	e59d1010 	ldr	r1, [sp, #16]
    a6ac:	e1a02003 	mov	r2, r3
    a6b0:	e58d0020 	str	r0, [sp, #32]
    a6b4:	e79c0003 	ldr	r0, [ip, r3]
    a6b8:	e2822001 	add	r2, r2, #1
    a6bc:	e1550002 	cmp	r5, r2
    a6c0:	e7810003 	str	r0, [r1, r3]
    a6c4:	e2833004 	add	r3, r3, #4
    a6c8:	8afffff9 	bhi	a6b4 <inflate+0x141c>
    a6cc:	e59d0020 	ldr	r0, [sp, #32]
    a6d0:	e59d1010 	ldr	r1, [sp, #16]
    a6d4:	e1500004 	cmp	r0, r4
    a6d8:	e08cc004 	add	ip, ip, r4
    a6dc:	e0813004 	add	r3, r1, r4
    a6e0:	e0644000 	rsb	r4, r4, r0
    a6e4:	0a000005 	beq	a700 <inflate+0x1468>
    a6e8:	e24c2001 	sub	r2, ip, #1
    a6ec:	e0834004 	add	r4, r3, r4
    a6f0:	e5f21001 	ldrb	r1, [r2, #1]!
    a6f4:	e4c31001 	strb	r1, [r3], #1
    a6f8:	e1530004 	cmp	r3, r4
    a6fc:	1afffffb 	bne	a6f0 <inflate+0x1458>
    a700:	e5983040 	ldr	r3, [r8, #64]	; 0x40
    a704:	e59d4010 	ldr	r4, [sp, #16]
    a708:	e3530000 	cmp	r3, #0
    a70c:	e0844000 	add	r4, r4, r0
    a710:	03a03014 	moveq	r3, #20
    a714:	e58d4010 	str	r4, [sp, #16]
    a718:	15983000 	ldrne	r3, [r8]
    a71c:	05883000 	streq	r3, [r8]
    a720:	eafffafc 	b	9318 <inflate+0x80>
    a724:	e1570001 	cmp	r7, r1
    a728:	2a00000c 	bcs	a760 <inflate+0x14c8>
    a72c:	e3590000 	cmp	r9, #0
    a730:	0afffc9c 	beq	99a8 <inflate+0x710>
    a734:	e1a0300b 	mov	r3, fp
    a738:	ea000001 	b	a744 <inflate+0x14ac>
    a73c:	e3590000 	cmp	r9, #0
    a740:	0afffc98 	beq	99a8 <inflate+0x710>
    a744:	e4d32001 	ldrb	r2, [r3], #1
    a748:	e2499001 	sub	r9, r9, #1
    a74c:	e0866712 	add	r6, r6, r2, lsl r7
    a750:	e2877008 	add	r7, r7, #8
    a754:	e1570001 	cmp	r7, r1
    a758:	e1a0b003 	mov	fp, r3
    a75c:	3afffff6 	bcc	a73c <inflate+0x14a4>
    a760:	e3e0c000 	mvn	ip, #0
    a764:	e1c6c11c 	bic	ip, r6, ip, lsl r1
    a768:	e51f2278 	ldr	r2, [pc, #-632]	; a4f8 <inflate+0x1260>
    a76c:	e5983040 	ldr	r3, [r8, #64]	; 0x40
    a770:	e7980002 	ldr	r0, [r8, r2]
    a774:	e08c3003 	add	r3, ip, r3
    a778:	e0810000 	add	r0, r1, r0
    a77c:	e1a06136 	lsr	r6, r6, r1
    a780:	e0617007 	rsb	r7, r1, r7
    a784:	e5883040 	str	r3, [r8, #64]	; 0x40
    a788:	e7880002 	str	r0, [r8, r2]
    a78c:	eafffbeb 	b	9740 <inflate+0x4a8>
    a790:	e59dc00c 	ldr	ip, [sp, #12]
    a794:	e3a07000 	mov	r7, #0
    a798:	e5983008 	ldr	r3, [r8, #8]
    a79c:	e1a06007 	mov	r6, r7
    a7a0:	e58dc014 	str	ip, [sp, #20]
    a7a4:	e3a0201b 	mov	r2, #27
    a7a8:	e5882000 	str	r2, [r8]
    a7ac:	eafffc5d 	b	9928 <inflate+0x690>
    a7b0:	e3a0300c 	mov	r3, #12
    a7b4:	e5883000 	str	r3, [r8]
    a7b8:	eafffad6 	b	9318 <inflate+0x80>
    a7bc:	e51f22cc 	ldr	r2, [pc, #-716]	; a4f8 <inflate+0x1260>
    a7c0:	e7985002 	ldr	r5, [r8, r2]
    a7c4:	e51f22d4 	ldr	r2, [pc, #-724]	; a4f8 <inflate+0x1260>
    a7c8:	e0855003 	add	r5, r5, r3
    a7cc:	e3110040 	tst	r1, #64	; 0x40
    a7d0:	e1a06336 	lsr	r6, r6, r3
    a7d4:	e0637007 	rsb	r7, r3, r7
    a7d8:	e7885002 	str	r5, [r8, r2]
    a7dc:	1afffdf6 	bne	9fbc <inflate+0xd24>
    a7e0:	e201100f 	and	r1, r1, #15
    a7e4:	e3a03017 	mov	r3, #23
    a7e8:	e5881048 	str	r1, [r8, #72]	; 0x48
    a7ec:	e5880044 	str	r0, [r8, #68]	; 0x44
    a7f0:	e5883000 	str	r3, [r8]
    a7f4:	eafffb34 	b	94cc <inflate+0x234>
    a7f8:	e0883085 	add	r3, r8, r5, lsl #1
    a7fc:	e2855001 	add	r5, r5, #1
    a800:	e1a06136 	lsr	r6, r6, r1
    a804:	e0617007 	rsb	r7, r1, r7
    a808:	e1c327b0 	strh	r2, [r3, #112]	; 0x70
    a80c:	e5885068 	str	r5, [r8, #104]	; 0x68
    a810:	e59d1020 	ldr	r1, [sp, #32]
    a814:	eafffcfb 	b	9c08 <inflate+0x970>
    a818:	e3a03010 	mov	r3, #16
    a81c:	e5883000 	str	r3, [r8]
    a820:	eafffb1f 	b	94a4 <inflate+0x20c>
    a824:	e5980018 	ldr	r0, [r8, #24]
    a828:	e1a0100b 	mov	r1, fp
    a82c:	e1a02004 	mov	r2, r4
    a830:	eb000343 	bl	b544 <crc32>
    a834:	e5880018 	str	r0, [r8, #24]
    a838:	eafffdc4 	b	9f50 <inflate+0xcb8>
    a83c:	e59d4010 	ldr	r4, [sp, #16]
    a840:	e58ac010 	str	ip, [sl, #16]
    a844:	e58a400c 	str	r4, [sl, #12]
    a848:	e58ab000 	str	fp, [sl]
    a84c:	e58a9004 	str	r9, [sl, #4]
    a850:	e1a0000a 	mov	r0, sl
    a854:	e5886038 	str	r6, [r8, #56]	; 0x38
    a858:	e588703c 	str	r7, [r8, #60]	; 0x3c
    a85c:	e59d1014 	ldr	r1, [sp, #20]
    a860:	eb0004b8 	bl	bb48 <inflate_fast>
    a864:	e5983000 	ldr	r3, [r8]
    a868:	e59ac00c 	ldr	ip, [sl, #12]
    a86c:	e59a4010 	ldr	r4, [sl, #16]
    a870:	e353000b 	cmp	r3, #11
    a874:	e58dc010 	str	ip, [sp, #16]
    a878:	e58d400c 	str	r4, [sp, #12]
    a87c:	e59ab000 	ldr	fp, [sl]
    a880:	e59a9004 	ldr	r9, [sl, #4]
    a884:	e5986038 	ldr	r6, [r8, #56]	; 0x38
    a888:	e598703c 	ldr	r7, [r8, #60]	; 0x3c
    a88c:	051f239c 	ldreq	r2, [pc, #-924]	; a4f8 <inflate+0x1260>
    a890:	03e01000 	mvneq	r1, #0
    a894:	07881002 	streq	r1, [r8, r2]
    a898:	eafffa9e 	b	9318 <inflate+0x80>
    a89c:	e5980018 	ldr	r0, [r8, #24]
    a8a0:	e1a0100b 	mov	r1, fp
    a8a4:	e1a02004 	mov	r2, r4
    a8a8:	eb000325 	bl	b544 <crc32>
    a8ac:	e5880018 	str	r0, [r8, #24]
    a8b0:	eafffed8 	b	a418 <inflate+0x1180>
    a8b4:	e31100f0 	tst	r1, #240	; 0xf0
    a8b8:	0a00001d 	beq	a934 <inflate+0x169c>
    a8bc:	e1a06336 	lsr	r6, r6, r3
    a8c0:	e51f23d0 	ldr	r2, [pc, #-976]	; a4f8 <inflate+0x1260>
    a8c4:	e0637007 	rsb	r7, r3, r7
    a8c8:	e5880040 	str	r0, [r8, #64]	; 0x40
    a8cc:	e7883002 	str	r3, [r8, r2]
    a8d0:	e3110020 	tst	r1, #32
    a8d4:	0a000060 	beq	aa5c <inflate+0x17c4>
    a8d8:	e51f23e8 	ldr	r2, [pc, #-1000]	; a4f8 <inflate+0x1260>
    a8dc:	e3e01000 	mvn	r1, #0
    a8e0:	e3a0300b 	mov	r3, #11
    a8e4:	e7881002 	str	r1, [r8, r2]
    a8e8:	e5883000 	str	r3, [r8]
    a8ec:	eafffa89 	b	9318 <inflate+0x80>
    a8f0:	e1a03426 	lsr	r3, r6, #8
    a8f4:	e28d1044 	add	r1, sp, #68	; 0x44
    a8f8:	e5980018 	ldr	r0, [r8, #24]
    a8fc:	e3a02002 	mov	r2, #2
    a900:	e5cd6044 	strb	r6, [sp, #68]	; 0x44
    a904:	e5cd3045 	strb	r3, [sp, #69]	; 0x45
    a908:	eb00030d 	bl	b544 <crc32>
    a90c:	e598c010 	ldr	ip, [r8, #16]
    a910:	e5880018 	str	r0, [r8, #24]
    a914:	e1a0100c 	mov	r1, ip
    a918:	eafffe12 	b	a168 <inflate+0xed0>
    a91c:	e3e03001 	mvn	r3, #1
    a920:	e58d3008 	str	r3, [sp, #8]
    a924:	eafffbde 	b	98a4 <inflate+0x60c>
    a928:	e1a0b00c 	mov	fp, ip
    a92c:	e59d8030 	ldr	r8, [sp, #48]	; 0x30
    a930:	eafffc1c 	b	99a8 <inflate+0x710>
    a934:	e0831001 	add	r1, r3, r1
    a938:	e3e0c000 	mvn	ip, #0
    a93c:	e1e0c11c 	mvn	ip, ip, lsl r1
    a940:	e00c1006 	and	r1, ip, r6
    a944:	e0801331 	add	r1, r0, r1, lsr r3
    a948:	e58dc020 	str	ip, [sp, #32]
    a94c:	e082c101 	add	ip, r2, r1, lsl #2
    a950:	e5dc4001 	ldrb	r4, [ip, #1]
    a954:	e7d21101 	ldrb	r1, [r2, r1, lsl #2]
    a958:	e0835004 	add	r5, r3, r4
    a95c:	e1570005 	cmp	r7, r5
    a960:	e1dcc0b2 	ldrh	ip, [ip, #2]
    a964:	2a000019 	bcs	a9d0 <inflate+0x1738>
    a968:	e3590000 	cmp	r9, #0
    a96c:	0afffc0d 	beq	99a8 <inflate+0x710>
    a970:	e58d8028 	str	r8, [sp, #40]	; 0x28
    a974:	e1a0c00b 	mov	ip, fp
    a978:	e59d8020 	ldr	r8, [sp, #32]
    a97c:	e58da020 	str	sl, [sp, #32]
    a980:	ea000001 	b	a98c <inflate+0x16f4>
    a984:	e3590000 	cmp	r9, #0
    a988:	0a00008d 	beq	abc4 <inflate+0x192c>
    a98c:	e4dc1001 	ldrb	r1, [ip], #1
    a990:	e2499001 	sub	r9, r9, #1
    a994:	e0866711 	add	r6, r6, r1, lsl r7
    a998:	e0061008 	and	r1, r6, r8
    a99c:	e0801331 	add	r1, r0, r1, lsr r3
    a9a0:	e082a101 	add	sl, r2, r1, lsl #2
    a9a4:	e5da4001 	ldrb	r4, [sl, #1]
    a9a8:	e2877008 	add	r7, r7, #8
    a9ac:	e0845003 	add	r5, r4, r3
    a9b0:	e1550007 	cmp	r5, r7
    a9b4:	e7d21101 	ldrb	r1, [r2, r1, lsl #2]
    a9b8:	e1daa0b2 	ldrh	sl, [sl, #2]
    a9bc:	e1a0b00c 	mov	fp, ip
    a9c0:	8affffef 	bhi	a984 <inflate+0x16ec>
    a9c4:	e1a0c00a 	mov	ip, sl
    a9c8:	e59d8028 	ldr	r8, [sp, #40]	; 0x28
    a9cc:	e59da020 	ldr	sl, [sp, #32]
    a9d0:	e1a06336 	lsr	r6, r6, r3
    a9d4:	e51f24e4 	ldr	r2, [pc, #-1252]	; a4f8 <inflate+0x1260>
    a9d8:	e0637007 	rsb	r7, r3, r7
    a9dc:	e3510000 	cmp	r1, #0
    a9e0:	e1a06436 	lsr	r6, r6, r4
    a9e4:	e0647007 	rsb	r7, r4, r7
    a9e8:	e588c040 	str	ip, [r8, #64]	; 0x40
    a9ec:	e7885002 	str	r5, [r8, r2]
    a9f0:	1affffb6 	bne	a8d0 <inflate+0x1638>
    a9f4:	eafffb4a 	b	9724 <inflate+0x48c>
    a9f8:	e51f0504 	ldr	r0, [pc, #-1284]	; a4fc <inflate+0x1264>
    a9fc:	e59dc01c 	ldr	ip, [sp, #28]
    aa00:	e3a03009 	mov	r3, #9
    aa04:	e3a01005 	mov	r1, #5
    aa08:	e2804b02 	add	r4, r0, #2048	; 0x800
    aa0c:	e5883054 	str	r3, [r8, #84]	; 0x54
    aa10:	e35c0006 	cmp	ip, #6
    aa14:	e3a03013 	mov	r3, #19
    aa18:	e588004c 	str	r0, [r8, #76]	; 0x4c
    aa1c:	e5884050 	str	r4, [r8, #80]	; 0x50
    aa20:	e5881058 	str	r1, [r8, #88]	; 0x58
    aa24:	e5883000 	str	r3, [r8]
    aa28:	1afffa9d 	bne	94a4 <inflate+0x20c>
    aa2c:	e1a061a6 	lsr	r6, r6, #3
    aa30:	e2477003 	sub	r7, r7, #3
    aa34:	eafffbdb 	b	99a8 <inflate+0x710>
    aa38:	e3a0301d 	mov	r3, #29
    aa3c:	e5883000 	str	r3, [r8]
    aa40:	eafffa97 	b	94a4 <inflate+0x20c>
    aa44:	e5980018 	ldr	r0, [r8, #24]
    aa48:	e1a0100b 	mov	r1, fp
    aa4c:	e1a02004 	mov	r2, r4
    aa50:	eb0002bb 	bl	b544 <crc32>
    aa54:	e5880018 	str	r0, [r8, #24]
    aa58:	eafffd97 	b	a0bc <inflate+0xe24>
    aa5c:	e3110040 	tst	r1, #64	; 0x40
    aa60:	1afffd55 	bne	9fbc <inflate+0xd24>
    aa64:	e201100f 	and	r1, r1, #15
    aa68:	e3a03015 	mov	r3, #21
    aa6c:	e5881048 	str	r1, [r8, #72]	; 0x48
    aa70:	e5883000 	str	r3, [r8]
    aa74:	eafffb2e 	b	9734 <inflate+0x49c>
    aa78:	e1a01426 	lsr	r1, r6, #8
    aa7c:	e1a02826 	lsr	r2, r6, #16
    aa80:	e1a03c26 	lsr	r3, r6, #24
    aa84:	e5cd1045 	strb	r1, [sp, #69]	; 0x45
    aa88:	e5cd2046 	strb	r2, [sp, #70]	; 0x46
    aa8c:	e5980018 	ldr	r0, [r8, #24]
    aa90:	e28d1044 	add	r1, sp, #68	; 0x44
    aa94:	e3a02004 	mov	r2, #4
    aa98:	e5cd6044 	strb	r6, [sp, #68]	; 0x44
    aa9c:	e5cd3047 	strb	r3, [sp, #71]	; 0x47
    aaa0:	eb0002a7 	bl	b544 <crc32>
    aaa4:	e5880018 	str	r0, [r8, #24]
    aaa8:	eafffb98 	b	9910 <inflate+0x678>
    aaac:	e1a03426 	lsr	r3, r6, #8
    aab0:	e28d1044 	add	r1, sp, #68	; 0x44
    aab4:	e5980018 	ldr	r0, [r8, #24]
    aab8:	e3a02002 	mov	r2, #2
    aabc:	e5cd6044 	strb	r6, [sp, #68]	; 0x44
    aac0:	e5cd3045 	strb	r3, [sp, #69]	; 0x45
    aac4:	eb00029e 	bl	b544 <crc32>
    aac8:	e5981010 	ldr	r1, [r8, #16]
    aacc:	e3a06000 	mov	r6, #0
    aad0:	e5880018 	str	r0, [r8, #24]
    aad4:	e2013b01 	and	r3, r1, #1024	; 0x400
    aad8:	e1a07006 	mov	r7, r6
    aadc:	eafffead 	b	a598 <inflate+0x1300>
    aae0:	e2810002 	add	r0, r1, #2
    aae4:	e1570000 	cmp	r7, r0
    aae8:	2a00000c 	bcs	ab20 <inflate+0x1888>
    aaec:	e3590000 	cmp	r9, #0
    aaf0:	0afffbac 	beq	99a8 <inflate+0x710>
    aaf4:	e1a0300b 	mov	r3, fp
    aaf8:	ea000001 	b	ab04 <inflate+0x186c>
    aafc:	e3590000 	cmp	r9, #0
    ab00:	0afffba8 	beq	99a8 <inflate+0x710>
    ab04:	e4d32001 	ldrb	r2, [r3], #1
    ab08:	e2499001 	sub	r9, r9, #1
    ab0c:	e0866712 	add	r6, r6, r2, lsl r7
    ab10:	e2877008 	add	r7, r7, #8
    ab14:	e1570000 	cmp	r7, r0
    ab18:	e1a0b003 	mov	fp, r3
    ab1c:	3afffff6 	bcc	aafc <inflate+0x1864>
    ab20:	e3550000 	cmp	r5, #0
    ab24:	e1a06136 	lsr	r6, r6, r1
    ab28:	e0617007 	rsb	r7, r1, r7
    ab2c:	0a000061 	beq	acb8 <inflate+0x1a20>
    ab30:	e2062003 	and	r2, r6, #3
    ab34:	e0883085 	add	r3, r8, r5, lsl #1
    ab38:	e2822003 	add	r2, r2, #3
    ab3c:	e2477002 	sub	r7, r7, #2
    ab40:	e1d306be 	ldrh	r0, [r3, #110]	; 0x6e
    ab44:	e58d202c 	str	r2, [sp, #44]	; 0x2c
    ab48:	e1a06126 	lsr	r6, r6, #2
    ab4c:	eafffc6a 	b	9cfc <inflate+0xa64>
    ab50:	e3e0c001 	mvn	ip, #1
    ab54:	e58dc008 	str	ip, [sp, #8]
    ab58:	eafffb51 	b	98a4 <inflate+0x60c>
    ab5c:	e2810003 	add	r0, r1, #3
    ab60:	e1570000 	cmp	r7, r0
    ab64:	2a00000c 	bcs	ab9c <inflate+0x1904>
    ab68:	e3590000 	cmp	r9, #0
    ab6c:	0afffb8d 	beq	99a8 <inflate+0x710>
    ab70:	e1a0300b 	mov	r3, fp
    ab74:	ea000001 	b	ab80 <inflate+0x18e8>
    ab78:	e3590000 	cmp	r9, #0
    ab7c:	0afffb89 	beq	99a8 <inflate+0x710>
    ab80:	e4d32001 	ldrb	r2, [r3], #1
    ab84:	e2499001 	sub	r9, r9, #1
    ab88:	e0866712 	add	r6, r6, r2, lsl r7
    ab8c:	e2877008 	add	r7, r7, #8
    ab90:	e1570000 	cmp	r7, r0
    ab94:	e1a0b003 	mov	fp, r3
    ab98:	3afffff6 	bcc	ab78 <inflate+0x18e0>
    ab9c:	e1a06136 	lsr	r6, r6, r1
    aba0:	e3e03002 	mvn	r3, #2
    aba4:	e2062007 	and	r2, r6, #7
    aba8:	e0613003 	rsb	r3, r1, r3
    abac:	e2822003 	add	r2, r2, #3
    abb0:	e58d202c 	str	r2, [sp, #44]	; 0x2c
    abb4:	e1a061a6 	lsr	r6, r6, #3
    abb8:	e0877003 	add	r7, r7, r3
    abbc:	e3a00000 	mov	r0, #0
    abc0:	eafffc4d 	b	9cfc <inflate+0xa64>
    abc4:	e59d8028 	ldr	r8, [sp, #40]	; 0x28
    abc8:	e59da020 	ldr	sl, [sp, #32]
    abcc:	eafffb75 	b	99a8 <inflate+0x710>
    abd0:	e59d4010 	ldr	r4, [sp, #16]
    abd4:	e0621004 	rsb	r1, r2, r4
    abd8:	eb0002a6 	bl	b678 <adler32>
    abdc:	eafffd99 	b	a248 <inflate+0xfb0>
    abe0:	e59d4010 	ldr	r4, [sp, #16]
    abe4:	e59dc00c 	ldr	ip, [sp, #12]
    abe8:	e3a03002 	mov	r3, #2
    abec:	e58a400c 	str	r4, [sl, #12]
    abf0:	e58ac010 	str	ip, [sl, #16]
    abf4:	e58ab000 	str	fp, [sl]
    abf8:	e58a9004 	str	r9, [sl, #4]
    abfc:	e58d3008 	str	r3, [sp, #8]
    ac00:	e5886038 	str	r6, [r8, #56]	; 0x38
    ac04:	e588703c 	str	r7, [r8, #60]	; 0x3c
    ac08:	eafffb25 	b	98a4 <inflate+0x60c>
    ac0c:	e1a03426 	lsr	r3, r6, #8
    ac10:	e5980018 	ldr	r0, [r8, #24]
    ac14:	e28d1044 	add	r1, sp, #68	; 0x44
    ac18:	e3a02002 	mov	r2, #2
    ac1c:	e5cd6044 	strb	r6, [sp, #68]	; 0x44
    ac20:	e5cd3045 	strb	r3, [sp, #69]	; 0x45
    ac24:	eb000246 	bl	b544 <crc32>
    ac28:	e5880018 	str	r0, [r8, #24]
    ac2c:	eafffe24 	b	a4c4 <inflate+0x122c>
    ac30:	e3a00000 	mov	r0, #0
    ac34:	e1a01000 	mov	r1, r0
    ac38:	e1a02000 	mov	r2, r0
    ac3c:	eb000240 	bl	b544 <crc32>
    ac40:	e3a0201f 	mov	r2, #31
    ac44:	e3e03074 	mvn	r3, #116	; 0x74
    ac48:	e5cd2044 	strb	r2, [sp, #68]	; 0x44
    ac4c:	e5880018 	str	r0, [r8, #24]
    ac50:	e28d1044 	add	r1, sp, #68	; 0x44
    ac54:	e3a02002 	mov	r2, #2
    ac58:	e5cd3045 	strb	r3, [sp, #69]	; 0x45
    ac5c:	eb000238 	bl	b544 <crc32>
    ac60:	e3a07000 	mov	r7, #0
    ac64:	e3a03001 	mov	r3, #1
    ac68:	e5880018 	str	r0, [r8, #24]
    ac6c:	e5883000 	str	r3, [r8]
    ac70:	e1a06007 	mov	r6, r7
    ac74:	eafff9a7 	b	9318 <inflate+0x80>
    ac78:	e3a02001 	mov	r2, #1
    ac7c:	e1a03312 	lsl	r3, r2, r3
    ac80:	e3a00000 	mov	r0, #0
    ac84:	e5883014 	str	r3, [r8, #20]
    ac88:	e1a01000 	mov	r1, r0
    ac8c:	e1a02000 	mov	r2, r0
    ac90:	eb000278 	bl	b678 <adler32>
    ac94:	e3160c02 	tst	r6, #512	; 0x200
    ac98:	03a0300b 	moveq	r3, #11
    ac9c:	13a03009 	movne	r3, #9
    aca0:	e3a06000 	mov	r6, #0
    aca4:	e5880018 	str	r0, [r8, #24]
    aca8:	e1a07006 	mov	r7, r6
    acac:	e58a002c 	str	r0, [sl, #44]	; 0x2c
    acb0:	e5883000 	str	r3, [r8]
    acb4:	eafff997 	b	9318 <inflate+0x80>
    acb8:	e3a0301d 	mov	r3, #29
    acbc:	e5883000 	str	r3, [r8]
    acc0:	e3a0301d 	mov	r3, #29
    acc4:	eafff993 	b	9318 <inflate+0x80>
    acc8:	e1a04000 	mov	r4, r0
    accc:	e59d3010 	ldr	r3, [sp, #16]
    acd0:	eafffe84 	b	a6e8 <inflate+0x1450>
    acd4:	e1a03005 	mov	r3, r5
    acd8:	eafffc22 	b	9d68 <inflate+0xad0>

0000acdc <inflateEnd>:
    acdc:	e92d4010 	push	{r4, lr}
    ace0:	e2504000 	subs	r4, r0, #0
    ace4:	0a000012 	beq	ad34 <inflateEnd+0x58>
    ace8:	e5941018 	ldr	r1, [r4, #24]
    acec:	e3510000 	cmp	r1, #0
    acf0:	0a00000f 	beq	ad34 <inflateEnd+0x58>
    acf4:	e5943020 	ldr	r3, [r4, #32]
    acf8:	e3530000 	cmp	r3, #0
    acfc:	0a00000c 	beq	ad34 <inflateEnd+0x58>
    ad00:	e5912034 	ldr	r2, [r1, #52]	; 0x34
    ad04:	e3520000 	cmp	r2, #0
    ad08:	0a000004 	beq	ad20 <inflateEnd+0x44>
    ad0c:	e1a01002 	mov	r1, r2
    ad10:	e5940024 	ldr	r0, [r4, #36]	; 0x24
    ad14:	e12fff33 	blx	r3
    ad18:	e5943020 	ldr	r3, [r4, #32]
    ad1c:	e5941018 	ldr	r1, [r4, #24]
    ad20:	e5940024 	ldr	r0, [r4, #36]	; 0x24
    ad24:	e12fff33 	blx	r3
    ad28:	e3a00000 	mov	r0, #0
    ad2c:	e5840018 	str	r0, [r4, #24]
    ad30:	e8bd8010 	pop	{r4, pc}
    ad34:	e3e00001 	mvn	r0, #1
    ad38:	e8bd8010 	pop	{r4, pc}

0000ad3c <inflateSetDictionary>:
    ad3c:	e92d41f0 	push	{r4, r5, r6, r7, r8, lr}
    ad40:	e2504000 	subs	r4, r0, #0
    ad44:	e1a07001 	mov	r7, r1
    ad48:	e1a06002 	mov	r6, r2
    ad4c:	0a000026 	beq	adec <inflateSetDictionary+0xb0>
    ad50:	e5945018 	ldr	r5, [r4, #24]
    ad54:	e3550000 	cmp	r5, #0
    ad58:	0a000023 	beq	adec <inflateSetDictionary+0xb0>
    ad5c:	e5953008 	ldr	r3, [r5, #8]
    ad60:	e3530000 	cmp	r3, #0
    ad64:	e5953000 	ldr	r3, [r5]
    ad68:	1a000011 	bne	adb4 <inflateSetDictionary+0x78>
    ad6c:	e353000a 	cmp	r3, #10
    ad70:	0a000011 	beq	adbc <inflateSetDictionary+0x80>
    ad74:	e0877006 	add	r7, r7, r6
    ad78:	e3a03000 	mov	r3, #0
    ad7c:	e5948010 	ldr	r8, [r4, #16]
    ad80:	e1a01006 	mov	r1, r6
    ad84:	e5843010 	str	r3, [r4, #16]
    ad88:	e594600c 	ldr	r6, [r4, #12]
    ad8c:	e1a00004 	mov	r0, r4
    ad90:	e584700c 	str	r7, [r4, #12]
    ad94:	ebfff7cc 	bl	8ccc <updatewindow>
    ad98:	e3500000 	cmp	r0, #0
    ad9c:	e5848010 	str	r8, [r4, #16]
    ada0:	e584600c 	str	r6, [r4, #12]
    ada4:	1a000012 	bne	adf4 <inflateSetDictionary+0xb8>
    ada8:	e3a03001 	mov	r3, #1
    adac:	e585300c 	str	r3, [r5, #12]
    adb0:	e8bd81f0 	pop	{r4, r5, r6, r7, r8, pc}
    adb4:	e353000a 	cmp	r3, #10
    adb8:	1a00000b 	bne	adec <inflateSetDictionary+0xb0>
    adbc:	e3a00000 	mov	r0, #0
    adc0:	e1a01000 	mov	r1, r0
    adc4:	e1a02000 	mov	r2, r0
    adc8:	eb00022a 	bl	b678 <adler32>
    adcc:	e1a01007 	mov	r1, r7
    add0:	e1a02006 	mov	r2, r6
    add4:	eb000227 	bl	b678 <adler32>
    add8:	e5953018 	ldr	r3, [r5, #24]
    addc:	e1530000 	cmp	r3, r0
    ade0:	0affffe3 	beq	ad74 <inflateSetDictionary+0x38>
    ade4:	e3e00002 	mvn	r0, #2
    ade8:	e8bd81f0 	pop	{r4, r5, r6, r7, r8, pc}
    adec:	e3e00001 	mvn	r0, #1
    adf0:	e8bd81f0 	pop	{r4, r5, r6, r7, r8, pc}
    adf4:	e3a0301e 	mov	r3, #30
    adf8:	e5853000 	str	r3, [r5]
    adfc:	e3e00003 	mvn	r0, #3
    ae00:	e8bd81f0 	pop	{r4, r5, r6, r7, r8, pc}

0000ae04 <inflateGetHeader>:
    ae04:	e3500000 	cmp	r0, #0
    ae08:	0a00000a 	beq	ae38 <inflateGetHeader+0x34>
    ae0c:	e5903018 	ldr	r3, [r0, #24]
    ae10:	e3530000 	cmp	r3, #0
    ae14:	0a000007 	beq	ae38 <inflateGetHeader+0x34>
    ae18:	e5932008 	ldr	r2, [r3, #8]
    ae1c:	e3120002 	tst	r2, #2
    ae20:	0a000004 	beq	ae38 <inflateGetHeader+0x34>
    ae24:	e3a02000 	mov	r2, #0
    ae28:	e5831020 	str	r1, [r3, #32]
    ae2c:	e1a00002 	mov	r0, r2
    ae30:	e5812030 	str	r2, [r1, #48]	; 0x30
    ae34:	e12fff1e 	bx	lr
    ae38:	e3e00001 	mvn	r0, #1
    ae3c:	e12fff1e 	bx	lr

0000ae40 <inflateSync>:
    ae40:	e92d07f0 	push	{r4, r5, r6, r7, r8, r9, sl}
    ae44:	e2505000 	subs	r5, r0, #0
    ae48:	e24dd00c 	sub	sp, sp, #12
    ae4c:	0a00009f 	beq	b0d0 <inflateSync+0x290>
    ae50:	e595c018 	ldr	ip, [r5, #24]
    ae54:	e35c0000 	cmp	ip, #0
    ae58:	0a00009c 	beq	b0d0 <inflateSync+0x290>
    ae5c:	e5950004 	ldr	r0, [r5, #4]
    ae60:	e3500000 	cmp	r0, #0
    ae64:	0a00008f 	beq	b0a8 <inflateSync+0x268>
    ae68:	e59c3000 	ldr	r3, [ip]
    ae6c:	e353001f 	cmp	r3, #31
    ae70:	0a000091 	beq	b0bc <inflateSync+0x27c>
    ae74:	e59c303c 	ldr	r3, [ip, #60]	; 0x3c
    ae78:	e59c1038 	ldr	r1, [ip, #56]	; 0x38
    ae7c:	e2032007 	and	r2, r3, #7
    ae80:	e1a01211 	lsl	r1, r1, r2
    ae84:	e3c33007 	bic	r3, r3, #7
    ae88:	e3a0201f 	mov	r2, #31
    ae8c:	e3530007 	cmp	r3, #7
    ae90:	e58c303c 	str	r3, [ip, #60]	; 0x3c
    ae94:	e58c1038 	str	r1, [ip, #56]	; 0x38
    ae98:	e58c2000 	str	r2, [ip]
    ae9c:	9a00002b 	bls	af50 <inflateSync+0x110>
    aea0:	e2436008 	sub	r6, r3, #8
    aea4:	e1a061a6 	lsr	r6, r6, #3
    aea8:	e28d0004 	add	r0, sp, #4
    aeac:	e0804006 	add	r4, r0, r6
    aeb0:	e1a02001 	mov	r2, r1
    aeb4:	e28d3003 	add	r3, sp, #3
    aeb8:	ea000000 	b	aec0 <inflateSync+0x80>
    aebc:	e1a01002 	mov	r1, r2
    aec0:	e5e31001 	strb	r1, [r3, #1]!
    aec4:	e1530004 	cmp	r3, r4
    aec8:	e1a02422 	lsr	r2, r2, #8
    aecc:	1afffffa 	bne	aebc <inflateSync+0x7c>
    aed0:	e3a01000 	mov	r1, #0
    aed4:	e1a03001 	mov	r3, r1
    aed8:	e2866001 	add	r6, r6, #1
    aedc:	e58c2038 	str	r2, [ip, #56]	; 0x38
    aee0:	e58c103c 	str	r1, [ip, #60]	; 0x3c
    aee4:	e58c1068 	str	r1, [ip, #104]	; 0x68
    aee8:	ea00000d 	b	af24 <inflateSync+0xe4>
    aeec:	e3520000 	cmp	r2, #0
    aef0:	13a02001 	movne	r2, #1
    aef4:	13a03000 	movne	r3, #0
    aef8:	1a000003 	bne	af0c <inflateSync+0xcc>
    aefc:	e2633004 	rsb	r3, r3, #4
    af00:	e3530003 	cmp	r3, #3
    af04:	83a02000 	movhi	r2, #0
    af08:	93a02001 	movls	r2, #1
    af0c:	e2811001 	add	r1, r1, #1
    af10:	e1510006 	cmp	r1, r6
    af14:	23a04000 	movcs	r4, #0
    af18:	32024001 	andcc	r4, r2, #1
    af1c:	e3540000 	cmp	r4, #0
    af20:	0a00000d 	beq	af5c <inflateSync+0x11c>
    af24:	e3530001 	cmp	r3, #1
    af28:	e7d02001 	ldrb	r2, [r0, r1]
    af2c:	83a040ff 	movhi	r4, #255	; 0xff
    af30:	93a04000 	movls	r4, #0
    af34:	e1520004 	cmp	r2, r4
    af38:	1affffeb 	bne	aeec <inflateSync+0xac>
    af3c:	e2833001 	add	r3, r3, #1
    af40:	e3530003 	cmp	r3, #3
    af44:	83a02000 	movhi	r2, #0
    af48:	93a02001 	movls	r2, #1
    af4c:	eaffffee 	b	af0c <inflateSync+0xcc>
    af50:	e3a03000 	mov	r3, #0
    af54:	e58c3068 	str	r3, [ip, #104]	; 0x68
    af58:	e3a02001 	mov	r2, #1
    af5c:	e58c3068 	str	r3, [ip, #104]	; 0x68
    af60:	e5950004 	ldr	r0, [r5, #4]
    af64:	e3500000 	cmp	r0, #0
    af68:	03a02000 	moveq	r2, #0
    af6c:	12022001 	andne	r2, r2, #1
    af70:	e3520000 	cmp	r2, #0
    af74:	e5956000 	ldr	r6, [r5]
    af78:	0a00001a 	beq	afe8 <inflateSync+0x1a8>
    af7c:	e3a02000 	mov	r2, #0
    af80:	ea00000d 	b	afbc <inflateSync+0x17c>
    af84:	e3510000 	cmp	r1, #0
    af88:	13a01001 	movne	r1, #1
    af8c:	13a03000 	movne	r3, #0
    af90:	1a000003 	bne	afa4 <inflateSync+0x164>
    af94:	e2633004 	rsb	r3, r3, #4
    af98:	e3530003 	cmp	r3, #3
    af9c:	83a01000 	movhi	r1, #0
    afa0:	93a01001 	movls	r1, #1
    afa4:	e2822001 	add	r2, r2, #1
    afa8:	e1500002 	cmp	r0, r2
    afac:	93a01000 	movls	r1, #0
    afb0:	82011001 	andhi	r1, r1, #1
    afb4:	e3510000 	cmp	r1, #0
    afb8:	0a00000a 	beq	afe8 <inflateSync+0x1a8>
    afbc:	e3530001 	cmp	r3, #1
    afc0:	e7d61002 	ldrb	r1, [r6, r2]
    afc4:	83a040ff 	movhi	r4, #255	; 0xff
    afc8:	93a04000 	movls	r4, #0
    afcc:	e1510004 	cmp	r1, r4
    afd0:	1affffeb 	bne	af84 <inflateSync+0x144>
    afd4:	e2833001 	add	r3, r3, #1
    afd8:	e3530003 	cmp	r3, #3
    afdc:	83a01000 	movhi	r1, #0
    afe0:	93a01001 	movls	r1, #1
    afe4:	eaffffee 	b	afa4 <inflateSync+0x164>
    afe8:	e58c3068 	str	r3, [ip, #104]	; 0x68
    afec:	e9950003 	ldmib	r5, {r0, r1}
    aff0:	e0866002 	add	r6, r6, r2
    aff4:	e3530004 	cmp	r3, #4
    aff8:	e0623000 	rsb	r3, r2, r0
    affc:	e0822001 	add	r2, r2, r1
    b000:	e5856000 	str	r6, [r5]
    b004:	e5853004 	str	r3, [r5, #4]
    b008:	e5852008 	str	r2, [r5, #8]
    b00c:	13e00002 	mvnne	r0, #2
    b010:	1a000021 	bne	b09c <inflateSync+0x25c>
    b014:	e59c1008 	ldr	r1, [ip, #8]
    b018:	e3a03000 	mov	r3, #0
    b01c:	e1510003 	cmp	r1, r3
    b020:	e5954014 	ldr	r4, [r5, #20]
    b024:	12011001 	andne	r1, r1, #1
    b028:	e59fa0a8 	ldr	sl, [pc, #168]	; b0d8 <inflateSync+0x298>
    b02c:	e58c3028 	str	r3, [ip, #40]	; 0x28
    b030:	e58c302c 	str	r3, [ip, #44]	; 0x2c
    b034:	e58c3030 	str	r3, [ip, #48]	; 0x30
    b038:	e58c301c 	str	r3, [ip, #28]
    b03c:	e3a00000 	mov	r0, #0
    b040:	e5853014 	str	r3, [r5, #20]
    b044:	e5853008 	str	r3, [r5, #8]
    b048:	1585102c 	strne	r1, [r5, #44]	; 0x2c
    b04c:	e28c3e53 	add	r3, ip, #1328	; 0x530
    b050:	e3e09000 	mvn	r9, #0
    b054:	e3a08902 	mov	r8, #32768	; 0x8000
    b058:	e3a06d6f 	mov	r6, #7104	; 0x1bc0
    b05c:	e3a07001 	mov	r7, #1
    b060:	e3a0100b 	mov	r1, #11
    b064:	e78c900a 	str	r9, [ip, sl]
    b068:	e58c0004 	str	r0, [ip, #4]
    b06c:	e58c000c 	str	r0, [ip, #12]
    b070:	e58c0020 	str	r0, [ip, #32]
    b074:	e58c0038 	str	r0, [ip, #56]	; 0x38
    b078:	e58c003c 	str	r0, [ip, #60]	; 0x3c
    b07c:	e58c8014 	str	r8, [ip, #20]
    b080:	e58c306c 	str	r3, [ip, #108]	; 0x6c
    b084:	e58c3050 	str	r3, [ip, #80]	; 0x50
    b088:	e58c304c 	str	r3, [ip, #76]	; 0x4c
    b08c:	e78c7006 	str	r7, [ip, r6]
    b090:	e5852008 	str	r2, [r5, #8]
    b094:	e5854014 	str	r4, [r5, #20]
    b098:	e58c1000 	str	r1, [ip]
    b09c:	e28dd00c 	add	sp, sp, #12
    b0a0:	e8bd07f0 	pop	{r4, r5, r6, r7, r8, r9, sl}
    b0a4:	e12fff1e 	bx	lr
    b0a8:	e59c303c 	ldr	r3, [ip, #60]	; 0x3c
    b0ac:	e3530007 	cmp	r3, #7
    b0b0:	8affff6c 	bhi	ae68 <inflateSync+0x28>
    b0b4:	e3e00004 	mvn	r0, #4
    b0b8:	eafffff7 	b	b09c <inflateSync+0x25c>
    b0bc:	e59c3068 	ldr	r3, [ip, #104]	; 0x68
    b0c0:	e3530003 	cmp	r3, #3
    b0c4:	83a02000 	movhi	r2, #0
    b0c8:	93a02001 	movls	r2, #1
    b0cc:	eaffffa4 	b	af64 <inflateSync+0x124>
    b0d0:	e3e00001 	mvn	r0, #1
    b0d4:	eafffff0 	b	b09c <inflateSync+0x25c>
    b0d8:	00001bc4 	andeq	r1, r0, r4, asr #23

0000b0dc <inflateSyncPoint>:
    b0dc:	e3500000 	cmp	r0, #0
    b0e0:	0a00000b 	beq	b114 <inflateSyncPoint+0x38>
    b0e4:	e5903018 	ldr	r3, [r0, #24]
    b0e8:	e3530000 	cmp	r3, #0
    b0ec:	0a000008 	beq	b114 <inflateSyncPoint+0x38>
    b0f0:	e5932000 	ldr	r2, [r3]
    b0f4:	e352000d 	cmp	r2, #13
    b0f8:	0a000001 	beq	b104 <inflateSyncPoint+0x28>
    b0fc:	e3a00000 	mov	r0, #0
    b100:	e12fff1e 	bx	lr
    b104:	e593003c 	ldr	r0, [r3, #60]	; 0x3c
    b108:	e2700001 	rsbs	r0, r0, #1
    b10c:	33a00000 	movcc	r0, #0
    b110:	e12fff1e 	bx	lr
    b114:	e3e00001 	mvn	r0, #1
    b118:	e12fff1e 	bx	lr

0000b11c <inflateCopy>:
    b11c:	e3500000 	cmp	r0, #0
    b120:	13510000 	cmpne	r1, #0
    b124:	e92d41f0 	push	{r4, r5, r6, r7, r8, lr}
    b128:	e1a05001 	mov	r5, r1
    b12c:	e1a07000 	mov	r7, r0
    b130:	0a000047 	beq	b254 <inflateCopy+0x138>
    b134:	e5914018 	ldr	r4, [r1, #24]
    b138:	e3540000 	cmp	r4, #0
    b13c:	0a000044 	beq	b254 <inflateCopy+0x138>
    b140:	e591301c 	ldr	r3, [r1, #28]
    b144:	e3530000 	cmp	r3, #0
    b148:	0a000041 	beq	b254 <inflateCopy+0x138>
    b14c:	e5912020 	ldr	r2, [r1, #32]
    b150:	e3520000 	cmp	r2, #0
    b154:	0a00003e 	beq	b254 <inflateCopy+0x138>
    b158:	e5910024 	ldr	r0, [r1, #36]	; 0x24
    b15c:	e59f2118 	ldr	r2, [pc, #280]	; b27c <inflateCopy+0x160>
    b160:	e3a01001 	mov	r1, #1
    b164:	e12fff33 	blx	r3
    b168:	e2506000 	subs	r6, r0, #0
    b16c:	0a00003a 	beq	b25c <inflateCopy+0x140>
    b170:	e5948034 	ldr	r8, [r4, #52]	; 0x34
    b174:	e3580000 	cmp	r8, #0
    b178:	0a000007 	beq	b19c <inflateCopy+0x80>
    b17c:	e5941024 	ldr	r1, [r4, #36]	; 0x24
    b180:	e3a02001 	mov	r2, #1
    b184:	e1a01112 	lsl	r1, r2, r1
    b188:	e595301c 	ldr	r3, [r5, #28]
    b18c:	e5950024 	ldr	r0, [r5, #36]	; 0x24
    b190:	e12fff33 	blx	r3
    b194:	e2508000 	subs	r8, r0, #0
    b198:	0a000031 	beq	b264 <inflateCopy+0x148>
    b19c:	e1a01005 	mov	r1, r5
    b1a0:	e1a00007 	mov	r0, r7
    b1a4:	e3a02034 	mov	r2, #52	; 0x34
    b1a8:	ebfff497 	bl	840c <xmemcpy>
    b1ac:	e59f20c8 	ldr	r2, [pc, #200]	; b27c <inflateCopy+0x160>
    b1b0:	e1a00006 	mov	r0, r6
    b1b4:	e1a01004 	mov	r1, r4
    b1b8:	ebfff493 	bl	840c <xmemcpy>
    b1bc:	e594204c 	ldr	r2, [r4, #76]	; 0x4c
    b1c0:	e2843e53 	add	r3, r4, #1328	; 0x530
    b1c4:	e1520003 	cmp	r2, r3
    b1c8:	2a000011 	bcs	b214 <inflateCopy+0xf8>
    b1cc:	e594206c 	ldr	r2, [r4, #108]	; 0x6c
    b1d0:	e3580000 	cmp	r8, #0
    b1d4:	e0633002 	rsb	r3, r3, r2
    b1d8:	e3c33003 	bic	r3, r3, #3
    b1dc:	e2833e53 	add	r3, r3, #1328	; 0x530
    b1e0:	e0863003 	add	r3, r6, r3
    b1e4:	e586306c 	str	r3, [r6, #108]	; 0x6c
    b1e8:	0a000005 	beq	b204 <inflateCopy+0xe8>
    b1ec:	e5943024 	ldr	r3, [r4, #36]	; 0x24
    b1f0:	e3a02001 	mov	r2, #1
    b1f4:	e5941034 	ldr	r1, [r4, #52]	; 0x34
    b1f8:	e1a02312 	lsl	r2, r2, r3
    b1fc:	e1a00008 	mov	r0, r8
    b200:	ebfff481 	bl	840c <xmemcpy>
    b204:	e5868034 	str	r8, [r6, #52]	; 0x34
    b208:	e3a00000 	mov	r0, #0
    b20c:	e5876018 	str	r6, [r7, #24]
    b210:	e8bd81f0 	pop	{r4, r5, r6, r7, r8, pc}
    b214:	e2841d6e 	add	r1, r4, #7040	; 0x1b80
    b218:	e281103c 	add	r1, r1, #60	; 0x3c
    b21c:	e1510002 	cmp	r1, r2
    b220:	3affffe9 	bcc	b1cc <inflateCopy+0xb0>
    b224:	e5940050 	ldr	r0, [r4, #80]	; 0x50
    b228:	e0631002 	rsb	r1, r3, r2
    b22c:	e0632000 	rsb	r2, r3, r0
    b230:	e3c11003 	bic	r1, r1, #3
    b234:	e3c22003 	bic	r2, r2, #3
    b238:	e2811e53 	add	r1, r1, #1328	; 0x530
    b23c:	e2822e53 	add	r2, r2, #1328	; 0x530
    b240:	e0861001 	add	r1, r6, r1
    b244:	e0862002 	add	r2, r6, r2
    b248:	e586104c 	str	r1, [r6, #76]	; 0x4c
    b24c:	e5862050 	str	r2, [r6, #80]	; 0x50
    b250:	eaffffdd 	b	b1cc <inflateCopy+0xb0>
    b254:	e3e00001 	mvn	r0, #1
    b258:	e8bd81f0 	pop	{r4, r5, r6, r7, r8, pc}
    b25c:	e3e00003 	mvn	r0, #3
    b260:	e8bd81f0 	pop	{r4, r5, r6, r7, r8, pc}
    b264:	e5950024 	ldr	r0, [r5, #36]	; 0x24
    b268:	e1a01006 	mov	r1, r6
    b26c:	e5953020 	ldr	r3, [r5, #32]
    b270:	e12fff33 	blx	r3
    b274:	e3e00003 	mvn	r0, #3
    b278:	e8bd81f0 	pop	{r4, r5, r6, r7, r8, pc}
    b27c:	00001bcc 	andeq	r1, r0, ip, asr #23

0000b280 <inflateUndermine>:
    b280:	e3500000 	cmp	r0, #0
    b284:	0a000007 	beq	b2a8 <inflateUndermine+0x28>
    b288:	e5903018 	ldr	r3, [r0, #24]
    b28c:	e3530000 	cmp	r3, #0
    b290:	0a000004 	beq	b2a8 <inflateUndermine+0x28>
    b294:	e3a02d6f 	mov	r2, #7104	; 0x1bc0
    b298:	e3a01001 	mov	r1, #1
    b29c:	e7831002 	str	r1, [r3, r2]
    b2a0:	e3e00002 	mvn	r0, #2
    b2a4:	e12fff1e 	bx	lr
    b2a8:	e3e00001 	mvn	r0, #1
    b2ac:	e12fff1e 	bx	lr

0000b2b0 <inflateMark>:
    b2b0:	e3500000 	cmp	r0, #0
    b2b4:	0a000011 	beq	b300 <inflateMark+0x50>
    b2b8:	e5903018 	ldr	r3, [r0, #24]
    b2bc:	e3530000 	cmp	r3, #0
    b2c0:	0a00000e 	beq	b300 <inflateMark+0x50>
    b2c4:	e59f103c 	ldr	r1, [pc, #60]	; b308 <inflateMark+0x58>
    b2c8:	e5932000 	ldr	r2, [r3]
    b2cc:	e7931001 	ldr	r1, [r3, r1]
    b2d0:	e352000f 	cmp	r2, #15
    b2d4:	e1a01801 	lsl	r1, r1, #16
    b2d8:	05930040 	ldreq	r0, [r3, #64]	; 0x40
    b2dc:	0a000005 	beq	b2f8 <inflateMark+0x48>
    b2e0:	e3520018 	cmp	r2, #24
    b2e4:	059f0020 	ldreq	r0, [pc, #32]	; b30c <inflateMark+0x5c>
    b2e8:	05932040 	ldreq	r2, [r3, #64]	; 0x40
    b2ec:	07930000 	ldreq	r0, [r3, r0]
    b2f0:	13a00000 	movne	r0, #0
    b2f4:	00620000 	rsbeq	r0, r2, r0
    b2f8:	e0800001 	add	r0, r0, r1
    b2fc:	e12fff1e 	bx	lr
    b300:	e59f0008 	ldr	r0, [pc, #8]	; b310 <inflateMark+0x60>
    b304:	e12fff1e 	bx	lr
    b308:	00001bc4 	andeq	r1, r0, r4, asr #23
    b30c:	00001bc8 	andeq	r1, r0, r8, asr #23
    b310:	ffff0000 			; <UNDEFINED> instruction: 0xffff0000

0000b314 <crc32_combine_>:
    b314:	e92d00f0 	push	{r4, r5, r6, r7}
    b318:	e3520000 	cmp	r2, #0
    b31c:	e24ddc01 	sub	sp, sp, #256	; 0x100
    b320:	da000068 	ble	b4c8 <crc32_combine_+0x1b4>
    b324:	e59f3208 	ldr	r3, [pc, #520]	; b534 <crc32_combine_+0x220>
    b328:	e28d6c01 	add	r6, sp, #256	; 0x100
    b32c:	e5263080 	str	r3, [r6, #-128]!	; 0x80
    b330:	e1a0c006 	mov	ip, r6
    b334:	e28d40fc 	add	r4, sp, #252	; 0xfc
    b338:	e3a03001 	mov	r3, #1
    b33c:	e5ac3004 	str	r3, [ip, #4]!
    b340:	e15c0004 	cmp	ip, r4
    b344:	e1a03083 	lsl	r3, r3, #1
    b348:	1afffffb 	bne	b33c <crc32_combine_+0x28>
    b34c:	e3a07000 	mov	r7, #0
    b350:	e7963007 	ldr	r3, [r6, r7]
    b354:	e3530000 	cmp	r3, #0
    b358:	0a000069 	beq	b504 <crc32_combine_+0x1f0>
    b35c:	e28dc084 	add	ip, sp, #132	; 0x84
    b360:	e3a04000 	mov	r4, #0
    b364:	e3130001 	tst	r3, #1
    b368:	151c5004 	ldrne	r5, [ip, #-4]
    b36c:	e28cc004 	add	ip, ip, #4
    b370:	10244005 	eorne	r4, r4, r5
    b374:	e1b030a3 	lsrs	r3, r3, #1
    b378:	1afffff9 	bne	b364 <crc32_combine_+0x50>
    b37c:	e78d4007 	str	r4, [sp, r7]
    b380:	e2877004 	add	r7, r7, #4
    b384:	e3570080 	cmp	r7, #128	; 0x80
    b388:	1afffff0 	bne	b350 <crc32_combine_+0x3c>
    b38c:	e3a07000 	mov	r7, #0
    b390:	e79d3007 	ldr	r3, [sp, r7]
    b394:	e3530000 	cmp	r3, #0
    b398:	0a00005f 	beq	b51c <crc32_combine_+0x208>
    b39c:	e28dc004 	add	ip, sp, #4
    b3a0:	e3a04000 	mov	r4, #0
    b3a4:	e3130001 	tst	r3, #1
    b3a8:	151c5004 	ldrne	r5, [ip, #-4]
    b3ac:	e28cc004 	add	ip, ip, #4
    b3b0:	10244005 	eorne	r4, r4, r5
    b3b4:	e1b030a3 	lsrs	r3, r3, #1
    b3b8:	1afffff9 	bne	b3a4 <crc32_combine_+0x90>
    b3bc:	e7864007 	str	r4, [r6, r7]
    b3c0:	e2877004 	add	r7, r7, #4
    b3c4:	e3570080 	cmp	r7, #128	; 0x80
    b3c8:	1afffff0 	bne	b390 <crc32_combine_+0x7c>
    b3cc:	e3a07000 	mov	r7, #0
    b3d0:	e7963007 	ldr	r3, [r6, r7]
    b3d4:	e3530000 	cmp	r3, #0
    b3d8:	0a00003d 	beq	b4d4 <crc32_combine_+0x1c0>
    b3dc:	e28dc084 	add	ip, sp, #132	; 0x84
    b3e0:	e3a04000 	mov	r4, #0
    b3e4:	e3130001 	tst	r3, #1
    b3e8:	151c5004 	ldrne	r5, [ip, #-4]
    b3ec:	e28cc004 	add	ip, ip, #4
    b3f0:	10244005 	eorne	r4, r4, r5
    b3f4:	e1b030a3 	lsrs	r3, r3, #1
    b3f8:	1afffff9 	bne	b3e4 <crc32_combine_+0xd0>
    b3fc:	e78d4007 	str	r4, [sp, r7]
    b400:	e2877004 	add	r7, r7, #4
    b404:	e3570080 	cmp	r7, #128	; 0x80
    b408:	1afffff0 	bne	b3d0 <crc32_combine_+0xbc>
    b40c:	e3120001 	tst	r2, #1
    b410:	0a00000a 	beq	b440 <crc32_combine_+0x12c>
    b414:	e3500000 	cmp	r0, #0
    b418:	0a000008 	beq	b440 <crc32_combine_+0x12c>
    b41c:	e1a03000 	mov	r3, r0
    b420:	e28dc004 	add	ip, sp, #4
    b424:	e3a00000 	mov	r0, #0
    b428:	e3130001 	tst	r3, #1
    b42c:	151c4004 	ldrne	r4, [ip, #-4]
    b430:	e28cc004 	add	ip, ip, #4
    b434:	10200004 	eorne	r0, r0, r4
    b438:	e1b030a3 	lsrs	r3, r3, #1
    b43c:	1afffff9 	bne	b428 <crc32_combine_+0x114>
    b440:	e1b070c2 	asrs	r7, r2, #1
    b444:	0a00001e 	beq	b4c4 <crc32_combine_+0x1b0>
    b448:	e3a05000 	mov	r5, #0
    b44c:	e79d3005 	ldr	r3, [sp, r5]
    b450:	e3530000 	cmp	r3, #0
    b454:	0a000024 	beq	b4ec <crc32_combine_+0x1d8>
    b458:	e28d2004 	add	r2, sp, #4
    b45c:	e3a0c000 	mov	ip, #0
    b460:	e3130001 	tst	r3, #1
    b464:	15124004 	ldrne	r4, [r2, #-4]
    b468:	e2822004 	add	r2, r2, #4
    b46c:	102cc004 	eorne	ip, ip, r4
    b470:	e1b030a3 	lsrs	r3, r3, #1
    b474:	1afffff9 	bne	b460 <crc32_combine_+0x14c>
    b478:	e786c005 	str	ip, [r6, r5]
    b47c:	e2855004 	add	r5, r5, #4
    b480:	e3550080 	cmp	r5, #128	; 0x80
    b484:	1afffff0 	bne	b44c <crc32_combine_+0x138>
    b488:	e3170001 	tst	r7, #1
    b48c:	0a00000a 	beq	b4bc <crc32_combine_+0x1a8>
    b490:	e3500000 	cmp	r0, #0
    b494:	0a000008 	beq	b4bc <crc32_combine_+0x1a8>
    b498:	e1a03000 	mov	r3, r0
    b49c:	e28dc084 	add	ip, sp, #132	; 0x84
    b4a0:	e3a00000 	mov	r0, #0
    b4a4:	e3130001 	tst	r3, #1
    b4a8:	151c4004 	ldrne	r4, [ip, #-4]
    b4ac:	e28cc004 	add	ip, ip, #4
    b4b0:	10200004 	eorne	r0, r0, r4
    b4b4:	e1b030a3 	lsrs	r3, r3, #1
    b4b8:	1afffff9 	bne	b4a4 <crc32_combine_+0x190>
    b4bc:	e1b020c7 	asrs	r2, r7, #1
    b4c0:	1affffc1 	bne	b3cc <crc32_combine_+0xb8>
    b4c4:	e0200001 	eor	r0, r0, r1
    b4c8:	e28ddc01 	add	sp, sp, #256	; 0x100
    b4cc:	e8bd00f0 	pop	{r4, r5, r6, r7}
    b4d0:	e12fff1e 	bx	lr
    b4d4:	e1a04003 	mov	r4, r3
    b4d8:	e78d4007 	str	r4, [sp, r7]
    b4dc:	e2877004 	add	r7, r7, #4
    b4e0:	e3570080 	cmp	r7, #128	; 0x80
    b4e4:	1affffb9 	bne	b3d0 <crc32_combine_+0xbc>
    b4e8:	eaffffc7 	b	b40c <crc32_combine_+0xf8>
    b4ec:	e1a0c003 	mov	ip, r3
    b4f0:	e786c005 	str	ip, [r6, r5]
    b4f4:	e2855004 	add	r5, r5, #4
    b4f8:	e3550080 	cmp	r5, #128	; 0x80
    b4fc:	1affffd2 	bne	b44c <crc32_combine_+0x138>
    b500:	eaffffe0 	b	b488 <crc32_combine_+0x174>
    b504:	e1a04003 	mov	r4, r3
    b508:	e78d4007 	str	r4, [sp, r7]
    b50c:	e2877004 	add	r7, r7, #4
    b510:	e3570080 	cmp	r7, #128	; 0x80
    b514:	1affff8d 	bne	b350 <crc32_combine_+0x3c>
    b518:	eaffff9b 	b	b38c <crc32_combine_+0x78>
    b51c:	e1a04003 	mov	r4, r3
    b520:	e7864007 	str	r4, [r6, r7]
    b524:	e2877004 	add	r7, r7, #4
    b528:	e3570080 	cmp	r7, #128	; 0x80
    b52c:	1affff97 	bne	b390 <crc32_combine_+0x7c>
    b530:	eaffffa5 	b	b3cc <crc32_combine_+0xb8>
    b534:	edb88320 	ldc	3, cr8, [r8, #128]!	; 0x80

0000b538 <get_crc_table>:
    b538:	e59f0000 	ldr	r0, [pc]	; b540 <get_crc_table+0x8>
    b53c:	e12fff1e 	bx	lr
    b540:	00013a6c 	andeq	r3, r1, ip, ror #20

0000b544 <crc32>:
    b544:	e3510000 	cmp	r1, #0
    b548:	e92d00f0 	push	{r4, r5, r6, r7}
    b54c:	0a000044 	beq	b664 <crc32+0x120>
    b550:	e3520007 	cmp	r2, #7
    b554:	e1e00000 	mvn	r0, r0
    b558:	9a000033 	bls	b62c <crc32+0xe8>
    b55c:	e59fc108 	ldr	ip, [pc, #264]	; b66c <crc32+0x128>
    b560:	e1a04002 	mov	r4, r2
    b564:	e1a03001 	mov	r3, r1
    b568:	e5d36000 	ldrb	r6, [r3]
    b56c:	e5d35001 	ldrb	r5, [r3, #1]
    b570:	e0266000 	eor	r6, r6, r0
    b574:	e6ef6076 	uxtb	r6, r6
    b578:	e79c7106 	ldr	r7, [ip, r6, lsl #2]
    b57c:	e5d36002 	ldrb	r6, [r3, #2]
    b580:	e0270420 	eor	r0, r7, r0, lsr #8
    b584:	e0205005 	eor	r5, r0, r5
    b588:	e6ef5075 	uxtb	r5, r5
    b58c:	e79c7105 	ldr	r7, [ip, r5, lsl #2]
    b590:	e5d35003 	ldrb	r5, [r3, #3]
    b594:	e0270420 	eor	r0, r7, r0, lsr #8
    b598:	e0206006 	eor	r6, r0, r6
    b59c:	e6ef6076 	uxtb	r6, r6
    b5a0:	e79c7106 	ldr	r7, [ip, r6, lsl #2]
    b5a4:	e5d36004 	ldrb	r6, [r3, #4]
    b5a8:	e0270420 	eor	r0, r7, r0, lsr #8
    b5ac:	e0205005 	eor	r5, r0, r5
    b5b0:	e6ef5075 	uxtb	r5, r5
    b5b4:	e79c7105 	ldr	r7, [ip, r5, lsl #2]
    b5b8:	e5d35005 	ldrb	r5, [r3, #5]
    b5bc:	e0270420 	eor	r0, r7, r0, lsr #8
    b5c0:	e0206006 	eor	r6, r0, r6
    b5c4:	e6ef6076 	uxtb	r6, r6
    b5c8:	e79c7106 	ldr	r7, [ip, r6, lsl #2]
    b5cc:	e5d36006 	ldrb	r6, [r3, #6]
    b5d0:	e0270420 	eor	r0, r7, r0, lsr #8
    b5d4:	e0205005 	eor	r5, r0, r5
    b5d8:	e6ef5075 	uxtb	r5, r5
    b5dc:	e79c7105 	ldr	r7, [ip, r5, lsl #2]
    b5e0:	e5d35007 	ldrb	r5, [r3, #7]
    b5e4:	e0270420 	eor	r0, r7, r0, lsr #8
    b5e8:	e0206006 	eor	r6, r0, r6
    b5ec:	e6ef6076 	uxtb	r6, r6
    b5f0:	e79c6106 	ldr	r6, [ip, r6, lsl #2]
    b5f4:	e2444008 	sub	r4, r4, #8
    b5f8:	e0260420 	eor	r0, r6, r0, lsr #8
    b5fc:	e0205005 	eor	r5, r0, r5
    b600:	e6ef5075 	uxtb	r5, r5
    b604:	e79c5105 	ldr	r5, [ip, r5, lsl #2]
    b608:	e3540007 	cmp	r4, #7
    b60c:	e0250420 	eor	r0, r5, r0, lsr #8
    b610:	e2833008 	add	r3, r3, #8
    b614:	8affffd3 	bhi	b568 <crc32+0x24>
    b618:	e2423008 	sub	r3, r2, #8
    b61c:	e3c33007 	bic	r3, r3, #7
    b620:	e2833008 	add	r3, r3, #8
    b624:	e0811003 	add	r1, r1, r3
    b628:	e2022007 	and	r2, r2, #7
    b62c:	e3520000 	cmp	r2, #0
    b630:	0a000008 	beq	b658 <crc32+0x114>
    b634:	e59fc030 	ldr	ip, [pc, #48]	; b66c <crc32+0x128>
    b638:	e0812002 	add	r2, r1, r2
    b63c:	e4d13001 	ldrb	r3, [r1], #1
    b640:	e0233000 	eor	r3, r3, r0
    b644:	e6ef3073 	uxtb	r3, r3
    b648:	e79c3103 	ldr	r3, [ip, r3, lsl #2]
    b64c:	e1510002 	cmp	r1, r2
    b650:	e0230420 	eor	r0, r3, r0, lsr #8
    b654:	1afffff8 	bne	b63c <crc32+0xf8>
    b658:	e1e00000 	mvn	r0, r0
    b65c:	e8bd00f0 	pop	{r4, r5, r6, r7}
    b660:	e12fff1e 	bx	lr
    b664:	e1a00001 	mov	r0, r1
    b668:	eafffffb 	b	b65c <crc32+0x118>
    b66c:	00013a6c 	andeq	r3, r1, ip, ror #20

0000b670 <crc32_combine>:
    b670:	eaffff27 	b	b314 <crc32_combine_>

0000b674 <crc32_combine64>:
    b674:	eaffff26 	b	b314 <crc32_combine_>

0000b678 <adler32>:
    b678:	e3520001 	cmp	r2, #1
    b67c:	e92d07f0 	push	{r4, r5, r6, r7, r8, r9, sl}
    b680:	e1a03001 	mov	r3, r1
    b684:	e1a05820 	lsr	r5, r0, #16
    b688:	e6ff0070 	uxth	r0, r0
    b68c:	0a000063 	beq	b820 <adler32+0x1a8>
    b690:	e3510000 	cmp	r1, #0
    b694:	0a0000c2 	beq	b9a4 <adler32+0x32c>
    b698:	e352000f 	cmp	r2, #15
    b69c:	8a000014 	bhi	b6f4 <adler32+0x7c>
    b6a0:	e3520000 	cmp	r2, #0
    b6a4:	0a000005 	beq	b6c0 <adler32+0x48>
    b6a8:	e0812002 	add	r2, r1, r2
    b6ac:	e4d31001 	ldrb	r1, [r3], #1
    b6b0:	e0800001 	add	r0, r0, r1
    b6b4:	e1530002 	cmp	r3, r2
    b6b8:	e0855000 	add	r5, r5, r0
    b6bc:	1afffffa 	bne	b6ac <adler32+0x34>
    b6c0:	e59f32ec 	ldr	r3, [pc, #748]	; b9b4 <adler32+0x33c>
    b6c4:	e1500003 	cmp	r0, r3
    b6c8:	e59f32e8 	ldr	r3, [pc, #744]	; b9b8 <adler32+0x340>
    b6cc:	82400cff 	subhi	r0, r0, #65280	; 0xff00
    b6d0:	e0831593 	umull	r1, r3, r3, r5
    b6d4:	e1a037a3 	lsr	r3, r3, #15
    b6d8:	e0632603 	rsb	r2, r3, r3, lsl #12
    b6dc:	e0833202 	add	r3, r3, r2, lsl #4
    b6e0:	824000f1 	subhi	r0, r0, #241	; 0xf1
    b6e4:	e0635005 	rsb	r5, r3, r5
    b6e8:	e1800805 	orr	r0, r0, r5, lsl #16
    b6ec:	e8bd07f0 	pop	{r4, r5, r6, r7, r8, r9, sl}
    b6f0:	e12fff1e 	bx	lr
    b6f4:	e59f82c0 	ldr	r8, [pc, #704]	; b9bc <adler32+0x344>
    b6f8:	e1520008 	cmp	r2, r8
    b6fc:	859f72b4 	ldrhi	r7, [pc, #692]	; b9b8 <adler32+0x340>
    b700:	9a000055 	bls	b85c <adler32+0x1e4>
    b704:	e2422d56 	sub	r2, r2, #5504	; 0x1580
    b708:	e2836d56 	add	r6, r3, #5504	; 0x1580
    b70c:	e2422030 	sub	r2, r2, #48	; 0x30
    b710:	e2866030 	add	r6, r6, #48	; 0x30
    b714:	e5d31000 	ldrb	r1, [r3]
    b718:	e5d34001 	ldrb	r4, [r3, #1]
    b71c:	e0800001 	add	r0, r0, r1
    b720:	e5d3c002 	ldrb	ip, [r3, #2]
    b724:	e0804004 	add	r4, r0, r4
    b728:	e5d39003 	ldrb	r9, [r3, #3]
    b72c:	e0840000 	add	r0, r4, r0
    b730:	e084c00c 	add	ip, r4, ip
    b734:	e5d31004 	ldrb	r1, [r3, #4]
    b738:	e080a00c 	add	sl, r0, ip
    b73c:	e5d34005 	ldrb	r4, [r3, #5]
    b740:	e08cc009 	add	ip, ip, r9
    b744:	e08c1001 	add	r1, ip, r1
    b748:	e08aa00c 	add	sl, sl, ip
    b74c:	e5d30006 	ldrb	r0, [r3, #6]
    b750:	e5d3c007 	ldrb	ip, [r3, #7]
    b754:	e08aa001 	add	sl, sl, r1
    b758:	e0811004 	add	r1, r1, r4
    b75c:	e0810000 	add	r0, r1, r0
    b760:	e08aa001 	add	sl, sl, r1
    b764:	e5d34008 	ldrb	r4, [r3, #8]
    b768:	e5d31009 	ldrb	r1, [r3, #9]
    b76c:	e08aa000 	add	sl, sl, r0
    b770:	e080000c 	add	r0, r0, ip
    b774:	e0804004 	add	r4, r0, r4
    b778:	e08aa000 	add	sl, sl, r0
    b77c:	e5d3c00a 	ldrb	ip, [r3, #10]
    b780:	e5d3000b 	ldrb	r0, [r3, #11]
    b784:	e08aa004 	add	sl, sl, r4
    b788:	e0844001 	add	r4, r4, r1
    b78c:	e08aa004 	add	sl, sl, r4
    b790:	e084c00c 	add	ip, r4, ip
    b794:	e5d3100c 	ldrb	r1, [r3, #12]
    b798:	e08a400c 	add	r4, sl, ip
    b79c:	e08cc000 	add	ip, ip, r0
    b7a0:	e5d3a00d 	ldrb	sl, [r3, #13]
    b7a4:	e08c1001 	add	r1, ip, r1
    b7a8:	e084400c 	add	r4, r4, ip
    b7ac:	e5d3000e 	ldrb	r0, [r3, #14]
    b7b0:	e0844001 	add	r4, r4, r1
    b7b4:	e5d3c00f 	ldrb	ip, [r3, #15]
    b7b8:	e081100a 	add	r1, r1, sl
    b7bc:	e0810000 	add	r0, r1, r0
    b7c0:	e0844001 	add	r4, r4, r1
    b7c4:	e0841000 	add	r1, r4, r0
    b7c8:	e2833010 	add	r3, r3, #16
    b7cc:	e080000c 	add	r0, r0, ip
    b7d0:	e0811000 	add	r1, r1, r0
    b7d4:	e1530006 	cmp	r3, r6
    b7d8:	e0855001 	add	r5, r5, r1
    b7dc:	1affffcc 	bne	b714 <adler32+0x9c>
    b7e0:	e08c4097 	umull	r4, ip, r7, r0
    b7e4:	e0814597 	umull	r4, r1, r7, r5
    b7e8:	e1a0c7ac 	lsr	ip, ip, #15
    b7ec:	e1a017a1 	lsr	r1, r1, #15
    b7f0:	e06c660c 	rsb	r6, ip, ip, lsl #12
    b7f4:	e0614601 	rsb	r4, r1, r1, lsl #12
    b7f8:	e08cc206 	add	ip, ip, r6, lsl #4
    b7fc:	e0811204 	add	r1, r1, r4, lsl #4
    b800:	e1520008 	cmp	r2, r8
    b804:	e06c0000 	rsb	r0, ip, r0
    b808:	e0615005 	rsb	r5, r1, r5
    b80c:	8affffbc 	bhi	b704 <adler32+0x8c>
    b810:	e3520000 	cmp	r2, #0
    b814:	1a00000e 	bne	b854 <adler32+0x1dc>
    b818:	e1800805 	orr	r0, r0, r5, lsl #16
    b81c:	eaffffb2 	b	b6ec <adler32+0x74>
    b820:	e5d12000 	ldrb	r2, [r1]
    b824:	e59f3188 	ldr	r3, [pc, #392]	; b9b4 <adler32+0x33c>
    b828:	e0820000 	add	r0, r2, r0
    b82c:	e1500003 	cmp	r0, r3
    b830:	82400cff 	subhi	r0, r0, #65280	; 0xff00
    b834:	824000f1 	subhi	r0, r0, #241	; 0xf1
    b838:	e59f3174 	ldr	r3, [pc, #372]	; b9b4 <adler32+0x33c>
    b83c:	e0805005 	add	r5, r0, r5
    b840:	e1550003 	cmp	r5, r3
    b844:	82455cff 	subhi	r5, r5, #65280	; 0xff00
    b848:	824550f1 	subhi	r5, r5, #241	; 0xf1
    b84c:	e1800805 	orr	r0, r0, r5, lsl #16
    b850:	eaffffa5 	b	b6ec <adler32+0x74>
    b854:	e352000f 	cmp	r2, #15
    b858:	9a000053 	bls	b9ac <adler32+0x334>
    b85c:	e1a01002 	mov	r1, r2
    b860:	e1a0c003 	mov	ip, r3
    b864:	e5dc6000 	ldrb	r6, [ip]
    b868:	e5dc4001 	ldrb	r4, [ip, #1]
    b86c:	e0806006 	add	r6, r0, r6
    b870:	e5dc0002 	ldrb	r0, [ip, #2]
    b874:	e0864004 	add	r4, r6, r4
    b878:	e5dc8003 	ldrb	r8, [ip, #3]
    b87c:	e0846006 	add	r6, r4, r6
    b880:	e0840000 	add	r0, r4, r0
    b884:	e5dc4004 	ldrb	r4, [ip, #4]
    b888:	e0867000 	add	r7, r6, r0
    b88c:	e0800008 	add	r0, r0, r8
    b890:	e5dc6005 	ldrb	r6, [ip, #5]
    b894:	e0804004 	add	r4, r0, r4
    b898:	e0877000 	add	r7, r7, r0
    b89c:	e5dc0006 	ldrb	r0, [ip, #6]
    b8a0:	e0877004 	add	r7, r7, r4
    b8a4:	e0844006 	add	r4, r4, r6
    b8a8:	e5dc6007 	ldrb	r6, [ip, #7]
    b8ac:	e0840000 	add	r0, r4, r0
    b8b0:	e0877004 	add	r7, r7, r4
    b8b4:	e5dc4008 	ldrb	r4, [ip, #8]
    b8b8:	e0877000 	add	r7, r7, r0
    b8bc:	e0800006 	add	r0, r0, r6
    b8c0:	e5dc6009 	ldrb	r6, [ip, #9]
    b8c4:	e0804004 	add	r4, r0, r4
    b8c8:	e0877000 	add	r7, r7, r0
    b8cc:	e5dc000a 	ldrb	r0, [ip, #10]
    b8d0:	e0877004 	add	r7, r7, r4
    b8d4:	e0844006 	add	r4, r4, r6
    b8d8:	e5dc600b 	ldrb	r6, [ip, #11]
    b8dc:	e0840000 	add	r0, r4, r0
    b8e0:	e0877004 	add	r7, r7, r4
    b8e4:	e5dc400c 	ldrb	r4, [ip, #12]
    b8e8:	e0877000 	add	r7, r7, r0
    b8ec:	e0800006 	add	r0, r0, r6
    b8f0:	e5dc600d 	ldrb	r6, [ip, #13]
    b8f4:	e0804004 	add	r4, r0, r4
    b8f8:	e0877000 	add	r7, r7, r0
    b8fc:	e5dc000e 	ldrb	r0, [ip, #14]
    b900:	e0877004 	add	r7, r7, r4
    b904:	e0844006 	add	r4, r4, r6
    b908:	e5dc600f 	ldrb	r6, [ip, #15]
    b90c:	e0840000 	add	r0, r4, r0
    b910:	e0877004 	add	r7, r7, r4
    b914:	e0874000 	add	r4, r7, r0
    b918:	e2411010 	sub	r1, r1, #16
    b91c:	e0800006 	add	r0, r0, r6
    b920:	e0844000 	add	r4, r4, r0
    b924:	e351000f 	cmp	r1, #15
    b928:	e0855004 	add	r5, r5, r4
    b92c:	e28cc010 	add	ip, ip, #16
    b930:	8affffcb 	bhi	b864 <adler32+0x1ec>
    b934:	e2421010 	sub	r1, r2, #16
    b938:	e3c1100f 	bic	r1, r1, #15
    b93c:	e202200f 	and	r2, r2, #15
    b940:	e2811010 	add	r1, r1, #16
    b944:	e3520000 	cmp	r2, #0
    b948:	e0833001 	add	r3, r3, r1
    b94c:	e2422001 	sub	r2, r2, #1
    b950:	0a000006 	beq	b970 <adler32+0x2f8>
    b954:	e2822001 	add	r2, r2, #1
    b958:	e0831002 	add	r1, r3, r2
    b95c:	e4d32001 	ldrb	r2, [r3], #1
    b960:	e0800002 	add	r0, r0, r2
    b964:	e1530001 	cmp	r3, r1
    b968:	e0855000 	add	r5, r5, r0
    b96c:	1afffffa 	bne	b95c <adler32+0x2e4>
    b970:	e59f3040 	ldr	r3, [pc, #64]	; b9b8 <adler32+0x340>
    b974:	e0821093 	umull	r1, r2, r3, r0
    b978:	e0834593 	umull	r4, r3, r3, r5
    b97c:	e1a027a2 	lsr	r2, r2, #15
    b980:	e1a037a3 	lsr	r3, r3, #15
    b984:	e062c602 	rsb	ip, r2, r2, lsl #12
    b988:	e0631603 	rsb	r1, r3, r3, lsl #12
    b98c:	e082220c 	add	r2, r2, ip, lsl #4
    b990:	e0833201 	add	r3, r3, r1, lsl #4
    b994:	e0620000 	rsb	r0, r2, r0
    b998:	e0635005 	rsb	r5, r3, r5
    b99c:	e1800805 	orr	r0, r0, r5, lsl #16
    b9a0:	eaffff51 	b	b6ec <adler32+0x74>
    b9a4:	e3a00001 	mov	r0, #1
    b9a8:	eaffff4f 	b	b6ec <adler32+0x74>
    b9ac:	e2422001 	sub	r2, r2, #1
    b9b0:	eaffffe7 	b	b954 <adler32+0x2dc>
    b9b4:	0000fff0 	strdeq	pc, [r0], -r0
    b9b8:	80078071 	andhi	r8, r7, r1, ror r0
    b9bc:	000015af 	andeq	r1, r0, pc, lsr #11

0000b9c0 <adler32_combine>:
    b9c0:	e3520000 	cmp	r2, #0
    b9c4:	e92d0070 	push	{r4, r5, r6}
    b9c8:	b3e00000 	mvnlt	r0, #0
    b9cc:	ba000021 	blt	ba58 <adler32_combine+0x98>
    b9d0:	e59f50a0 	ldr	r5, [pc, #160]	; ba78 <adler32_combine+0xb8>
    b9d4:	e1a0cfc2 	asr	ip, r2, #31
    b9d8:	e0c34295 	smull	r4, r3, r5, r2
    b9dc:	e0833002 	add	r3, r3, r2
    b9e0:	e06c37c3 	rsb	r3, ip, r3, asr #15
    b9e4:	e063c603 	rsb	ip, r3, r3, lsl #12
    b9e8:	e083320c 	add	r3, r3, ip, lsl #4
    b9ec:	e0633002 	rsb	r3, r3, r2
    b9f0:	e6ffc070 	uxth	ip, r0
    b9f4:	e004039c 	mul	r4, ip, r3
    b9f8:	e0826495 	umull	r6, r2, r5, r4
    b9fc:	e1a027a2 	lsr	r2, r2, #15
    ba00:	e1a00820 	lsr	r0, r0, #16
    ba04:	e0625602 	rsb	r5, r2, r2, lsl #12
    ba08:	e0800821 	add	r0, r0, r1, lsr #16
    ba0c:	e0822205 	add	r2, r2, r5, lsl #4
    ba10:	e0633000 	rsb	r3, r3, r0
    ba14:	e0624004 	rsb	r4, r2, r4
    ba18:	e6fc1071 	uxtah	r1, ip, r1
    ba1c:	e0833004 	add	r3, r3, r4
    ba20:	e3510000 	cmp	r1, #0
    ba24:	e2830cff 	add	r0, r3, #65280	; 0xff00
    ba28:	e28000f1 	add	r0, r0, #241	; 0xf1
    ba2c:	059fc048 	ldreq	ip, [pc, #72]	; ba7c <adler32_combine+0xbc>
    ba30:	1a00000a 	bne	ba60 <adler32_combine+0xa0>
    ba34:	e59f2044 	ldr	r2, [pc, #68]	; ba80 <adler32_combine+0xc0>
    ba38:	e1500002 	cmp	r0, r2
    ba3c:	82433cff 	subhi	r3, r3, #65280	; 0xff00
    ba40:	824300f1 	subhi	r0, r3, #241	; 0xf1
    ba44:	e59f3030 	ldr	r3, [pc, #48]	; ba7c <adler32_combine+0xbc>
    ba48:	e1500003 	cmp	r0, r3
    ba4c:	82400cff 	subhi	r0, r0, #65280	; 0xff00
    ba50:	824000f1 	subhi	r0, r0, #241	; 0xf1
    ba54:	e18c0800 	orr	r0, ip, r0, lsl #16
    ba58:	e8bd0070 	pop	{r4, r5, r6}
    ba5c:	e12fff1e 	bx	lr
    ba60:	e59f2014 	ldr	r2, [pc, #20]	; ba7c <adler32_combine+0xbc>
    ba64:	e241c001 	sub	ip, r1, #1
    ba68:	e15c0002 	cmp	ip, r2
    ba6c:	82411cff 	subhi	r1, r1, #65280	; 0xff00
    ba70:	8241c0f2 	subhi	ip, r1, #242	; 0xf2
    ba74:	eaffffee 	b	ba34 <adler32_combine+0x74>
    ba78:	80078071 	andhi	r8, r7, r1, ror r0
    ba7c:	0000fff0 	strdeq	pc, [r0], -r0
    ba80:	0001ffe1 	andeq	pc, r1, r1, ror #31

0000ba84 <adler32_combine64>:
    ba84:	e3520000 	cmp	r2, #0
    ba88:	e92d0070 	push	{r4, r5, r6}
    ba8c:	b3e00000 	mvnlt	r0, #0
    ba90:	ba000021 	blt	bb1c <adler32_combine64+0x98>
    ba94:	e59f50a0 	ldr	r5, [pc, #160]	; bb3c <adler32_combine64+0xb8>
    ba98:	e1a0cfc2 	asr	ip, r2, #31
    ba9c:	e0c34295 	smull	r4, r3, r5, r2
    baa0:	e0833002 	add	r3, r3, r2
    baa4:	e06c37c3 	rsb	r3, ip, r3, asr #15
    baa8:	e063c603 	rsb	ip, r3, r3, lsl #12
    baac:	e083320c 	add	r3, r3, ip, lsl #4
    bab0:	e0633002 	rsb	r3, r3, r2
    bab4:	e6ffc070 	uxth	ip, r0
    bab8:	e004039c 	mul	r4, ip, r3
    babc:	e0826495 	umull	r6, r2, r5, r4
    bac0:	e1a027a2 	lsr	r2, r2, #15
    bac4:	e1a00820 	lsr	r0, r0, #16
    bac8:	e0625602 	rsb	r5, r2, r2, lsl #12
    bacc:	e0800821 	add	r0, r0, r1, lsr #16
    bad0:	e0822205 	add	r2, r2, r5, lsl #4
    bad4:	e0633000 	rsb	r3, r3, r0
    bad8:	e0624004 	rsb	r4, r2, r4
    badc:	e6fc1071 	uxtah	r1, ip, r1
    bae0:	e0833004 	add	r3, r3, r4
    bae4:	e3510000 	cmp	r1, #0
    bae8:	e2830cff 	add	r0, r3, #65280	; 0xff00
    baec:	e28000f1 	add	r0, r0, #241	; 0xf1
    baf0:	059fc048 	ldreq	ip, [pc, #72]	; bb40 <adler32_combine64+0xbc>
    baf4:	1a00000a 	bne	bb24 <adler32_combine64+0xa0>
    baf8:	e59f2044 	ldr	r2, [pc, #68]	; bb44 <adler32_combine64+0xc0>
    bafc:	e1500002 	cmp	r0, r2
    bb00:	82433cff 	subhi	r3, r3, #65280	; 0xff00
    bb04:	824300f1 	subhi	r0, r3, #241	; 0xf1
    bb08:	e59f3030 	ldr	r3, [pc, #48]	; bb40 <adler32_combine64+0xbc>
    bb0c:	e1500003 	cmp	r0, r3
    bb10:	82400cff 	subhi	r0, r0, #65280	; 0xff00
    bb14:	824000f1 	subhi	r0, r0, #241	; 0xf1
    bb18:	e18c0800 	orr	r0, ip, r0, lsl #16
    bb1c:	e8bd0070 	pop	{r4, r5, r6}
    bb20:	e12fff1e 	bx	lr
    bb24:	e59f2014 	ldr	r2, [pc, #20]	; bb40 <adler32_combine64+0xbc>
    bb28:	e241c001 	sub	ip, r1, #1
    bb2c:	e15c0002 	cmp	ip, r2
    bb30:	82411cff 	subhi	r1, r1, #65280	; 0xff00
    bb34:	8241c0f2 	subhi	ip, r1, #242	; 0xf2
    bb38:	eaffffee 	b	baf8 <adler32_combine64+0x74>
    bb3c:	80078071 	andhi	r8, r7, r1, ror r0
    bb40:	0000fff0 	strdeq	pc, [r0], -r0
    bb44:	0001ffe1 	andeq	pc, r1, r1, ror #31

0000bb48 <inflate_fast>:
    bb48:	e92d0ff0 	push	{r4, r5, r6, r7, r8, r9, sl, fp}
    bb4c:	e590b018 	ldr	fp, [r0, #24]
    bb50:	e1a09000 	mov	r9, r0
    bb54:	e59b4058 	ldr	r4, [fp, #88]	; 0x58
    bb58:	e3a00001 	mov	r0, #1
    bb5c:	e1a04410 	lsl	r4, r0, r4
    bb60:	e89900c0 	ldm	r9, {r6, r7}
    bb64:	e59b5054 	ldr	r5, [fp, #84]	; 0x54
    bb68:	e24dd080 	sub	sp, sp, #128	; 0x80
    bb6c:	e1a08510 	lsl	r8, r0, r5
    bb70:	e59bc028 	ldr	ip, [fp, #40]	; 0x28
    bb74:	e59b2030 	ldr	r2, [fp, #48]	; 0x30
    bb78:	e58d4018 	str	r4, [sp, #24]
    bb7c:	e59b4034 	ldr	r4, [fp, #52]	; 0x34
    bb80:	e58dc034 	str	ip, [sp, #52]	; 0x34
    bb84:	e599c00c 	ldr	ip, [r9, #12]
    bb88:	e1a05122 	lsr	r5, r2, #2
    bb8c:	e58d401c 	str	r4, [sp, #28]
    bb90:	e58d2014 	str	r2, [sp, #20]
    bb94:	e58d5024 	str	r5, [sp, #36]	; 0x24
    bb98:	e1a04105 	lsl	r4, r5, #2
    bb9c:	e24cc001 	sub	ip, ip, #1
    bba0:	e59d501c 	ldr	r5, [sp, #28]
    bba4:	e58dc010 	str	ip, [sp, #16]
    bba8:	e59dc014 	ldr	ip, [sp, #20]
    bbac:	e2455001 	sub	r5, r5, #1
    bbb0:	e58d4020 	str	r4, [sp, #32]
    bbb4:	e58d5030 	str	r5, [sp, #48]	; 0x30
    bbb8:	e064400c 	rsb	r4, r4, ip
    bbbc:	e58d4058 	str	r4, [sp, #88]	; 0x58
    bbc0:	e59dc020 	ldr	ip, [sp, #32]
    bbc4:	e59d4030 	ldr	r4, [sp, #48]	; 0x30
    bbc8:	e5993010 	ldr	r3, [r9, #16]
    bbcc:	e084400c 	add	r4, r4, ip
    bbd0:	e58d405c 	str	r4, [sp, #92]	; 0x5c
    bbd4:	e59d4024 	ldr	r4, [sp, #36]	; 0x24
    bbd8:	e0611003 	rsb	r1, r1, r3
    bbdc:	e2744001 	rsbs	r4, r4, #1
    bbe0:	e2432c01 	sub	r2, r3, #256	; 0x100
    bbe4:	e59b302c 	ldr	r3, [fp, #44]	; 0x2c
    bbe8:	e2466001 	sub	r6, r6, #1
    bbec:	33a04000 	movcc	r4, #0
    bbf0:	e2488001 	sub	r8, r8, #1
    bbf4:	e58d600c 	str	r6, [sp, #12]
    bbf8:	e58d3048 	str	r3, [sp, #72]	; 0x48
    bbfc:	e2476005 	sub	r6, r7, #5
    bc00:	e59b3038 	ldr	r3, [fp, #56]	; 0x38
    bc04:	e59b703c 	ldr	r7, [fp, #60]	; 0x3c
    bc08:	e59b504c 	ldr	r5, [fp, #76]	; 0x4c
    bc0c:	e59ba050 	ldr	sl, [fp, #80]	; 0x50
    bc10:	e58d4050 	str	r4, [sp, #80]	; 0x50
    bc14:	e58d802c 	str	r8, [sp, #44]	; 0x2c
    bc18:	e1a08000 	mov	r8, r0
    bc1c:	e59d0010 	ldr	r0, [sp, #16]
    bc20:	e2422001 	sub	r2, r2, #1
    bc24:	e0802002 	add	r2, r0, r2
    bc28:	e59dc018 	ldr	ip, [sp, #24]
    bc2c:	e58d2018 	str	r2, [sp, #24]
    bc30:	e599200c 	ldr	r2, [r9, #12]
    bc34:	e24cc001 	sub	ip, ip, #1
    bc38:	e0822001 	add	r2, r2, r1
    bc3c:	e0801001 	add	r1, r0, r1
    bc40:	e58dc040 	str	ip, [sp, #64]	; 0x40
    bc44:	e58d1044 	str	r1, [sp, #68]	; 0x44
    bc48:	e59d4014 	ldr	r4, [sp, #20]
    bc4c:	e59dc034 	ldr	ip, [sp, #52]	; 0x34
    bc50:	e59d001c 	ldr	r0, [sp, #28]
    bc54:	e59d100c 	ldr	r1, [sp, #12]
    bc58:	e084400c 	add	r4, r4, ip
    bc5c:	e2800004 	add	r0, r0, #4
    bc60:	e0816006 	add	r6, r1, r6
    bc64:	e58db038 	str	fp, [sp, #56]	; 0x38
    bc68:	e59db010 	ldr	fp, [sp, #16]
    bc6c:	e58d204c 	str	r2, [sp, #76]	; 0x4c
    bc70:	e58d4054 	str	r4, [sp, #84]	; 0x54
    bc74:	e58d0060 	str	r0, [sp, #96]	; 0x60
    bc78:	e58d6028 	str	r6, [sp, #40]	; 0x28
    bc7c:	e58d903c 	str	r9, [sp, #60]	; 0x3c
    bc80:	e357000e 	cmp	r7, #14
    bc84:	8a00000a 	bhi	bcb4 <inflate_fast+0x16c>
    bc88:	e59d200c 	ldr	r2, [sp, #12]
    bc8c:	e59d400c 	ldr	r4, [sp, #12]
    bc90:	e5d21002 	ldrb	r1, [r2, #2]
    bc94:	e2872008 	add	r2, r7, #8
    bc98:	e1a02211 	lsl	r2, r1, r2
    bc9c:	e5d41001 	ldrb	r1, [r4, #1]
    bca0:	e2844002 	add	r4, r4, #2
    bca4:	e0822711 	add	r2, r2, r1, lsl r7
    bca8:	e58d400c 	str	r4, [sp, #12]
    bcac:	e2877010 	add	r7, r7, #16
    bcb0:	e0833002 	add	r3, r3, r2
    bcb4:	e59d602c 	ldr	r6, [sp, #44]	; 0x2c
    bcb8:	e0032006 	and	r2, r3, r6
    bcbc:	e0851102 	add	r1, r5, r2, lsl #2
    bcc0:	e7d52102 	ldrb	r2, [r5, r2, lsl #2]
    bcc4:	ea000009 	b	bcf0 <inflate_fast+0x1a8>
    bcc8:	e3120010 	tst	r2, #16
    bccc:	1a000036 	bne	bdac <inflate_fast+0x264>
    bcd0:	e3120040 	tst	r2, #64	; 0x40
    bcd4:	1a000066 	bne	be74 <inflate_fast+0x32c>
    bcd8:	e1a02218 	lsl	r2, r8, r2
    bcdc:	e2422001 	sub	r2, r2, #1
    bce0:	e0032002 	and	r2, r3, r2
    bce4:	e0820000 	add	r0, r2, r0
    bce8:	e7d52100 	ldrb	r2, [r5, r0, lsl #2]
    bcec:	e0851100 	add	r1, r5, r0, lsl #2
    bcf0:	e5d10001 	ldrb	r0, [r1, #1]
    bcf4:	e3520000 	cmp	r2, #0
    bcf8:	e1a03033 	lsr	r3, r3, r0
    bcfc:	e0607007 	rsb	r7, r0, r7
    bd00:	e1d100b2 	ldrh	r0, [r1, #2]
    bd04:	1affffef 	bne	bcc8 <inflate_fast+0x180>
    bd08:	e5cb0001 	strb	r0, [fp, #1]
    bd0c:	e28bb001 	add	fp, fp, #1
    bd10:	e59d1018 	ldr	r1, [sp, #24]
    bd14:	e59d200c 	ldr	r2, [sp, #12]
    bd18:	e59d4028 	ldr	r4, [sp, #40]	; 0x28
    bd1c:	e15b0001 	cmp	fp, r1
    bd20:	31520004 	cmpcc	r2, r4
    bd24:	3affffd5 	bcc	bc80 <inflate_fast+0x138>
    bd28:	e58db010 	str	fp, [sp, #16]
    bd2c:	e59d903c 	ldr	r9, [sp, #60]	; 0x3c
    bd30:	e59db038 	ldr	fp, [sp, #56]	; 0x38
    bd34:	e59d500c 	ldr	r5, [sp, #12]
    bd38:	e59dc010 	ldr	ip, [sp, #16]
    bd3c:	e59d0018 	ldr	r0, [sp, #24]
    bd40:	e1a011a7 	lsr	r1, r7, #3
    bd44:	e15c0000 	cmp	ip, r0
    bd48:	e0612005 	rsb	r2, r1, r5
    bd4c:	e3e0c000 	mvn	ip, #0
    bd50:	e0471181 	sub	r1, r7, r1, lsl #3
    bd54:	e1c3311c 	bic	r3, r3, ip, lsl r1
    bd58:	e59d6028 	ldr	r6, [sp, #40]	; 0x28
    bd5c:	e59d5010 	ldr	r5, [sp, #16]
    bd60:	e0624006 	rsb	r4, r2, r6
    bd64:	e2850001 	add	r0, r5, #1
    bd68:	359d6018 	ldrcc	r6, [sp, #24]
    bd6c:	259dc018 	ldrcs	ip, [sp, #24]
    bd70:	e2822001 	add	r2, r2, #1
    bd74:	e589000c 	str	r0, [r9, #12]
    bd78:	e2844005 	add	r4, r4, #5
    bd7c:	21a00005 	movcs	r0, r5
    bd80:	e8890014 	stm	r9, {r2, r4}
    bd84:	30652006 	rsbcc	r2, r5, r6
    bd88:	2060200c 	rsbcs	r2, r0, ip
    bd8c:	e2822c01 	add	r2, r2, #256	; 0x100
    bd90:	e2822001 	add	r2, r2, #1
    bd94:	e5892010 	str	r2, [r9, #16]
    bd98:	e58b3038 	str	r3, [fp, #56]	; 0x38
    bd9c:	e58b103c 	str	r1, [fp, #60]	; 0x3c
    bda0:	e28dd080 	add	sp, sp, #128	; 0x80
    bda4:	e8bd0ff0 	pop	{r4, r5, r6, r7, r8, r9, sl, fp}
    bda8:	e12fff1e 	bx	lr
    bdac:	e212200f 	ands	r2, r2, #15
    bdb0:	e1a01000 	mov	r1, r0
    bdb4:	0a00000d 	beq	bdf0 <inflate_fast+0x2a8>
    bdb8:	e1520007 	cmp	r2, r7
    bdbc:	9a000005 	bls	bdd8 <inflate_fast+0x290>
    bdc0:	e59dc00c 	ldr	ip, [sp, #12]
    bdc4:	e5dc1001 	ldrb	r1, [ip, #1]
    bdc8:	e28cc001 	add	ip, ip, #1
    bdcc:	e0833711 	add	r3, r3, r1, lsl r7
    bdd0:	e58dc00c 	str	ip, [sp, #12]
    bdd4:	e2877008 	add	r7, r7, #8
    bdd8:	e1a01218 	lsl	r1, r8, r2
    bddc:	e2411001 	sub	r1, r1, #1
    bde0:	e0031001 	and	r1, r3, r1
    bde4:	e1a03233 	lsr	r3, r3, r2
    bde8:	e0627007 	rsb	r7, r2, r7
    bdec:	e0801001 	add	r1, r0, r1
    bdf0:	e357000e 	cmp	r7, #14
    bdf4:	9a000027 	bls	be98 <inflate_fast+0x350>
    bdf8:	e59d6040 	ldr	r6, [sp, #64]	; 0x40
    bdfc:	e0030006 	and	r0, r3, r6
    be00:	e08a2100 	add	r2, sl, r0, lsl #2
    be04:	e7da0100 	ldrb	r0, [sl, r0, lsl #2]
    be08:	e5d2c001 	ldrb	ip, [r2, #1]
    be0c:	e3100010 	tst	r0, #16
    be10:	e1a03c33 	lsr	r3, r3, ip
    be14:	e06c7007 	rsb	r7, ip, r7
    be18:	e1d220b2 	ldrh	r2, [r2, #2]
    be1c:	0a00000c 	beq	be54 <inflate_fast+0x30c>
    be20:	ea000028 	b	bec8 <inflate_fast+0x380>
    be24:	e1a00018 	lsl	r0, r8, r0
    be28:	e2400001 	sub	r0, r0, #1
    be2c:	e0030000 	and	r0, r3, r0
    be30:	e0802002 	add	r2, r0, r2
    be34:	e08ac102 	add	ip, sl, r2, lsl #2
    be38:	e7da0102 	ldrb	r0, [sl, r2, lsl #2]
    be3c:	e5dc2001 	ldrb	r2, [ip, #1]
    be40:	e3100010 	tst	r0, #16
    be44:	e1a03233 	lsr	r3, r3, r2
    be48:	e0627007 	rsb	r7, r2, r7
    be4c:	e1dc20b2 	ldrh	r2, [ip, #2]
    be50:	1a00001c 	bne	bec8 <inflate_fast+0x380>
    be54:	e3100040 	tst	r0, #64	; 0x40
    be58:	0afffff1 	beq	be24 <inflate_fast+0x2dc>
    be5c:	e58db010 	str	fp, [sp, #16]
    be60:	e59db038 	ldr	fp, [sp, #56]	; 0x38
    be64:	e3a0201d 	mov	r2, #29
    be68:	e59d903c 	ldr	r9, [sp, #60]	; 0x3c
    be6c:	e58b2000 	str	r2, [fp]
    be70:	eaffffaf 	b	bd34 <inflate_fast+0x1ec>
    be74:	e3120020 	tst	r2, #32
    be78:	e58db010 	str	fp, [sp, #16]
    be7c:	e59db038 	ldr	fp, [sp, #56]	; 0x38
    be80:	13a0200b 	movne	r2, #11
    be84:	e59d903c 	ldr	r9, [sp, #60]	; 0x3c
    be88:	158b2000 	strne	r2, [fp]
    be8c:	03a0201d 	moveq	r2, #29
    be90:	058b2000 	streq	r2, [fp]
    be94:	eaffffa6 	b	bd34 <inflate_fast+0x1ec>
    be98:	e59d200c 	ldr	r2, [sp, #12]
    be9c:	e59d400c 	ldr	r4, [sp, #12]
    bea0:	e5d20002 	ldrb	r0, [r2, #2]
    bea4:	e2872008 	add	r2, r7, #8
    bea8:	e1a02210 	lsl	r2, r0, r2
    beac:	e5d40001 	ldrb	r0, [r4, #1]
    beb0:	e2844002 	add	r4, r4, #2
    beb4:	e0822710 	add	r2, r2, r0, lsl r7
    beb8:	e58d400c 	str	r4, [sp, #12]
    bebc:	e2877010 	add	r7, r7, #16
    bec0:	e0833002 	add	r3, r3, r2
    bec4:	eaffffcb 	b	bdf8 <inflate_fast+0x2b0>
    bec8:	e200000f 	and	r0, r0, #15
    becc:	e1500007 	cmp	r0, r7
    bed0:	9a00000e 	bls	bf10 <inflate_fast+0x3c8>
    bed4:	e59dc00c 	ldr	ip, [sp, #12]
    bed8:	e5dc4001 	ldrb	r4, [ip, #1]
    bedc:	e287c008 	add	ip, r7, #8
    bee0:	e0833714 	add	r3, r3, r4, lsl r7
    bee4:	e150000c 	cmp	r0, ip
    bee8:	859d600c 	ldrhi	r6, [sp, #12]
    beec:	959d400c 	ldrls	r4, [sp, #12]
    bef0:	85d64002 	ldrbhi	r4, [r6, #2]
    bef4:	92844001 	addls	r4, r4, #1
    bef8:	80833c14 	addhi	r3, r3, r4, lsl ip
    befc:	82866002 	addhi	r6, r6, #2
    bf00:	958d400c 	strls	r4, [sp, #12]
    bf04:	91a0700c 	movls	r7, ip
    bf08:	82877010 	addhi	r7, r7, #16
    bf0c:	858d600c 	strhi	r6, [sp, #12]
    bf10:	e1a0c018 	lsl	ip, r8, r0
    bf14:	e59d4044 	ldr	r4, [sp, #68]	; 0x44
    bf18:	e24cc001 	sub	ip, ip, #1
    bf1c:	e003c00c 	and	ip, r3, ip
    bf20:	e08c9002 	add	r9, ip, r2
    bf24:	e58dc008 	str	ip, [sp, #8]
    bf28:	e064c00b 	rsb	ip, r4, fp
    bf2c:	e159000c 	cmp	r9, ip
    bf30:	e0607007 	rsb	r7, r0, r7
    bf34:	e1a03033 	lsr	r3, r3, r0
    bf38:	9a000074 	bls	c110 <inflate_fast+0x5c8>
    bf3c:	e59d6048 	ldr	r6, [sp, #72]	; 0x48
    bf40:	e06cc009 	rsb	ip, ip, r9
    bf44:	e156000c 	cmp	r6, ip
    bf48:	e58dc010 	str	ip, [sp, #16]
    bf4c:	2a000004 	bcs	bf64 <inflate_fast+0x41c>
    bf50:	e59d4038 	ldr	r4, [sp, #56]	; 0x38
    bf54:	e3a0cd6f 	mov	ip, #7104	; 0x1bc0
    bf58:	e794000c 	ldr	r0, [r4, ip]
    bf5c:	e3500000 	cmp	r0, #0
    bf60:	1a000164 	bne	c4f8 <inflate_fast+0x9b0>
    bf64:	e59d6014 	ldr	r6, [sp, #20]
    bf68:	e3560000 	cmp	r6, #0
    bf6c:	1a000080 	bne	c174 <inflate_fast+0x62c>
    bf70:	e59dc010 	ldr	ip, [sp, #16]
    bf74:	e59d4034 	ldr	r4, [sp, #52]	; 0x34
    bf78:	e59d6030 	ldr	r6, [sp, #48]	; 0x30
    bf7c:	e06c0004 	rsb	r0, ip, r4
    bf80:	e0860000 	add	r0, r6, r0
    bf84:	e151000c 	cmp	r1, ip
    bf88:	e58d0004 	str	r0, [sp, #4]
    bf8c:	9a000040 	bls	c094 <inflate_fast+0x54c>
    bf90:	e59d004c 	ldr	r0, [sp, #76]	; 0x4c
    bf94:	e06bc000 	rsb	ip, fp, r0
    bf98:	e06cc004 	rsb	ip, ip, r4
    bf9c:	e59d4008 	ldr	r4, [sp, #8]
    bfa0:	e062200c 	rsb	r2, r2, ip
    bfa4:	e59dc01c 	ldr	ip, [sp, #28]
    bfa8:	e0642002 	rsb	r2, r4, r2
    bfac:	e08c6002 	add	r6, ip, r2
    bfb0:	e2860001 	add	r0, r6, #1
    bfb4:	e2862005 	add	r2, r6, #5
    bfb8:	e28bc001 	add	ip, fp, #1
    bfbc:	e28b4005 	add	r4, fp, #5
    bfc0:	e1500004 	cmp	r0, r4
    bfc4:	315c0002 	cmpcc	ip, r2
    bfc8:	33a02000 	movcc	r2, #0
    bfcc:	23a02001 	movcs	r2, #1
    bfd0:	e1a04002 	mov	r4, r2
    bfd4:	e59d2010 	ldr	r2, [sp, #16]
    bfd8:	e180000c 	orr	r0, r0, ip
    bfdc:	e3520003 	cmp	r2, #3
    bfe0:	93a04000 	movls	r4, #0
    bfe4:	82044001 	andhi	r4, r4, #1
    bfe8:	e3100003 	tst	r0, #3
    bfec:	13a02000 	movne	r2, #0
    bff0:	02042001 	andeq	r2, r4, #1
    bff4:	e59d4010 	ldr	r4, [sp, #16]
    bff8:	e2222001 	eor	r2, r2, #1
    bffc:	e1a04124 	lsr	r4, r4, #2
    c000:	e3540000 	cmp	r4, #0
    c004:	03822001 	orreq	r2, r2, #1
    c008:	e59d0010 	ldr	r0, [sp, #16]
    c00c:	e3520000 	cmp	r2, #0
    c010:	e1a02104 	lsl	r2, r4, #2
    c014:	e58d4068 	str	r4, [sp, #104]	; 0x68
    c018:	e0601001 	rsb	r1, r0, r1
    c01c:	e58d2064 	str	r2, [sp, #100]	; 0x64
    c020:	1a00013d 	bne	c51c <inflate_fast+0x9d4>
    c024:	e58db06c 	str	fp, [sp, #108]	; 0x6c
    c028:	e59d2014 	ldr	r2, [sp, #20]
    c02c:	e59d0004 	ldr	r0, [sp, #4]
    c030:	e59db068 	ldr	fp, [sp, #104]	; 0x68
    c034:	e2464003 	sub	r4, r6, #3
    c038:	e2822001 	add	r2, r2, #1
    c03c:	e5b46004 	ldr	r6, [r4, #4]!
    c040:	e15b0002 	cmp	fp, r2
    c044:	e48c6004 	str	r6, [ip], #4
    c048:	8afffffa 	bhi	c038 <inflate_fast+0x4f0>
    c04c:	e59d6064 	ldr	r6, [sp, #100]	; 0x64
    c050:	e59d4010 	ldr	r4, [sp, #16]
    c054:	e59db06c 	ldr	fp, [sp, #108]	; 0x6c
    c058:	e1540006 	cmp	r4, r6
    c05c:	e0800006 	add	r0, r0, r6
    c060:	e58d0004 	str	r0, [sp, #4]
    c064:	e08b2006 	add	r2, fp, r6
    c068:	e0664004 	rsb	r4, r6, r4
    c06c:	0a000004 	beq	c084 <inflate_fast+0x53c>
    c070:	e0804004 	add	r4, r0, r4
    c074:	e5f0c001 	ldrb	ip, [r0, #1]!
    c078:	e1500004 	cmp	r0, r4
    c07c:	e5e2c001 	strb	ip, [r2, #1]!
    c080:	1afffffb 	bne	c074 <inflate_fast+0x52c>
    c084:	e59dc010 	ldr	ip, [sp, #16]
    c088:	e08bb00c 	add	fp, fp, ip
    c08c:	e069900b 	rsb	r9, r9, fp
    c090:	e58d9004 	str	r9, [sp, #4]
    c094:	e59dc004 	ldr	ip, [sp, #4]
    c098:	e3510002 	cmp	r1, #2
    c09c:	e1a0200b 	mov	r2, fp
    c0a0:	83a04000 	movhi	r4, #0
    c0a4:	81a0000c 	movhi	r0, ip
    c0a8:	9a00000d 	bls	c0e4 <inflate_fast+0x59c>
    c0ac:	e5dc9001 	ldrb	r9, [ip, #1]
    c0b0:	e0806004 	add	r6, r0, r4
    c0b4:	e5c29001 	strb	r9, [r2, #1]
    c0b8:	e5dc9002 	ldrb	r9, [ip, #2]
    c0bc:	e2411003 	sub	r1, r1, #3
    c0c0:	e5c29002 	strb	r9, [r2, #2]
    c0c4:	e5d69003 	ldrb	r9, [r6, #3]
    c0c8:	e3510002 	cmp	r1, #2
    c0cc:	e08b6004 	add	r6, fp, r4
    c0d0:	e2822003 	add	r2, r2, #3
    c0d4:	e28cc003 	add	ip, ip, #3
    c0d8:	e5c69003 	strb	r9, [r6, #3]
    c0dc:	e2844003 	add	r4, r4, #3
    c0e0:	8afffff1 	bhi	c0ac <inflate_fast+0x564>
    c0e4:	e3510000 	cmp	r1, #0
    c0e8:	01a0b002 	moveq	fp, r2
    c0ec:	0affff07 	beq	bd10 <inflate_fast+0x1c8>
    c0f0:	e5dc0001 	ldrb	r0, [ip, #1]
    c0f4:	e3510002 	cmp	r1, #2
    c0f8:	e5c20001 	strb	r0, [r2, #1]
    c0fc:	05dc1002 	ldrbeq	r1, [ip, #2]
    c100:	1282b001 	addne	fp, r2, #1
    c104:	0282b002 	addeq	fp, r2, #2
    c108:	05c21002 	strbeq	r1, [r2, #2]
    c10c:	eafffeff 	b	bd10 <inflate_fast+0x1c8>
    c110:	e1a0200b 	mov	r2, fp
    c114:	e069000b 	rsb	r0, r9, fp
    c118:	e5d0c001 	ldrb	ip, [r0, #1]
    c11c:	e2411003 	sub	r1, r1, #3
    c120:	e5c2c001 	strb	ip, [r2, #1]
    c124:	e5d0c002 	ldrb	ip, [r0, #2]
    c128:	e1a04000 	mov	r4, r0
    c12c:	e5c2c002 	strb	ip, [r2, #2]
    c130:	e5f06003 	ldrb	r6, [r0, #3]!
    c134:	e1a0c002 	mov	ip, r2
    c138:	e3510002 	cmp	r1, #2
    c13c:	e2822003 	add	r2, r2, #3
    c140:	e5cc6003 	strb	r6, [ip, #3]
    c144:	e1a0b002 	mov	fp, r2
    c148:	8afffff2 	bhi	c118 <inflate_fast+0x5d0>
    c14c:	e3510000 	cmp	r1, #0
    c150:	0afffeee 	beq	bd10 <inflate_fast+0x1c8>
    c154:	e5d42004 	ldrb	r2, [r4, #4]
    c158:	e3510002 	cmp	r1, #2
    c15c:	e5cc2004 	strb	r2, [ip, #4]
    c160:	05d42005 	ldrbeq	r2, [r4, #5]
    c164:	128cb004 	addne	fp, ip, #4
    c168:	028cb005 	addeq	fp, ip, #5
    c16c:	05cc2005 	strbeq	r2, [ip, #5]
    c170:	eafffee6 	b	bd10 <inflate_fast+0x1c8>
    c174:	e1a04006 	mov	r4, r6
    c178:	e59d6010 	ldr	r6, [sp, #16]
    c17c:	e1540006 	cmp	r4, r6
    c180:	2a00008e 	bcs	c3c0 <inflate_fast+0x878>
    c184:	e064c006 	rsb	ip, r4, r6
    c188:	e59d4054 	ldr	r4, [sp, #84]	; 0x54
    c18c:	e151000c 	cmp	r1, ip
    c190:	e0660004 	rsb	r0, r6, r4
    c194:	e59d6030 	ldr	r6, [sp, #48]	; 0x30
    c198:	e58dc064 	str	ip, [sp, #100]	; 0x64
    c19c:	e0860000 	add	r0, r6, r0
    c1a0:	e58d0004 	str	r0, [sp, #4]
    c1a4:	9affffba 	bls	c094 <inflate_fast+0x54c>
    c1a8:	e59dc04c 	ldr	ip, [sp, #76]	; 0x4c
    c1ac:	e59d0008 	ldr	r0, [sp, #8]
    c1b0:	e06bc00c 	rsb	ip, fp, ip
    c1b4:	e06c4004 	rsb	r4, ip, r4
    c1b8:	e59d601c 	ldr	r6, [sp, #28]
    c1bc:	e58dc070 	str	ip, [sp, #112]	; 0x70
    c1c0:	e062c004 	rsb	ip, r2, r4
    c1c4:	e060400c 	rsb	r4, r0, ip
    c1c8:	e0864004 	add	r4, r6, r4
    c1cc:	e284c001 	add	ip, r4, #1
    c1d0:	e58dc010 	str	ip, [sp, #16]
    c1d4:	e2840005 	add	r0, r4, #5
    c1d8:	e28b6005 	add	r6, fp, #5
    c1dc:	e58d4074 	str	r4, [sp, #116]	; 0x74
    c1e0:	e28b4001 	add	r4, fp, #1
    c1e4:	e15c0006 	cmp	ip, r6
    c1e8:	31540000 	cmpcc	r4, r0
    c1ec:	e59d0010 	ldr	r0, [sp, #16]
    c1f0:	e58d406c 	str	r4, [sp, #108]	; 0x6c
    c1f4:	e1806004 	orr	r6, r0, r4
    c1f8:	e59d4064 	ldr	r4, [sp, #100]	; 0x64
    c1fc:	33a0c000 	movcc	ip, #0
    c200:	23a0c001 	movcs	ip, #1
    c204:	e3540003 	cmp	r4, #3
    c208:	93a0c000 	movls	ip, #0
    c20c:	820cc001 	andhi	ip, ip, #1
    c210:	e3160003 	tst	r6, #3
    c214:	13a0c000 	movne	ip, #0
    c218:	020cc001 	andeq	ip, ip, #1
    c21c:	e1a06124 	lsr	r6, r4, #2
    c220:	e22cc001 	eor	ip, ip, #1
    c224:	e3560000 	cmp	r6, #0
    c228:	038cc001 	orreq	ip, ip, #1
    c22c:	e1a00106 	lsl	r0, r6, #2
    c230:	e35c0000 	cmp	ip, #0
    c234:	e58d6068 	str	r6, [sp, #104]	; 0x68
    c238:	e0641001 	rsb	r1, r4, r1
    c23c:	e58d0010 	str	r0, [sp, #16]
    c240:	1a0000bd 	bne	c53c <inflate_fast+0x9f4>
    c244:	e59d4074 	ldr	r4, [sp, #116]	; 0x74
    c248:	e58d1078 	str	r1, [sp, #120]	; 0x78
    c24c:	e58db074 	str	fp, [sp, #116]	; 0x74
    c250:	e59d106c 	ldr	r1, [sp, #108]	; 0x6c
    c254:	e59db068 	ldr	fp, [sp, #104]	; 0x68
    c258:	e58d507c 	str	r5, [sp, #124]	; 0x7c
    c25c:	e2446003 	sub	r6, r4, #3
    c260:	e99d0011 	ldmib	sp, {r0, r4}
    c264:	e28cc001 	add	ip, ip, #1
    c268:	e5b65004 	ldr	r5, [r6, #4]!
    c26c:	e15c000b 	cmp	ip, fp
    c270:	e4815004 	str	r5, [r1], #4
    c274:	3afffffa 	bcc	c264 <inflate_fast+0x71c>
    c278:	e59dc010 	ldr	ip, [sp, #16]
    c27c:	e59d6064 	ldr	r6, [sp, #100]	; 0x64
    c280:	e59db074 	ldr	fp, [sp, #116]	; 0x74
    c284:	e156000c 	cmp	r6, ip
    c288:	e080000c 	add	r0, r0, ip
    c28c:	e58d4008 	str	r4, [sp, #8]
    c290:	e59d1078 	ldr	r1, [sp, #120]	; 0x78
    c294:	e59d507c 	ldr	r5, [sp, #124]	; 0x7c
    c298:	e58d0004 	str	r0, [sp, #4]
    c29c:	e08b400c 	add	r4, fp, ip
    c2a0:	e06c6006 	rsb	r6, ip, r6
    c2a4:	0a00000a 	beq	c2d4 <inflate_fast+0x78c>
    c2a8:	e0806006 	add	r6, r0, r6
    c2ac:	e1a0c004 	mov	ip, r4
    c2b0:	e59d4008 	ldr	r4, [sp, #8]
    c2b4:	e58db010 	str	fp, [sp, #16]
    c2b8:	e1a0b006 	mov	fp, r6
    c2bc:	e5f06001 	ldrb	r6, [r0, #1]!
    c2c0:	e150000b 	cmp	r0, fp
    c2c4:	e5ec6001 	strb	r6, [ip, #1]!
    c2c8:	1afffffb 	bne	c2bc <inflate_fast+0x774>
    c2cc:	e59db010 	ldr	fp, [sp, #16]
    c2d0:	e58d4008 	str	r4, [sp, #8]
    c2d4:	e59d0014 	ldr	r0, [sp, #20]
    c2d8:	e59d4064 	ldr	r4, [sp, #100]	; 0x64
    c2dc:	e1500001 	cmp	r0, r1
    c2e0:	e08b6004 	add	r6, fp, r4
    c2e4:	2a00007f 	bcs	c4e8 <inflate_fast+0x9a0>
    c2e8:	e59dc070 	ldr	ip, [sp, #112]	; 0x70
    c2ec:	e59d401c 	ldr	r4, [sp, #28]
    c2f0:	e060000c 	rsb	r0, r0, ip
    c2f4:	e0802002 	add	r2, r0, r2
    c2f8:	e59d0008 	ldr	r0, [sp, #8]
    c2fc:	e0822000 	add	r2, r2, r0
    c300:	e08bc002 	add	ip, fp, r2
    c304:	e59d0060 	ldr	r0, [sp, #96]	; 0x60
    c308:	e28c2004 	add	r2, ip, #4
    c30c:	e15c0000 	cmp	ip, r0
    c310:	31540002 	cmpcc	r4, r2
    c314:	e18c0004 	orr	r0, ip, r4
    c318:	e59d4014 	ldr	r4, [sp, #20]
    c31c:	33a02000 	movcc	r2, #0
    c320:	23a02001 	movcs	r2, #1
    c324:	e3540003 	cmp	r4, #3
    c328:	93a02000 	movls	r2, #0
    c32c:	82022001 	andhi	r2, r2, #1
    c330:	e3100003 	tst	r0, #3
    c334:	13a02000 	movne	r2, #0
    c338:	02022001 	andeq	r2, r2, #1
    c33c:	e59d0050 	ldr	r0, [sp, #80]	; 0x50
    c340:	e2222001 	eor	r2, r2, #1
    c344:	e1902002 	orrs	r2, r0, r2
    c348:	e0641001 	rsb	r1, r4, r1
    c34c:	1a00006f 	bne	c510 <inflate_fast+0x9c8>
    c350:	e59d401c 	ldr	r4, [sp, #28]
    c354:	e59db024 	ldr	fp, [sp, #36]	; 0x24
    c358:	e1a00002 	mov	r0, r2
    c35c:	e58d3010 	str	r3, [sp, #16]
    c360:	e7943002 	ldr	r3, [r4, r2]
    c364:	e2800001 	add	r0, r0, #1
    c368:	e150000b 	cmp	r0, fp
    c36c:	e78c3002 	str	r3, [ip, r2]
    c370:	e2822004 	add	r2, r2, #4
    c374:	3afffff9 	bcc	c360 <inflate_fast+0x818>
    c378:	e59dc020 	ldr	ip, [sp, #32]
    c37c:	e59d4014 	ldr	r4, [sp, #20]
    c380:	e59d3010 	ldr	r3, [sp, #16]
    c384:	e154000c 	cmp	r4, ip
    c388:	e086000c 	add	r0, r6, ip
    c38c:	0a000006 	beq	c3ac <inflate_fast+0x864>
    c390:	e59d205c 	ldr	r2, [sp, #92]	; 0x5c
    c394:	e59d4058 	ldr	r4, [sp, #88]	; 0x58
    c398:	e0824004 	add	r4, r2, r4
    c39c:	e5f2c001 	ldrb	ip, [r2, #1]!
    c3a0:	e1520004 	cmp	r2, r4
    c3a4:	e5e0c001 	strb	ip, [r0, #1]!
    c3a8:	1afffffb 	bne	c39c <inflate_fast+0x854>
    c3ac:	e59d0014 	ldr	r0, [sp, #20]
    c3b0:	e086b000 	add	fp, r6, r0
    c3b4:	e069900b 	rsb	r9, r9, fp
    c3b8:	e58d9004 	str	r9, [sp, #4]
    c3bc:	eaffff34 	b	c094 <inflate_fast+0x54c>
    c3c0:	e1a04006 	mov	r4, r6
    c3c4:	e1510006 	cmp	r1, r6
    c3c8:	e59d6014 	ldr	r6, [sp, #20]
    c3cc:	e59dc030 	ldr	ip, [sp, #48]	; 0x30
    c3d0:	e0640006 	rsb	r0, r4, r6
    c3d4:	e08c0000 	add	r0, ip, r0
    c3d8:	e58d0004 	str	r0, [sp, #4]
    c3dc:	9affff2c 	bls	c094 <inflate_fast+0x54c>
    c3e0:	e59d004c 	ldr	r0, [sp, #76]	; 0x4c
    c3e4:	e59d4008 	ldr	r4, [sp, #8]
    c3e8:	e06bc000 	rsb	ip, fp, r0
    c3ec:	e06cc006 	rsb	ip, ip, r6
    c3f0:	e062200c 	rsb	r2, r2, ip
    c3f4:	e59dc01c 	ldr	ip, [sp, #28]
    c3f8:	e0642002 	rsb	r2, r4, r2
    c3fc:	e08c6002 	add	r6, ip, r2
    c400:	e2862001 	add	r2, r6, #1
    c404:	e2860005 	add	r0, r6, #5
    c408:	e28bc001 	add	ip, fp, #1
    c40c:	e28b4005 	add	r4, fp, #5
    c410:	e1520004 	cmp	r2, r4
    c414:	315c0000 	cmpcc	ip, r0
    c418:	33a00000 	movcc	r0, #0
    c41c:	23a00001 	movcs	r0, #1
    c420:	e58d0064 	str	r0, [sp, #100]	; 0x64
    c424:	e59d4064 	ldr	r4, [sp, #100]	; 0x64
    c428:	e182000c 	orr	r0, r2, ip
    c42c:	e59d2010 	ldr	r2, [sp, #16]
    c430:	e3520003 	cmp	r2, #3
    c434:	93a04000 	movls	r4, #0
    c438:	82044001 	andhi	r4, r4, #1
    c43c:	e3100003 	tst	r0, #3
    c440:	13a02000 	movne	r2, #0
    c444:	02042001 	andeq	r2, r4, #1
    c448:	e59d4010 	ldr	r4, [sp, #16]
    c44c:	e2222001 	eor	r2, r2, #1
    c450:	e1a04124 	lsr	r4, r4, #2
    c454:	e3540000 	cmp	r4, #0
    c458:	03822001 	orreq	r2, r2, #1
    c45c:	e59d0010 	ldr	r0, [sp, #16]
    c460:	e58d4068 	str	r4, [sp, #104]	; 0x68
    c464:	e3520000 	cmp	r2, #0
    c468:	e1a04104 	lsl	r4, r4, #2
    c46c:	e0601001 	rsb	r1, r0, r1
    c470:	e58d4064 	str	r4, [sp, #100]	; 0x64
    c474:	1a00002c 	bne	c52c <inflate_fast+0x9e4>
    c478:	e58db06c 	str	fp, [sp, #108]	; 0x6c
    c47c:	e59d0004 	ldr	r0, [sp, #4]
    c480:	e59db068 	ldr	fp, [sp, #104]	; 0x68
    c484:	e2464003 	sub	r4, r6, #3
    c488:	e2822001 	add	r2, r2, #1
    c48c:	e5b46004 	ldr	r6, [r4, #4]!
    c490:	e152000b 	cmp	r2, fp
    c494:	e48c6004 	str	r6, [ip], #4
    c498:	3afffffa 	bcc	c488 <inflate_fast+0x940>
    c49c:	e59dc064 	ldr	ip, [sp, #100]	; 0x64
    c4a0:	e59d6010 	ldr	r6, [sp, #16]
    c4a4:	e59db06c 	ldr	fp, [sp, #108]	; 0x6c
    c4a8:	e080000c 	add	r0, r0, ip
    c4ac:	e156000c 	cmp	r6, ip
    c4b0:	e58d0004 	str	r0, [sp, #4]
    c4b4:	e08b200c 	add	r2, fp, ip
    c4b8:	e06c4006 	rsb	r4, ip, r6
    c4bc:	0a000004 	beq	c4d4 <inflate_fast+0x98c>
    c4c0:	e0804004 	add	r4, r0, r4
    c4c4:	e5f0c001 	ldrb	ip, [r0, #1]!
    c4c8:	e1500004 	cmp	r0, r4
    c4cc:	e5e2c001 	strb	ip, [r2, #1]!
    c4d0:	1afffffb 	bne	c4c4 <inflate_fast+0x97c>
    c4d4:	e59d0010 	ldr	r0, [sp, #16]
    c4d8:	e08bb000 	add	fp, fp, r0
    c4dc:	e069900b 	rsb	r9, r9, fp
    c4e0:	e58d9004 	str	r9, [sp, #4]
    c4e4:	eafffeea 	b	c094 <inflate_fast+0x54c>
    c4e8:	e59d0030 	ldr	r0, [sp, #48]	; 0x30
    c4ec:	e1a0b006 	mov	fp, r6
    c4f0:	e58d0004 	str	r0, [sp, #4]
    c4f4:	eafffee6 	b	c094 <inflate_fast+0x54c>
    c4f8:	e3a0201d 	mov	r2, #29
    c4fc:	e58db010 	str	fp, [sp, #16]
    c500:	e59d903c 	ldr	r9, [sp, #60]	; 0x3c
    c504:	e1a0b004 	mov	fp, r4
    c508:	e5842000 	str	r2, [r4]
    c50c:	eafffe08 	b	bd34 <inflate_fast+0x1ec>
    c510:	e59d2030 	ldr	r2, [sp, #48]	; 0x30
    c514:	e1a00006 	mov	r0, r6
    c518:	eaffff9e 	b	c398 <inflate_fast+0x850>
    c51c:	e1a04000 	mov	r4, r0
    c520:	e1a0200b 	mov	r2, fp
    c524:	e59d0004 	ldr	r0, [sp, #4]
    c528:	eafffed0 	b	c070 <inflate_fast+0x528>
    c52c:	e1a04000 	mov	r4, r0
    c530:	e1a0200b 	mov	r2, fp
    c534:	e59d0004 	ldr	r0, [sp, #4]
    c538:	eaffffe0 	b	c4c0 <inflate_fast+0x978>
    c53c:	e1a06004 	mov	r6, r4
    c540:	e59d0004 	ldr	r0, [sp, #4]
    c544:	e1a0400b 	mov	r4, fp
    c548:	eaffff56 	b	c2a8 <inflate_fast+0x760>

0000c54c <inflate_table>:
    c54c:	e92d0ff0 	push	{r4, r5, r6, r7, r8, r9, sl, fp}
    c550:	e3520000 	cmp	r2, #0
    c554:	e24dd080 	sub	sp, sp, #128	; 0x80
    c558:	e3a0c000 	mov	ip, #0
    c55c:	e58d3018 	str	r3, [sp, #24]
    c560:	11a03001 	movne	r3, r1
    c564:	e58dc040 	str	ip, [sp, #64]	; 0x40
    c568:	e58dc044 	str	ip, [sp, #68]	; 0x44
    c56c:	e58dc048 	str	ip, [sp, #72]	; 0x48
    c570:	e58dc04c 	str	ip, [sp, #76]	; 0x4c
    c574:	e58dc050 	str	ip, [sp, #80]	; 0x50
    c578:	e58dc054 	str	ip, [sp, #84]	; 0x54
    c57c:	e58dc058 	str	ip, [sp, #88]	; 0x58
    c580:	e58dc05c 	str	ip, [sp, #92]	; 0x5c
    c584:	e1a09000 	mov	r9, r0
    c588:	e58d1020 	str	r1, [sp, #32]
    c58c:	1083c082 	addne	ip, r3, r2, lsl #1
    c590:	0a000007 	beq	c5b4 <inflate_table+0x68>
    c594:	e0d310b2 	ldrh	r1, [r3], #2
    c598:	e28d4080 	add	r4, sp, #128	; 0x80
    c59c:	e0841081 	add	r1, r4, r1, lsl #1
    c5a0:	e15104b0 	ldrh	r0, [r1, #-64]	; 0xffffffc0
    c5a4:	e153000c 	cmp	r3, ip
    c5a8:	e2800001 	add	r0, r0, #1
    c5ac:	e14104b0 	strh	r0, [r1, #-64]	; 0xffffffc0
    c5b0:	1afffff7 	bne	c594 <inflate_table+0x48>
    c5b4:	e1dd35be 	ldrh	r3, [sp, #94]	; 0x5e
    c5b8:	e59d00a0 	ldr	r0, [sp, #160]	; 0xa0
    c5bc:	e3530000 	cmp	r3, #0
    c5c0:	e590c000 	ldr	ip, [r0]
    c5c4:	1a0001c2 	bne	ccd4 <inflate_table+0x788>
    c5c8:	e1dd15bc 	ldrh	r1, [sp, #92]	; 0x5c
    c5cc:	e3510000 	cmp	r1, #0
    c5d0:	1a0001ad 	bne	cc8c <inflate_table+0x740>
    c5d4:	e1dd15ba 	ldrh	r1, [sp, #90]	; 0x5a
    c5d8:	e3510000 	cmp	r1, #0
    c5dc:	1a0001c0 	bne	cce4 <inflate_table+0x798>
    c5e0:	e1dd15b8 	ldrh	r1, [sp, #88]	; 0x58
    c5e4:	e3510000 	cmp	r1, #0
    c5e8:	1a0001bb 	bne	ccdc <inflate_table+0x790>
    c5ec:	e1dd15b6 	ldrh	r1, [sp, #86]	; 0x56
    c5f0:	e3510000 	cmp	r1, #0
    c5f4:	1a0001be 	bne	ccf4 <inflate_table+0x7a8>
    c5f8:	e1dd15b4 	ldrh	r1, [sp, #84]	; 0x54
    c5fc:	e3510000 	cmp	r1, #0
    c600:	1a0001b9 	bne	ccec <inflate_table+0x7a0>
    c604:	e1dd15b2 	ldrh	r1, [sp, #82]	; 0x52
    c608:	e3510000 	cmp	r1, #0
    c60c:	1a0001bc 	bne	cd04 <inflate_table+0x7b8>
    c610:	e1dd15b0 	ldrh	r1, [sp, #80]	; 0x50
    c614:	e3510000 	cmp	r1, #0
    c618:	1a0001b7 	bne	ccfc <inflate_table+0x7b0>
    c61c:	e1dd14be 	ldrh	r1, [sp, #78]	; 0x4e
    c620:	e3510000 	cmp	r1, #0
    c624:	1a0001b8 	bne	cd0c <inflate_table+0x7c0>
    c628:	e1dd14bc 	ldrh	r1, [sp, #76]	; 0x4c
    c62c:	e3510000 	cmp	r1, #0
    c630:	1a0001b7 	bne	cd14 <inflate_table+0x7c8>
    c634:	e1dd14ba 	ldrh	r1, [sp, #74]	; 0x4a
    c638:	e3510000 	cmp	r1, #0
    c63c:	1a0001b8 	bne	cd24 <inflate_table+0x7d8>
    c640:	e1dd14b8 	ldrh	r1, [sp, #72]	; 0x48
    c644:	e3510000 	cmp	r1, #0
    c648:	1a0001b3 	bne	cd1c <inflate_table+0x7d0>
    c64c:	e1dd14b6 	ldrh	r1, [sp, #70]	; 0x46
    c650:	e3510000 	cmp	r1, #0
    c654:	1a0001b6 	bne	cd34 <inflate_table+0x7e8>
    c658:	e1dd14b4 	ldrh	r1, [sp, #68]	; 0x44
    c65c:	e3510000 	cmp	r1, #0
    c660:	1a0001b1 	bne	cd2c <inflate_table+0x7e0>
    c664:	e1dd04b2 	ldrh	r0, [sp, #66]	; 0x42
    c668:	e3500000 	cmp	r0, #0
    c66c:	1a000010 	bne	c6b4 <inflate_table+0x168>
    c670:	e59d5018 	ldr	r5, [sp, #24]
    c674:	e59d60a0 	ldr	r6, [sp, #160]	; 0xa0
    c678:	e5953000 	ldr	r3, [r5]
    c67c:	e3a02001 	mov	r2, #1
    c680:	e3a01040 	mov	r1, #64	; 0x40
    c684:	e283c008 	add	ip, r3, #8
    c688:	e1c300b2 	strh	r0, [r3, #2]
    c68c:	e1c300b6 	strh	r0, [r3, #6]
    c690:	e5c31000 	strb	r1, [r3]
    c694:	e5c31004 	strb	r1, [r3, #4]
    c698:	e5c32001 	strb	r2, [r3, #1]
    c69c:	e5c32005 	strb	r2, [r3, #5]
    c6a0:	e585c000 	str	ip, [r5]
    c6a4:	e5862000 	str	r2, [r6]
    c6a8:	e28dd080 	add	sp, sp, #128	; 0x80
    c6ac:	e8bd0ff0 	pop	{r4, r5, r6, r7, r8, r9, sl, fp}
    c6b0:	e12fff1e 	bx	lr
    c6b4:	e35c0001 	cmp	ip, #1
    c6b8:	23a0c001 	movcs	ip, #1
    c6bc:	e58dc03c 	str	ip, [sp, #60]	; 0x3c
    c6c0:	e3a0b001 	mov	fp, #1
    c6c4:	e2707002 	rsbs	r7, r0, #2
    c6c8:	4a000149 	bmi	cbf4 <inflate_table+0x6a8>
    c6cc:	e3a0a001 	mov	sl, #1
    c6d0:	e1dd14b4 	ldrh	r1, [sp, #68]	; 0x44
    c6d4:	e0717087 	rsbs	r7, r1, r7, lsl #1
    c6d8:	4a000145 	bmi	cbf4 <inflate_table+0x6a8>
    c6dc:	e1dd44b6 	ldrh	r4, [sp, #70]	; 0x46
    c6e0:	e0747087 	rsbs	r7, r4, r7, lsl #1
    c6e4:	4a000142 	bmi	cbf4 <inflate_table+0x6a8>
    c6e8:	e1ddc4b8 	ldrh	ip, [sp, #72]	; 0x48
    c6ec:	e07c7087 	rsbs	r7, ip, r7, lsl #1
    c6f0:	4a00013f 	bmi	cbf4 <inflate_table+0x6a8>
    c6f4:	e1dd54ba 	ldrh	r5, [sp, #74]	; 0x4a
    c6f8:	e0757087 	rsbs	r7, r5, r7, lsl #1
    c6fc:	4a00013c 	bmi	cbf4 <inflate_table+0x6a8>
    c700:	e1dd64bc 	ldrh	r6, [sp, #76]	; 0x4c
    c704:	e0767087 	rsbs	r7, r6, r7, lsl #1
    c708:	e58d6038 	str	r6, [sp, #56]	; 0x38
    c70c:	4a000138 	bmi	cbf4 <inflate_table+0x6a8>
    c710:	e1dd84be 	ldrh	r8, [sp, #78]	; 0x4e
    c714:	e0787087 	rsbs	r7, r8, r7, lsl #1
    c718:	e58d7004 	str	r7, [sp, #4]
    c71c:	4a000134 	bmi	cbf4 <inflate_table+0x6a8>
    c720:	e1a06007 	mov	r6, r7
    c724:	e1dd75b0 	ldrh	r7, [sp, #80]	; 0x50
    c728:	e0776086 	rsbs	r6, r7, r6, lsl #1
    c72c:	e58d7008 	str	r7, [sp, #8]
    c730:	e58d6004 	str	r6, [sp, #4]
    c734:	4a00012e 	bmi	cbf4 <inflate_table+0x6a8>
    c738:	e1dd75b2 	ldrh	r7, [sp, #82]	; 0x52
    c73c:	e0776086 	rsbs	r6, r7, r6, lsl #1
    c740:	e58d700c 	str	r7, [sp, #12]
    c744:	e58d6004 	str	r6, [sp, #4]
    c748:	4a000129 	bmi	cbf4 <inflate_table+0x6a8>
    c74c:	e1dd75b4 	ldrh	r7, [sp, #84]	; 0x54
    c750:	e0776086 	rsbs	r6, r7, r6, lsl #1
    c754:	e58d7010 	str	r7, [sp, #16]
    c758:	e58d6004 	str	r6, [sp, #4]
    c75c:	4a000124 	bmi	cbf4 <inflate_table+0x6a8>
    c760:	e1dd75b6 	ldrh	r7, [sp, #86]	; 0x56
    c764:	e0776086 	rsbs	r6, r7, r6, lsl #1
    c768:	e58d7014 	str	r7, [sp, #20]
    c76c:	e58d6004 	str	r6, [sp, #4]
    c770:	4a00011f 	bmi	cbf4 <inflate_table+0x6a8>
    c774:	e1dd75b8 	ldrh	r7, [sp, #88]	; 0x58
    c778:	e0776086 	rsbs	r6, r7, r6, lsl #1
    c77c:	e58d701c 	str	r7, [sp, #28]
    c780:	e58d6004 	str	r6, [sp, #4]
    c784:	4a00011a 	bmi	cbf4 <inflate_table+0x6a8>
    c788:	e1dd75ba 	ldrh	r7, [sp, #90]	; 0x5a
    c78c:	e0776086 	rsbs	r6, r7, r6, lsl #1
    c790:	e58d7024 	str	r7, [sp, #36]	; 0x24
    c794:	e58d6004 	str	r6, [sp, #4]
    c798:	4a000115 	bmi	cbf4 <inflate_table+0x6a8>
    c79c:	e1dd75bc 	ldrh	r7, [sp, #92]	; 0x5c
    c7a0:	e0776086 	rsbs	r6, r7, r6, lsl #1
    c7a4:	e58d7028 	str	r7, [sp, #40]	; 0x28
    c7a8:	e58d6004 	str	r6, [sp, #4]
    c7ac:	4a000110 	bmi	cbf4 <inflate_table+0x6a8>
    c7b0:	e0633086 	rsb	r3, r3, r6, lsl #1
    c7b4:	e3530000 	cmp	r3, #0
    c7b8:	ba00010d 	blt	cbf4 <inflate_table+0x6a8>
    c7bc:	0a000005 	beq	c7d8 <inflate_table+0x28c>
    c7c0:	e2793001 	rsbs	r3, r9, #1
    c7c4:	33a03000 	movcc	r3, #0
    c7c8:	e35b0001 	cmp	fp, #1
    c7cc:	13833001 	orrne	r3, r3, #1
    c7d0:	e3530000 	cmp	r3, #0
    c7d4:	1a000106 	bne	cbf4 <inflate_table+0x6a8>
    c7d8:	e0801001 	add	r1, r0, r1
    c7dc:	e6ff1071 	uxth	r1, r1
    c7e0:	e0814004 	add	r4, r1, r4
    c7e4:	e6ff4074 	uxth	r4, r4
    c7e8:	e084c00c 	add	ip, r4, ip
    c7ec:	e6ffc07c 	uxth	ip, ip
    c7f0:	e59d7038 	ldr	r7, [sp, #56]	; 0x38
    c7f4:	e08c5005 	add	r5, ip, r5
    c7f8:	e6ff5075 	uxth	r5, r5
    c7fc:	e0856007 	add	r6, r5, r7
    c800:	e6ff6076 	uxth	r6, r6
    c804:	e58dc030 	str	ip, [sp, #48]	; 0x30
    c808:	e0868008 	add	r8, r6, r8
    c80c:	e59dc008 	ldr	ip, [sp, #8]
    c810:	e6ff8078 	uxth	r8, r8
    c814:	e58d402c 	str	r4, [sp, #44]	; 0x2c
    c818:	e088300c 	add	r3, r8, ip
    c81c:	e59d400c 	ldr	r4, [sp, #12]
    c820:	e6ff3073 	uxth	r3, r3
    c824:	e58d1004 	str	r1, [sp, #4]
    c828:	e58d5034 	str	r5, [sp, #52]	; 0x34
    c82c:	e0831004 	add	r1, r3, r4
    c830:	e59d5010 	ldr	r5, [sp, #16]
    c834:	e6ff1071 	uxth	r1, r1
    c838:	e081c005 	add	ip, r1, r5
    c83c:	e58d6038 	str	r6, [sp, #56]	; 0x38
    c840:	e59d6014 	ldr	r6, [sp, #20]
    c844:	e6ffc07c 	uxth	ip, ip
    c848:	e08c4006 	add	r4, ip, r6
    c84c:	e59d701c 	ldr	r7, [sp, #28]
    c850:	e6ff4074 	uxth	r4, r4
    c854:	e0845007 	add	r5, r4, r7
    c858:	e59d6024 	ldr	r6, [sp, #36]	; 0x24
    c85c:	e6ff5075 	uxth	r5, r5
    c860:	e0857006 	add	r7, r5, r6
    c864:	e6ff6077 	uxth	r6, r7
    c868:	e59d7028 	ldr	r7, [sp, #40]	; 0x28
    c86c:	e1cd57ba 	strh	r5, [sp, #122]	; 0x7a
    c870:	e1cd47b8 	strh	r4, [sp, #120]	; 0x78
    c874:	e1cdc7b6 	strh	ip, [sp, #118]	; 0x76
    c878:	e1cd17b4 	strh	r1, [sp, #116]	; 0x74
    c87c:	e1cd37b2 	strh	r3, [sp, #114]	; 0x72
    c880:	e59dc038 	ldr	ip, [sp, #56]	; 0x38
    c884:	e59d1034 	ldr	r1, [sp, #52]	; 0x34
    c888:	e59d3030 	ldr	r3, [sp, #48]	; 0x30
    c88c:	e59d402c 	ldr	r4, [sp, #44]	; 0x2c
    c890:	e59d5004 	ldr	r5, [sp, #4]
    c894:	e0867007 	add	r7, r6, r7
    c898:	e1cd67bc 	strh	r6, [sp, #124]	; 0x7c
    c89c:	e3520000 	cmp	r2, #0
    c8a0:	e3a06000 	mov	r6, #0
    c8a4:	e1cd77be 	strh	r7, [sp, #126]	; 0x7e
    c8a8:	e1cd87b0 	strh	r8, [sp, #112]	; 0x70
    c8ac:	e1cdc6be 	strh	ip, [sp, #110]	; 0x6e
    c8b0:	e1cd16bc 	strh	r1, [sp, #108]	; 0x6c
    c8b4:	e1cd36ba 	strh	r3, [sp, #106]	; 0x6a
    c8b8:	e1cd46b8 	strh	r4, [sp, #104]	; 0x68
    c8bc:	e1cd56b6 	strh	r5, [sp, #102]	; 0x66
    c8c0:	e1cd06b4 	strh	r0, [sp, #100]	; 0x64
    c8c4:	e1cd66b2 	strh	r6, [sp, #98]	; 0x62
    c8c8:	0a000010 	beq	c910 <inflate_table+0x3c4>
    c8cc:	e59d1020 	ldr	r1, [sp, #32]
    c8d0:	e59d40a4 	ldr	r4, [sp, #164]	; 0xa4
    c8d4:	e3a07000 	mov	r7, #0
    c8d8:	e2413002 	sub	r3, r1, #2
    c8dc:	e1f310b2 	ldrh	r1, [r3, #2]!
    c8e0:	e3510000 	cmp	r1, #0
    c8e4:	0a000006 	beq	c904 <inflate_table+0x3b8>
    c8e8:	e28d5080 	add	r5, sp, #128	; 0x80
    c8ec:	e0851081 	add	r1, r5, r1, lsl #1
    c8f0:	e15102b0 	ldrh	r0, [r1, #-32]	; 0xffffffe0
    c8f4:	e280c001 	add	ip, r0, #1
    c8f8:	e1a00080 	lsl	r0, r0, #1
    c8fc:	e141c2b0 	strh	ip, [r1, #-32]	; 0xffffffe0
    c900:	e18470b0 	strh	r7, [r4, r0]
    c904:	e2877001 	add	r7, r7, #1
    c908:	e1570002 	cmp	r7, r2
    c90c:	1afffff2 	bne	c8dc <inflate_table+0x390>
    c910:	e3590000 	cmp	r9, #0
    c914:	1a0000ba 	bne	cc04 <inflate_table+0x6b8>
    c918:	e59d00a4 	ldr	r0, [sp, #164]	; 0xa4
    c91c:	e3a01013 	mov	r1, #19
    c920:	e58d0034 	str	r0, [sp, #52]	; 0x34
    c924:	e58d0038 	str	r0, [sp, #56]	; 0x38
    c928:	e58d101c 	str	r1, [sp, #28]
    c92c:	e59d203c 	ldr	r2, [sp, #60]	; 0x3c
    c930:	e3a0c001 	mov	ip, #1
    c934:	e15a0002 	cmp	sl, r2
    c938:	21a0200a 	movcs	r2, sl
    c93c:	e1a0121c 	lsl	r1, ip, r2
    c940:	e58d2010 	str	r2, [sp, #16]
    c944:	e059200c 	subs	r2, r9, ip
    c948:	e2724000 	rsbs	r4, r2, #0
    c94c:	e0b44002 	adcs	r4, r4, r2
    c950:	e59f33e4 	ldr	r3, [pc, #996]	; cd3c <inflate_table+0x7f0>
    c954:	e59d5018 	ldr	r5, [sp, #24]
    c958:	e1a02004 	mov	r2, r4
    c95c:	e1510003 	cmp	r1, r3
    c960:	93a02000 	movls	r2, #0
    c964:	82022001 	andhi	r2, r2, #1
    c968:	e5955000 	ldr	r5, [r5]
    c96c:	e3520000 	cmp	r2, #0
    c970:	e58d4028 	str	r4, [sp, #40]	; 0x28
    c974:	e58d500c 	str	r5, [sp, #12]
    c978:	1a00009f 	bne	cbfc <inflate_table+0x6b0>
    c97c:	e2593002 	subs	r3, r9, #2
    c980:	e2739000 	rsbs	r9, r3, #0
    c984:	e0b99003 	adcs	r9, r9, r3
    c988:	e59f23b0 	ldr	r2, [pc, #944]	; cd40 <inflate_table+0x7f4>
    c98c:	e1a00009 	mov	r0, r9
    c990:	e1510002 	cmp	r1, r2
    c994:	93a00000 	movls	r0, #0
    c998:	82000001 	andhi	r0, r0, #1
    c99c:	e3500000 	cmp	r0, #0
    c9a0:	e58d9030 	str	r9, [sp, #48]	; 0x30
    c9a4:	1a000094 	bne	cbfc <inflate_table+0x6b0>
    c9a8:	e58d1014 	str	r1, [sp, #20]
    c9ac:	e59d60a4 	ldr	r6, [sp, #164]	; 0xa4
    c9b0:	e59d7014 	ldr	r7, [sp, #20]
    c9b4:	e2466002 	sub	r6, r6, #2
    c9b8:	e1a0900c 	mov	r9, ip
    c9bc:	e2477001 	sub	r7, r7, #1
    c9c0:	e3e02000 	mvn	r2, #0
    c9c4:	e59dc010 	ldr	ip, [sp, #16]
    c9c8:	e58d6008 	str	r6, [sp, #8]
    c9cc:	e1a08000 	mov	r8, r0
    c9d0:	e1a0100a 	mov	r1, sl
    c9d4:	e58d702c 	str	r7, [sp, #44]	; 0x2c
    c9d8:	e58d2024 	str	r2, [sp, #36]	; 0x24
    c9dc:	e1a03006 	mov	r3, r6
    c9e0:	e1f340b2 	ldrh	r4, [r3, #2]!
    c9e4:	e59d601c 	ldr	r6, [sp, #28]
    c9e8:	e58d3008 	str	r3, [sp, #8]
    c9ec:	e1560004 	cmp	r6, r4
    c9f0:	e6ef5071 	uxtb	r5, r1
    c9f4:	c3a07000 	movgt	r7, #0
    c9f8:	ca000006 	bgt	ca18 <inflate_table+0x4cc>
    c9fc:	b59d2034 	ldrlt	r2, [sp, #52]	; 0x34
    ca00:	b59d3038 	ldrlt	r3, [sp, #56]	; 0x38
    ca04:	b1a04084 	lsllt	r4, r4, #1
    ca08:	b7d27004 	ldrblt	r7, [r2, r4]
    ca0c:	b19340b4 	ldrhlt	r4, [r3, r4]
    ca10:	a3a04000 	movge	r4, #0
    ca14:	a3a07060 	movge	r7, #96	; 0x60
    ca18:	e1a06c19 	lsl	r6, r9, ip
    ca1c:	e1a01119 	lsl	r1, r9, r1
    ca20:	e0863830 	add	r3, r6, r0, lsr r8
    ca24:	e59d200c 	ldr	r2, [sp, #12]
    ca28:	e58d6004 	str	r6, [sp, #4]
    ca2c:	e0613003 	rsb	r3, r1, r3
    ca30:	e0616f01 	rsb	r6, r1, r1, lsl #30
    ca34:	e0823103 	add	r3, r2, r3, lsl #2
    ca38:	e59d2004 	ldr	r2, [sp, #4]
    ca3c:	e1a06106 	lsl	r6, r6, #2
    ca40:	e0522001 	subs	r2, r2, r1
    ca44:	e5c37000 	strb	r7, [r3]
    ca48:	e5c35001 	strb	r5, [r3, #1]
    ca4c:	e1c340b2 	strh	r4, [r3, #2]
    ca50:	e0833006 	add	r3, r3, r6
    ca54:	1afffff9 	bne	ca40 <inflate_table+0x4f4>
    ca58:	e24a3001 	sub	r3, sl, #1
    ca5c:	e1a03319 	lsl	r3, r9, r3
    ca60:	e1130000 	tst	r3, r0
    ca64:	0a000002 	beq	ca74 <inflate_table+0x528>
    ca68:	e1a030a3 	lsr	r3, r3, #1
    ca6c:	e1100003 	tst	r0, r3
    ca70:	1afffffc 	bne	ca68 <inflate_table+0x51c>
    ca74:	e3530000 	cmp	r3, #0
    ca78:	12432001 	subne	r2, r3, #1
    ca7c:	10020000 	andne	r0, r2, r0
    ca80:	10800003 	addne	r0, r0, r3
    ca84:	01a00003 	moveq	r0, r3
    ca88:	e28d3080 	add	r3, sp, #128	; 0x80
    ca8c:	e083208a 	add	r2, r3, sl, lsl #1
    ca90:	e15234b0 	ldrh	r3, [r2, #-64]	; 0xffffffc0
    ca94:	e2433001 	sub	r3, r3, #1
    ca98:	e6ff3073 	uxth	r3, r3
    ca9c:	e3530000 	cmp	r3, #0
    caa0:	e14234b0 	strh	r3, [r2, #-64]	; 0xffffffc0
    caa4:	1a000006 	bne	cac4 <inflate_table+0x578>
    caa8:	e15a000b 	cmp	sl, fp
    caac:	0a000064 	beq	cc44 <inflate_table+0x6f8>
    cab0:	e59d4008 	ldr	r4, [sp, #8]
    cab4:	e59d5020 	ldr	r5, [sp, #32]
    cab8:	e1d430b2 	ldrh	r3, [r4, #2]
    cabc:	e1a03083 	lsl	r3, r3, #1
    cac0:	e195a0b3 	ldrh	sl, [r5, r3]
    cac4:	e59d6010 	ldr	r6, [sp, #16]
    cac8:	e156000a 	cmp	r6, sl
    cacc:	2a000045 	bcs	cbe8 <inflate_table+0x69c>
    cad0:	e59d702c 	ldr	r7, [sp, #44]	; 0x2c
    cad4:	e59d1024 	ldr	r1, [sp, #36]	; 0x24
    cad8:	e0004007 	and	r4, r0, r7
    cadc:	e1540001 	cmp	r4, r1
    cae0:	0a000040 	beq	cbe8 <inflate_table+0x69c>
    cae4:	e59d2010 	ldr	r2, [sp, #16]
    cae8:	e3580000 	cmp	r8, #0
    caec:	e59d300c 	ldr	r3, [sp, #12]
    caf0:	e59d5004 	ldr	r5, [sp, #4]
    caf4:	01a08002 	moveq	r8, r2
    caf8:	e068c00a 	rsb	ip, r8, sl
    cafc:	e0833105 	add	r3, r3, r5, lsl #2
    cb00:	e15a000b 	cmp	sl, fp
    cb04:	e58d300c 	str	r3, [sp, #12]
    cb08:	e1a0100c 	mov	r1, ip
    cb0c:	e1a03c19 	lsl	r3, r9, ip
    cb10:	2a000012 	bcs	cb60 <inflate_table+0x614>
    cb14:	e1a0508a 	lsl	r5, sl, #1
    cb18:	e28d6080 	add	r6, sp, #128	; 0x80
    cb1c:	e0862005 	add	r2, r6, r5
    cb20:	e15224b0 	ldrh	r2, [r2, #-64]	; 0xffffffc0
    cb24:	e0623003 	rsb	r3, r2, r3
    cb28:	e3530000 	cmp	r3, #0
    cb2c:	da00000b 	ble	cb60 <inflate_table+0x614>
    cb30:	e28d7040 	add	r7, sp, #64	; 0x40
    cb34:	e0875005 	add	r5, r7, r5
    cb38:	ea000003 	b	cb4c <inflate_table+0x600>
    cb3c:	e1f520b2 	ldrh	r2, [r5, #2]!
    cb40:	e0623003 	rsb	r3, r2, r3
    cb44:	e3530000 	cmp	r3, #0
    cb48:	da000004 	ble	cb60 <inflate_table+0x614>
    cb4c:	e28cc001 	add	ip, ip, #1
    cb50:	e088200c 	add	r2, r8, ip
    cb54:	e15b0002 	cmp	fp, r2
    cb58:	e1a03083 	lsl	r3, r3, #1
    cb5c:	8afffff6 	bhi	cb3c <inflate_table+0x5f0>
    cb60:	e59d2014 	ldr	r2, [sp, #20]
    cb64:	e59d3028 	ldr	r3, [sp, #40]	; 0x28
    cb68:	e0822c19 	add	r2, r2, r9, lsl ip
    cb6c:	e59f51c8 	ldr	r5, [pc, #456]	; cd3c <inflate_table+0x7f0>
    cb70:	e58d2014 	str	r2, [sp, #20]
    cb74:	e1520005 	cmp	r2, r5
    cb78:	93a03000 	movls	r3, #0
    cb7c:	82033001 	andhi	r3, r3, #1
    cb80:	e3530000 	cmp	r3, #0
    cb84:	1a00001c 	bne	cbfc <inflate_table+0x6b0>
    cb88:	e59d3030 	ldr	r3, [sp, #48]	; 0x30
    cb8c:	e59f61ac 	ldr	r6, [pc, #428]	; cd40 <inflate_table+0x7f4>
    cb90:	e1520006 	cmp	r2, r6
    cb94:	93a03000 	movls	r3, #0
    cb98:	82033001 	andhi	r3, r3, #1
    cb9c:	e3530000 	cmp	r3, #0
    cba0:	1a000015 	bne	cbfc <inflate_table+0x6b0>
    cba4:	e59d7018 	ldr	r7, [sp, #24]
    cba8:	e1a03104 	lsl	r3, r4, #2
    cbac:	e5972000 	ldr	r2, [r7]
    cbb0:	e58d4024 	str	r4, [sp, #36]	; 0x24
    cbb4:	e7c2c104 	strb	ip, [r2, r4, lsl #2]
    cbb8:	e5972000 	ldr	r2, [r7]
    cbbc:	e59d4010 	ldr	r4, [sp, #16]
    cbc0:	e0822003 	add	r2, r2, r3
    cbc4:	e5c24001 	strb	r4, [r2, #1]
    cbc8:	e5972000 	ldr	r2, [r7]
    cbcc:	e59d500c 	ldr	r5, [sp, #12]
    cbd0:	e0823003 	add	r3, r2, r3
    cbd4:	e0624005 	rsb	r4, r2, r5
    cbd8:	e1a04144 	asr	r4, r4, #2
    cbdc:	e1c340b2 	strh	r4, [r3, #2]
    cbe0:	e59d3008 	ldr	r3, [sp, #8]
    cbe4:	eaffff7d 	b	c9e0 <inflate_table+0x494>
    cbe8:	e068100a 	rsb	r1, r8, sl
    cbec:	e59d3008 	ldr	r3, [sp, #8]
    cbf0:	eaffff7a 	b	c9e0 <inflate_table+0x494>
    cbf4:	e3e00000 	mvn	r0, #0
    cbf8:	eafffeaa 	b	c6a8 <inflate_table+0x15c>
    cbfc:	e3a00001 	mov	r0, #1
    cc00:	eafffea8 	b	c6a8 <inflate_table+0x15c>
    cc04:	e3590001 	cmp	r9, #1
    cc08:	0a000006 	beq	cc28 <inflate_table+0x6dc>
    cc0c:	e59f6130 	ldr	r6, [pc, #304]	; cd44 <inflate_table+0x7f8>
    cc10:	e3e07000 	mvn	r7, #0
    cc14:	e286c040 	add	ip, r6, #64	; 0x40
    cc18:	e58d6034 	str	r6, [sp, #52]	; 0x34
    cc1c:	e58d701c 	str	r7, [sp, #28]
    cc20:	e58dc038 	str	ip, [sp, #56]	; 0x38
    cc24:	eaffff40 	b	c92c <inflate_table+0x3e0>
    cc28:	e59f7118 	ldr	r7, [pc, #280]	; cd48 <inflate_table+0x7fc>
    cc2c:	e3a0cc01 	mov	ip, #256	; 0x100
    cc30:	e2870040 	add	r0, r7, #64	; 0x40
    cc34:	e58d7034 	str	r7, [sp, #52]	; 0x34
    cc38:	e58dc01c 	str	ip, [sp, #28]
    cc3c:	e58d0038 	str	r0, [sp, #56]	; 0x38
    cc40:	eaffff39 	b	c92c <inflate_table+0x3e0>
    cc44:	e3500000 	cmp	r0, #0
    cc48:	0a000005 	beq	cc64 <inflate_table+0x718>
    cc4c:	e59d600c 	ldr	r6, [sp, #12]
    cc50:	e3a01040 	mov	r1, #64	; 0x40
    cc54:	e0862100 	add	r2, r6, r0, lsl #2
    cc58:	e5c25001 	strb	r5, [r2, #1]
    cc5c:	e1c230b2 	strh	r3, [r2, #2]
    cc60:	e7c61100 	strb	r1, [r6, r0, lsl #2]
    cc64:	e59d7018 	ldr	r7, [sp, #24]
    cc68:	e59dc014 	ldr	ip, [sp, #20]
    cc6c:	e5973000 	ldr	r3, [r7]
    cc70:	e59d1010 	ldr	r1, [sp, #16]
    cc74:	e59d20a0 	ldr	r2, [sp, #160]	; 0xa0
    cc78:	e083310c 	add	r3, r3, ip, lsl #2
    cc7c:	e5873000 	str	r3, [r7]
    cc80:	e3a00000 	mov	r0, #0
    cc84:	e5821000 	str	r1, [r2]
    cc88:	eafffe86 	b	c6a8 <inflate_table+0x15c>
    cc8c:	e3a0b00e 	mov	fp, #14
    cc90:	e1dd04b2 	ldrh	r0, [sp, #66]	; 0x42
    cc94:	e15b000c 	cmp	fp, ip
    cc98:	31a0c00b 	movcc	ip, fp
    cc9c:	e3500000 	cmp	r0, #0
    cca0:	e58dc03c 	str	ip, [sp, #60]	; 0x3c
    cca4:	028d1042 	addeq	r1, sp, #66	; 0x42
    cca8:	03a0a001 	moveq	sl, #1
    ccac:	0a000003 	beq	ccc0 <inflate_table+0x774>
    ccb0:	eafffe83 	b	c6c4 <inflate_table+0x178>
    ccb4:	e1f1c0b2 	ldrh	ip, [r1, #2]!
    ccb8:	e35c0000 	cmp	ip, #0
    ccbc:	1a000002 	bne	cccc <inflate_table+0x780>
    ccc0:	e28aa001 	add	sl, sl, #1
    ccc4:	e15a000b 	cmp	sl, fp
    ccc8:	1afffff9 	bne	ccb4 <inflate_table+0x768>
    cccc:	e3a07002 	mov	r7, #2
    ccd0:	eafffe7e 	b	c6d0 <inflate_table+0x184>
    ccd4:	e3a0b00f 	mov	fp, #15
    ccd8:	eaffffec 	b	cc90 <inflate_table+0x744>
    ccdc:	e3a0b00c 	mov	fp, #12
    cce0:	eaffffea 	b	cc90 <inflate_table+0x744>
    cce4:	e3a0b00d 	mov	fp, #13
    cce8:	eaffffe8 	b	cc90 <inflate_table+0x744>
    ccec:	e3a0b00a 	mov	fp, #10
    ccf0:	eaffffe6 	b	cc90 <inflate_table+0x744>
    ccf4:	e3a0b00b 	mov	fp, #11
    ccf8:	eaffffe4 	b	cc90 <inflate_table+0x744>
    ccfc:	e3a0b008 	mov	fp, #8
    cd00:	eaffffe2 	b	cc90 <inflate_table+0x744>
    cd04:	e3a0b009 	mov	fp, #9
    cd08:	eaffffe0 	b	cc90 <inflate_table+0x744>
    cd0c:	e3a0b007 	mov	fp, #7
    cd10:	eaffffde 	b	cc90 <inflate_table+0x744>
    cd14:	e3a0b006 	mov	fp, #6
    cd18:	eaffffdc 	b	cc90 <inflate_table+0x744>
    cd1c:	e3a0b004 	mov	fp, #4
    cd20:	eaffffda 	b	cc90 <inflate_table+0x744>
    cd24:	e3a0b005 	mov	fp, #5
    cd28:	eaffffd8 	b	cc90 <inflate_table+0x744>
    cd2c:	e3a0b002 	mov	fp, #2
    cd30:	eaffffd6 	b	cc90 <inflate_table+0x744>
    cd34:	e3a0b003 	mov	fp, #3
    cd38:	eaffffd4 	b	cc90 <inflate_table+0x744>
    cd3c:	00000353 	andeq	r0, r0, r3, asr r3
    cd40:	0000024f 	andeq	r0, r0, pc, asr #4
    cd44:	00013eec 	andeq	r3, r1, ip, ror #29
    cd48:	00013c6a 	andeq	r3, r1, sl, ror #24

0000cd4c <zlibVersion>:
    cd4c:	e59f0000 	ldr	r0, [pc]	; cd54 <zlibVersion+0x8>
    cd50:	e12fff1e 	bx	lr
    cd54:	000131bc 			; <UNDEFINED> instruction: 0x000131bc

0000cd58 <zlibCompileFlags>:
    cd58:	e3a00055 	mov	r0, #85	; 0x55
    cd5c:	e12fff1e 	bx	lr

0000cd60 <zcalloc>:
    cd60:	e0000291 	mul	r0, r1, r2
    cd64:	eaffee09 	b	8590 <xmalloc>

0000cd68 <zcfree>:
    cd68:	e1a00001 	mov	r0, r1
    cd6c:	eaffee4c 	b	86a4 <xfree>

0000cd70 <compress2>:
    cd70:	e92d4030 	push	{r4, r5, lr}
    cd74:	e591e000 	ldr	lr, [r1]
    cd78:	e24dd03c 	sub	sp, sp, #60	; 0x3c
    cd7c:	e3a0c000 	mov	ip, #0
    cd80:	e98d000c 	stmib	sp, {r2, r3}
    cd84:	e58d0010 	str	r0, [sp, #16]
    cd88:	e1a05001 	mov	r5, r1
    cd8c:	e28d0004 	add	r0, sp, #4
    cd90:	e59d1048 	ldr	r1, [sp, #72]	; 0x48
    cd94:	e59f206c 	ldr	r2, [pc, #108]	; ce08 <compress2+0x98>
    cd98:	e3a03034 	mov	r3, #52	; 0x34
    cd9c:	e58de014 	str	lr, [sp, #20]
    cda0:	e58dc020 	str	ip, [sp, #32]
    cda4:	e58dc024 	str	ip, [sp, #36]	; 0x24
    cda8:	e58dc028 	str	ip, [sp, #40]	; 0x28
    cdac:	eb000ede 	bl	1092c <deflateInit_>
    cdb0:	e2504000 	subs	r4, r0, #0
    cdb4:	0a000002 	beq	cdc4 <compress2+0x54>
    cdb8:	e1a00004 	mov	r0, r4
    cdbc:	e28dd03c 	add	sp, sp, #60	; 0x3c
    cdc0:	e8bd8030 	pop	{r4, r5, pc}
    cdc4:	e28d0004 	add	r0, sp, #4
    cdc8:	e3a01004 	mov	r1, #4
    cdcc:	eb0007c6 	bl	ecec <deflate>
    cdd0:	e3500001 	cmp	r0, #1
    cdd4:	e1a04000 	mov	r4, r0
    cdd8:	0a000004 	beq	cdf0 <compress2+0x80>
    cddc:	e28d0004 	add	r0, sp, #4
    cde0:	eb000da1 	bl	1046c <deflateEnd>
    cde4:	e3540000 	cmp	r4, #0
    cde8:	03e04004 	mvneq	r4, #4
    cdec:	eafffff1 	b	cdb8 <compress2+0x48>
    cdf0:	e59d3018 	ldr	r3, [sp, #24]
    cdf4:	e28d0004 	add	r0, sp, #4
    cdf8:	e5853000 	str	r3, [r5]
    cdfc:	eb000d9a 	bl	1046c <deflateEnd>
    ce00:	e1a04000 	mov	r4, r0
    ce04:	eaffffeb 	b	cdb8 <compress2+0x48>
    ce08:	000131bc 			; <UNDEFINED> instruction: 0x000131bc

0000ce0c <compress>:
    ce0c:	e92d4030 	push	{r4, r5, lr}
    ce10:	e591e000 	ldr	lr, [r1]
    ce14:	e24dd03c 	sub	sp, sp, #60	; 0x3c
    ce18:	e3a0c000 	mov	ip, #0
    ce1c:	e98d000c 	stmib	sp, {r2, r3}
    ce20:	e58d0010 	str	r0, [sp, #16]
    ce24:	e1a05001 	mov	r5, r1
    ce28:	e28d0004 	add	r0, sp, #4
    ce2c:	e3e01000 	mvn	r1, #0
    ce30:	e59f206c 	ldr	r2, [pc, #108]	; cea4 <compress+0x98>
    ce34:	e3a03034 	mov	r3, #52	; 0x34
    ce38:	e58de014 	str	lr, [sp, #20]
    ce3c:	e58dc020 	str	ip, [sp, #32]
    ce40:	e58dc024 	str	ip, [sp, #36]	; 0x24
    ce44:	e58dc028 	str	ip, [sp, #40]	; 0x28
    ce48:	eb000eb7 	bl	1092c <deflateInit_>
    ce4c:	e2504000 	subs	r4, r0, #0
    ce50:	0a000002 	beq	ce60 <compress+0x54>
    ce54:	e1a00004 	mov	r0, r4
    ce58:	e28dd03c 	add	sp, sp, #60	; 0x3c
    ce5c:	e8bd8030 	pop	{r4, r5, pc}
    ce60:	e28d0004 	add	r0, sp, #4
    ce64:	e3a01004 	mov	r1, #4
    ce68:	eb00079f 	bl	ecec <deflate>
    ce6c:	e3500001 	cmp	r0, #1
    ce70:	e1a04000 	mov	r4, r0
    ce74:	0a000004 	beq	ce8c <compress+0x80>
    ce78:	e28d0004 	add	r0, sp, #4
    ce7c:	eb000d7a 	bl	1046c <deflateEnd>
    ce80:	e3540000 	cmp	r4, #0
    ce84:	03e04004 	mvneq	r4, #4
    ce88:	eafffff1 	b	ce54 <compress+0x48>
    ce8c:	e59d3018 	ldr	r3, [sp, #24]
    ce90:	e28d0004 	add	r0, sp, #4
    ce94:	e5853000 	str	r3, [r5]
    ce98:	eb000d73 	bl	1046c <deflateEnd>
    ce9c:	e1a04000 	mov	r4, r0
    cea0:	eaffffeb 	b	ce54 <compress+0x48>
    cea4:	000131bc 			; <UNDEFINED> instruction: 0x000131bc

0000cea8 <compressBound>:
    cea8:	e280300d 	add	r3, r0, #13
    ceac:	e0833620 	add	r3, r3, r0, lsr #12
    ceb0:	e0833720 	add	r3, r3, r0, lsr #14
    ceb4:	e0830ca0 	add	r0, r3, r0, lsr #25
    ceb8:	e12fff1e 	bx	lr

0000cebc <longest_match>:
    cebc:	e92d0ff0 	push	{r4, r5, r6, r7, r8, r9, sl, fp}
    cec0:	e590602c 	ldr	r6, [r0, #44]	; 0x2c
    cec4:	e590406c 	ldr	r4, [r0, #108]	; 0x6c
    cec8:	e2463f41 	sub	r3, r6, #260	; 0x104
    cecc:	e2433002 	sub	r3, r3, #2
    ced0:	e5905038 	ldr	r5, [r0, #56]	; 0x38
    ced4:	e1530004 	cmp	r3, r4
    ced8:	e24dd028 	sub	sp, sp, #40	; 0x28
    cedc:	32848f41 	addcc	r8, r4, #260	; 0x104
    cee0:	e0852004 	add	r2, r5, r4
    cee4:	32888002 	addcc	r8, r8, #2
    cee8:	e58d2008 	str	r2, [sp, #8]
    ceec:	e590c078 	ldr	ip, [r0, #120]	; 0x78
    cef0:	3066b008 	rsbcc	fp, r6, r8
    cef4:	e59d8008 	ldr	r8, [sp, #8]
    cef8:	e590608c 	ldr	r6, [r0, #140]	; 0x8c
    cefc:	23a0b000 	movcs	fp, #0
    cf00:	e2844c01 	add	r4, r4, #256	; 0x100
    cf04:	e15c0006 	cmp	ip, r6
    cf08:	e088600c 	add	r6, r8, ip
    cf0c:	e5566001 	ldrb	r6, [r6, #-1]
    cf10:	e2844002 	add	r4, r4, #2
    cf14:	e0854004 	add	r4, r5, r4
    cf18:	e5907090 	ldr	r7, [r0, #144]	; 0x90
    cf1c:	e58d4018 	str	r4, [sp, #24]
    cf20:	e1a0200c 	mov	r2, ip
    cf24:	e58d6014 	str	r6, [sp, #20]
    cf28:	e7d8600c 	ldrb	r6, [r8, ip]
    cf2c:	e590c074 	ldr	ip, [r0, #116]	; 0x74
    cf30:	259d4018 	ldrcs	r4, [sp, #24]
    cf34:	e58d700c 	str	r7, [sp, #12]
    cf38:	e58dc010 	str	ip, [sp, #16]
    cf3c:	e59d800c 	ldr	r8, [sp, #12]
    cf40:	e244cc01 	sub	ip, r4, #256	; 0x100
    cf44:	e590307c 	ldr	r3, [r0, #124]	; 0x7c
    cf48:	e59d4010 	ldr	r4, [sp, #16]
    cf4c:	21a03123 	lsrcs	r3, r3, #2
    cf50:	e24cc002 	sub	ip, ip, #2
    cf54:	e1580004 	cmp	r8, r4
    cf58:	21a08004 	movcs	r8, r4
    cf5c:	e590a040 	ldr	sl, [r0, #64]	; 0x40
    cf60:	e5907034 	ldr	r7, [r0, #52]	; 0x34
    cf64:	e58d800c 	str	r8, [sp, #12]
    cf68:	e58dc020 	str	ip, [sp, #32]
    cf6c:	e58d0024 	str	r0, [sp, #36]	; 0x24
    cf70:	ea000006 	b	cf90 <longest_match+0xd4>
    cf74:	e0011007 	and	r1, r1, r7
    cf78:	e1a01081 	lsl	r1, r1, #1
    cf7c:	e19a10b1 	ldrh	r1, [sl, r1]
    cf80:	e15b0001 	cmp	fp, r1
    cf84:	2a00005b 	bcs	d0f8 <longest_match+0x23c>
    cf88:	e2533001 	subs	r3, r3, #1
    cf8c:	0a000059 	beq	d0f8 <longest_match+0x23c>
    cf90:	e0850001 	add	r0, r5, r1
    cf94:	e7d04002 	ldrb	r4, [r0, r2]
    cf98:	e1a09002 	mov	r9, r2
    cf9c:	e1540006 	cmp	r4, r6
    cfa0:	1afffff3 	bne	cf74 <longest_match+0xb8>
    cfa4:	e080c002 	add	ip, r0, r2
    cfa8:	e55cc001 	ldrb	ip, [ip, #-1]
    cfac:	e59d8014 	ldr	r8, [sp, #20]
    cfb0:	e58dc000 	str	ip, [sp]
    cfb4:	e15c0008 	cmp	ip, r8
    cfb8:	1affffed 	bne	cf74 <longest_match+0xb8>
    cfbc:	e59d8008 	ldr	r8, [sp, #8]
    cfc0:	e5d0c000 	ldrb	ip, [r0]
    cfc4:	e5d88000 	ldrb	r8, [r8]
    cfc8:	e15c0008 	cmp	ip, r8
    cfcc:	1affffe8 	bne	cf74 <longest_match+0xb8>
    cfd0:	e59d8008 	ldr	r8, [sp, #8]
    cfd4:	e5d0c001 	ldrb	ip, [r0, #1]
    cfd8:	e5d88001 	ldrb	r8, [r8, #1]
    cfdc:	e15c0008 	cmp	ip, r8
    cfe0:	1affffe3 	bne	cf74 <longest_match+0xb8>
    cfe4:	e59dc008 	ldr	ip, [sp, #8]
    cfe8:	e2800002 	add	r0, r0, #2
    cfec:	e59d8000 	ldr	r8, [sp]
    cff0:	e58d3008 	str	r3, [sp, #8]
    cff4:	e28c6002 	add	r6, ip, #2
    cff8:	e58d2014 	str	r2, [sp, #20]
    cffc:	e1a03000 	mov	r3, r0
    d000:	e5d60001 	ldrb	r0, [r6, #1]
    d004:	e5d32001 	ldrb	r2, [r3, #1]
    d008:	e1500002 	cmp	r0, r2
    d00c:	1a000043 	bne	d120 <longest_match+0x264>
    d010:	e5d60002 	ldrb	r0, [r6, #2]
    d014:	e5d32002 	ldrb	r2, [r3, #2]
    d018:	e1500002 	cmp	r0, r2
    d01c:	1a000053 	bne	d170 <longest_match+0x2b4>
    d020:	e5d60003 	ldrb	r0, [r6, #3]
    d024:	e5d32003 	ldrb	r2, [r3, #3]
    d028:	e1500002 	cmp	r0, r2
    d02c:	1a000059 	bne	d198 <longest_match+0x2dc>
    d030:	e5d60004 	ldrb	r0, [r6, #4]
    d034:	e5d32004 	ldrb	r2, [r3, #4]
    d038:	e1500002 	cmp	r0, r2
    d03c:	1a000050 	bne	d184 <longest_match+0x2c8>
    d040:	e5d60005 	ldrb	r0, [r6, #5]
    d044:	e5d32005 	ldrb	r2, [r3, #5]
    d048:	e1500002 	cmp	r0, r2
    d04c:	1a00003d 	bne	d148 <longest_match+0x28c>
    d050:	e5d60006 	ldrb	r0, [r6, #6]
    d054:	e5d32006 	ldrb	r2, [r3, #6]
    d058:	e1500002 	cmp	r0, r2
    d05c:	1a000034 	bne	d134 <longest_match+0x278>
    d060:	e5d60007 	ldrb	r0, [r6, #7]
    d064:	e5d32007 	ldrb	r2, [r3, #7]
    d068:	e1500002 	cmp	r0, r2
    d06c:	1a00003a 	bne	d15c <longest_match+0x2a0>
    d070:	e5d60008 	ldrb	r0, [r6, #8]
    d074:	e5d32008 	ldrb	r2, [r3, #8]
    d078:	e2866008 	add	r6, r6, #8
    d07c:	e1500002 	cmp	r0, r2
    d080:	e1a00006 	mov	r0, r6
    d084:	1a000003 	bne	d098 <longest_match+0x1dc>
    d088:	e59d2018 	ldr	r2, [sp, #24]
    d08c:	e2833008 	add	r3, r3, #8
    d090:	e1520006 	cmp	r2, r6
    d094:	8affffd9 	bhi	d000 <longest_match+0x144>
    d098:	e59d3008 	ldr	r3, [sp, #8]
    d09c:	e59d2014 	ldr	r2, [sp, #20]
    d0a0:	e58d8000 	str	r8, [sp]
    d0a4:	e59d8018 	ldr	r8, [sp, #24]
    d0a8:	e0680000 	rsb	r0, r8, r0
    d0ac:	e280cc01 	add	ip, r0, #256	; 0x100
    d0b0:	e28cc002 	add	ip, ip, #2
    d0b4:	e59d0020 	ldr	r0, [sp, #32]
    d0b8:	e152000c 	cmp	r2, ip
    d0bc:	e58d0008 	str	r0, [sp, #8]
    d0c0:	aa000012 	bge	d110 <longest_match+0x254>
    d0c4:	e59d200c 	ldr	r2, [sp, #12]
    d0c8:	e59d4024 	ldr	r4, [sp, #36]	; 0x24
    d0cc:	e152000c 	cmp	r2, ip
    d0d0:	e1a0900c 	mov	r9, ip
    d0d4:	e5841070 	str	r1, [r4, #112]	; 0x70
    d0d8:	da000006 	ble	d0f8 <longest_match+0x23c>
    d0dc:	e59d8020 	ldr	r8, [sp, #32]
    d0e0:	e088200c 	add	r2, r8, ip
    d0e4:	e5522001 	ldrb	r2, [r2, #-1]
    d0e8:	e7d8600c 	ldrb	r6, [r8, ip]
    d0ec:	e58d2014 	str	r2, [sp, #20]
    d0f0:	e1a0200c 	mov	r2, ip
    d0f4:	eaffff9e 	b	cf74 <longest_match+0xb8>
    d0f8:	e59d0010 	ldr	r0, [sp, #16]
    d0fc:	e1590000 	cmp	r9, r0
    d100:	31a00009 	movcc	r0, r9
    d104:	e28dd028 	add	sp, sp, #40	; 0x28
    d108:	e8bd0ff0 	pop	{r4, r5, r6, r7, r8, r9, sl, fp}
    d10c:	e12fff1e 	bx	lr
    d110:	e59dc000 	ldr	ip, [sp]
    d114:	e1a06004 	mov	r6, r4
    d118:	e58dc014 	str	ip, [sp, #20]
    d11c:	eaffff94 	b	cf74 <longest_match+0xb8>
    d120:	e59d3008 	ldr	r3, [sp, #8]
    d124:	e59d2014 	ldr	r2, [sp, #20]
    d128:	e58d8000 	str	r8, [sp]
    d12c:	e2860001 	add	r0, r6, #1
    d130:	eaffffdb 	b	d0a4 <longest_match+0x1e8>
    d134:	e59d3008 	ldr	r3, [sp, #8]
    d138:	e59d2014 	ldr	r2, [sp, #20]
    d13c:	e58d8000 	str	r8, [sp]
    d140:	e2860006 	add	r0, r6, #6
    d144:	eaffffd6 	b	d0a4 <longest_match+0x1e8>
    d148:	e59d3008 	ldr	r3, [sp, #8]
    d14c:	e59d2014 	ldr	r2, [sp, #20]
    d150:	e58d8000 	str	r8, [sp]
    d154:	e2860005 	add	r0, r6, #5
    d158:	eaffffd1 	b	d0a4 <longest_match+0x1e8>
    d15c:	e59d3008 	ldr	r3, [sp, #8]
    d160:	e59d2014 	ldr	r2, [sp, #20]
    d164:	e58d8000 	str	r8, [sp]
    d168:	e2860007 	add	r0, r6, #7
    d16c:	eaffffcc 	b	d0a4 <longest_match+0x1e8>
    d170:	e59d3008 	ldr	r3, [sp, #8]
    d174:	e59d2014 	ldr	r2, [sp, #20]
    d178:	e58d8000 	str	r8, [sp]
    d17c:	e2860002 	add	r0, r6, #2
    d180:	eaffffc7 	b	d0a4 <longest_match+0x1e8>
    d184:	e59d3008 	ldr	r3, [sp, #8]
    d188:	e59d2014 	ldr	r2, [sp, #20]
    d18c:	e58d8000 	str	r8, [sp]
    d190:	e2860004 	add	r0, r6, #4
    d194:	eaffffc2 	b	d0a4 <longest_match+0x1e8>
    d198:	e59d3008 	ldr	r3, [sp, #8]
    d19c:	e59d2014 	ldr	r2, [sp, #20]
    d1a0:	e58d8000 	str	r8, [sp]
    d1a4:	e2860003 	add	r0, r6, #3
    d1a8:	eaffffbd 	b	d0a4 <longest_match+0x1e8>

0000d1ac <fill_window>:
    d1ac:	e92d4ff0 	push	{r4, r5, r6, r7, r8, r9, sl, fp, lr}
    d1b0:	e590502c 	ldr	r5, [r0, #44]	; 0x2c
    d1b4:	e24dd014 	sub	sp, sp, #20
    d1b8:	e2453f41 	sub	r3, r5, #260	; 0x104
    d1bc:	e2433002 	sub	r3, r3, #2
    d1c0:	e1a06085 	lsl	r6, r5, #1
    d1c4:	e590b074 	ldr	fp, [r0, #116]	; 0x74
    d1c8:	e59f931c 	ldr	r9, [pc, #796]	; d4ec <fill_window+0x340>
    d1cc:	e58d3004 	str	r3, [sp, #4]
    d1d0:	e1a04000 	mov	r4, r0
    d1d4:	e58d600c 	str	r6, [sp, #12]
    d1d8:	e1a03005 	mov	r3, r5
    d1dc:	e59d8004 	ldr	r8, [sp, #4]
    d1e0:	e594c06c 	ldr	ip, [r4, #108]	; 0x6c
    d1e4:	e594203c 	ldr	r2, [r4, #60]	; 0x3c
    d1e8:	e0883003 	add	r3, r8, r3
    d1ec:	e06bb002 	rsb	fp, fp, r2
    d1f0:	e15c0003 	cmp	ip, r3
    d1f4:	e06cb00b 	rsb	fp, ip, fp
    d1f8:	2a000056 	bcs	d358 <fill_window+0x1ac>
    d1fc:	e5946000 	ldr	r6, [r4]
    d200:	e5967004 	ldr	r7, [r6, #4]
    d204:	e3570000 	cmp	r7, #0
    d208:	0a00007d 	beq	d404 <fill_window+0x258>
    d20c:	e15b0007 	cmp	fp, r7
    d210:	e5943038 	ldr	r3, [r4, #56]	; 0x38
    d214:	e5942074 	ldr	r2, [r4, #116]	; 0x74
    d218:	2a000037 	bcs	d2fc <fill_window+0x150>
    d21c:	e35b0000 	cmp	fp, #0
    d220:	1a0000ae 	bne	d4e0 <fill_window+0x334>
    d224:	e7943009 	ldr	r3, [r4, r9]
    d228:	e082b00b 	add	fp, r2, fp
    d22c:	e08b2003 	add	r2, fp, r3
    d230:	e3520002 	cmp	r2, #2
    d234:	e584b074 	str	fp, [r4, #116]	; 0x74
    d238:	9a000026 	bls	d2d8 <fill_window+0x12c>
    d23c:	e594106c 	ldr	r1, [r4, #108]	; 0x6c
    d240:	e5942038 	ldr	r2, [r4, #56]	; 0x38
    d244:	e0631001 	rsb	r1, r3, r1
    d248:	e7d20001 	ldrb	r0, [r2, r1]
    d24c:	e0822001 	add	r2, r2, r1
    d250:	e5840048 	str	r0, [r4, #72]	; 0x48
    d254:	e5d2c001 	ldrb	ip, [r2, #1]
    d258:	e5946058 	ldr	r6, [r4, #88]	; 0x58
    d25c:	e58d5008 	str	r5, [sp, #8]
    d260:	e02c0610 	eor	r0, ip, r0, lsl r6
    d264:	e594c054 	ldr	ip, [r4, #84]	; 0x54
    d268:	e58d6000 	str	r6, [sp]
    d26c:	e000000c 	and	r0, r0, ip
    d270:	e5840048 	str	r0, [r4, #72]	; 0x48
    d274:	e3530000 	cmp	r3, #0
    d278:	e2433001 	sub	r3, r3, #1
    d27c:	e083700b 	add	r7, r3, fp
    d280:	0a000013 	beq	d2d4 <fill_window+0x128>
    d284:	e5d20002 	ldrb	r0, [r2, #2]
    d288:	e5946048 	ldr	r6, [r4, #72]	; 0x48
    d28c:	e59d8000 	ldr	r8, [sp]
    d290:	e5945044 	ldr	r5, [r4, #68]	; 0x44
    d294:	e0206816 	eor	r6, r0, r6, lsl r8
    d298:	e594a034 	ldr	sl, [r4, #52]	; 0x34
    d29c:	e006600c 	and	r6, r6, ip
    d2a0:	e1a00086 	lsl	r0, r6, #1
    d2a4:	e19580b0 	ldrh	r8, [r5, r0]
    d2a8:	e001a00a 	and	sl, r1, sl
    d2ac:	e3570002 	cmp	r7, #2
    d2b0:	e5947040 	ldr	r7, [r4, #64]	; 0x40
    d2b4:	e1a0a08a 	lsl	sl, sl, #1
    d2b8:	e5846048 	str	r6, [r4, #72]	; 0x48
    d2bc:	e2822001 	add	r2, r2, #1
    d2c0:	e18780ba 	strh	r8, [r7, sl]
    d2c4:	e18510b0 	strh	r1, [r5, r0]
    d2c8:	e2811001 	add	r1, r1, #1
    d2cc:	e7843009 	str	r3, [r4, r9]
    d2d0:	8affffe7 	bhi	d274 <fill_window+0xc8>
    d2d4:	e59d5008 	ldr	r5, [sp, #8]
    d2d8:	e59f8210 	ldr	r8, [pc, #528]	; d4f0 <fill_window+0x344>
    d2dc:	e15b0008 	cmp	fp, r8
    d2e0:	8a000047 	bhi	d404 <fill_window+0x258>
    d2e4:	e5943000 	ldr	r3, [r4]
    d2e8:	e5933004 	ldr	r3, [r3, #4]
    d2ec:	e3530000 	cmp	r3, #0
    d2f0:	0a000043 	beq	d404 <fill_window+0x258>
    d2f4:	e594302c 	ldr	r3, [r4, #44]	; 0x2c
    d2f8:	eaffffb7 	b	d1dc <fill_window+0x30>
    d2fc:	e3a0e000 	mov	lr, #0
    d300:	e082b00c 	add	fp, r2, ip
    d304:	e083b00b 	add	fp, r3, fp
    d308:	e586e004 	str	lr, [r6, #4]
    d30c:	e1a0000b 	mov	r0, fp
    d310:	e5961000 	ldr	r1, [r6]
    d314:	e1a02007 	mov	r2, r7
    d318:	ebffec3b 	bl	840c <xmemcpy>
    d31c:	e5963018 	ldr	r3, [r6, #24]
    d320:	e5938018 	ldr	r8, [r3, #24]
    d324:	e3580001 	cmp	r8, #1
    d328:	0a000060 	beq	d4b0 <fill_window+0x304>
    d32c:	e3580002 	cmp	r8, #2
    d330:	0a000064 	beq	d4c8 <fill_window+0x31c>
    d334:	e5961000 	ldr	r1, [r6]
    d338:	e5963008 	ldr	r3, [r6, #8]
    d33c:	e0811007 	add	r1, r1, r7
    d340:	e0833007 	add	r3, r3, r7
    d344:	e5942074 	ldr	r2, [r4, #116]	; 0x74
    d348:	e1a0b007 	mov	fp, r7
    d34c:	e5861000 	str	r1, [r6]
    d350:	e5863008 	str	r3, [r6, #8]
    d354:	eaffffb2 	b	d224 <fill_window+0x78>
    d358:	e5940038 	ldr	r0, [r4, #56]	; 0x38
    d35c:	e1a02005 	mov	r2, r5
    d360:	e0801005 	add	r1, r0, r5
    d364:	ebffec28 	bl	840c <xmemcpy>
    d368:	e5940070 	ldr	r0, [r4, #112]	; 0x70
    d36c:	e594c06c 	ldr	ip, [r4, #108]	; 0x6c
    d370:	e594105c 	ldr	r1, [r4, #92]	; 0x5c
    d374:	e594304c 	ldr	r3, [r4, #76]	; 0x4c
    d378:	e5942044 	ldr	r2, [r4, #68]	; 0x44
    d37c:	e0650000 	rsb	r0, r5, r0
    d380:	e065c00c 	rsb	ip, r5, ip
    d384:	e0651001 	rsb	r1, r5, r1
    d388:	e5840070 	str	r0, [r4, #112]	; 0x70
    d38c:	e584c06c 	str	ip, [r4, #108]	; 0x6c
    d390:	e584105c 	str	r1, [r4, #92]	; 0x5c
    d394:	e0822083 	add	r2, r2, r3, lsl #1
    d398:	e15210b2 	ldrh	r1, [r2, #-2]
    d39c:	e3a00000 	mov	r0, #0
    d3a0:	e1550001 	cmp	r5, r1
    d3a4:	e0651001 	rsb	r1, r5, r1
    d3a8:	e6ff1071 	uxth	r1, r1
    d3ac:	91a00001 	movls	r0, r1
    d3b0:	e2533001 	subs	r3, r3, #1
    d3b4:	e16200b2 	strh	r0, [r2, #-2]!
    d3b8:	1afffff6 	bne	d398 <fill_window+0x1ec>
    d3bc:	e5943040 	ldr	r3, [r4, #64]	; 0x40
    d3c0:	e59d600c 	ldr	r6, [sp, #12]
    d3c4:	e1a02005 	mov	r2, r5
    d3c8:	e0833006 	add	r3, r3, r6
    d3cc:	e15310b2 	ldrh	r1, [r3, #-2]
    d3d0:	e3a00000 	mov	r0, #0
    d3d4:	e1550001 	cmp	r5, r1
    d3d8:	e0651001 	rsb	r1, r5, r1
    d3dc:	e6ff1071 	uxth	r1, r1
    d3e0:	91a00001 	movls	r0, r1
    d3e4:	e2522001 	subs	r2, r2, #1
    d3e8:	e16300b2 	strh	r0, [r3, #-2]!
    d3ec:	1afffff6 	bne	d3cc <fill_window+0x220>
    d3f0:	e5946000 	ldr	r6, [r4]
    d3f4:	e08bb005 	add	fp, fp, r5
    d3f8:	e5967004 	ldr	r7, [r6, #4]
    d3fc:	e3570000 	cmp	r7, #0
    d400:	1affff81 	bne	d20c <fill_window+0x60>
    d404:	e3a05d5b 	mov	r5, #5824	; 0x16c0
    d408:	e7943005 	ldr	r3, [r4, r5]
    d40c:	e594203c 	ldr	r2, [r4, #60]	; 0x3c
    d410:	e1530002 	cmp	r3, r2
    d414:	2a000010 	bcs	d45c <fill_window+0x2b0>
    d418:	e5946074 	ldr	r6, [r4, #116]	; 0x74
    d41c:	e594106c 	ldr	r1, [r4, #108]	; 0x6c
    d420:	e0866001 	add	r6, r6, r1
    d424:	e1530006 	cmp	r3, r6
    d428:	2a00000d 	bcs	d464 <fill_window+0x2b8>
    d42c:	e59f30c0 	ldr	r3, [pc, #192]	; d4f4 <fill_window+0x348>
    d430:	e0662002 	rsb	r2, r6, r2
    d434:	e5940038 	ldr	r0, [r4, #56]	; 0x38
    d438:	e1520003 	cmp	r2, r3
    d43c:	31a07002 	movcc	r7, r2
    d440:	21a07003 	movcs	r7, r3
    d444:	e0800006 	add	r0, r0, r6
    d448:	e1a02007 	mov	r2, r7
    d44c:	e3a01000 	mov	r1, #0
    d450:	e0876006 	add	r6, r7, r6
    d454:	ebffec1a 	bl	84c4 <xmemset>
    d458:	e7846005 	str	r6, [r4, r5]
    d45c:	e28dd014 	add	sp, sp, #20
    d460:	e8bd8ff0 	pop	{r4, r5, r6, r7, r8, r9, sl, fp, pc}
    d464:	e2861c01 	add	r1, r6, #256	; 0x100
    d468:	e2811002 	add	r1, r1, #2
    d46c:	e1510003 	cmp	r1, r3
    d470:	9afffff9 	bls	d45c <fill_window+0x2b0>
    d474:	e0636006 	rsb	r6, r3, r6
    d478:	e2866c01 	add	r6, r6, #256	; 0x100
    d47c:	e0632002 	rsb	r2, r3, r2
    d480:	e5940038 	ldr	r0, [r4, #56]	; 0x38
    d484:	e2866002 	add	r6, r6, #2
    d488:	e1560002 	cmp	r6, r2
    d48c:	21a06002 	movcs	r6, r2
    d490:	e1a02006 	mov	r2, r6
    d494:	e0800003 	add	r0, r0, r3
    d498:	e3a01000 	mov	r1, #0
    d49c:	ebffec08 	bl	84c4 <xmemset>
    d4a0:	e7943005 	ldr	r3, [r4, r5]
    d4a4:	e0866003 	add	r6, r6, r3
    d4a8:	e7846005 	str	r6, [r4, r5]
    d4ac:	eaffffea 	b	d45c <fill_window+0x2b0>
    d4b0:	e1a0100b 	mov	r1, fp
    d4b4:	e596002c 	ldr	r0, [r6, #44]	; 0x2c
    d4b8:	e1a02007 	mov	r2, r7
    d4bc:	ebfff86d 	bl	b678 <adler32>
    d4c0:	e586002c 	str	r0, [r6, #44]	; 0x2c
    d4c4:	eaffff9a 	b	d334 <fill_window+0x188>
    d4c8:	e1a0100b 	mov	r1, fp
    d4cc:	e596002c 	ldr	r0, [r6, #44]	; 0x2c
    d4d0:	e1a02007 	mov	r2, r7
    d4d4:	ebfff81a 	bl	b544 <crc32>
    d4d8:	e586002c 	str	r0, [r6, #44]	; 0x2c
    d4dc:	eaffff94 	b	d334 <fill_window+0x188>
    d4e0:	e06be007 	rsb	lr, fp, r7
    d4e4:	e1a0700b 	mov	r7, fp
    d4e8:	eaffff84 	b	d300 <fill_window+0x154>
    d4ec:	000016b4 			; <UNDEFINED> instruction: 0x000016b4
    d4f0:	00000105 	andeq	r0, r0, r5, lsl #2
    d4f4:	00000102 	andeq	r0, r0, r2, lsl #2

0000d4f8 <deflate_stored>:
    d4f8:	e92d47f0 	push	{r4, r5, r6, r7, r8, r9, sl, lr}
    d4fc:	e590700c 	ldr	r7, [r0, #12]
    d500:	e59f23ac 	ldr	r2, [pc, #940]	; d8b4 <deflate_stored+0x3bc>
    d504:	e2477005 	sub	r7, r7, #5
    d508:	e59f33a8 	ldr	r3, [pc, #936]	; d8b8 <deflate_stored+0x3c0>
    d50c:	e1570002 	cmp	r7, r2
    d510:	e1a04000 	mov	r4, r0
    d514:	e1a0a001 	mov	sl, r1
    d518:	81a07003 	movhi	r7, r3
    d51c:	e3a08000 	mov	r8, #0
    d520:	e5941074 	ldr	r1, [r4, #116]	; 0x74
    d524:	e3510001 	cmp	r1, #1
    d528:	9a000071 	bls	d6f4 <deflate_stored+0x1fc>
    d52c:	e594006c 	ldr	r0, [r4, #108]	; 0x6c
    d530:	e594305c 	ldr	r3, [r4, #92]	; 0x5c
    d534:	e0810000 	add	r0, r1, r0
    d538:	e3500000 	cmp	r0, #0
    d53c:	e5848074 	str	r8, [r4, #116]	; 0x74
    d540:	e584006c 	str	r0, [r4, #108]	; 0x6c
    d544:	e0872003 	add	r2, r7, r3
    d548:	0a000001 	beq	d554 <deflate_stored+0x5c>
    d54c:	e1500002 	cmp	r0, r2
    d550:	3a000032 	bcc	d620 <deflate_stored+0x128>
    d554:	e3530000 	cmp	r3, #0
    d558:	a5941038 	ldrge	r1, [r4, #56]	; 0x38
    d55c:	e0620000 	rsb	r0, r2, r0
    d560:	a0811003 	addge	r1, r1, r3
    d564:	b3a01000 	movlt	r1, #0
    d568:	e5840074 	str	r0, [r4, #116]	; 0x74
    d56c:	e584206c 	str	r2, [r4, #108]	; 0x6c
    d570:	e1a00004 	mov	r0, r4
    d574:	e0632002 	rsb	r2, r3, r2
    d578:	e3a03000 	mov	r3, #0
    d57c:	eb001411 	bl	125c8 <_tr_flush_block>
    d580:	e5945000 	ldr	r5, [r4]
    d584:	e594306c 	ldr	r3, [r4, #108]	; 0x6c
    d588:	e5956018 	ldr	r6, [r5, #24]
    d58c:	e584305c 	str	r3, [r4, #92]	; 0x5c
    d590:	e1a00006 	mov	r0, r6
    d594:	eb001381 	bl	123a0 <_tr_flush_bits>
    d598:	e5963014 	ldr	r3, [r6, #20]
    d59c:	e5959010 	ldr	r9, [r5, #16]
    d5a0:	e1590003 	cmp	r9, r3
    d5a4:	21a09003 	movcs	r9, r3
    d5a8:	e3590000 	cmp	r9, #0
    d5ac:	0a000015 	beq	d608 <deflate_stored+0x110>
    d5b0:	e1a02009 	mov	r2, r9
    d5b4:	e595000c 	ldr	r0, [r5, #12]
    d5b8:	e5961010 	ldr	r1, [r6, #16]
    d5bc:	ebffeb92 	bl	840c <xmemcpy>
    d5c0:	e5963014 	ldr	r3, [r6, #20]
    d5c4:	e5961010 	ldr	r1, [r6, #16]
    d5c8:	e595000c 	ldr	r0, [r5, #12]
    d5cc:	e5952014 	ldr	r2, [r5, #20]
    d5d0:	e595c010 	ldr	ip, [r5, #16]
    d5d4:	e0693003 	rsb	r3, r9, r3
    d5d8:	e0800009 	add	r0, r0, r9
    d5dc:	e0811009 	add	r1, r1, r9
    d5e0:	e0822009 	add	r2, r2, r9
    d5e4:	e3530000 	cmp	r3, #0
    d5e8:	e069900c 	rsb	r9, r9, ip
    d5ec:	e585000c 	str	r0, [r5, #12]
    d5f0:	e5861010 	str	r1, [r6, #16]
    d5f4:	e5852014 	str	r2, [r5, #20]
    d5f8:	e5859010 	str	r9, [r5, #16]
    d5fc:	e5863014 	str	r3, [r6, #20]
    d600:	05963008 	ldreq	r3, [r6, #8]
    d604:	05863010 	streq	r3, [r6, #16]
    d608:	e5943000 	ldr	r3, [r4]
    d60c:	e5933010 	ldr	r3, [r3, #16]
    d610:	e3530000 	cmp	r3, #0
    d614:	0a000034 	beq	d6ec <deflate_stored+0x1f4>
    d618:	e594006c 	ldr	r0, [r4, #108]	; 0x6c
    d61c:	e594305c 	ldr	r3, [r4, #92]	; 0x5c
    d620:	e594102c 	ldr	r1, [r4, #44]	; 0x2c
    d624:	e0632000 	rsb	r2, r3, r0
    d628:	e2411f41 	sub	r1, r1, #260	; 0x104
    d62c:	e2411002 	sub	r1, r1, #2
    d630:	e1510002 	cmp	r1, r2
    d634:	8affffb9 	bhi	d520 <deflate_stored+0x28>
    d638:	e3530000 	cmp	r3, #0
    d63c:	a5941038 	ldrge	r1, [r4, #56]	; 0x38
    d640:	b3a01000 	movlt	r1, #0
    d644:	a0811003 	addge	r1, r1, r3
    d648:	e1a00004 	mov	r0, r4
    d64c:	e3a03000 	mov	r3, #0
    d650:	eb0013dc 	bl	125c8 <_tr_flush_block>
    d654:	e5945000 	ldr	r5, [r4]
    d658:	e594306c 	ldr	r3, [r4, #108]	; 0x6c
    d65c:	e5956018 	ldr	r6, [r5, #24]
    d660:	e584305c 	str	r3, [r4, #92]	; 0x5c
    d664:	e1a00006 	mov	r0, r6
    d668:	eb00134c 	bl	123a0 <_tr_flush_bits>
    d66c:	e5963014 	ldr	r3, [r6, #20]
    d670:	e5959010 	ldr	r9, [r5, #16]
    d674:	e1590003 	cmp	r9, r3
    d678:	21a09003 	movcs	r9, r3
    d67c:	e3590000 	cmp	r9, #0
    d680:	0a000015 	beq	d6dc <deflate_stored+0x1e4>
    d684:	e1a02009 	mov	r2, r9
    d688:	e595000c 	ldr	r0, [r5, #12]
    d68c:	e5961010 	ldr	r1, [r6, #16]
    d690:	ebffeb5d 	bl	840c <xmemcpy>
    d694:	e5963014 	ldr	r3, [r6, #20]
    d698:	e5961010 	ldr	r1, [r6, #16]
    d69c:	e595000c 	ldr	r0, [r5, #12]
    d6a0:	e5952014 	ldr	r2, [r5, #20]
    d6a4:	e595c010 	ldr	ip, [r5, #16]
    d6a8:	e0693003 	rsb	r3, r9, r3
    d6ac:	e0800009 	add	r0, r0, r9
    d6b0:	e0811009 	add	r1, r1, r9
    d6b4:	e0822009 	add	r2, r2, r9
    d6b8:	e3530000 	cmp	r3, #0
    d6bc:	e069900c 	rsb	r9, r9, ip
    d6c0:	e585000c 	str	r0, [r5, #12]
    d6c4:	e5861010 	str	r1, [r6, #16]
    d6c8:	e5852014 	str	r2, [r5, #20]
    d6cc:	e5859010 	str	r9, [r5, #16]
    d6d0:	e5863014 	str	r3, [r6, #20]
    d6d4:	05963008 	ldreq	r3, [r6, #8]
    d6d8:	05863010 	streq	r3, [r6, #16]
    d6dc:	e5943000 	ldr	r3, [r4]
    d6e0:	e5933010 	ldr	r3, [r3, #16]
    d6e4:	e3530000 	cmp	r3, #0
    d6e8:	1affff8c 	bne	d520 <deflate_stored+0x28>
    d6ec:	e3a00000 	mov	r0, #0
    d6f0:	e8bd87f0 	pop	{r4, r5, r6, r7, r8, r9, sl, pc}
    d6f4:	e1a00004 	mov	r0, r4
    d6f8:	ebfffeab 	bl	d1ac <fill_window>
    d6fc:	e5941074 	ldr	r1, [r4, #116]	; 0x74
    d700:	e3510000 	cmp	r1, #0
    d704:	1affff88 	bne	d52c <deflate_stored+0x34>
    d708:	e35a0000 	cmp	sl, #0
    d70c:	0afffff6 	beq	d6ec <deflate_stored+0x1f4>
    d710:	e59f31a4 	ldr	r3, [pc, #420]	; d8bc <deflate_stored+0x3c4>
    d714:	e35a0004 	cmp	sl, #4
    d718:	e7841003 	str	r1, [r4, r3]
    d71c:	0a000031 	beq	d7e8 <deflate_stored+0x2f0>
    d720:	e594206c 	ldr	r2, [r4, #108]	; 0x6c
    d724:	e594305c 	ldr	r3, [r4, #92]	; 0x5c
    d728:	e1520003 	cmp	r2, r3
    d72c:	da00005e 	ble	d8ac <deflate_stored+0x3b4>
    d730:	e3530000 	cmp	r3, #0
    d734:	a5941038 	ldrge	r1, [r4, #56]	; 0x38
    d738:	e0632002 	rsb	r2, r3, r2
    d73c:	a0811003 	addge	r1, r1, r3
    d740:	e1a00004 	mov	r0, r4
    d744:	e3a03000 	mov	r3, #0
    d748:	eb00139e 	bl	125c8 <_tr_flush_block>
    d74c:	e5946000 	ldr	r6, [r4]
    d750:	e594306c 	ldr	r3, [r4, #108]	; 0x6c
    d754:	e5965018 	ldr	r5, [r6, #24]
    d758:	e584305c 	str	r3, [r4, #92]	; 0x5c
    d75c:	e1a00005 	mov	r0, r5
    d760:	eb00130e 	bl	123a0 <_tr_flush_bits>
    d764:	e5953014 	ldr	r3, [r5, #20]
    d768:	e5967010 	ldr	r7, [r6, #16]
    d76c:	e1570003 	cmp	r7, r3
    d770:	21a07003 	movcs	r7, r3
    d774:	e3570000 	cmp	r7, #0
    d778:	0a000015 	beq	d7d4 <deflate_stored+0x2dc>
    d77c:	e1a02007 	mov	r2, r7
    d780:	e596000c 	ldr	r0, [r6, #12]
    d784:	e5951010 	ldr	r1, [r5, #16]
    d788:	ebffeb1f 	bl	840c <xmemcpy>
    d78c:	e5953014 	ldr	r3, [r5, #20]
    d790:	e5951010 	ldr	r1, [r5, #16]
    d794:	e596000c 	ldr	r0, [r6, #12]
    d798:	e5962014 	ldr	r2, [r6, #20]
    d79c:	e596c010 	ldr	ip, [r6, #16]
    d7a0:	e0673003 	rsb	r3, r7, r3
    d7a4:	e0800007 	add	r0, r0, r7
    d7a8:	e0811007 	add	r1, r1, r7
    d7ac:	e0822007 	add	r2, r2, r7
    d7b0:	e3530000 	cmp	r3, #0
    d7b4:	e067700c 	rsb	r7, r7, ip
    d7b8:	e586000c 	str	r0, [r6, #12]
    d7bc:	e5851010 	str	r1, [r5, #16]
    d7c0:	e5862014 	str	r2, [r6, #20]
    d7c4:	e5867010 	str	r7, [r6, #16]
    d7c8:	e5853014 	str	r3, [r5, #20]
    d7cc:	05953008 	ldreq	r3, [r5, #8]
    d7d0:	05853010 	streq	r3, [r5, #16]
    d7d4:	e5943000 	ldr	r3, [r4]
    d7d8:	e5930010 	ldr	r0, [r3, #16]
    d7dc:	e2900000 	adds	r0, r0, #0
    d7e0:	13a00001 	movne	r0, #1
    d7e4:	e8bd87f0 	pop	{r4, r5, r6, r7, r8, r9, sl, pc}
    d7e8:	e594305c 	ldr	r3, [r4, #92]	; 0x5c
    d7ec:	e594206c 	ldr	r2, [r4, #108]	; 0x6c
    d7f0:	e3530000 	cmp	r3, #0
    d7f4:	a5941038 	ldrge	r1, [r4, #56]	; 0x38
    d7f8:	e0632002 	rsb	r2, r3, r2
    d7fc:	a0811003 	addge	r1, r1, r3
    d800:	e1a00004 	mov	r0, r4
    d804:	e3a03001 	mov	r3, #1
    d808:	eb00136e 	bl	125c8 <_tr_flush_block>
    d80c:	e5946000 	ldr	r6, [r4]
    d810:	e594306c 	ldr	r3, [r4, #108]	; 0x6c
    d814:	e5965018 	ldr	r5, [r6, #24]
    d818:	e584305c 	str	r3, [r4, #92]	; 0x5c
    d81c:	e1a00005 	mov	r0, r5
    d820:	eb0012de 	bl	123a0 <_tr_flush_bits>
    d824:	e5953014 	ldr	r3, [r5, #20]
    d828:	e5967010 	ldr	r7, [r6, #16]
    d82c:	e1570003 	cmp	r7, r3
    d830:	21a07003 	movcs	r7, r3
    d834:	e3570000 	cmp	r7, #0
    d838:	0a000015 	beq	d894 <deflate_stored+0x39c>
    d83c:	e1a02007 	mov	r2, r7
    d840:	e596000c 	ldr	r0, [r6, #12]
    d844:	e5951010 	ldr	r1, [r5, #16]
    d848:	ebffeaef 	bl	840c <xmemcpy>
    d84c:	e5953014 	ldr	r3, [r5, #20]
    d850:	e5951010 	ldr	r1, [r5, #16]
    d854:	e596000c 	ldr	r0, [r6, #12]
    d858:	e5962014 	ldr	r2, [r6, #20]
    d85c:	e596c010 	ldr	ip, [r6, #16]
    d860:	e0673003 	rsb	r3, r7, r3
    d864:	e0800007 	add	r0, r0, r7
    d868:	e0811007 	add	r1, r1, r7
    d86c:	e0822007 	add	r2, r2, r7
    d870:	e3530000 	cmp	r3, #0
    d874:	e067700c 	rsb	r7, r7, ip
    d878:	e586000c 	str	r0, [r6, #12]
    d87c:	e5851010 	str	r1, [r5, #16]
    d880:	e5862014 	str	r2, [r6, #20]
    d884:	e5867010 	str	r7, [r6, #16]
    d888:	e5853014 	str	r3, [r5, #20]
    d88c:	05953008 	ldreq	r3, [r5, #8]
    d890:	05853010 	streq	r3, [r5, #16]
    d894:	e5943000 	ldr	r3, [r4]
    d898:	e5930010 	ldr	r0, [r3, #16]
    d89c:	e3500000 	cmp	r0, #0
    d8a0:	13a00003 	movne	r0, #3
    d8a4:	03a00002 	moveq	r0, #2
    d8a8:	e8bd87f0 	pop	{r4, r5, r6, r7, r8, r9, sl, pc}
    d8ac:	e3a00001 	mov	r0, #1
    d8b0:	e8bd87f0 	pop	{r4, r5, r6, r7, r8, r9, sl, pc}
    d8b4:	0000fffe 	strdeq	pc, [r0], -lr
    d8b8:	0000ffff 	strdeq	pc, [r0], -pc	; <UNPREDICTABLE>
    d8bc:	000016b4 			; <UNDEFINED> instruction: 0x000016b4

0000d8c0 <deflate_fast>:
    d8c0:	e92d4ff0 	push	{r4, r5, r6, r7, r8, r9, sl, fp, lr}
    d8c4:	e590a074 	ldr	sl, [r0, #116]	; 0x74
    d8c8:	e24dd024 	sub	sp, sp, #36	; 0x24
    d8cc:	e59fb5d0 	ldr	fp, [pc, #1488]	; dea4 <deflate_fast+0x5e4>
    d8d0:	e59f95d0 	ldr	r9, [pc, #1488]	; dea8 <deflate_fast+0x5e8>
    d8d4:	e1a08000 	mov	r8, r0
    d8d8:	e58d101c 	str	r1, [sp, #28]
    d8dc:	e59f05c8 	ldr	r0, [pc, #1480]	; deac <deflate_fast+0x5ec>
    d8e0:	e15a0000 	cmp	sl, r0
    d8e4:	9a0000b6 	bls	dbc4 <deflate_fast+0x304>
    d8e8:	e598306c 	ldr	r3, [r8, #108]	; 0x6c
    d8ec:	e5982038 	ldr	r2, [r8, #56]	; 0x38
    d8f0:	e598c048 	ldr	ip, [r8, #72]	; 0x48
    d8f4:	e0822003 	add	r2, r2, r3
    d8f8:	e5d21002 	ldrb	r1, [r2, #2]
    d8fc:	e5980058 	ldr	r0, [r8, #88]	; 0x58
    d900:	e5982054 	ldr	r2, [r8, #84]	; 0x54
    d904:	e021c01c 	eor	ip, r1, ip, lsl r0
    d908:	e5980044 	ldr	r0, [r8, #68]	; 0x44
    d90c:	e00cc002 	and	ip, ip, r2
    d910:	e598e034 	ldr	lr, [r8, #52]	; 0x34
    d914:	e1a0208c 	lsl	r2, ip, #1
    d918:	e19010b2 	ldrh	r1, [r0, r2]
    d91c:	e5984040 	ldr	r4, [r8, #64]	; 0x40
    d920:	e003e00e 	and	lr, r3, lr
    d924:	e1a0e08e 	lsl	lr, lr, #1
    d928:	e3510000 	cmp	r1, #0
    d92c:	e588c048 	str	ip, [r8, #72]	; 0x48
    d930:	e18410be 	strh	r1, [r4, lr]
    d934:	e18030b2 	strh	r3, [r0, r2]
    d938:	0a000005 	beq	d954 <deflate_fast+0x94>
    d93c:	e598202c 	ldr	r2, [r8, #44]	; 0x2c
    d940:	e0610003 	rsb	r0, r1, r3
    d944:	e2422f41 	sub	r2, r2, #260	; 0x104
    d948:	e2422002 	sub	r2, r2, #2
    d94c:	e1520000 	cmp	r2, r0
    d950:	2a0000d9 	bcs	dcbc <deflate_fast+0x3fc>
    d954:	e5980060 	ldr	r0, [r8, #96]	; 0x60
    d958:	e3500002 	cmp	r0, #2
    d95c:	9a0000a9 	bls	dc08 <deflate_fast+0x348>
    d960:	e5981070 	ldr	r1, [r8, #112]	; 0x70
    d964:	e798200b 	ldr	r2, [r8, fp]
    d968:	e798e009 	ldr	lr, [r8, r9]
    d96c:	e59f653c 	ldr	r6, [pc, #1340]	; deb0 <deflate_fast+0x5f0>
    d970:	e0613003 	rsb	r3, r1, r3
    d974:	e2400003 	sub	r0, r0, #3
    d978:	e6ef0070 	uxtb	r0, r0
    d97c:	e1a01082 	lsl	r1, r2, #1
    d980:	e6ff3073 	uxth	r3, r3
    d984:	e18e30b1 	strh	r3, [lr, r1]
    d988:	e7d6c000 	ldrb	ip, [r6, r0]
    d98c:	e59f1520 	ldr	r1, [pc, #1312]	; deb4 <deflate_fast+0x5f4>
    d990:	e28ccc01 	add	ip, ip, #256	; 0x100
    d994:	e798e001 	ldr	lr, [r8, r1]
    d998:	e28cc025 	add	ip, ip, #37	; 0x25
    d99c:	e2821001 	add	r1, r2, #1
    d9a0:	e7ce0002 	strb	r0, [lr, r2]
    d9a4:	e2433001 	sub	r3, r3, #1
    d9a8:	e088210c 	add	r2, r8, ip, lsl #2
    d9ac:	e788100b 	str	r1, [r8, fp]
    d9b0:	e1d200b4 	ldrh	r0, [r2, #4]
    d9b4:	e6ff3073 	uxth	r3, r3
    d9b8:	e35300ff 	cmp	r3, #255	; 0xff
    d9bc:	e2800001 	add	r0, r0, #1
    d9c0:	859f54f0 	ldrhi	r5, [pc, #1264]	; deb8 <deflate_fast+0x5f8>
    d9c4:	e1c200b4 	strh	r0, [r2, #4]
    d9c8:	959f24e8 	ldrls	r2, [pc, #1256]	; deb8 <deflate_fast+0x5f8>
    d9cc:	808533a3 	addhi	r3, r5, r3, lsr #7
    d9d0:	97d23003 	ldrbls	r3, [r2, r3]
    d9d4:	85d33100 	ldrbhi	r3, [r3, #256]	; 0x100
    d9d8:	e59f24dc 	ldr	r2, [pc, #1244]	; debc <deflate_fast+0x5fc>
    d9dc:	e2833e26 	add	r3, r3, #608	; 0x260
    d9e0:	e2833002 	add	r3, r3, #2
    d9e4:	e1a03103 	lsl	r3, r3, #2
    d9e8:	e19800b3 	ldrh	r0, [r8, r3]
    d9ec:	e2800001 	add	r0, r0, #1
    d9f0:	e18800b3 	strh	r0, [r8, r3]
    d9f4:	e7987002 	ldr	r7, [r8, r2]
    d9f8:	e5986060 	ldr	r6, [r8, #96]	; 0x60
    d9fc:	e2477001 	sub	r7, r7, #1
    da00:	e598a074 	ldr	sl, [r8, #116]	; 0x74
    da04:	e0512007 	subs	r2, r1, r7
    da08:	e5983080 	ldr	r3, [r8, #128]	; 0x80
    da0c:	e2727000 	rsbs	r7, r2, #0
    da10:	e0b77002 	adcs	r7, r7, r2
    da14:	e066a00a 	rsb	sl, r6, sl
    da18:	e1560003 	cmp	r6, r3
    da1c:	e588a074 	str	sl, [r8, #116]	; 0x74
    da20:	8a000096 	bhi	dc80 <deflate_fast+0x3c0>
    da24:	e35a0002 	cmp	sl, #2
    da28:	9a000094 	bls	dc80 <deflate_fast+0x3c0>
    da2c:	e598c06c 	ldr	ip, [r8, #108]	; 0x6c
    da30:	e5981040 	ldr	r1, [r8, #64]	; 0x40
    da34:	e58dc00c 	str	ip, [sp, #12]
    da38:	e5980048 	ldr	r0, [r8, #72]	; 0x48
    da3c:	e5983034 	ldr	r3, [r8, #52]	; 0x34
    da40:	e59d500c 	ldr	r5, [sp, #12]
    da44:	e58d1008 	str	r1, [sp, #8]
    da48:	e5984058 	ldr	r4, [r8, #88]	; 0x58
    da4c:	e5981038 	ldr	r1, [r8, #56]	; 0x38
    da50:	e598c054 	ldr	ip, [r8, #84]	; 0x54
    da54:	e58d0018 	str	r0, [sp, #24]
    da58:	e2462001 	sub	r2, r6, #1
    da5c:	e598e044 	ldr	lr, [r8, #68]	; 0x44
    da60:	e58d3004 	str	r3, [sp, #4]
    da64:	e0810005 	add	r0, r1, r5
    da68:	e58d7010 	str	r7, [sp, #16]
    da6c:	e59d1018 	ldr	r1, [sp, #24]
    da70:	e2853001 	add	r3, r5, #1
    da74:	e58da018 	str	sl, [sp, #24]
    da78:	e5882060 	str	r2, [r8, #96]	; 0x60
    da7c:	e58d6014 	str	r6, [sp, #20]
    da80:	e1a07004 	mov	r7, r4
    da84:	e1a0a00c 	mov	sl, ip
    da88:	e588306c 	str	r3, [r8, #108]	; 0x6c
    da8c:	e5d0c003 	ldrb	ip, [r0, #3]
    da90:	e59d6004 	ldr	r6, [sp, #4]
    da94:	e02c1711 	eor	r1, ip, r1, lsl r7
    da98:	e001100a 	and	r1, r1, sl
    da9c:	e1a0c081 	lsl	ip, r1, #1
    daa0:	e19e50bc 	ldrh	r5, [lr, ip]
    daa4:	e0034006 	and	r4, r3, r6
    daa8:	e2422001 	sub	r2, r2, #1
    daac:	e59d6008 	ldr	r6, [sp, #8]
    dab0:	e1a04084 	lsl	r4, r4, #1
    dab4:	e3520000 	cmp	r2, #0
    dab8:	e5881048 	str	r1, [r8, #72]	; 0x48
    dabc:	e2800001 	add	r0, r0, #1
    dac0:	e18650b4 	strh	r5, [r6, r4]
    dac4:	e18e30bc 	strh	r3, [lr, ip]
    dac8:	e5882060 	str	r2, [r8, #96]	; 0x60
    dacc:	e2833001 	add	r3, r3, #1
    dad0:	1affffec 	bne	da88 <deflate_fast+0x1c8>
    dad4:	e59d6014 	ldr	r6, [sp, #20]
    dad8:	e59dc00c 	ldr	ip, [sp, #12]
    dadc:	e59d7010 	ldr	r7, [sp, #16]
    dae0:	e08c6006 	add	r6, ip, r6
    dae4:	e59da018 	ldr	sl, [sp, #24]
    dae8:	e588606c 	str	r6, [r8, #108]	; 0x6c
    daec:	e3570000 	cmp	r7, #0
    daf0:	0affff79 	beq	d8dc <deflate_fast+0x1c>
    daf4:	e598305c 	ldr	r3, [r8, #92]	; 0x5c
    daf8:	e598206c 	ldr	r2, [r8, #108]	; 0x6c
    dafc:	e3530000 	cmp	r3, #0
    db00:	a5981038 	ldrge	r1, [r8, #56]	; 0x38
    db04:	b3a01000 	movlt	r1, #0
    db08:	a0811003 	addge	r1, r1, r3
    db0c:	e0632002 	rsb	r2, r3, r2
    db10:	e1a00008 	mov	r0, r8
    db14:	e3a03000 	mov	r3, #0
    db18:	eb0012aa 	bl	125c8 <_tr_flush_block>
    db1c:	e5984000 	ldr	r4, [r8]
    db20:	e598306c 	ldr	r3, [r8, #108]	; 0x6c
    db24:	e5945018 	ldr	r5, [r4, #24]
    db28:	e588305c 	str	r3, [r8, #92]	; 0x5c
    db2c:	e1a00005 	mov	r0, r5
    db30:	eb00121a 	bl	123a0 <_tr_flush_bits>
    db34:	e5953014 	ldr	r3, [r5, #20]
    db38:	e5946010 	ldr	r6, [r4, #16]
    db3c:	e1560003 	cmp	r6, r3
    db40:	21a06003 	movcs	r6, r3
    db44:	e3560000 	cmp	r6, #0
    db48:	0a000015 	beq	dba4 <deflate_fast+0x2e4>
    db4c:	e1a02006 	mov	r2, r6
    db50:	e594000c 	ldr	r0, [r4, #12]
    db54:	e5951010 	ldr	r1, [r5, #16]
    db58:	ebffea2b 	bl	840c <xmemcpy>
    db5c:	e5953014 	ldr	r3, [r5, #20]
    db60:	e5951010 	ldr	r1, [r5, #16]
    db64:	e594000c 	ldr	r0, [r4, #12]
    db68:	e5942014 	ldr	r2, [r4, #20]
    db6c:	e594c010 	ldr	ip, [r4, #16]
    db70:	e0663003 	rsb	r3, r6, r3
    db74:	e0800006 	add	r0, r0, r6
    db78:	e0811006 	add	r1, r1, r6
    db7c:	e0822006 	add	r2, r2, r6
    db80:	e3530000 	cmp	r3, #0
    db84:	e066600c 	rsb	r6, r6, ip
    db88:	e584000c 	str	r0, [r4, #12]
    db8c:	e5851010 	str	r1, [r5, #16]
    db90:	e5842014 	str	r2, [r4, #20]
    db94:	e5846010 	str	r6, [r4, #16]
    db98:	e5853014 	str	r3, [r5, #20]
    db9c:	05953008 	ldreq	r3, [r5, #8]
    dba0:	05853010 	streq	r3, [r5, #16]
    dba4:	e5983000 	ldr	r3, [r8]
    dba8:	e5933010 	ldr	r3, [r3, #16]
    dbac:	e3530000 	cmp	r3, #0
    dbb0:	0a0000b9 	beq	de9c <deflate_fast+0x5dc>
    dbb4:	e598a074 	ldr	sl, [r8, #116]	; 0x74
    dbb8:	e59f02ec 	ldr	r0, [pc, #748]	; deac <deflate_fast+0x5ec>
    dbbc:	e15a0000 	cmp	sl, r0
    dbc0:	8affff48 	bhi	d8e8 <deflate_fast+0x28>
    dbc4:	e1a00008 	mov	r0, r8
    dbc8:	ebfffd77 	bl	d1ac <fill_window>
    dbcc:	e5983074 	ldr	r3, [r8, #116]	; 0x74
    dbd0:	e59f12d4 	ldr	r1, [pc, #724]	; deac <deflate_fast+0x5ec>
    dbd4:	e1530001 	cmp	r3, r1
    dbd8:	8affff42 	bhi	d8e8 <deflate_fast+0x28>
    dbdc:	e59d501c 	ldr	r5, [sp, #28]
    dbe0:	e3550000 	cmp	r5, #0
    dbe4:	0a000062 	beq	dd74 <deflate_fast+0x4b4>
    dbe8:	e3530000 	cmp	r3, #0
    dbec:	0a000037 	beq	dcd0 <deflate_fast+0x410>
    dbf0:	e3530002 	cmp	r3, #2
    dbf4:	8affff3b 	bhi	d8e8 <deflate_fast+0x28>
    dbf8:	e5980060 	ldr	r0, [r8, #96]	; 0x60
    dbfc:	e598306c 	ldr	r3, [r8, #108]	; 0x6c
    dc00:	e3500002 	cmp	r0, #2
    dc04:	8affff55 	bhi	d960 <deflate_fast+0xa0>
    dc08:	e5981038 	ldr	r1, [r8, #56]	; 0x38
    dc0c:	e798200b 	ldr	r2, [r8, fp]
    dc10:	e7d11003 	ldrb	r1, [r1, r3]
    dc14:	e59f3298 	ldr	r3, [pc, #664]	; deb4 <deflate_fast+0x5f4>
    dc18:	e7980009 	ldr	r0, [r8, r9]
    dc1c:	e798c003 	ldr	ip, [r8, r3]
    dc20:	e3a0e000 	mov	lr, #0
    dc24:	e1a03082 	lsl	r3, r2, #1
    dc28:	e180e0b3 	strh	lr, [r0, r3]
    dc2c:	e2810024 	add	r0, r1, #36	; 0x24
    dc30:	e2823001 	add	r3, r2, #1
    dc34:	e7cc1002 	strb	r1, [ip, r2]
    dc38:	e0882100 	add	r2, r8, r0, lsl #2
    dc3c:	e788300b 	str	r3, [r8, fp]
    dc40:	e1d200b4 	ldrh	r0, [r2, #4]
    dc44:	e59f1270 	ldr	r1, [pc, #624]	; debc <deflate_fast+0x5fc>
    dc48:	e2800001 	add	r0, r0, #1
    dc4c:	e1c200b4 	strh	r0, [r2, #4]
    dc50:	e7987001 	ldr	r7, [r8, r1]
    dc54:	e598a074 	ldr	sl, [r8, #116]	; 0x74
    dc58:	e598206c 	ldr	r2, [r8, #108]	; 0x6c
    dc5c:	e2477001 	sub	r7, r7, #1
    dc60:	e0533007 	subs	r3, r3, r7
    dc64:	e24aa001 	sub	sl, sl, #1
    dc68:	e2822001 	add	r2, r2, #1
    dc6c:	e2737000 	rsbs	r7, r3, #0
    dc70:	e0b77003 	adcs	r7, r7, r3
    dc74:	e588a074 	str	sl, [r8, #116]	; 0x74
    dc78:	e588206c 	str	r2, [r8, #108]	; 0x6c
    dc7c:	eaffff9a 	b	daec <deflate_fast+0x22c>
    dc80:	e598306c 	ldr	r3, [r8, #108]	; 0x6c
    dc84:	e3a02000 	mov	r2, #0
    dc88:	e0866003 	add	r6, r6, r3
    dc8c:	e5983038 	ldr	r3, [r8, #56]	; 0x38
    dc90:	e588606c 	str	r6, [r8, #108]	; 0x6c
    dc94:	e5882060 	str	r2, [r8, #96]	; 0x60
    dc98:	e7f32006 	ldrb	r2, [r3, r6]!
    dc9c:	e5980058 	ldr	r0, [r8, #88]	; 0x58
    dca0:	e5882048 	str	r2, [r8, #72]	; 0x48
    dca4:	e5d31001 	ldrb	r1, [r3, #1]
    dca8:	e5983054 	ldr	r3, [r8, #84]	; 0x54
    dcac:	e0212012 	eor	r2, r1, r2, lsl r0
    dcb0:	e0022003 	and	r2, r2, r3
    dcb4:	e5882048 	str	r2, [r8, #72]	; 0x48
    dcb8:	eaffff8b 	b	daec <deflate_fast+0x22c>
    dcbc:	e1a00008 	mov	r0, r8
    dcc0:	ebfffc7d 	bl	cebc <longest_match>
    dcc4:	e598306c 	ldr	r3, [r8, #108]	; 0x6c
    dcc8:	e5880060 	str	r0, [r8, #96]	; 0x60
    dccc:	eaffff21 	b	d958 <deflate_fast+0x98>
    dcd0:	e598206c 	ldr	r2, [r8, #108]	; 0x6c
    dcd4:	e59d501c 	ldr	r5, [sp, #28]
    dcd8:	e59f11e0 	ldr	r1, [pc, #480]	; dec0 <deflate_fast+0x600>
    dcdc:	e3520002 	cmp	r2, #2
    dce0:	31a00002 	movcc	r0, r2
    dce4:	23a00002 	movcs	r0, #2
    dce8:	e3550004 	cmp	r5, #4
    dcec:	e7880001 	str	r0, [r8, r1]
    dcf0:	0a000021 	beq	dd7c <deflate_fast+0x4bc>
    dcf4:	e59f11a8 	ldr	r1, [pc, #424]	; dea4 <deflate_fast+0x5e4>
    dcf8:	e7981001 	ldr	r1, [r8, r1]
    dcfc:	e3510000 	cmp	r1, #0
    dd00:	03a00001 	moveq	r0, #1
    dd04:	0a000018 	beq	dd6c <deflate_fast+0x4ac>
    dd08:	e598005c 	ldr	r0, [r8, #92]	; 0x5c
    dd0c:	e3500000 	cmp	r0, #0
    dd10:	a5981038 	ldrge	r1, [r8, #56]	; 0x38
    dd14:	b1a01003 	movlt	r1, r3
    dd18:	a0811000 	addge	r1, r1, r0
    dd1c:	e0602002 	rsb	r2, r0, r2
    dd20:	e3a03000 	mov	r3, #0
    dd24:	e1a00008 	mov	r0, r8
    dd28:	eb001226 	bl	125c8 <_tr_flush_block>
    dd2c:	e5985000 	ldr	r5, [r8]
    dd30:	e598306c 	ldr	r3, [r8, #108]	; 0x6c
    dd34:	e5954018 	ldr	r4, [r5, #24]
    dd38:	e588305c 	str	r3, [r8, #92]	; 0x5c
    dd3c:	e1a00004 	mov	r0, r4
    dd40:	eb001196 	bl	123a0 <_tr_flush_bits>
    dd44:	e5943014 	ldr	r3, [r4, #20]
    dd48:	e5956010 	ldr	r6, [r5, #16]
    dd4c:	e1560003 	cmp	r6, r3
    dd50:	21a06003 	movcs	r6, r3
    dd54:	e3560000 	cmp	r6, #0
    dd58:	1a000038 	bne	de40 <deflate_fast+0x580>
    dd5c:	e5983000 	ldr	r3, [r8]
    dd60:	e5930010 	ldr	r0, [r3, #16]
    dd64:	e2900000 	adds	r0, r0, #0
    dd68:	13a00001 	movne	r0, #1
    dd6c:	e28dd024 	add	sp, sp, #36	; 0x24
    dd70:	e8bd8ff0 	pop	{r4, r5, r6, r7, r8, r9, sl, fp, pc}
    dd74:	e1a00005 	mov	r0, r5
    dd78:	eafffffb 	b	dd6c <deflate_fast+0x4ac>
    dd7c:	e598005c 	ldr	r0, [r8, #92]	; 0x5c
    dd80:	e3500000 	cmp	r0, #0
    dd84:	a5981038 	ldrge	r1, [r8, #56]	; 0x38
    dd88:	b1a01003 	movlt	r1, r3
    dd8c:	a0811000 	addge	r1, r1, r0
    dd90:	e0602002 	rsb	r2, r0, r2
    dd94:	e3a03001 	mov	r3, #1
    dd98:	e1a00008 	mov	r0, r8
    dd9c:	eb001209 	bl	125c8 <_tr_flush_block>
    dda0:	e5985000 	ldr	r5, [r8]
    dda4:	e598306c 	ldr	r3, [r8, #108]	; 0x6c
    dda8:	e5954018 	ldr	r4, [r5, #24]
    ddac:	e588305c 	str	r3, [r8, #92]	; 0x5c
    ddb0:	e1a00004 	mov	r0, r4
    ddb4:	eb001179 	bl	123a0 <_tr_flush_bits>
    ddb8:	e5943014 	ldr	r3, [r4, #20]
    ddbc:	e5956010 	ldr	r6, [r5, #16]
    ddc0:	e1560003 	cmp	r6, r3
    ddc4:	21a06003 	movcs	r6, r3
    ddc8:	e3560000 	cmp	r6, #0
    ddcc:	0a000015 	beq	de28 <deflate_fast+0x568>
    ddd0:	e1a02006 	mov	r2, r6
    ddd4:	e595000c 	ldr	r0, [r5, #12]
    ddd8:	e5941010 	ldr	r1, [r4, #16]
    dddc:	ebffe98a 	bl	840c <xmemcpy>
    dde0:	e5943014 	ldr	r3, [r4, #20]
    dde4:	e5941010 	ldr	r1, [r4, #16]
    dde8:	e595000c 	ldr	r0, [r5, #12]
    ddec:	e5952014 	ldr	r2, [r5, #20]
    ddf0:	e595c010 	ldr	ip, [r5, #16]
    ddf4:	e0663003 	rsb	r3, r6, r3
    ddf8:	e0800006 	add	r0, r0, r6
    ddfc:	e0811006 	add	r1, r1, r6
    de00:	e0822006 	add	r2, r2, r6
    de04:	e3530000 	cmp	r3, #0
    de08:	e066600c 	rsb	r6, r6, ip
    de0c:	e585000c 	str	r0, [r5, #12]
    de10:	e5841010 	str	r1, [r4, #16]
    de14:	e5852014 	str	r2, [r5, #20]
    de18:	e5856010 	str	r6, [r5, #16]
    de1c:	e5843014 	str	r3, [r4, #20]
    de20:	05943008 	ldreq	r3, [r4, #8]
    de24:	05843010 	streq	r3, [r4, #16]
    de28:	e5983000 	ldr	r3, [r8]
    de2c:	e5930010 	ldr	r0, [r3, #16]
    de30:	e3500000 	cmp	r0, #0
    de34:	13a00003 	movne	r0, #3
    de38:	03a00002 	moveq	r0, #2
    de3c:	eaffffca 	b	dd6c <deflate_fast+0x4ac>
    de40:	e1a02006 	mov	r2, r6
    de44:	e595000c 	ldr	r0, [r5, #12]
    de48:	e5941010 	ldr	r1, [r4, #16]
    de4c:	ebffe96e 	bl	840c <xmemcpy>
    de50:	e5943014 	ldr	r3, [r4, #20]
    de54:	e5941010 	ldr	r1, [r4, #16]
    de58:	e595000c 	ldr	r0, [r5, #12]
    de5c:	e5952014 	ldr	r2, [r5, #20]
    de60:	e595c010 	ldr	ip, [r5, #16]
    de64:	e0663003 	rsb	r3, r6, r3
    de68:	e0800006 	add	r0, r0, r6
    de6c:	e0811006 	add	r1, r1, r6
    de70:	e0822006 	add	r2, r2, r6
    de74:	e3530000 	cmp	r3, #0
    de78:	e066600c 	rsb	r6, r6, ip
    de7c:	e585000c 	str	r0, [r5, #12]
    de80:	e5841010 	str	r1, [r4, #16]
    de84:	e5852014 	str	r2, [r5, #20]
    de88:	e5856010 	str	r6, [r5, #16]
    de8c:	e5843014 	str	r3, [r4, #20]
    de90:	05943008 	ldreq	r3, [r4, #8]
    de94:	05843010 	streq	r3, [r4, #16]
    de98:	eaffffaf 	b	dd5c <deflate_fast+0x49c>
    de9c:	e1a00003 	mov	r0, r3
    dea0:	eaffffb1 	b	dd6c <deflate_fast+0x4ac>
    dea4:	000016a0 	andeq	r1, r0, r0, lsr #13
    dea8:	000016a4 	andeq	r1, r0, r4, lsr #13
    deac:	00000105 	andeq	r0, r0, r5, lsl #2
    deb0:	00014058 	andeq	r4, r1, r8, asr r0
    deb4:	00001698 	muleq	r0, r8, r6
    deb8:	00014240 	andeq	r4, r1, r0, asr #4
    debc:	0000169c 	muleq	r0, ip, r6
    dec0:	000016b4 			; <UNDEFINED> instruction: 0x000016b4

0000dec4 <deflate_slow>:
    dec4:	e92d4ff0 	push	{r4, r5, r6, r7, r8, r9, sl, fp, lr}
    dec8:	e1a04000 	mov	r4, r0
    decc:	e24dd014 	sub	sp, sp, #20
    ded0:	e5900074 	ldr	r0, [r0, #116]	; 0x74
    ded4:	e59fb72c 	ldr	fp, [pc, #1836]	; e608 <deflate_slow+0x744>
    ded8:	e59f972c 	ldr	r9, [pc, #1836]	; e60c <deflate_slow+0x748>
    dedc:	e58d100c 	str	r1, [sp, #12]
    dee0:	e150000b 	cmp	r0, fp
    dee4:	9a0000b5 	bls	e1c0 <deflate_slow+0x2fc>
    dee8:	e594206c 	ldr	r2, [r4, #108]	; 0x6c
    deec:	e5943038 	ldr	r3, [r4, #56]	; 0x38
    def0:	e594c048 	ldr	ip, [r4, #72]	; 0x48
    def4:	e0833002 	add	r3, r3, r2
    def8:	e5d30002 	ldrb	r0, [r3, #2]
    defc:	e5943058 	ldr	r3, [r4, #88]	; 0x58
    df00:	e5941054 	ldr	r1, [r4, #84]	; 0x54
    df04:	e020331c 	eor	r3, r0, ip, lsl r3
    df08:	e5945034 	ldr	r5, [r4, #52]	; 0x34
    df0c:	e0033001 	and	r3, r3, r1
    df10:	e594c044 	ldr	ip, [r4, #68]	; 0x44
    df14:	e1a00083 	lsl	r0, r3, #1
    df18:	e19c10b0 	ldrh	r1, [ip, r0]
    df1c:	e5946040 	ldr	r6, [r4, #64]	; 0x40
    df20:	e0025005 	and	r5, r2, r5
    df24:	e1a05085 	lsl	r5, r5, #1
    df28:	e5843048 	str	r3, [r4, #72]	; 0x48
    df2c:	e5943060 	ldr	r3, [r4, #96]	; 0x60
    df30:	e18610b5 	strh	r1, [r6, r5]
    df34:	e5946070 	ldr	r6, [r4, #112]	; 0x70
    df38:	e3a05002 	mov	r5, #2
    df3c:	e3510000 	cmp	r1, #0
    df40:	e18c20b0 	strh	r2, [ip, r0]
    df44:	e5843078 	str	r3, [r4, #120]	; 0x78
    df48:	e5846064 	str	r6, [r4, #100]	; 0x64
    df4c:	e5845060 	str	r5, [r4, #96]	; 0x60
    df50:	0a000008 	beq	df78 <deflate_slow+0xb4>
    df54:	e5940080 	ldr	r0, [r4, #128]	; 0x80
    df58:	e1530000 	cmp	r3, r0
    df5c:	2a000005 	bcs	df78 <deflate_slow+0xb4>
    df60:	e594002c 	ldr	r0, [r4, #44]	; 0x2c
    df64:	e061c002 	rsb	ip, r1, r2
    df68:	e2400f41 	sub	r0, r0, #260	; 0x104
    df6c:	e2400002 	sub	r0, r0, #2
    df70:	e150000c 	cmp	r0, ip
    df74:	2a000102 	bcs	e384 <deflate_slow+0x4c0>
    df78:	e3530002 	cmp	r3, #2
    df7c:	9a0000a4 	bls	e214 <deflate_slow+0x350>
    df80:	e5941060 	ldr	r1, [r4, #96]	; 0x60
    df84:	e1510003 	cmp	r1, r3
    df88:	8a0000a1 	bhi	e214 <deflate_slow+0x350>
    df8c:	e2433003 	sub	r3, r3, #3
    df90:	e6efc073 	uxtb	ip, r3
    df94:	e59f6674 	ldr	r6, [pc, #1652]	; e610 <deflate_slow+0x74c>
    df98:	e5943064 	ldr	r3, [r4, #100]	; 0x64
    df9c:	e59f7670 	ldr	r7, [pc, #1648]	; e614 <deflate_slow+0x750>
    dfa0:	e7941009 	ldr	r1, [r4, r9]
    dfa4:	e7d6000c 	ldrb	r0, [r6, ip]
    dfa8:	e0633002 	rsb	r3, r3, r2
    dfac:	e7948007 	ldr	r8, [r4, r7]
    dfb0:	e6ff3073 	uxth	r3, r3
    dfb4:	e247700c 	sub	r7, r7, #12
    dfb8:	e7945007 	ldr	r5, [r4, r7]
    dfbc:	e1a06081 	lsl	r6, r1, #1
    dfc0:	e243a001 	sub	sl, r3, #1
    dfc4:	e2800c01 	add	r0, r0, #256	; 0x100
    dfc8:	e5947074 	ldr	r7, [r4, #116]	; 0x74
    dfcc:	e2800025 	add	r0, r0, #37	; 0x25
    dfd0:	e188a0b6 	strh	sl, [r8, r6]
    dfd4:	e2816001 	add	r6, r1, #1
    dfd8:	e7c5c001 	strb	ip, [r5, r1]
    dfdc:	e0840100 	add	r0, r4, r0, lsl #2
    dfe0:	e7846009 	str	r6, [r4, r9]
    dfe4:	e1d010b4 	ldrh	r1, [r0, #4]
    dfe8:	e2433002 	sub	r3, r3, #2
    dfec:	e6ff3073 	uxth	r3, r3
    dff0:	e35300ff 	cmp	r3, #255	; 0xff
    dff4:	e2811001 	add	r1, r1, #1
    dff8:	e1c010b4 	strh	r1, [r0, #4]
    dffc:	859f0614 	ldrhi	r0, [pc, #1556]	; e618 <deflate_slow+0x754>
    e000:	959fc610 	ldrls	ip, [pc, #1552]	; e618 <deflate_slow+0x754>
    e004:	808033a3 	addhi	r3, r0, r3, lsr #7
    e008:	97dc3003 	ldrbls	r3, [ip, r3]
    e00c:	85d33100 	ldrbhi	r3, [r3, #256]	; 0x100
    e010:	e0827007 	add	r7, r2, r7
    e014:	e2833e26 	add	r3, r3, #608	; 0x260
    e018:	e2833002 	add	r3, r3, #2
    e01c:	e1a03103 	lsl	r3, r3, #2
    e020:	e19410b3 	ldrh	r1, [r4, r3]
    e024:	e59f25f0 	ldr	r2, [pc, #1520]	; e61c <deflate_slow+0x758>
    e028:	e2811001 	add	r1, r1, #1
    e02c:	e18410b3 	strh	r1, [r4, r3]
    e030:	e5940074 	ldr	r0, [r4, #116]	; 0x74
    e034:	e5941078 	ldr	r1, [r4, #120]	; 0x78
    e038:	e7943002 	ldr	r3, [r4, r2]
    e03c:	e2800001 	add	r0, r0, #1
    e040:	e0610000 	rsb	r0, r1, r0
    e044:	e2433001 	sub	r3, r3, #1
    e048:	e2411002 	sub	r1, r1, #2
    e04c:	e58d6004 	str	r6, [sp, #4]
    e050:	e2477003 	sub	r7, r7, #3
    e054:	e5840074 	str	r0, [r4, #116]	; 0x74
    e058:	e5841078 	str	r1, [r4, #120]	; 0x78
    e05c:	e58d3008 	str	r3, [sp, #8]
    e060:	e594206c 	ldr	r2, [r4, #108]	; 0x6c
    e064:	e58d0000 	str	r0, [sp]
    e068:	ea000000 	b	e070 <deflate_slow+0x1ac>
    e06c:	e1a02003 	mov	r2, r3
    e070:	e2823001 	add	r3, r2, #1
    e074:	e1570003 	cmp	r7, r3
    e078:	e2411001 	sub	r1, r1, #1
    e07c:	e584306c 	str	r3, [r4, #108]	; 0x6c
    e080:	3a000011 	bcc	e0cc <deflate_slow+0x208>
    e084:	e594c038 	ldr	ip, [r4, #56]	; 0x38
    e088:	e5948048 	ldr	r8, [r4, #72]	; 0x48
    e08c:	e08cc002 	add	ip, ip, r2
    e090:	e5dc5003 	ldrb	r5, [ip, #3]
    e094:	e5946058 	ldr	r6, [r4, #88]	; 0x58
    e098:	e594c054 	ldr	ip, [r4, #84]	; 0x54
    e09c:	e0256618 	eor	r6, r5, r8, lsl r6
    e0a0:	e5945044 	ldr	r5, [r4, #68]	; 0x44
    e0a4:	e006600c 	and	r6, r6, ip
    e0a8:	e5948034 	ldr	r8, [r4, #52]	; 0x34
    e0ac:	e1a0c086 	lsl	ip, r6, #1
    e0b0:	e195a0bc 	ldrh	sl, [r5, ip]
    e0b4:	e0038008 	and	r8, r3, r8
    e0b8:	e5846048 	str	r6, [r4, #72]	; 0x48
    e0bc:	e5946040 	ldr	r6, [r4, #64]	; 0x40
    e0c0:	e1a08088 	lsl	r8, r8, #1
    e0c4:	e186a0b8 	strh	sl, [r6, r8]
    e0c8:	e18530bc 	strh	r3, [r5, ip]
    e0cc:	e3510000 	cmp	r1, #0
    e0d0:	e5841078 	str	r1, [r4, #120]	; 0x78
    e0d4:	1affffe4 	bne	e06c <deflate_slow+0x1a8>
    e0d8:	e2822002 	add	r2, r2, #2
    e0dc:	e99d1080 	ldmib	sp, {r7, ip}
    e0e0:	e3a03002 	mov	r3, #2
    e0e4:	e157000c 	cmp	r7, ip
    e0e8:	e59d0000 	ldr	r0, [sp]
    e0ec:	e584206c 	str	r2, [r4, #108]	; 0x6c
    e0f0:	e5841068 	str	r1, [r4, #104]	; 0x68
    e0f4:	e5843060 	str	r3, [r4, #96]	; 0x60
    e0f8:	1affff78 	bne	dee0 <deflate_slow+0x1c>
    e0fc:	e594305c 	ldr	r3, [r4, #92]	; 0x5c
    e100:	e1a00004 	mov	r0, r4
    e104:	e3530000 	cmp	r3, #0
    e108:	a5941038 	ldrge	r1, [r4, #56]	; 0x38
    e10c:	e0632002 	rsb	r2, r3, r2
    e110:	a0811003 	addge	r1, r1, r3
    e114:	e3a03000 	mov	r3, #0
    e118:	eb00112a 	bl	125c8 <_tr_flush_block>
    e11c:	e5945000 	ldr	r5, [r4]
    e120:	e594306c 	ldr	r3, [r4, #108]	; 0x6c
    e124:	e5956018 	ldr	r6, [r5, #24]
    e128:	e584305c 	str	r3, [r4, #92]	; 0x5c
    e12c:	e1a00006 	mov	r0, r6
    e130:	eb00109a 	bl	123a0 <_tr_flush_bits>
    e134:	e5963014 	ldr	r3, [r6, #20]
    e138:	e5957010 	ldr	r7, [r5, #16]
    e13c:	e1570003 	cmp	r7, r3
    e140:	21a07003 	movcs	r7, r3
    e144:	e3570000 	cmp	r7, #0
    e148:	0a000015 	beq	e1a4 <deflate_slow+0x2e0>
    e14c:	e1a02007 	mov	r2, r7
    e150:	e595000c 	ldr	r0, [r5, #12]
    e154:	e5961010 	ldr	r1, [r6, #16]
    e158:	ebffe8ab 	bl	840c <xmemcpy>
    e15c:	e5963014 	ldr	r3, [r6, #20]
    e160:	e5961010 	ldr	r1, [r6, #16]
    e164:	e595000c 	ldr	r0, [r5, #12]
    e168:	e5952014 	ldr	r2, [r5, #20]
    e16c:	e595c010 	ldr	ip, [r5, #16]
    e170:	e0673003 	rsb	r3, r7, r3
    e174:	e0800007 	add	r0, r0, r7
    e178:	e0811007 	add	r1, r1, r7
    e17c:	e0822007 	add	r2, r2, r7
    e180:	e3530000 	cmp	r3, #0
    e184:	e067700c 	rsb	r7, r7, ip
    e188:	e585000c 	str	r0, [r5, #12]
    e18c:	e5861010 	str	r1, [r6, #16]
    e190:	e5852014 	str	r2, [r5, #20]
    e194:	e5857010 	str	r7, [r5, #16]
    e198:	e5863014 	str	r3, [r6, #20]
    e19c:	05963008 	ldreq	r3, [r6, #8]
    e1a0:	05863010 	streq	r3, [r6, #16]
    e1a4:	e5943000 	ldr	r3, [r4]
    e1a8:	e5933010 	ldr	r3, [r3, #16]
    e1ac:	e3530000 	cmp	r3, #0
    e1b0:	0a00003c 	beq	e2a8 <deflate_slow+0x3e4>
    e1b4:	e5940074 	ldr	r0, [r4, #116]	; 0x74
    e1b8:	e150000b 	cmp	r0, fp
    e1bc:	8affff49 	bhi	dee8 <deflate_slow+0x24>
    e1c0:	e1a00004 	mov	r0, r4
    e1c4:	ebfffbf8 	bl	d1ac <fill_window>
    e1c8:	e5943074 	ldr	r3, [r4, #116]	; 0x74
    e1cc:	e153000b 	cmp	r3, fp
    e1d0:	8affff44 	bhi	dee8 <deflate_slow+0x24>
    e1d4:	e59d500c 	ldr	r5, [sp, #12]
    e1d8:	e3550000 	cmp	r5, #0
    e1dc:	0a000031 	beq	e2a8 <deflate_slow+0x3e4>
    e1e0:	e3530000 	cmp	r3, #0
    e1e4:	0a00007d 	beq	e3e0 <deflate_slow+0x51c>
    e1e8:	e3530002 	cmp	r3, #2
    e1ec:	8affff3d 	bhi	dee8 <deflate_slow+0x24>
    e1f0:	e5943060 	ldr	r3, [r4, #96]	; 0x60
    e1f4:	e5941070 	ldr	r1, [r4, #112]	; 0x70
    e1f8:	e3a02002 	mov	r2, #2
    e1fc:	e3530002 	cmp	r3, #2
    e200:	e5842060 	str	r2, [r4, #96]	; 0x60
    e204:	e5843078 	str	r3, [r4, #120]	; 0x78
    e208:	e5841064 	str	r1, [r4, #100]	; 0x64
    e20c:	e594206c 	ldr	r2, [r4, #108]	; 0x6c
    e210:	8affff5a 	bhi	df80 <deflate_slow+0xbc>
    e214:	e5943068 	ldr	r3, [r4, #104]	; 0x68
    e218:	e3530000 	cmp	r3, #0
    e21c:	0a000024 	beq	e2b4 <deflate_slow+0x3f0>
    e220:	e5941038 	ldr	r1, [r4, #56]	; 0x38
    e224:	e7943009 	ldr	r3, [r4, r9]
    e228:	e0812002 	add	r2, r1, r2
    e22c:	e59f13e0 	ldr	r1, [pc, #992]	; e614 <deflate_slow+0x750>
    e230:	e5520001 	ldrb	r0, [r2, #-1]
    e234:	e59f23e4 	ldr	r2, [pc, #996]	; e620 <deflate_slow+0x75c>
    e238:	e794c001 	ldr	ip, [r4, r1]
    e23c:	e7945002 	ldr	r5, [r4, r2]
    e240:	e3a01000 	mov	r1, #0
    e244:	e1a02083 	lsl	r2, r3, #1
    e248:	e18c10b2 	strh	r1, [ip, r2]
    e24c:	e280c024 	add	ip, r0, #36	; 0x24
    e250:	e2832001 	add	r2, r3, #1
    e254:	e7c50003 	strb	r0, [r5, r3]
    e258:	e084310c 	add	r3, r4, ip, lsl #2
    e25c:	e7842009 	str	r2, [r4, r9]
    e260:	e1d3c0b4 	ldrh	ip, [r3, #4]
    e264:	e59f03b0 	ldr	r0, [pc, #944]	; e61c <deflate_slow+0x758>
    e268:	e28cc001 	add	ip, ip, #1
    e26c:	e1c3c0b4 	strh	ip, [r3, #4]
    e270:	e7943000 	ldr	r3, [r4, r0]
    e274:	e2433001 	sub	r3, r3, #1
    e278:	e1520003 	cmp	r2, r3
    e27c:	0a000014 	beq	e2d4 <deflate_slow+0x410>
    e280:	e5942000 	ldr	r2, [r4]
    e284:	e594306c 	ldr	r3, [r4, #108]	; 0x6c
    e288:	e5922010 	ldr	r2, [r2, #16]
    e28c:	e5940074 	ldr	r0, [r4, #116]	; 0x74
    e290:	e2833001 	add	r3, r3, #1
    e294:	e2400001 	sub	r0, r0, #1
    e298:	e3520000 	cmp	r2, #0
    e29c:	e584306c 	str	r3, [r4, #108]	; 0x6c
    e2a0:	e5840074 	str	r0, [r4, #116]	; 0x74
    e2a4:	1affff0d 	bne	dee0 <deflate_slow+0x1c>
    e2a8:	e3a00000 	mov	r0, #0
    e2ac:	e28dd014 	add	sp, sp, #20
    e2b0:	e8bd8ff0 	pop	{r4, r5, r6, r7, r8, r9, sl, fp, pc}
    e2b4:	e5940074 	ldr	r0, [r4, #116]	; 0x74
    e2b8:	e2822001 	add	r2, r2, #1
    e2bc:	e2400001 	sub	r0, r0, #1
    e2c0:	e3a03001 	mov	r3, #1
    e2c4:	e584206c 	str	r2, [r4, #108]	; 0x6c
    e2c8:	e5840074 	str	r0, [r4, #116]	; 0x74
    e2cc:	e5843068 	str	r3, [r4, #104]	; 0x68
    e2d0:	eaffff02 	b	dee0 <deflate_slow+0x1c>
    e2d4:	e594305c 	ldr	r3, [r4, #92]	; 0x5c
    e2d8:	e594206c 	ldr	r2, [r4, #108]	; 0x6c
    e2dc:	e1530001 	cmp	r3, r1
    e2e0:	a5941038 	ldrge	r1, [r4, #56]	; 0x38
    e2e4:	e0632002 	rsb	r2, r3, r2
    e2e8:	a0811003 	addge	r1, r1, r3
    e2ec:	e1a00004 	mov	r0, r4
    e2f0:	e3a03000 	mov	r3, #0
    e2f4:	eb0010b3 	bl	125c8 <_tr_flush_block>
    e2f8:	e5945000 	ldr	r5, [r4]
    e2fc:	e594306c 	ldr	r3, [r4, #108]	; 0x6c
    e300:	e5956018 	ldr	r6, [r5, #24]
    e304:	e584305c 	str	r3, [r4, #92]	; 0x5c
    e308:	e1a00006 	mov	r0, r6
    e30c:	eb001023 	bl	123a0 <_tr_flush_bits>
    e310:	e5963014 	ldr	r3, [r6, #20]
    e314:	e5957010 	ldr	r7, [r5, #16]
    e318:	e1570003 	cmp	r7, r3
    e31c:	21a07003 	movcs	r7, r3
    e320:	e3570000 	cmp	r7, #0
    e324:	0affffd5 	beq	e280 <deflate_slow+0x3bc>
    e328:	e1a02007 	mov	r2, r7
    e32c:	e595000c 	ldr	r0, [r5, #12]
    e330:	e5961010 	ldr	r1, [r6, #16]
    e334:	ebffe834 	bl	840c <xmemcpy>
    e338:	e5963014 	ldr	r3, [r6, #20]
    e33c:	e5961010 	ldr	r1, [r6, #16]
    e340:	e595000c 	ldr	r0, [r5, #12]
    e344:	e5952014 	ldr	r2, [r5, #20]
    e348:	e595c010 	ldr	ip, [r5, #16]
    e34c:	e0673003 	rsb	r3, r7, r3
    e350:	e0800007 	add	r0, r0, r7
    e354:	e0811007 	add	r1, r1, r7
    e358:	e0822007 	add	r2, r2, r7
    e35c:	e3530000 	cmp	r3, #0
    e360:	e067700c 	rsb	r7, r7, ip
    e364:	e585000c 	str	r0, [r5, #12]
    e368:	e5861010 	str	r1, [r6, #16]
    e36c:	e5852014 	str	r2, [r5, #20]
    e370:	e5857010 	str	r7, [r5, #16]
    e374:	e5863014 	str	r3, [r6, #20]
    e378:	05963008 	ldreq	r3, [r6, #8]
    e37c:	05863010 	streq	r3, [r6, #16]
    e380:	eaffffbe 	b	e280 <deflate_slow+0x3bc>
    e384:	e1a00004 	mov	r0, r4
    e388:	ebfffacb 	bl	cebc <longest_match>
    e38c:	e3500005 	cmp	r0, #5
    e390:	e5840060 	str	r0, [r4, #96]	; 0x60
    e394:	8a000005 	bhi	e3b0 <deflate_slow+0x4ec>
    e398:	e5943088 	ldr	r3, [r4, #136]	; 0x88
    e39c:	e3530001 	cmp	r3, #1
    e3a0:	0594206c 	ldreq	r2, [r4, #108]	; 0x6c
    e3a4:	0a000009 	beq	e3d0 <deflate_slow+0x50c>
    e3a8:	e3500003 	cmp	r0, #3
    e3ac:	0a000002 	beq	e3bc <deflate_slow+0x4f8>
    e3b0:	e5943078 	ldr	r3, [r4, #120]	; 0x78
    e3b4:	e594206c 	ldr	r2, [r4, #108]	; 0x6c
    e3b8:	eafffeee 	b	df78 <deflate_slow+0xb4>
    e3bc:	e594206c 	ldr	r2, [r4, #108]	; 0x6c
    e3c0:	e5943070 	ldr	r3, [r4, #112]	; 0x70
    e3c4:	e0633002 	rsb	r3, r3, r2
    e3c8:	e3530a01 	cmp	r3, #4096	; 0x1000
    e3cc:	9a000044 	bls	e4e4 <deflate_slow+0x620>
    e3d0:	e3a01002 	mov	r1, #2
    e3d4:	e5943078 	ldr	r3, [r4, #120]	; 0x78
    e3d8:	e5841060 	str	r1, [r4, #96]	; 0x60
    e3dc:	eafffee5 	b	df78 <deflate_slow+0xb4>
    e3e0:	e5942068 	ldr	r2, [r4, #104]	; 0x68
    e3e4:	e3520000 	cmp	r2, #0
    e3e8:	1a00003f 	bne	e4ec <deflate_slow+0x628>
    e3ec:	e594306c 	ldr	r3, [r4, #108]	; 0x6c
    e3f0:	e59d500c 	ldr	r5, [sp, #12]
    e3f4:	e59f2228 	ldr	r2, [pc, #552]	; e624 <deflate_slow+0x760>
    e3f8:	e3530002 	cmp	r3, #2
    e3fc:	31a01003 	movcc	r1, r3
    e400:	23a01002 	movcs	r1, #2
    e404:	e3550004 	cmp	r5, #4
    e408:	e7841002 	str	r1, [r4, r2]
    e40c:	0a00004c 	beq	e544 <deflate_slow+0x680>
    e410:	e59f21f4 	ldr	r2, [pc, #500]	; e60c <deflate_slow+0x748>
    e414:	e7942002 	ldr	r2, [r4, r2]
    e418:	e3520000 	cmp	r2, #0
    e41c:	03a00001 	moveq	r0, #1
    e420:	0affffa1 	beq	e2ac <deflate_slow+0x3e8>
    e424:	e594205c 	ldr	r2, [r4, #92]	; 0x5c
    e428:	e1a00004 	mov	r0, r4
    e42c:	e3520000 	cmp	r2, #0
    e430:	a5941038 	ldrge	r1, [r4, #56]	; 0x38
    e434:	b3a01000 	movlt	r1, #0
    e438:	a0811002 	addge	r1, r1, r2
    e43c:	e0622003 	rsb	r2, r2, r3
    e440:	e3a03000 	mov	r3, #0
    e444:	eb00105f 	bl	125c8 <_tr_flush_block>
    e448:	e5946000 	ldr	r6, [r4]
    e44c:	e594306c 	ldr	r3, [r4, #108]	; 0x6c
    e450:	e5965018 	ldr	r5, [r6, #24]
    e454:	e584305c 	str	r3, [r4, #92]	; 0x5c
    e458:	e1a00005 	mov	r0, r5
    e45c:	eb000fcf 	bl	123a0 <_tr_flush_bits>
    e460:	e5953014 	ldr	r3, [r5, #20]
    e464:	e5967010 	ldr	r7, [r6, #16]
    e468:	e1570003 	cmp	r7, r3
    e46c:	21a07003 	movcs	r7, r3
    e470:	e3570000 	cmp	r7, #0
    e474:	0a000015 	beq	e4d0 <deflate_slow+0x60c>
    e478:	e1a02007 	mov	r2, r7
    e47c:	e596000c 	ldr	r0, [r6, #12]
    e480:	e5951010 	ldr	r1, [r5, #16]
    e484:	ebffe7e0 	bl	840c <xmemcpy>
    e488:	e5953014 	ldr	r3, [r5, #20]
    e48c:	e5951010 	ldr	r1, [r5, #16]
    e490:	e596000c 	ldr	r0, [r6, #12]
    e494:	e5962014 	ldr	r2, [r6, #20]
    e498:	e596c010 	ldr	ip, [r6, #16]
    e49c:	e0673003 	rsb	r3, r7, r3
    e4a0:	e0800007 	add	r0, r0, r7
    e4a4:	e0811007 	add	r1, r1, r7
    e4a8:	e0822007 	add	r2, r2, r7
    e4ac:	e3530000 	cmp	r3, #0
    e4b0:	e067700c 	rsb	r7, r7, ip
    e4b4:	e586000c 	str	r0, [r6, #12]
    e4b8:	e5851010 	str	r1, [r5, #16]
    e4bc:	e5862014 	str	r2, [r6, #20]
    e4c0:	e5867010 	str	r7, [r6, #16]
    e4c4:	e5853014 	str	r3, [r5, #20]
    e4c8:	05953008 	ldreq	r3, [r5, #8]
    e4cc:	05853010 	streq	r3, [r5, #16]
    e4d0:	e5943000 	ldr	r3, [r4]
    e4d4:	e5930010 	ldr	r0, [r3, #16]
    e4d8:	e2900000 	adds	r0, r0, #0
    e4dc:	13a00001 	movne	r0, #1
    e4e0:	eaffff71 	b	e2ac <deflate_slow+0x3e8>
    e4e4:	e5943078 	ldr	r3, [r4, #120]	; 0x78
    e4e8:	eafffea2 	b	df78 <deflate_slow+0xb4>
    e4ec:	e5941038 	ldr	r1, [r4, #56]	; 0x38
    e4f0:	e594206c 	ldr	r2, [r4, #108]	; 0x6c
    e4f4:	e59f0110 	ldr	r0, [pc, #272]	; e60c <deflate_slow+0x748>
    e4f8:	e0812002 	add	r2, r1, r2
    e4fc:	e59f5110 	ldr	r5, [pc, #272]	; e614 <deflate_slow+0x750>
    e500:	e59f1118 	ldr	r1, [pc, #280]	; e620 <deflate_slow+0x75c>
    e504:	e552c001 	ldrb	ip, [r2, #-1]
    e508:	e7942000 	ldr	r2, [r4, r0]
    e50c:	e7948005 	ldr	r8, [r4, r5]
    e510:	e7946001 	ldr	r6, [r4, r1]
    e514:	e1a07082 	lsl	r7, r2, #1
    e518:	e2825001 	add	r5, r2, #1
    e51c:	e28c1024 	add	r1, ip, #36	; 0x24
    e520:	e18830b7 	strh	r3, [r8, r7]
    e524:	e0841101 	add	r1, r4, r1, lsl #2
    e528:	e7c6c002 	strb	ip, [r6, r2]
    e52c:	e7845000 	str	r5, [r4, r0]
    e530:	e1d120b4 	ldrh	r2, [r1, #4]
    e534:	e2822001 	add	r2, r2, #1
    e538:	e1c120b4 	strh	r2, [r1, #4]
    e53c:	e5843068 	str	r3, [r4, #104]	; 0x68
    e540:	eaffffa9 	b	e3ec <deflate_slow+0x528>
    e544:	e594205c 	ldr	r2, [r4, #92]	; 0x5c
    e548:	e1a00004 	mov	r0, r4
    e54c:	e3520000 	cmp	r2, #0
    e550:	a5941038 	ldrge	r1, [r4, #56]	; 0x38
    e554:	b3a01000 	movlt	r1, #0
    e558:	a0811002 	addge	r1, r1, r2
    e55c:	e0622003 	rsb	r2, r2, r3
    e560:	e3a03001 	mov	r3, #1
    e564:	eb001017 	bl	125c8 <_tr_flush_block>
    e568:	e5946000 	ldr	r6, [r4]
    e56c:	e594306c 	ldr	r3, [r4, #108]	; 0x6c
    e570:	e5965018 	ldr	r5, [r6, #24]
    e574:	e584305c 	str	r3, [r4, #92]	; 0x5c
    e578:	e1a00005 	mov	r0, r5
    e57c:	eb000f87 	bl	123a0 <_tr_flush_bits>
    e580:	e5953014 	ldr	r3, [r5, #20]
    e584:	e5967010 	ldr	r7, [r6, #16]
    e588:	e1570003 	cmp	r7, r3
    e58c:	21a07003 	movcs	r7, r3
    e590:	e3570000 	cmp	r7, #0
    e594:	0a000015 	beq	e5f0 <deflate_slow+0x72c>
    e598:	e1a02007 	mov	r2, r7
    e59c:	e596000c 	ldr	r0, [r6, #12]
    e5a0:	e5951010 	ldr	r1, [r5, #16]
    e5a4:	ebffe798 	bl	840c <xmemcpy>
    e5a8:	e5953014 	ldr	r3, [r5, #20]
    e5ac:	e5951010 	ldr	r1, [r5, #16]
    e5b0:	e596000c 	ldr	r0, [r6, #12]
    e5b4:	e5962014 	ldr	r2, [r6, #20]
    e5b8:	e596c010 	ldr	ip, [r6, #16]
    e5bc:	e0673003 	rsb	r3, r7, r3
    e5c0:	e0800007 	add	r0, r0, r7
    e5c4:	e0811007 	add	r1, r1, r7
    e5c8:	e0822007 	add	r2, r2, r7
    e5cc:	e3530000 	cmp	r3, #0
    e5d0:	e067700c 	rsb	r7, r7, ip
    e5d4:	e586000c 	str	r0, [r6, #12]
    e5d8:	e5851010 	str	r1, [r5, #16]
    e5dc:	e5862014 	str	r2, [r6, #20]
    e5e0:	e5867010 	str	r7, [r6, #16]
    e5e4:	e5853014 	str	r3, [r5, #20]
    e5e8:	05953008 	ldreq	r3, [r5, #8]
    e5ec:	05853010 	streq	r3, [r5, #16]
    e5f0:	e5943000 	ldr	r3, [r4]
    e5f4:	e5930010 	ldr	r0, [r3, #16]
    e5f8:	e3500000 	cmp	r0, #0
    e5fc:	13a00003 	movne	r0, #3
    e600:	03a00002 	moveq	r0, #2
    e604:	eaffff28 	b	e2ac <deflate_slow+0x3e8>
    e608:	00000105 	andeq	r0, r0, r5, lsl #2
    e60c:	000016a0 	andeq	r1, r0, r0, lsr #13
    e610:	00014058 	andeq	r4, r1, r8, asr r0
    e614:	000016a4 	andeq	r1, r0, r4, lsr #13
    e618:	00014240 	andeq	r4, r1, r0, asr #4
    e61c:	0000169c 	muleq	r0, ip, r6
    e620:	00001698 	muleq	r0, r8, r6
    e624:	000016b4 			; <UNDEFINED> instruction: 0x000016b4

0000e628 <deflateSetDictionary>:
    e628:	e92d4ff0 	push	{r4, r5, r6, r7, r8, r9, sl, fp, lr}
    e62c:	e3500000 	cmp	r0, #0
    e630:	e24dd014 	sub	sp, sp, #20
    e634:	e58d0000 	str	r0, [sp]
    e638:	e1a05001 	mov	r5, r1
    e63c:	e1a06002 	mov	r6, r2
    e640:	0a00007b 	beq	e834 <deflateSetDictionary+0x20c>
    e644:	e5904018 	ldr	r4, [r0, #24]
    e648:	e3540000 	cmp	r4, #0
    e64c:	0a000078 	beq	e834 <deflateSetDictionary+0x20c>
    e650:	e3510000 	cmp	r1, #0
    e654:	0a000076 	beq	e834 <deflateSetDictionary+0x20c>
    e658:	e5943018 	ldr	r3, [r4, #24]
    e65c:	e3530002 	cmp	r3, #2
    e660:	e58d3004 	str	r3, [sp, #4]
    e664:	0a000072 	beq	e834 <deflateSetDictionary+0x20c>
    e668:	e3530001 	cmp	r3, #1
    e66c:	0a000050 	beq	e7b4 <deflateSetDictionary+0x18c>
    e670:	e5942074 	ldr	r2, [r4, #116]	; 0x74
    e674:	e3520000 	cmp	r2, #0
    e678:	1a00006d 	bne	e834 <deflateSetDictionary+0x20c>
    e67c:	e594302c 	ldr	r3, [r4, #44]	; 0x2c
    e680:	e5842018 	str	r2, [r4, #24]
    e684:	e1560003 	cmp	r6, r3
    e688:	2a000042 	bcs	e798 <deflateSetDictionary+0x170>
    e68c:	e59d3000 	ldr	r3, [sp]
    e690:	e59d2000 	ldr	r2, [sp]
    e694:	e5933000 	ldr	r3, [r3]
    e698:	e5922004 	ldr	r2, [r2, #4]
    e69c:	e58d300c 	str	r3, [sp, #12]
    e6a0:	e59d3000 	ldr	r3, [sp]
    e6a4:	e1a00004 	mov	r0, r4
    e6a8:	e8830060 	stm	r3, {r5, r6}
    e6ac:	e58d2008 	str	r2, [sp, #8]
    e6b0:	ebfffabd 	bl	d1ac <fill_window>
    e6b4:	e5941074 	ldr	r1, [r4, #116]	; 0x74
    e6b8:	e3510002 	cmp	r1, #2
    e6bc:	9a000020 	bls	e744 <deflateSetDictionary+0x11c>
    e6c0:	e3a05002 	mov	r5, #2
    e6c4:	e594306c 	ldr	r3, [r4, #108]	; 0x6c
    e6c8:	e594c038 	ldr	ip, [r4, #56]	; 0x38
    e6cc:	e2437002 	sub	r7, r3, #2
    e6d0:	e5942048 	ldr	r2, [r4, #72]	; 0x48
    e6d4:	e594b058 	ldr	fp, [r4, #88]	; 0x58
    e6d8:	e5949054 	ldr	r9, [r4, #84]	; 0x54
    e6dc:	e594a040 	ldr	sl, [r4, #64]	; 0x40
    e6e0:	e5948034 	ldr	r8, [r4, #52]	; 0x34
    e6e4:	e5940044 	ldr	r0, [r4, #68]	; 0x44
    e6e8:	e0877001 	add	r7, r7, r1
    e6ec:	e08c1003 	add	r1, ip, r3
    e6f0:	e5d1c002 	ldrb	ip, [r1, #2]
    e6f4:	e003e008 	and	lr, r3, r8
    e6f8:	e02c2b12 	eor	r2, ip, r2, lsl fp
    e6fc:	e0022009 	and	r2, r2, r9
    e700:	e1a0c082 	lsl	ip, r2, #1
    e704:	e19060bc 	ldrh	r6, [r0, ip]
    e708:	e1a0e08e 	lsl	lr, lr, #1
    e70c:	e5842048 	str	r2, [r4, #72]	; 0x48
    e710:	e18a60be 	strh	r6, [sl, lr]
    e714:	e18030bc 	strh	r3, [r0, ip]
    e718:	e2833001 	add	r3, r3, #1
    e71c:	e1530007 	cmp	r3, r7
    e720:	e2811001 	add	r1, r1, #1
    e724:	1afffff1 	bne	e6f0 <deflateSetDictionary+0xc8>
    e728:	e584306c 	str	r3, [r4, #108]	; 0x6c
    e72c:	e5845074 	str	r5, [r4, #116]	; 0x74
    e730:	e1a00004 	mov	r0, r4
    e734:	ebfffa9c 	bl	d1ac <fill_window>
    e738:	e5941074 	ldr	r1, [r4, #116]	; 0x74
    e73c:	e3510002 	cmp	r1, #2
    e740:	8affffdf 	bhi	e6c4 <deflateSetDictionary+0x9c>
    e744:	e594206c 	ldr	r2, [r4, #108]	; 0x6c
    e748:	e59fc0ec 	ldr	ip, [pc, #236]	; e83c <deflateSetDictionary+0x214>
    e74c:	e3a03002 	mov	r3, #2
    e750:	e0812002 	add	r2, r1, r2
    e754:	e784100c 	str	r1, [r4, ip]
    e758:	e5843078 	str	r3, [r4, #120]	; 0x78
    e75c:	e5843060 	str	r3, [r4, #96]	; 0x60
    e760:	e59d100c 	ldr	r1, [sp, #12]
    e764:	e59d3000 	ldr	r3, [sp]
    e768:	e3a00000 	mov	r0, #0
    e76c:	e584206c 	str	r2, [r4, #108]	; 0x6c
    e770:	e584205c 	str	r2, [r4, #92]	; 0x5c
    e774:	e5840074 	str	r0, [r4, #116]	; 0x74
    e778:	e5840068 	str	r0, [r4, #104]	; 0x68
    e77c:	e5831000 	str	r1, [r3]
    e780:	e59d1008 	ldr	r1, [sp, #8]
    e784:	e5831004 	str	r1, [r3, #4]
    e788:	e59d3004 	ldr	r3, [sp, #4]
    e78c:	e5843018 	str	r3, [r4, #24]
    e790:	e28dd014 	add	sp, sp, #20
    e794:	e8bd8ff0 	pop	{r4, r5, r6, r7, r8, r9, sl, fp, pc}
    e798:	e59d2004 	ldr	r2, [sp, #4]
    e79c:	e3520000 	cmp	r2, #0
    e7a0:	0a000013 	beq	e7f4 <deflateSetDictionary+0x1cc>
    e7a4:	e0636006 	rsb	r6, r3, r6
    e7a8:	e0855006 	add	r5, r5, r6
    e7ac:	e1a06003 	mov	r6, r3
    e7b0:	eaffffb5 	b	e68c <deflateSetDictionary+0x64>
    e7b4:	e5943004 	ldr	r3, [r4, #4]
    e7b8:	e353002a 	cmp	r3, #42	; 0x2a
    e7bc:	1a00001c 	bne	e834 <deflateSetDictionary+0x20c>
    e7c0:	e5947074 	ldr	r7, [r4, #116]	; 0x74
    e7c4:	e3570000 	cmp	r7, #0
    e7c8:	1a000019 	bne	e834 <deflateSetDictionary+0x20c>
    e7cc:	e59d3000 	ldr	r3, [sp]
    e7d0:	e593002c 	ldr	r0, [r3, #44]	; 0x2c
    e7d4:	ebfff3a7 	bl	b678 <adler32>
    e7d8:	e594302c 	ldr	r3, [r4, #44]	; 0x2c
    e7dc:	e59d1000 	ldr	r1, [sp]
    e7e0:	e1560003 	cmp	r6, r3
    e7e4:	e581002c 	str	r0, [r1, #44]	; 0x2c
    e7e8:	e5847018 	str	r7, [r4, #24]
    e7ec:	2affffec 	bcs	e7a4 <deflateSetDictionary+0x17c>
    e7f0:	eaffffa5 	b	e68c <deflateSetDictionary+0x64>
    e7f4:	e1a01002 	mov	r1, r2
    e7f8:	e594304c 	ldr	r3, [r4, #76]	; 0x4c
    e7fc:	e5942044 	ldr	r2, [r4, #68]	; 0x44
    e800:	e1a00002 	mov	r0, r2
    e804:	e0822083 	add	r2, r2, r3, lsl #1
    e808:	e2433106 	sub	r3, r3, #-2147483647	; 0x80000001
    e80c:	e14210b2 	strh	r1, [r2, #-2]
    e810:	e1a02083 	lsl	r2, r3, #1
    e814:	ebffe72a 	bl	84c4 <xmemset>
    e818:	e59d1004 	ldr	r1, [sp, #4]
    e81c:	e59f2018 	ldr	r2, [pc, #24]	; e83c <deflateSetDictionary+0x214>
    e820:	e594302c 	ldr	r3, [r4, #44]	; 0x2c
    e824:	e584106c 	str	r1, [r4, #108]	; 0x6c
    e828:	e584105c 	str	r1, [r4, #92]	; 0x5c
    e82c:	e7841002 	str	r1, [r4, r2]
    e830:	eaffffdb 	b	e7a4 <deflateSetDictionary+0x17c>
    e834:	e3e00001 	mvn	r0, #1
    e838:	eaffffd4 	b	e790 <deflateSetDictionary+0x168>
    e83c:	000016b4 			; <UNDEFINED> instruction: 0x000016b4

0000e840 <deflateResetKeep>:
    e840:	e92d4070 	push	{r4, r5, r6, lr}
    e844:	e2505000 	subs	r5, r0, #0
    e848:	0a00002c 	beq	e900 <deflateResetKeep+0xc0>
    e84c:	e5954018 	ldr	r4, [r5, #24]
    e850:	e3540000 	cmp	r4, #0
    e854:	0a000029 	beq	e900 <deflateResetKeep+0xc0>
    e858:	e595301c 	ldr	r3, [r5, #28]
    e85c:	e3530000 	cmp	r3, #0
    e860:	0a000026 	beq	e900 <deflateResetKeep+0xc0>
    e864:	e5953020 	ldr	r3, [r5, #32]
    e868:	e3530000 	cmp	r3, #0
    e86c:	0a000023 	beq	e900 <deflateResetKeep+0xc0>
    e870:	e5942018 	ldr	r2, [r4, #24]
    e874:	e5941008 	ldr	r1, [r4, #8]
    e878:	e3a03000 	mov	r3, #0
    e87c:	e3a00002 	mov	r0, #2
    e880:	e1520003 	cmp	r2, r3
    e884:	e5853014 	str	r3, [r5, #20]
    e888:	e5853008 	str	r3, [r5, #8]
    e88c:	e5850028 	str	r0, [r5, #40]	; 0x28
    e890:	e5843014 	str	r3, [r4, #20]
    e894:	e5841010 	str	r1, [r4, #16]
    e898:	ba00000d 	blt	e8d4 <deflateResetKeep+0x94>
    e89c:	03a03071 	moveq	r3, #113	; 0x71
    e8a0:	05843004 	streq	r3, [r4, #4]
    e8a4:	1a00000c 	bne	e8dc <deflateResetKeep+0x9c>
    e8a8:	e3a00000 	mov	r0, #0
    e8ac:	e1a01000 	mov	r1, r0
    e8b0:	e1a02000 	mov	r2, r0
    e8b4:	ebfff36f 	bl	b678 <adler32>
    e8b8:	e3a06000 	mov	r6, #0
    e8bc:	e585002c 	str	r0, [r5, #44]	; 0x2c
    e8c0:	e1a00004 	mov	r0, r4
    e8c4:	e5846028 	str	r6, [r4, #40]	; 0x28
    e8c8:	eb000e14 	bl	12120 <_tr_init>
    e8cc:	e1a00006 	mov	r0, r6
    e8d0:	e8bd8070 	pop	{r4, r5, r6, pc}
    e8d4:	e2622000 	rsb	r2, r2, #0
    e8d8:	e5842018 	str	r2, [r4, #24]
    e8dc:	e3a0302a 	mov	r3, #42	; 0x2a
    e8e0:	e3520002 	cmp	r2, #2
    e8e4:	e5843004 	str	r3, [r4, #4]
    e8e8:	1affffee 	bne	e8a8 <deflateResetKeep+0x68>
    e8ec:	e3a00000 	mov	r0, #0
    e8f0:	e1a01000 	mov	r1, r0
    e8f4:	e1a02000 	mov	r2, r0
    e8f8:	ebfff311 	bl	b544 <crc32>
    e8fc:	eaffffed 	b	e8b8 <deflateResetKeep+0x78>
    e900:	e3e00001 	mvn	r0, #1
    e904:	e8bd8070 	pop	{r4, r5, r6, pc}

0000e908 <deflateReset>:
    e908:	e92d4070 	push	{r4, r5, r6, lr}
    e90c:	e2506000 	subs	r6, r0, #0
    e910:	0a000050 	beq	ea58 <deflateReset+0x150>
    e914:	e5964018 	ldr	r4, [r6, #24]
    e918:	e3540000 	cmp	r4, #0
    e91c:	0a00004d 	beq	ea58 <deflateReset+0x150>
    e920:	e596301c 	ldr	r3, [r6, #28]
    e924:	e3530000 	cmp	r3, #0
    e928:	0a00004a 	beq	ea58 <deflateReset+0x150>
    e92c:	e5963020 	ldr	r3, [r6, #32]
    e930:	e3530000 	cmp	r3, #0
    e934:	0a000047 	beq	ea58 <deflateReset+0x150>
    e938:	e5942018 	ldr	r2, [r4, #24]
    e93c:	e5941008 	ldr	r1, [r4, #8]
    e940:	e3a03000 	mov	r3, #0
    e944:	e3a00002 	mov	r0, #2
    e948:	e1520003 	cmp	r2, r3
    e94c:	e5863014 	str	r3, [r6, #20]
    e950:	e5863008 	str	r3, [r6, #8]
    e954:	e5860028 	str	r0, [r6, #40]	; 0x28
    e958:	e5843014 	str	r3, [r4, #20]
    e95c:	e5841010 	str	r1, [r4, #16]
    e960:	ba000031 	blt	ea2c <deflateReset+0x124>
    e964:	03a03071 	moveq	r3, #113	; 0x71
    e968:	05843004 	streq	r3, [r4, #4]
    e96c:	1a000030 	bne	ea34 <deflateReset+0x12c>
    e970:	e3a00000 	mov	r0, #0
    e974:	e1a01000 	mov	r1, r0
    e978:	e1a02000 	mov	r2, r0
    e97c:	ebfff33d 	bl	b678 <adler32>
    e980:	e3a05000 	mov	r5, #0
    e984:	e586002c 	str	r0, [r6, #44]	; 0x2c
    e988:	e1a00004 	mov	r0, r4
    e98c:	e5845028 	str	r5, [r4, #40]	; 0x28
    e990:	eb000de2 	bl	12120 <_tr_init>
    e994:	e5964018 	ldr	r4, [r6, #24]
    e998:	e1a01005 	mov	r1, r5
    e99c:	e594204c 	ldr	r2, [r4, #76]	; 0x4c
    e9a0:	e594c02c 	ldr	ip, [r4, #44]	; 0x2c
    e9a4:	e5940044 	ldr	r0, [r4, #68]	; 0x44
    e9a8:	e2423001 	sub	r3, r2, #1
    e9ac:	e1a0c08c 	lsl	ip, ip, #1
    e9b0:	e1a03083 	lsl	r3, r3, #1
    e9b4:	e2422106 	sub	r2, r2, #-2147483647	; 0x80000001
    e9b8:	e584c03c 	str	ip, [r4, #60]	; 0x3c
    e9bc:	e1a02082 	lsl	r2, r2, #1
    e9c0:	e18050b3 	strh	r5, [r0, r3]
    e9c4:	ebffe6be 	bl	84c4 <xmemset>
    e9c8:	e5942084 	ldr	r2, [r4, #132]	; 0x84
    e9cc:	e59f108c 	ldr	r1, [pc, #140]	; ea60 <deflateReset+0x158>
    e9d0:	e0822082 	add	r2, r2, r2, lsl #1
    e9d4:	e1a02102 	lsl	r2, r2, #2
    e9d8:	e0813002 	add	r3, r1, r2
    e9dc:	e19160b2 	ldrh	r6, [r1, r2]
    e9e0:	e1d300b4 	ldrh	r0, [r3, #4]
    e9e4:	e1d3c0b2 	ldrh	ip, [r3, #2]
    e9e8:	e1d310b6 	ldrh	r1, [r3, #6]
    e9ec:	e59f2070 	ldr	r2, [pc, #112]	; ea64 <deflateReset+0x15c>
    e9f0:	e3a03002 	mov	r3, #2
    e9f4:	e5840090 	str	r0, [r4, #144]	; 0x90
    e9f8:	e584506c 	str	r5, [r4, #108]	; 0x6c
    e9fc:	e584505c 	str	r5, [r4, #92]	; 0x5c
    ea00:	e5845074 	str	r5, [r4, #116]	; 0x74
    ea04:	e5845068 	str	r5, [r4, #104]	; 0x68
    ea08:	e5845048 	str	r5, [r4, #72]	; 0x48
    ea0c:	e584608c 	str	r6, [r4, #140]	; 0x8c
    ea10:	e584c080 	str	ip, [r4, #128]	; 0x80
    ea14:	e584107c 	str	r1, [r4, #124]	; 0x7c
    ea18:	e7845002 	str	r5, [r4, r2]
    ea1c:	e1a00005 	mov	r0, r5
    ea20:	e5843078 	str	r3, [r4, #120]	; 0x78
    ea24:	e5843060 	str	r3, [r4, #96]	; 0x60
    ea28:	e8bd8070 	pop	{r4, r5, r6, pc}
    ea2c:	e2622000 	rsb	r2, r2, #0
    ea30:	e5842018 	str	r2, [r4, #24]
    ea34:	e3a0302a 	mov	r3, #42	; 0x2a
    ea38:	e3520002 	cmp	r2, #2
    ea3c:	e5843004 	str	r3, [r4, #4]
    ea40:	1affffca 	bne	e970 <deflateReset+0x68>
    ea44:	e3a00000 	mov	r0, #0
    ea48:	e1a01000 	mov	r1, r0
    ea4c:	e1a02000 	mov	r2, r0
    ea50:	ebfff2bb 	bl	b544 <crc32>
    ea54:	eaffffc9 	b	e980 <deflateReset+0x78>
    ea58:	e3e00001 	mvn	r0, #1
    ea5c:	e8bd8070 	pop	{r4, r5, r6, pc}
    ea60:	00013f9c 	muleq	r1, ip, pc	; <UNPREDICTABLE>
    ea64:	000016b4 			; <UNDEFINED> instruction: 0x000016b4

0000ea68 <deflateSetHeader>:
    ea68:	e3500000 	cmp	r0, #0
    ea6c:	0a000008 	beq	ea94 <deflateSetHeader+0x2c>
    ea70:	e5903018 	ldr	r3, [r0, #24]
    ea74:	e3530000 	cmp	r3, #0
    ea78:	0a000005 	beq	ea94 <deflateSetHeader+0x2c>
    ea7c:	e5932018 	ldr	r2, [r3, #24]
    ea80:	e3520002 	cmp	r2, #2
    ea84:	1a000002 	bne	ea94 <deflateSetHeader+0x2c>
    ea88:	e583101c 	str	r1, [r3, #28]
    ea8c:	e3a00000 	mov	r0, #0
    ea90:	e12fff1e 	bx	lr
    ea94:	e3e00001 	mvn	r0, #1
    ea98:	e12fff1e 	bx	lr

0000ea9c <deflatePending>:
    ea9c:	e3500000 	cmp	r0, #0
    eaa0:	0a00000e 	beq	eae0 <deflatePending+0x44>
    eaa4:	e5903018 	ldr	r3, [r0, #24]
    eaa8:	e3530000 	cmp	r3, #0
    eaac:	0a00000b 	beq	eae0 <deflatePending+0x44>
    eab0:	e3510000 	cmp	r1, #0
    eab4:	15930014 	ldrne	r0, [r3, #20]
    eab8:	15810000 	strne	r0, [r1]
    eabc:	e3520000 	cmp	r2, #0
    eac0:	0a000004 	beq	ead8 <deflatePending+0x3c>
    eac4:	e59f101c 	ldr	r1, [pc, #28]	; eae8 <deflatePending+0x4c>
    eac8:	e3a00000 	mov	r0, #0
    eacc:	e7933001 	ldr	r3, [r3, r1]
    ead0:	e5823000 	str	r3, [r2]
    ead4:	e12fff1e 	bx	lr
    ead8:	e1a00002 	mov	r0, r2
    eadc:	e12fff1e 	bx	lr
    eae0:	e3e00001 	mvn	r0, #1
    eae4:	e12fff1e 	bx	lr
    eae8:	000016bc 			; <UNDEFINED> instruction: 0x000016bc

0000eaec <deflatePrime>:
    eaec:	e3500000 	cmp	r0, #0
    eaf0:	e92d47f0 	push	{r4, r5, r6, r7, r8, r9, sl, lr}
    eaf4:	e1a06001 	mov	r6, r1
    eaf8:	e1a07002 	mov	r7, r2
    eafc:	0a000021 	beq	eb88 <deflatePrime+0x9c>
    eb00:	e5905018 	ldr	r5, [r0, #24]
    eb04:	e3550000 	cmp	r5, #0
    eb08:	0a00001e 	beq	eb88 <deflatePrime+0x9c>
    eb0c:	e59f207c 	ldr	r2, [pc, #124]	; eb90 <deflatePrime+0xa4>
    eb10:	e5953010 	ldr	r3, [r5, #16]
    eb14:	e7952002 	ldr	r2, [r5, r2]
    eb18:	e2833002 	add	r3, r3, #2
    eb1c:	e1520003 	cmp	r2, r3
    eb20:	3a000016 	bcc	eb80 <deflatePrime+0x94>
    eb24:	e59fa068 	ldr	sl, [pc, #104]	; eb94 <deflatePrime+0xa8>
    eb28:	e59f8068 	ldr	r8, [pc, #104]	; eb98 <deflatePrime+0xac>
    eb2c:	e3a09001 	mov	r9, #1
    eb30:	e795300a 	ldr	r3, [r5, sl]
    eb34:	e19510b8 	ldrh	r1, [r5, r8]
    eb38:	e2634010 	rsb	r4, r3, #16
    eb3c:	e1560004 	cmp	r6, r4
    eb40:	b1a04006 	movlt	r4, r6
    eb44:	a1a04004 	movge	r4, r4
    eb48:	e1a02419 	lsl	r2, r9, r4
    eb4c:	e2422001 	sub	r2, r2, #1
    eb50:	e0022007 	and	r2, r2, r7
    eb54:	e1812312 	orr	r2, r1, r2, lsl r3
    eb58:	e0833004 	add	r3, r3, r4
    eb5c:	e18520b8 	strh	r2, [r5, r8]
    eb60:	e785300a 	str	r3, [r5, sl]
    eb64:	e1a00005 	mov	r0, r5
    eb68:	eb000e0c 	bl	123a0 <_tr_flush_bits>
    eb6c:	e0566004 	subs	r6, r6, r4
    eb70:	e1a07457 	asr	r7, r7, r4
    eb74:	1affffed 	bne	eb30 <deflatePrime+0x44>
    eb78:	e1a00006 	mov	r0, r6
    eb7c:	e8bd87f0 	pop	{r4, r5, r6, r7, r8, r9, sl, pc}
    eb80:	e3e00004 	mvn	r0, #4
    eb84:	e8bd87f0 	pop	{r4, r5, r6, r7, r8, r9, sl, pc}
    eb88:	e3e00001 	mvn	r0, #1
    eb8c:	e8bd87f0 	pop	{r4, r5, r6, r7, r8, r9, sl, pc}
    eb90:	000016a4 	andeq	r1, r0, r4, lsr #13
    eb94:	000016bc 			; <UNDEFINED> instruction: 0x000016bc
    eb98:	000016b8 			; <UNDEFINED> instruction: 0x000016b8

0000eb9c <deflateTune>:
    eb9c:	e3500000 	cmp	r0, #0
    eba0:	0a000009 	beq	ebcc <deflateTune+0x30>
    eba4:	e5900018 	ldr	r0, [r0, #24]
    eba8:	e3500000 	cmp	r0, #0
    ebac:	0a000006 	beq	ebcc <deflateTune+0x30>
    ebb0:	e5803090 	str	r3, [r0, #144]	; 0x90
    ebb4:	e59d3000 	ldr	r3, [sp]
    ebb8:	e580108c 	str	r1, [r0, #140]	; 0x8c
    ebbc:	e5802080 	str	r2, [r0, #128]	; 0x80
    ebc0:	e580307c 	str	r3, [r0, #124]	; 0x7c
    ebc4:	e3a00000 	mov	r0, #0
    ebc8:	e12fff1e 	bx	lr
    ebcc:	e3e00001 	mvn	r0, #1
    ebd0:	e12fff1e 	bx	lr

0000ebd4 <deflateBound>:
    ebd4:	e281303f 	add	r3, r1, #63	; 0x3f
    ebd8:	e92d0070 	push	{r4, r5, r6}
    ebdc:	e1a03323 	lsr	r3, r3, #6
    ebe0:	e2814007 	add	r4, r1, #7
    ebe4:	e08331a4 	add	r3, r3, r4, lsr #3
    ebe8:	e3500000 	cmp	r0, #0
    ebec:	e0836001 	add	r6, r3, r1
    ebf0:	0a00003b 	beq	ece4 <deflateBound+0x110>
    ebf4:	e5902018 	ldr	r2, [r0, #24]
    ebf8:	e3520000 	cmp	r2, #0
    ebfc:	0a000038 	beq	ece4 <deflateBound+0x110>
    ec00:	e5923018 	ldr	r3, [r2, #24]
    ec04:	e3530001 	cmp	r3, #1
    ec08:	0a000030 	beq	ecd0 <deflateBound+0xfc>
    ec0c:	e3530002 	cmp	r3, #2
    ec10:	0a000009 	beq	ec3c <deflateBound+0x68>
    ec14:	e3530000 	cmp	r3, #0
    ec18:	13a03006 	movne	r3, #6
    ec1c:	03a03000 	moveq	r3, #0
    ec20:	e5920030 	ldr	r0, [r2, #48]	; 0x30
    ec24:	e350000f 	cmp	r0, #15
    ec28:	0a000020 	beq	ecb0 <deflateBound+0xdc>
    ec2c:	e2860005 	add	r0, r6, #5
    ec30:	e0800003 	add	r0, r0, r3
    ec34:	e8bd0070 	pop	{r4, r5, r6}
    ec38:	e12fff1e 	bx	lr
    ec3c:	e592001c 	ldr	r0, [r2, #28]
    ec40:	e3500000 	cmp	r0, #0
    ec44:	03a03012 	moveq	r3, #18
    ec48:	0afffff4 	beq	ec20 <deflateBound+0x4c>
    ec4c:	e5903010 	ldr	r3, [r0, #16]
    ec50:	e590c01c 	ldr	ip, [r0, #28]
    ec54:	e3530000 	cmp	r3, #0
    ec58:	15903014 	ldrne	r3, [r0, #20]
    ec5c:	03a03012 	moveq	r3, #18
    ec60:	12833014 	addne	r3, r3, #20
    ec64:	e35c0000 	cmp	ip, #0
    ec68:	0a000003 	beq	ec7c <deflateBound+0xa8>
    ec6c:	e4dc5001 	ldrb	r5, [ip], #1
    ec70:	e2833001 	add	r3, r3, #1
    ec74:	e3550000 	cmp	r5, #0
    ec78:	1afffffb 	bne	ec6c <deflateBound+0x98>
    ec7c:	e590c024 	ldr	ip, [r0, #36]	; 0x24
    ec80:	e35c0000 	cmp	ip, #0
    ec84:	0a000003 	beq	ec98 <deflateBound+0xc4>
    ec88:	e4dc5001 	ldrb	r5, [ip], #1
    ec8c:	e2833001 	add	r3, r3, #1
    ec90:	e3550000 	cmp	r5, #0
    ec94:	1afffffb 	bne	ec88 <deflateBound+0xb4>
    ec98:	e590002c 	ldr	r0, [r0, #44]	; 0x2c
    ec9c:	e3500000 	cmp	r0, #0
    eca0:	e5920030 	ldr	r0, [r2, #48]	; 0x30
    eca4:	12833002 	addne	r3, r3, #2
    eca8:	e350000f 	cmp	r0, #15
    ecac:	1affffde 	bne	ec2c <deflateBound+0x58>
    ecb0:	e5922050 	ldr	r2, [r2, #80]	; 0x50
    ecb4:	e352000f 	cmp	r2, #15
    ecb8:	1affffdb 	bne	ec2c <deflateBound+0x58>
    ecbc:	e0840621 	add	r0, r4, r1, lsr #12
    ecc0:	e0800721 	add	r0, r0, r1, lsr #14
    ecc4:	e0801ca1 	add	r1, r0, r1, lsr #25
    ecc8:	e0810003 	add	r0, r1, r3
    eccc:	eaffffd8 	b	ec34 <deflateBound+0x60>
    ecd0:	e592306c 	ldr	r3, [r2, #108]	; 0x6c
    ecd4:	e3530000 	cmp	r3, #0
    ecd8:	03a03006 	moveq	r3, #6
    ecdc:	13a0300a 	movne	r3, #10
    ece0:	eaffffce 	b	ec20 <deflateBound+0x4c>
    ece4:	e286000b 	add	r0, r6, #11
    ece8:	eaffffd1 	b	ec34 <deflateBound+0x60>

0000ecec <deflate>:
    ecec:	e92d4ff0 	push	{r4, r5, r6, r7, r8, r9, sl, fp, lr}
    ecf0:	e250b000 	subs	fp, r0, #0
    ecf4:	e24dd01c 	sub	sp, sp, #28
    ecf8:	e58d1008 	str	r1, [sp, #8]
    ecfc:	0a000084 	beq	ef14 <deflate+0x228>
    ed00:	e59b4018 	ldr	r4, [fp, #24]
    ed04:	e3540000 	cmp	r4, #0
    ed08:	0a000081 	beq	ef14 <deflate+0x228>
    ed0c:	e3510005 	cmp	r1, #5
    ed10:	8a00007f 	bhi	ef14 <deflate+0x228>
    ed14:	e59b300c 	ldr	r3, [fp, #12]
    ed18:	e3530000 	cmp	r3, #0
    ed1c:	0a00007c 	beq	ef14 <deflate+0x228>
    ed20:	e59b3000 	ldr	r3, [fp]
    ed24:	e3530000 	cmp	r3, #0
    ed28:	0a000316 	beq	f988 <deflate+0xc9c>
    ed2c:	e5943004 	ldr	r3, [r4, #4]
    ed30:	e59f2ea0 	ldr	r2, [pc, #3744]	; fbd8 <deflate+0xeec>
    ed34:	e1530002 	cmp	r3, r2
    ed38:	0a000072 	beq	ef08 <deflate+0x21c>
    ed3c:	e59b2010 	ldr	r2, [fp, #16]
    ed40:	e3520000 	cmp	r2, #0
    ed44:	0a0001e7 	beq	f4e8 <deflate+0x7fc>
    ed48:	e59d1008 	ldr	r1, [sp, #8]
    ed4c:	e353002a 	cmp	r3, #42	; 0x2a
    ed50:	e5945028 	ldr	r5, [r4, #40]	; 0x28
    ed54:	e584b000 	str	fp, [r4]
    ed58:	e5841028 	str	r1, [r4, #40]	; 0x28
    ed5c:	0a0000db 	beq	f0d0 <deflate+0x3e4>
    ed60:	e3530045 	cmp	r3, #69	; 0x45
    ed64:	15940014 	ldrne	r0, [r4, #20]
    ed68:	0a000118 	beq	f1d0 <deflate+0x4e4>
    ed6c:	e3530049 	cmp	r3, #73	; 0x49
    ed70:	0a00016e 	beq	f330 <deflate+0x644>
    ed74:	e353005b 	cmp	r3, #91	; 0x5b
    ed78:	0a0001ea 	beq	f528 <deflate+0x83c>
    ed7c:	e3530067 	cmp	r3, #103	; 0x67
    ed80:	0a00035e 	beq	fb00 <deflate+0xe14>
    ed84:	e3500000 	cmp	r0, #0
    ed88:	1a000063 	bne	ef1c <deflate+0x230>
    ed8c:	e59b3004 	ldr	r3, [fp, #4]
    ed90:	e3530000 	cmp	r3, #0
    ed94:	1a0001cd 	bne	f4d0 <deflate+0x7e4>
    ed98:	e59d0008 	ldr	r0, [sp, #8]
    ed9c:	e3500005 	cmp	r0, #5
    eda0:	03a03009 	moveq	r3, #9
    eda4:	13a03000 	movne	r3, #0
    eda8:	e3550004 	cmp	r5, #4
    edac:	c3a02009 	movgt	r2, #9
    edb0:	d3a02000 	movle	r2, #0
    edb4:	e0633080 	rsb	r3, r3, r0, lsl #1
    edb8:	e0625085 	rsb	r5, r2, r5, lsl #1
    edbc:	e1530005 	cmp	r3, r5
    edc0:	ca000001 	bgt	edcc <deflate+0xe0>
    edc4:	e3500004 	cmp	r0, #4
    edc8:	1a0001c6 	bne	f4e8 <deflate+0x7fc>
    edcc:	e5942004 	ldr	r2, [r4, #4]
    edd0:	e5941074 	ldr	r1, [r4, #116]	; 0x74
    edd4:	e3510000 	cmp	r1, #0
    edd8:	1a000061 	bne	ef64 <deflate+0x278>
    eddc:	e59d1008 	ldr	r1, [sp, #8]
    ede0:	e3510000 	cmp	r1, #0
    ede4:	0a000074 	beq	efbc <deflate+0x2d0>
    ede8:	e59f3de8 	ldr	r3, [pc, #3560]	; fbd8 <deflate+0xeec>
    edec:	e1520003 	cmp	r2, r3
    edf0:	1a00005b 	bne	ef64 <deflate+0x278>
    edf4:	e59d1008 	ldr	r1, [sp, #8]
    edf8:	e3510004 	cmp	r1, #4
    edfc:	1a00006e 	bne	efbc <deflate+0x2d0>
    ee00:	e5943018 	ldr	r3, [r4, #24]
    ee04:	e3530000 	cmp	r3, #0
    ee08:	d3a00001 	movle	r0, #1
    ee0c:	da0000ad 	ble	f0c8 <deflate+0x3dc>
    ee10:	e3530002 	cmp	r3, #2
    ee14:	0a000456 	beq	ff74 <deflate+0x1288>
    ee18:	e59b202c 	ldr	r2, [fp, #44]	; 0x2c
    ee1c:	e5943014 	ldr	r3, [r4, #20]
    ee20:	e5941008 	ldr	r1, [r4, #8]
    ee24:	e1a00c22 	lsr	r0, r2, #24
    ee28:	e7c10003 	strb	r0, [r1, r3]
    ee2c:	e5940008 	ldr	r0, [r4, #8]
    ee30:	e2831001 	add	r1, r3, #1
    ee34:	e1a02822 	lsr	r2, r2, #16
    ee38:	e7c02001 	strb	r2, [r0, r1]
    ee3c:	e59b202c 	ldr	r2, [fp, #44]	; 0x2c
    ee40:	e5940008 	ldr	r0, [r4, #8]
    ee44:	e1a02802 	lsl	r2, r2, #16
    ee48:	e2831002 	add	r1, r3, #2
    ee4c:	e1a0cc22 	lsr	ip, r2, #24
    ee50:	e7c0c001 	strb	ip, [r0, r1]
    ee54:	e5940008 	ldr	r0, [r4, #8]
    ee58:	e2831003 	add	r1, r3, #3
    ee5c:	e1a02822 	lsr	r2, r2, #16
    ee60:	e2833004 	add	r3, r3, #4
    ee64:	e7c02001 	strb	r2, [r0, r1]
    ee68:	e5843014 	str	r3, [r4, #20]
    ee6c:	e59b5018 	ldr	r5, [fp, #24]
    ee70:	e1a00005 	mov	r0, r5
    ee74:	eb000d49 	bl	123a0 <_tr_flush_bits>
    ee78:	e5953014 	ldr	r3, [r5, #20]
    ee7c:	e59b6010 	ldr	r6, [fp, #16]
    ee80:	e1560003 	cmp	r6, r3
    ee84:	21a06003 	movcs	r6, r3
    ee88:	e3560000 	cmp	r6, #0
    ee8c:	0a000015 	beq	eee8 <deflate+0x1fc>
    ee90:	e1a02006 	mov	r2, r6
    ee94:	e59b000c 	ldr	r0, [fp, #12]
    ee98:	e5951010 	ldr	r1, [r5, #16]
    ee9c:	ebffe55a 	bl	840c <xmemcpy>
    eea0:	e5953014 	ldr	r3, [r5, #20]
    eea4:	e5951010 	ldr	r1, [r5, #16]
    eea8:	e59b000c 	ldr	r0, [fp, #12]
    eeac:	e59b2014 	ldr	r2, [fp, #20]
    eeb0:	e59bc010 	ldr	ip, [fp, #16]
    eeb4:	e0663003 	rsb	r3, r6, r3
    eeb8:	e0800006 	add	r0, r0, r6
    eebc:	e0811006 	add	r1, r1, r6
    eec0:	e0822006 	add	r2, r2, r6
    eec4:	e3530000 	cmp	r3, #0
    eec8:	e066600c 	rsb	r6, r6, ip
    eecc:	e58b000c 	str	r0, [fp, #12]
    eed0:	e5851010 	str	r1, [r5, #16]
    eed4:	e58b2014 	str	r2, [fp, #20]
    eed8:	e58b6010 	str	r6, [fp, #16]
    eedc:	e5853014 	str	r3, [r5, #20]
    eee0:	05953008 	ldreq	r3, [r5, #8]
    eee4:	05853010 	streq	r3, [r5, #16]
    eee8:	e5943018 	ldr	r3, [r4, #24]
    eeec:	e5940014 	ldr	r0, [r4, #20]
    eef0:	e3530000 	cmp	r3, #0
    eef4:	c2633000 	rsbgt	r3, r3, #0
    eef8:	c5843018 	strgt	r3, [r4, #24]
    eefc:	e2700001 	rsbs	r0, r0, #1
    ef00:	33a00000 	movcc	r0, #0
    ef04:	ea00006f 	b	f0c8 <deflate+0x3dc>
    ef08:	e59d0008 	ldr	r0, [sp, #8]
    ef0c:	e3500004 	cmp	r0, #4
    ef10:	0affff89 	beq	ed3c <deflate+0x50>
    ef14:	e3e00001 	mvn	r0, #1
    ef18:	ea00006a 	b	f0c8 <deflate+0x3dc>
    ef1c:	e59b5018 	ldr	r5, [fp, #24]
    ef20:	e1a00005 	mov	r0, r5
    ef24:	eb000d1d 	bl	123a0 <_tr_flush_bits>
    ef28:	e5956014 	ldr	r6, [r5, #20]
    ef2c:	e59b0010 	ldr	r0, [fp, #16]
    ef30:	e1500006 	cmp	r0, r6
    ef34:	31a06000 	movcc	r6, r0
    ef38:	e3560000 	cmp	r6, #0
    ef3c:	1a0000fd 	bne	f338 <deflate+0x64c>
    ef40:	e3500000 	cmp	r0, #0
    ef44:	0a00005d 	beq	f0c0 <deflate+0x3d4>
    ef48:	e5942004 	ldr	r2, [r4, #4]
    ef4c:	e59f1c84 	ldr	r1, [pc, #3204]	; fbd8 <deflate+0xeec>
    ef50:	e59b3004 	ldr	r3, [fp, #4]
    ef54:	e1520001 	cmp	r2, r1
    ef58:	0a000160 	beq	f4e0 <deflate+0x7f4>
    ef5c:	e3530000 	cmp	r3, #0
    ef60:	0affff9a 	beq	edd0 <deflate+0xe4>
    ef64:	e5943088 	ldr	r3, [r4, #136]	; 0x88
    ef68:	e3530002 	cmp	r3, #2
    ef6c:	0a000311 	beq	fbb8 <deflate+0xecc>
    ef70:	e3530003 	cmp	r3, #3
    ef74:	0a0001a3 	beq	f608 <deflate+0x91c>
    ef78:	e5943084 	ldr	r3, [r4, #132]	; 0x84
    ef7c:	e59f2c58 	ldr	r2, [pc, #3160]	; fbdc <deflate+0xef0>
    ef80:	e0833083 	add	r3, r3, r3, lsl #1
    ef84:	e0823103 	add	r3, r2, r3, lsl #2
    ef88:	e5933008 	ldr	r3, [r3, #8]
    ef8c:	e1a00004 	mov	r0, r4
    ef90:	e59d1008 	ldr	r1, [sp, #8]
    ef94:	e12fff33 	blx	r3
    ef98:	e2402002 	sub	r2, r0, #2
    ef9c:	e3c03002 	bic	r3, r0, #2
    efa0:	e3520001 	cmp	r2, #1
    efa4:	9a000194 	bls	f5fc <deflate+0x910>
    efa8:	e3530000 	cmp	r3, #0
    efac:	1a000004 	bne	efc4 <deflate+0x2d8>
    efb0:	e59b0010 	ldr	r0, [fp, #16]
    efb4:	e3500000 	cmp	r0, #0
    efb8:	0a000040 	beq	f0c0 <deflate+0x3d4>
    efbc:	e3a00000 	mov	r0, #0
    efc0:	ea000040 	b	f0c8 <deflate+0x3dc>
    efc4:	e3500001 	cmp	r0, #1
    efc8:	1affff89 	bne	edf4 <deflate+0x108>
    efcc:	e59d3008 	ldr	r3, [sp, #8]
    efd0:	e3530001 	cmp	r3, #1
    efd4:	0a000497 	beq	10238 <deflate+0x154c>
    efd8:	e3530005 	cmp	r3, #5
    efdc:	0a000016 	beq	f03c <deflate+0x350>
    efe0:	e3a01000 	mov	r1, #0
    efe4:	e1a00004 	mov	r0, r4
    efe8:	e1a02001 	mov	r2, r1
    efec:	e1a03001 	mov	r3, r1
    eff0:	eb000c8a 	bl	12220 <_tr_stored_block>
    eff4:	e59d0008 	ldr	r0, [sp, #8]
    eff8:	e3500003 	cmp	r0, #3
    effc:	1a00000e 	bne	f03c <deflate+0x350>
    f000:	e594304c 	ldr	r3, [r4, #76]	; 0x4c
    f004:	e5940044 	ldr	r0, [r4, #68]	; 0x44
    f008:	e243c001 	sub	ip, r3, #1
    f00c:	e2432106 	sub	r2, r3, #-2147483647	; 0x80000001
    f010:	e1a0c08c 	lsl	ip, ip, #1
    f014:	e3a01000 	mov	r1, #0
    f018:	e1a02082 	lsl	r2, r2, #1
    f01c:	e18010bc 	strh	r1, [r0, ip]
    f020:	ebffe527 	bl	84c4 <xmemset>
    f024:	e5943074 	ldr	r3, [r4, #116]	; 0x74
    f028:	e3530000 	cmp	r3, #0
    f02c:	059f2bc8 	ldreq	r2, [pc, #3016]	; fbfc <deflate+0xf10>
    f030:	0584306c 	streq	r3, [r4, #108]	; 0x6c
    f034:	0584305c 	streq	r3, [r4, #92]	; 0x5c
    f038:	07843002 	streq	r3, [r4, r2]
    f03c:	e59b5018 	ldr	r5, [fp, #24]
    f040:	e1a00005 	mov	r0, r5
    f044:	eb000cd5 	bl	123a0 <_tr_flush_bits>
    f048:	e5956014 	ldr	r6, [r5, #20]
    f04c:	e59b0010 	ldr	r0, [fp, #16]
    f050:	e1500006 	cmp	r0, r6
    f054:	31a06000 	movcc	r6, r0
    f058:	e3560000 	cmp	r6, #0
    f05c:	0a000015 	beq	f0b8 <deflate+0x3cc>
    f060:	e59b000c 	ldr	r0, [fp, #12]
    f064:	e5951010 	ldr	r1, [r5, #16]
    f068:	e1a02006 	mov	r2, r6
    f06c:	ebffe4e6 	bl	840c <xmemcpy>
    f070:	e5953014 	ldr	r3, [r5, #20]
    f074:	e5951010 	ldr	r1, [r5, #16]
    f078:	e59bc00c 	ldr	ip, [fp, #12]
    f07c:	e59b2014 	ldr	r2, [fp, #20]
    f080:	e59b0010 	ldr	r0, [fp, #16]
    f084:	e0663003 	rsb	r3, r6, r3
    f088:	e3530000 	cmp	r3, #0
    f08c:	e08cc006 	add	ip, ip, r6
    f090:	e0811006 	add	r1, r1, r6
    f094:	e0822006 	add	r2, r2, r6
    f098:	e0660000 	rsb	r0, r6, r0
    f09c:	e58bc00c 	str	ip, [fp, #12]
    f0a0:	e5851010 	str	r1, [r5, #16]
    f0a4:	e58b2014 	str	r2, [fp, #20]
    f0a8:	e58b0010 	str	r0, [fp, #16]
    f0ac:	e5853014 	str	r3, [r5, #20]
    f0b0:	05953008 	ldreq	r3, [r5, #8]
    f0b4:	05853010 	streq	r3, [r5, #16]
    f0b8:	e3500000 	cmp	r0, #0
    f0bc:	1affff4c 	bne	edf4 <deflate+0x108>
    f0c0:	e3e03000 	mvn	r3, #0
    f0c4:	e5843028 	str	r3, [r4, #40]	; 0x28
    f0c8:	e28dd01c 	add	sp, sp, #28
    f0cc:	e8bd8ff0 	pop	{r4, r5, r6, r7, r8, r9, sl, fp, pc}
    f0d0:	e5946018 	ldr	r6, [r4, #24]
    f0d4:	e3560002 	cmp	r6, #2
    f0d8:	0a0003ca 	beq	10008 <deflate+0x131c>
    f0dc:	e5942030 	ldr	r2, [r4, #48]	; 0x30
    f0e0:	e5943088 	ldr	r3, [r4, #136]	; 0x88
    f0e4:	e1a02602 	lsl	r2, r2, #12
    f0e8:	e3530001 	cmp	r3, #1
    f0ec:	e2422b1e 	sub	r2, r2, #30720	; 0x7800
    f0f0:	da0000ec 	ble	f4a8 <deflate+0x7bc>
    f0f4:	e3a01000 	mov	r1, #0
    f0f8:	e594306c 	ldr	r3, [r4, #108]	; 0x6c
    f0fc:	e1812002 	orr	r2, r1, r2
    f100:	e3530000 	cmp	r3, #0
    f104:	e59f1ad4 	ldr	r1, [pc, #2772]	; fbe0 <deflate+0xef4>
    f108:	13822020 	orrne	r2, r2, #32
    f10c:	e081e291 	umull	lr, r1, r1, r2
    f110:	e0612002 	rsb	r2, r1, r2
    f114:	e08120a2 	add	r2, r1, r2, lsr #1
    f118:	e1a02222 	lsr	r2, r2, #4
    f11c:	e0622282 	rsb	r2, r2, r2, lsl #5
    f120:	e5943014 	ldr	r3, [r4, #20]
    f124:	e282201f 	add	r2, r2, #31
    f128:	e5941008 	ldr	r1, [r4, #8]
    f12c:	e1a00422 	lsr	r0, r2, #8
    f130:	e3a0c071 	mov	ip, #113	; 0x71
    f134:	e584c004 	str	ip, [r4, #4]
    f138:	e7c10003 	strb	r0, [r1, r3]
    f13c:	e5940008 	ldr	r0, [r4, #8]
    f140:	e2831001 	add	r1, r3, #1
    f144:	e7c02001 	strb	r2, [r0, r1]
    f148:	e594106c 	ldr	r1, [r4, #108]	; 0x6c
    f14c:	e2832002 	add	r2, r3, #2
    f150:	e3510000 	cmp	r1, #0
    f154:	e5842014 	str	r2, [r4, #20]
    f158:	0a000013 	beq	f1ac <deflate+0x4c0>
    f15c:	e59b102c 	ldr	r1, [fp, #44]	; 0x2c
    f160:	e5940008 	ldr	r0, [r4, #8]
    f164:	e1a0cc21 	lsr	ip, r1, #24
    f168:	e7c0c002 	strb	ip, [r0, r2]
    f16c:	e5940008 	ldr	r0, [r4, #8]
    f170:	e2832003 	add	r2, r3, #3
    f174:	e1a01821 	lsr	r1, r1, #16
    f178:	e7c01002 	strb	r1, [r0, r2]
    f17c:	e59b202c 	ldr	r2, [fp, #44]	; 0x2c
    f180:	e5940008 	ldr	r0, [r4, #8]
    f184:	e1a02802 	lsl	r2, r2, #16
    f188:	e2831004 	add	r1, r3, #4
    f18c:	e1a0cc22 	lsr	ip, r2, #24
    f190:	e7c0c001 	strb	ip, [r0, r1]
    f194:	e5940008 	ldr	r0, [r4, #8]
    f198:	e2831005 	add	r1, r3, #5
    f19c:	e1a02822 	lsr	r2, r2, #16
    f1a0:	e2833006 	add	r3, r3, #6
    f1a4:	e7c02001 	strb	r2, [r0, r1]
    f1a8:	e5843014 	str	r3, [r4, #20]
    f1ac:	e3a00000 	mov	r0, #0
    f1b0:	e1a01000 	mov	r1, r0
    f1b4:	e1a02000 	mov	r2, r0
    f1b8:	ebfff12e 	bl	b678 <adler32>
    f1bc:	e5943004 	ldr	r3, [r4, #4]
    f1c0:	e58b002c 	str	r0, [fp, #44]	; 0x2c
    f1c4:	e3530045 	cmp	r3, #69	; 0x45
    f1c8:	15940014 	ldrne	r0, [r4, #20]
    f1cc:	1afffee6 	bne	ed6c <deflate+0x80>
    f1d0:	e594601c 	ldr	r6, [r4, #28]
    f1d4:	e5941014 	ldr	r1, [r4, #20]
    f1d8:	e1a0c006 	mov	ip, r6
    f1dc:	e5963010 	ldr	r3, [r6, #16]
    f1e0:	e3530000 	cmp	r3, #0
    f1e4:	0a000339 	beq	fed0 <deflate+0x11e4>
    f1e8:	e1d621b4 	ldrh	r2, [r6, #20]
    f1ec:	e5943020 	ldr	r3, [r4, #32]
    f1f0:	e1520003 	cmp	r2, r3
    f1f4:	95942014 	ldrls	r2, [r4, #20]
    f1f8:	9a00003f 	bls	f2fc <deflate+0x610>
    f1fc:	e1a02001 	mov	r2, r1
    f200:	ea00000d 	b	f23c <deflate+0x550>
    f204:	e596c010 	ldr	ip, [r6, #16]
    f208:	e5940008 	ldr	r0, [r4, #8]
    f20c:	e7dc3003 	ldrb	r3, [ip, r3]
    f210:	e7c03002 	strb	r3, [r0, r2]
    f214:	e594c01c 	ldr	ip, [r4, #28]
    f218:	e5943020 	ldr	r3, [r4, #32]
    f21c:	e1dc01b4 	ldrh	r0, [ip, #20]
    f220:	e2833001 	add	r3, r3, #1
    f224:	e2822001 	add	r2, r2, #1
    f228:	e1500003 	cmp	r0, r3
    f22c:	e5842014 	str	r2, [r4, #20]
    f230:	e5843020 	str	r3, [r4, #32]
    f234:	e1a0600c 	mov	r6, ip
    f238:	9a00002f 	bls	f2fc <deflate+0x610>
    f23c:	e594000c 	ldr	r0, [r4, #12]
    f240:	e1500002 	cmp	r0, r2
    f244:	1affffee 	bne	f204 <deflate+0x518>
    f248:	e596302c 	ldr	r3, [r6, #44]	; 0x2c
    f24c:	e3530000 	cmp	r3, #0
    f250:	0a000001 	beq	f25c <deflate+0x570>
    f254:	e1520001 	cmp	r2, r1
    f258:	8a0001ce 	bhi	f998 <deflate+0xcac>
    f25c:	e59b6018 	ldr	r6, [fp, #24]
    f260:	e1a00006 	mov	r0, r6
    f264:	eb000c4d 	bl	123a0 <_tr_flush_bits>
    f268:	e5963014 	ldr	r3, [r6, #20]
    f26c:	e59b7010 	ldr	r7, [fp, #16]
    f270:	e1570003 	cmp	r7, r3
    f274:	21a07003 	movcs	r7, r3
    f278:	e3570000 	cmp	r7, #0
    f27c:	0a000015 	beq	f2d8 <deflate+0x5ec>
    f280:	e1a02007 	mov	r2, r7
    f284:	e59b000c 	ldr	r0, [fp, #12]
    f288:	e5961010 	ldr	r1, [r6, #16]
    f28c:	ebffe45e 	bl	840c <xmemcpy>
    f290:	e5963014 	ldr	r3, [r6, #20]
    f294:	e5961010 	ldr	r1, [r6, #16]
    f298:	e59b000c 	ldr	r0, [fp, #12]
    f29c:	e59b2014 	ldr	r2, [fp, #20]
    f2a0:	e59bc010 	ldr	ip, [fp, #16]
    f2a4:	e0673003 	rsb	r3, r7, r3
    f2a8:	e0800007 	add	r0, r0, r7
    f2ac:	e0811007 	add	r1, r1, r7
    f2b0:	e0822007 	add	r2, r2, r7
    f2b4:	e3530000 	cmp	r3, #0
    f2b8:	e067700c 	rsb	r7, r7, ip
    f2bc:	e58b000c 	str	r0, [fp, #12]
    f2c0:	e5861010 	str	r1, [r6, #16]
    f2c4:	e58b2014 	str	r2, [fp, #20]
    f2c8:	e58b7010 	str	r7, [fp, #16]
    f2cc:	e5863014 	str	r3, [r6, #20]
    f2d0:	05963008 	ldreq	r3, [r6, #8]
    f2d4:	05863010 	streq	r3, [r6, #16]
    f2d8:	e5941014 	ldr	r1, [r4, #20]
    f2dc:	e594300c 	ldr	r3, [r4, #12]
    f2e0:	e1a02001 	mov	r2, r1
    f2e4:	e1510003 	cmp	r1, r3
    f2e8:	1594601c 	ldrne	r6, [r4, #28]
    f2ec:	15943020 	ldrne	r3, [r4, #32]
    f2f0:	11a02001 	movne	r2, r1
    f2f4:	1affffc2 	bne	f204 <deflate+0x518>
    f2f8:	e594c01c 	ldr	ip, [r4, #28]
    f2fc:	e59c302c 	ldr	r3, [ip, #44]	; 0x2c
    f300:	e3530000 	cmp	r3, #0
    f304:	0a000001 	beq	f310 <deflate+0x624>
    f308:	e1510002 	cmp	r1, r2
    f30c:	3a0002e0 	bcc	fe94 <deflate+0x11a8>
    f310:	e5941020 	ldr	r1, [r4, #32]
    f314:	e59c3014 	ldr	r3, [ip, #20]
    f318:	e1510003 	cmp	r1, r3
    f31c:	0a00001c 	beq	f394 <deflate+0x6a8>
    f320:	e5943004 	ldr	r3, [r4, #4]
    f324:	e1a00002 	mov	r0, r2
    f328:	e3530049 	cmp	r3, #73	; 0x49
    f32c:	1afffe90 	bne	ed74 <deflate+0x88>
    f330:	e594c01c 	ldr	ip, [r4, #28]
    f334:	ea00001b 	b	f3a8 <deflate+0x6bc>
    f338:	e59b000c 	ldr	r0, [fp, #12]
    f33c:	e5951010 	ldr	r1, [r5, #16]
    f340:	e1a02006 	mov	r2, r6
    f344:	ebffe430 	bl	840c <xmemcpy>
    f348:	e5953014 	ldr	r3, [r5, #20]
    f34c:	e5951010 	ldr	r1, [r5, #16]
    f350:	e59bc00c 	ldr	ip, [fp, #12]
    f354:	e59b2014 	ldr	r2, [fp, #20]
    f358:	e59b0010 	ldr	r0, [fp, #16]
    f35c:	e0663003 	rsb	r3, r6, r3
    f360:	e3530000 	cmp	r3, #0
    f364:	e08cc006 	add	ip, ip, r6
    f368:	e0811006 	add	r1, r1, r6
    f36c:	e0822006 	add	r2, r2, r6
    f370:	e0660000 	rsb	r0, r6, r0
    f374:	e58bc00c 	str	ip, [fp, #12]
    f378:	e5851010 	str	r1, [r5, #16]
    f37c:	e58b2014 	str	r2, [fp, #20]
    f380:	e58b0010 	str	r0, [fp, #16]
    f384:	e5853014 	str	r3, [r5, #20]
    f388:	05953008 	ldreq	r3, [r5, #8]
    f38c:	05853010 	streq	r3, [r5, #16]
    f390:	eafffeea 	b	ef40 <deflate+0x254>
    f394:	e3a01000 	mov	r1, #0
    f398:	e3a03049 	mov	r3, #73	; 0x49
    f39c:	e1a00002 	mov	r0, r2
    f3a0:	e5841020 	str	r1, [r4, #32]
    f3a4:	e5843004 	str	r3, [r4, #4]
    f3a8:	e59c301c 	ldr	r3, [ip, #28]
    f3ac:	e3530000 	cmp	r3, #0
    f3b0:	0a0002c3 	beq	fec4 <deflate+0x11d8>
    f3b4:	e1a01000 	mov	r1, r0
    f3b8:	ea00000b 	b	f3ec <deflate+0x700>
    f3bc:	e59c301c 	ldr	r3, [ip, #28]
    f3c0:	e5942020 	ldr	r2, [r4, #32]
    f3c4:	e594c008 	ldr	ip, [r4, #8]
    f3c8:	e7d33002 	ldrb	r3, [r3, r2]
    f3cc:	e2822001 	add	r2, r2, #1
    f3d0:	e5842020 	str	r2, [r4, #32]
    f3d4:	e3530000 	cmp	r3, #0
    f3d8:	e7cc3000 	strb	r3, [ip, r0]
    f3dc:	e2800001 	add	r0, r0, #1
    f3e0:	e5840014 	str	r0, [r4, #20]
    f3e4:	0a000041 	beq	f4f0 <deflate+0x804>
    f3e8:	e594c01c 	ldr	ip, [r4, #28]
    f3ec:	e594300c 	ldr	r3, [r4, #12]
    f3f0:	e1530000 	cmp	r3, r0
    f3f4:	1afffff0 	bne	f3bc <deflate+0x6d0>
    f3f8:	e59c302c 	ldr	r3, [ip, #44]	; 0x2c
    f3fc:	e3530000 	cmp	r3, #0
    f400:	0a000001 	beq	f40c <deflate+0x720>
    f404:	e1510000 	cmp	r1, r0
    f408:	3a00029a 	bcc	fe78 <deflate+0x118c>
    f40c:	e59b6018 	ldr	r6, [fp, #24]
    f410:	e1a00006 	mov	r0, r6
    f414:	eb000be1 	bl	123a0 <_tr_flush_bits>
    f418:	e5963014 	ldr	r3, [r6, #20]
    f41c:	e59b7010 	ldr	r7, [fp, #16]
    f420:	e1570003 	cmp	r7, r3
    f424:	21a07003 	movcs	r7, r3
    f428:	e3570000 	cmp	r7, #0
    f42c:	0a000015 	beq	f488 <deflate+0x79c>
    f430:	e1a02007 	mov	r2, r7
    f434:	e59b000c 	ldr	r0, [fp, #12]
    f438:	e5961010 	ldr	r1, [r6, #16]
    f43c:	ebffe3f2 	bl	840c <xmemcpy>
    f440:	e5963014 	ldr	r3, [r6, #20]
    f444:	e5961010 	ldr	r1, [r6, #16]
    f448:	e59b000c 	ldr	r0, [fp, #12]
    f44c:	e59b2014 	ldr	r2, [fp, #20]
    f450:	e59bc010 	ldr	ip, [fp, #16]
    f454:	e0673003 	rsb	r3, r7, r3
    f458:	e0800007 	add	r0, r0, r7
    f45c:	e0811007 	add	r1, r1, r7
    f460:	e0822007 	add	r2, r2, r7
    f464:	e3530000 	cmp	r3, #0
    f468:	e067700c 	rsb	r7, r7, ip
    f46c:	e58b000c 	str	r0, [fp, #12]
    f470:	e5861010 	str	r1, [r6, #16]
    f474:	e58b2014 	str	r2, [fp, #20]
    f478:	e58b7010 	str	r7, [fp, #16]
    f47c:	e5863014 	str	r3, [r6, #20]
    f480:	05963008 	ldreq	r3, [r6, #8]
    f484:	05863010 	streq	r3, [r6, #16]
    f488:	e5941014 	ldr	r1, [r4, #20]
    f48c:	e594300c 	ldr	r3, [r4, #12]
    f490:	e1a02001 	mov	r2, r1
    f494:	e1510003 	cmp	r1, r3
    f498:	0a00035a 	beq	10208 <deflate+0x151c>
    f49c:	e594c01c 	ldr	ip, [r4, #28]
    f4a0:	e1a00001 	mov	r0, r1
    f4a4:	eaffffc4 	b	f3bc <deflate+0x6d0>
    f4a8:	e5941084 	ldr	r1, [r4, #132]	; 0x84
    f4ac:	e3510001 	cmp	r1, #1
    f4b0:	daffff0f 	ble	f0f4 <deflate+0x408>
    f4b4:	e3510005 	cmp	r1, #5
    f4b8:	d3a01040 	movle	r1, #64	; 0x40
    f4bc:	daffff0d 	ble	f0f8 <deflate+0x40c>
    f4c0:	e3510006 	cmp	r1, #6
    f4c4:	13a010c0 	movne	r1, #192	; 0xc0
    f4c8:	03a01080 	moveq	r1, #128	; 0x80
    f4cc:	eaffff09 	b	f0f8 <deflate+0x40c>
    f4d0:	e5942004 	ldr	r2, [r4, #4]
    f4d4:	e59f16fc 	ldr	r1, [pc, #1788]	; fbd8 <deflate+0xeec>
    f4d8:	e1520001 	cmp	r2, r1
    f4dc:	1afffea0 	bne	ef64 <deflate+0x278>
    f4e0:	e3530000 	cmp	r3, #0
    f4e4:	0afffe39 	beq	edd0 <deflate+0xe4>
    f4e8:	e3e00004 	mvn	r0, #4
    f4ec:	eafffef5 	b	f0c8 <deflate+0x3dc>
    f4f0:	e1a06003 	mov	r6, r3
    f4f4:	e1a02000 	mov	r2, r0
    f4f8:	e594301c 	ldr	r3, [r4, #28]
    f4fc:	e593302c 	ldr	r3, [r3, #44]	; 0x2c
    f500:	e3530000 	cmp	r3, #0
    f504:	0a000001 	beq	f510 <deflate+0x824>
    f508:	e1510002 	cmp	r1, r2
    f50c:	3a00032d 	bcc	101c8 <deflate+0x14dc>
    f510:	e3560000 	cmp	r6, #0
    f514:	0a000126 	beq	f9b4 <deflate+0xcc8>
    f518:	e5943004 	ldr	r3, [r4, #4]
    f51c:	e1a00002 	mov	r0, r2
    f520:	e353005b 	cmp	r3, #91	; 0x5b
    f524:	1afffe14 	bne	ed7c <deflate+0x90>
    f528:	e594c01c 	ldr	ip, [r4, #28]
    f52c:	ea000125 	b	f9c8 <deflate+0xcdc>
    f530:	e594305c 	ldr	r3, [r4, #92]	; 0x5c
    f534:	e3530000 	cmp	r3, #0
    f538:	ba000001 	blt	f544 <deflate+0x858>
    f53c:	e5941038 	ldr	r1, [r4, #56]	; 0x38
    f540:	e0811003 	add	r1, r1, r3
    f544:	e594206c 	ldr	r2, [r4, #108]	; 0x6c
    f548:	e1a00004 	mov	r0, r4
    f54c:	e0632002 	rsb	r2, r3, r2
    f550:	e3a03001 	mov	r3, #1
    f554:	eb000c1b 	bl	125c8 <_tr_flush_block>
    f558:	e5946000 	ldr	r6, [r4]
    f55c:	e594306c 	ldr	r3, [r4, #108]	; 0x6c
    f560:	e5965018 	ldr	r5, [r6, #24]
    f564:	e584305c 	str	r3, [r4, #92]	; 0x5c
    f568:	e1a00005 	mov	r0, r5
    f56c:	eb000b8b 	bl	123a0 <_tr_flush_bits>
    f570:	e5953014 	ldr	r3, [r5, #20]
    f574:	e5967010 	ldr	r7, [r6, #16]
    f578:	e1570003 	cmp	r7, r3
    f57c:	21a07003 	movcs	r7, r3
    f580:	e3570000 	cmp	r7, #0
    f584:	0a000015 	beq	f5e0 <deflate+0x8f4>
    f588:	e1a02007 	mov	r2, r7
    f58c:	e596000c 	ldr	r0, [r6, #12]
    f590:	e5951010 	ldr	r1, [r5, #16]
    f594:	ebffe39c 	bl	840c <xmemcpy>
    f598:	e5953014 	ldr	r3, [r5, #20]
    f59c:	e596000c 	ldr	r0, [r6, #12]
    f5a0:	e5951010 	ldr	r1, [r5, #16]
    f5a4:	e5962014 	ldr	r2, [r6, #20]
    f5a8:	e596c010 	ldr	ip, [r6, #16]
    f5ac:	e0673003 	rsb	r3, r7, r3
    f5b0:	e0800007 	add	r0, r0, r7
    f5b4:	e586000c 	str	r0, [r6, #12]
    f5b8:	e0811007 	add	r1, r1, r7
    f5bc:	e0822007 	add	r2, r2, r7
    f5c0:	e3530000 	cmp	r3, #0
    f5c4:	e067700c 	rsb	r7, r7, ip
    f5c8:	e5851010 	str	r1, [r5, #16]
    f5cc:	e5862014 	str	r2, [r6, #20]
    f5d0:	e5867010 	str	r7, [r6, #16]
    f5d4:	e5853014 	str	r3, [r5, #20]
    f5d8:	05953008 	ldreq	r3, [r5, #8]
    f5dc:	05853010 	streq	r3, [r5, #16]
    f5e0:	e5943000 	ldr	r3, [r4]
    f5e4:	e5933010 	ldr	r3, [r3, #16]
    f5e8:	e3530000 	cmp	r3, #0
    f5ec:	03a03000 	moveq	r3, #0
    f5f0:	13a03001 	movne	r3, #1
    f5f4:	13a00003 	movne	r0, #3
    f5f8:	03a00002 	moveq	r0, #2
    f5fc:	e59f25d4 	ldr	r2, [pc, #1492]	; fbd8 <deflate+0xeec>
    f600:	e5842004 	str	r2, [r4, #4]
    f604:	eafffe67 	b	efa8 <deflate+0x2bc>
    f608:	e5941074 	ldr	r1, [r4, #116]	; 0x74
    f60c:	e59f85d0 	ldr	r8, [pc, #1488]	; fbe4 <deflate+0xef8>
    f610:	e59f55e8 	ldr	r5, [pc, #1512]	; fc00 <deflate+0xf14>
    f614:	e59f75cc 	ldr	r7, [pc, #1484]	; fbe8 <deflate+0xefc>
    f618:	e59f65cc 	ldr	r6, [pc, #1484]	; fbec <deflate+0xf00>
    f61c:	e59fa5cc 	ldr	sl, [pc, #1484]	; fbf0 <deflate+0xf04>
    f620:	e59f95cc 	ldr	r9, [pc, #1484]	; fbf4 <deflate+0xf08>
    f624:	ea000028 	b	f6cc <deflate+0x9e0>
    f628:	e3a03000 	mov	r3, #0
    f62c:	e5843060 	str	r3, [r4, #96]	; 0x60
    f630:	e594306c 	ldr	r3, [r4, #108]	; 0x6c
    f634:	e5942038 	ldr	r2, [r4, #56]	; 0x38
    f638:	e3530000 	cmp	r3, #0
    f63c:	0a000005 	beq	f658 <deflate+0x96c>
    f640:	e2430001 	sub	r0, r3, #1
    f644:	e082e000 	add	lr, r2, r0
    f648:	e5dec001 	ldrb	ip, [lr, #1]
    f64c:	e7d20000 	ldrb	r0, [r2, r0]
    f650:	e150000c 	cmp	r0, ip
    f654:	0a00002f 	beq	f718 <deflate+0xa2c>
    f658:	e7d21003 	ldrb	r1, [r2, r3]
    f65c:	e7943005 	ldr	r3, [r4, r5]
    f660:	e7940007 	ldr	r0, [r4, r7]
    f664:	e794c006 	ldr	ip, [r4, r6]
    f668:	e1a02083 	lsl	r2, r3, #1
    f66c:	e3a0e000 	mov	lr, #0
    f670:	e180e0b2 	strh	lr, [r0, r2]
    f674:	e2832001 	add	r2, r3, #1
    f678:	e2810024 	add	r0, r1, #36	; 0x24
    f67c:	e7cc1003 	strb	r1, [ip, r3]
    f680:	e0843100 	add	r3, r4, r0, lsl #2
    f684:	e7842005 	str	r2, [r4, r5]
    f688:	e1d300b4 	ldrh	r0, [r3, #4]
    f68c:	e59f1564 	ldr	r1, [pc, #1380]	; fbf8 <deflate+0xf0c>
    f690:	e2800001 	add	r0, r0, #1
    f694:	e1c300b4 	strh	r0, [r3, #4]
    f698:	e7940001 	ldr	r0, [r4, r1]
    f69c:	e594306c 	ldr	r3, [r4, #108]	; 0x6c
    f6a0:	e2400001 	sub	r0, r0, #1
    f6a4:	e0520000 	subs	r0, r2, r0
    f6a8:	e5941074 	ldr	r1, [r4, #116]	; 0x74
    f6ac:	e2702000 	rsbs	r2, r0, #0
    f6b0:	e0b22000 	adcs	r2, r2, r0
    f6b4:	e2411001 	sub	r1, r1, #1
    f6b8:	e2833001 	add	r3, r3, #1
    f6bc:	e3520000 	cmp	r2, #0
    f6c0:	e5841074 	str	r1, [r4, #116]	; 0x74
    f6c4:	e584306c 	str	r3, [r4, #108]	; 0x6c
    f6c8:	1a000075 	bne	f8a4 <deflate+0xbb8>
    f6cc:	e1510008 	cmp	r1, r8
    f6d0:	8affffd4 	bhi	f628 <deflate+0x93c>
    f6d4:	e1a00004 	mov	r0, r4
    f6d8:	ebfff6b3 	bl	d1ac <fill_window>
    f6dc:	e5941074 	ldr	r1, [r4, #116]	; 0x74
    f6e0:	e1510008 	cmp	r1, r8
    f6e4:	8affffcf 	bhi	f628 <deflate+0x93c>
    f6e8:	e59d2008 	ldr	r2, [sp, #8]
    f6ec:	e3520000 	cmp	r2, #0
    f6f0:	0afffe2e 	beq	efb0 <deflate+0x2c4>
    f6f4:	e3510000 	cmp	r1, #0
    f6f8:	0a000121 	beq	fb84 <deflate+0xe98>
    f6fc:	e3a03000 	mov	r3, #0
    f700:	e3510002 	cmp	r1, #2
    f704:	e5843060 	str	r3, [r4, #96]	; 0x60
    f708:	8affffc8 	bhi	f630 <deflate+0x944>
    f70c:	e594306c 	ldr	r3, [r4, #108]	; 0x6c
    f710:	e5942038 	ldr	r2, [r4, #56]	; 0x38
    f714:	eaffffcf 	b	f658 <deflate+0x96c>
    f718:	e5dec002 	ldrb	ip, [lr, #2]
    f71c:	e150000c 	cmp	r0, ip
    f720:	1affffcc 	bne	f658 <deflate+0x96c>
    f724:	e5dec003 	ldrb	ip, [lr, #3]
    f728:	e150000c 	cmp	r0, ip
    f72c:	1affffc9 	bne	f658 <deflate+0x96c>
    f730:	e283cc01 	add	ip, r3, #256	; 0x100
    f734:	e28cc002 	add	ip, ip, #2
    f738:	e082c00c 	add	ip, r2, ip
    f73c:	e58d3014 	str	r3, [sp, #20]
    f740:	e28ee003 	add	lr, lr, #3
    f744:	e58dc00c 	str	ip, [sp, #12]
    f748:	e58d4010 	str	r4, [sp, #16]
    f74c:	e1a0300c 	mov	r3, ip
    f750:	ea000018 	b	f7b8 <deflate+0xacc>
    f754:	e5dec002 	ldrb	ip, [lr, #2]
    f758:	e150000c 	cmp	r0, ip
    f75c:	1a0002c5 	bne	10278 <deflate+0x158c>
    f760:	e5dec003 	ldrb	ip, [lr, #3]
    f764:	e150000c 	cmp	r0, ip
    f768:	1a0002be 	bne	10268 <deflate+0x157c>
    f76c:	e5dec004 	ldrb	ip, [lr, #4]
    f770:	e150000c 	cmp	r0, ip
    f774:	1a0002cf 	bne	102b8 <deflate+0x15cc>
    f778:	e5dec005 	ldrb	ip, [lr, #5]
    f77c:	e150000c 	cmp	r0, ip
    f780:	1a0002c8 	bne	102a8 <deflate+0x15bc>
    f784:	e5dec006 	ldrb	ip, [lr, #6]
    f788:	e150000c 	cmp	r0, ip
    f78c:	1a0002c1 	bne	10298 <deflate+0x15ac>
    f790:	e5dec007 	ldrb	ip, [lr, #7]
    f794:	e150000c 	cmp	r0, ip
    f798:	1a0002ba 	bne	10288 <deflate+0x159c>
    f79c:	e5dec008 	ldrb	ip, [lr, #8]
    f7a0:	e28ee008 	add	lr, lr, #8
    f7a4:	e150000c 	cmp	r0, ip
    f7a8:	e1a0c00e 	mov	ip, lr
    f7ac:	1a00029e 	bne	1022c <deflate+0x1540>
    f7b0:	e15e0003 	cmp	lr, r3
    f7b4:	2a00029c 	bcs	1022c <deflate+0x1540>
    f7b8:	e5dec001 	ldrb	ip, [lr, #1]
    f7bc:	e150000c 	cmp	r0, ip
    f7c0:	0affffe3 	beq	f754 <deflate+0xa68>
    f7c4:	e59d4010 	ldr	r4, [sp, #16]
    f7c8:	e59d3014 	ldr	r3, [sp, #20]
    f7cc:	e28ec001 	add	ip, lr, #1
    f7d0:	e59de00c 	ldr	lr, [sp, #12]
    f7d4:	e06e000c 	rsb	r0, lr, ip
    f7d8:	e2800c01 	add	r0, r0, #256	; 0x100
    f7dc:	e2800002 	add	r0, r0, #2
    f7e0:	e1510000 	cmp	r1, r0
    f7e4:	e5840060 	str	r0, [r4, #96]	; 0x60
    f7e8:	35841060 	strcc	r1, [r4, #96]	; 0x60
    f7ec:	31a00001 	movcc	r0, r1
    f7f0:	3a000001 	bcc	f7fc <deflate+0xb10>
    f7f4:	e3500002 	cmp	r0, #2
    f7f8:	9affff96 	bls	f658 <deflate+0x96c>
    f7fc:	e2401003 	sub	r1, r0, #3
    f800:	e7943005 	ldr	r3, [r4, r5]
    f804:	e6ef1071 	uxtb	r1, r1
    f808:	e794c007 	ldr	ip, [r4, r7]
    f80c:	e7da2001 	ldrb	r2, [sl, r1]
    f810:	e3a0e001 	mov	lr, #1
    f814:	e1a00083 	lsl	r0, r3, #1
    f818:	e18ce0b0 	strh	lr, [ip, r0]
    f81c:	e2822c01 	add	r2, r2, #256	; 0x100
    f820:	e794c006 	ldr	ip, [r4, r6]
    f824:	e083000e 	add	r0, r3, lr
    f828:	e2822025 	add	r2, r2, #37	; 0x25
    f82c:	e7cc1003 	strb	r1, [ip, r3]
    f830:	e0842102 	add	r2, r4, r2, lsl #2
    f834:	e7840005 	str	r0, [r4, r5]
    f838:	e5d93000 	ldrb	r3, [r9]
    f83c:	e1d210b4 	ldrh	r1, [r2, #4]
    f840:	e2833e26 	add	r3, r3, #608	; 0x260
    f844:	e081100e 	add	r1, r1, lr
    f848:	e2833002 	add	r3, r3, #2
    f84c:	e1c210b4 	strh	r1, [r2, #4]
    f850:	e1a03103 	lsl	r3, r3, #2
    f854:	e19410b3 	ldrh	r1, [r4, r3]
    f858:	e59f2398 	ldr	r2, [pc, #920]	; fbf8 <deflate+0xf0c>
    f85c:	e081100e 	add	r1, r1, lr
    f860:	e18410b3 	strh	r1, [r4, r3]
    f864:	e7942002 	ldr	r2, [r4, r2]
    f868:	e594c060 	ldr	ip, [r4, #96]	; 0x60
    f86c:	e2422001 	sub	r2, r2, #1
    f870:	e050e002 	subs	lr, r0, r2
    f874:	e5941074 	ldr	r1, [r4, #116]	; 0x74
    f878:	e594306c 	ldr	r3, [r4, #108]	; 0x6c
    f87c:	e27e2000 	rsbs	r2, lr, #0
    f880:	e0b2200e 	adcs	r2, r2, lr
    f884:	e06c1001 	rsb	r1, ip, r1
    f888:	e083300c 	add	r3, r3, ip
    f88c:	e3520000 	cmp	r2, #0
    f890:	e3a0c000 	mov	ip, #0
    f894:	e5841074 	str	r1, [r4, #116]	; 0x74
    f898:	e584306c 	str	r3, [r4, #108]	; 0x6c
    f89c:	e584c060 	str	ip, [r4, #96]	; 0x60
    f8a0:	0affff89 	beq	f6cc <deflate+0x9e0>
    f8a4:	e594205c 	ldr	r2, [r4, #92]	; 0x5c
    f8a8:	e1a00004 	mov	r0, r4
    f8ac:	e3520000 	cmp	r2, #0
    f8b0:	a5941038 	ldrge	r1, [r4, #56]	; 0x38
    f8b4:	b3a01000 	movlt	r1, #0
    f8b8:	a0811002 	addge	r1, r1, r2
    f8bc:	e0622003 	rsb	r2, r2, r3
    f8c0:	e3a03000 	mov	r3, #0
    f8c4:	eb000b3f 	bl	125c8 <_tr_flush_block>
    f8c8:	e5943000 	ldr	r3, [r4]
    f8cc:	e594206c 	ldr	r2, [r4, #108]	; 0x6c
    f8d0:	e593c018 	ldr	ip, [r3, #24]
    f8d4:	e584205c 	str	r2, [r4, #92]	; 0x5c
    f8d8:	e1a0000c 	mov	r0, ip
    f8dc:	e88d1008 	stm	sp, {r3, ip}
    f8e0:	eb000aae 	bl	123a0 <_tr_flush_bits>
    f8e4:	e59dc004 	ldr	ip, [sp, #4]
    f8e8:	e59d3000 	ldr	r3, [sp]
    f8ec:	e59c2014 	ldr	r2, [ip, #20]
    f8f0:	e5931010 	ldr	r1, [r3, #16]
    f8f4:	e1510002 	cmp	r1, r2
    f8f8:	21a01002 	movcs	r1, r2
    f8fc:	e3510000 	cmp	r1, #0
    f900:	e58d100c 	str	r1, [sp, #12]
    f904:	0a000019 	beq	f970 <deflate+0xc84>
    f908:	e1a02001 	mov	r2, r1
    f90c:	e593000c 	ldr	r0, [r3, #12]
    f910:	e59c1010 	ldr	r1, [ip, #16]
    f914:	ebffe2bc 	bl	840c <xmemcpy>
    f918:	e59d3000 	ldr	r3, [sp]
    f91c:	e59d100c 	ldr	r1, [sp, #12]
    f920:	e593000c 	ldr	r0, [r3, #12]
    f924:	e59dc004 	ldr	ip, [sp, #4]
    f928:	e0800001 	add	r0, r0, r1
    f92c:	e59c2014 	ldr	r2, [ip, #20]
    f930:	e583000c 	str	r0, [r3, #12]
    f934:	e59c0010 	ldr	r0, [ip, #16]
    f938:	e0612002 	rsb	r2, r1, r2
    f93c:	e0800001 	add	r0, r0, r1
    f940:	e58c0010 	str	r0, [ip, #16]
    f944:	e5930014 	ldr	r0, [r3, #20]
    f948:	e3520000 	cmp	r2, #0
    f94c:	e0801001 	add	r1, r0, r1
    f950:	e5831014 	str	r1, [r3, #20]
    f954:	e59d000c 	ldr	r0, [sp, #12]
    f958:	e5931010 	ldr	r1, [r3, #16]
    f95c:	e0601001 	rsb	r1, r0, r1
    f960:	e5831010 	str	r1, [r3, #16]
    f964:	059c3008 	ldreq	r3, [ip, #8]
    f968:	e58c2014 	str	r2, [ip, #20]
    f96c:	058c3010 	streq	r3, [ip, #16]
    f970:	e5943000 	ldr	r3, [r4]
    f974:	e5933010 	ldr	r3, [r3, #16]
    f978:	e3530000 	cmp	r3, #0
    f97c:	0afffd8b 	beq	efb0 <deflate+0x2c4>
    f980:	e5941074 	ldr	r1, [r4, #116]	; 0x74
    f984:	eaffff50 	b	f6cc <deflate+0x9e0>
    f988:	e59b3004 	ldr	r3, [fp, #4]
    f98c:	e3530000 	cmp	r3, #0
    f990:	0afffce5 	beq	ed2c <deflate+0x40>
    f994:	eafffd5e 	b	ef14 <deflate+0x228>
    f998:	e5943008 	ldr	r3, [r4, #8]
    f99c:	e0612002 	rsb	r2, r1, r2
    f9a0:	e59b002c 	ldr	r0, [fp, #44]	; 0x2c
    f9a4:	e0831001 	add	r1, r3, r1
    f9a8:	ebffeee5 	bl	b544 <crc32>
    f9ac:	e58b002c 	str	r0, [fp, #44]	; 0x2c
    f9b0:	eafffe29 	b	f25c <deflate+0x570>
    f9b4:	e3a0305b 	mov	r3, #91	; 0x5b
    f9b8:	e594c01c 	ldr	ip, [r4, #28]
    f9bc:	e5846020 	str	r6, [r4, #32]
    f9c0:	e1a00002 	mov	r0, r2
    f9c4:	e5843004 	str	r3, [r4, #4]
    f9c8:	e59c3024 	ldr	r3, [ip, #36]	; 0x24
    f9cc:	e3530000 	cmp	r3, #0
    f9d0:	0a000138 	beq	feb8 <deflate+0x11cc>
    f9d4:	e1a01000 	mov	r1, r0
    f9d8:	ea00000b 	b	fa0c <deflate+0xd20>
    f9dc:	e59c3024 	ldr	r3, [ip, #36]	; 0x24
    f9e0:	e5942020 	ldr	r2, [r4, #32]
    f9e4:	e594c008 	ldr	ip, [r4, #8]
    f9e8:	e7d33002 	ldrb	r3, [r3, r2]
    f9ec:	e2822001 	add	r2, r2, #1
    f9f0:	e5842020 	str	r2, [r4, #32]
    f9f4:	e3530000 	cmp	r3, #0
    f9f8:	e7cc3000 	strb	r3, [ip, r0]
    f9fc:	e2800001 	add	r0, r0, #1
    fa00:	e5840014 	str	r0, [r4, #20]
    fa04:	0a00002f 	beq	fac8 <deflate+0xddc>
    fa08:	e594c01c 	ldr	ip, [r4, #28]
    fa0c:	e594300c 	ldr	r3, [r4, #12]
    fa10:	e1530000 	cmp	r3, r0
    fa14:	1afffff0 	bne	f9dc <deflate+0xcf0>
    fa18:	e59c302c 	ldr	r3, [ip, #44]	; 0x2c
    fa1c:	e3530000 	cmp	r3, #0
    fa20:	0a000001 	beq	fa2c <deflate+0xd40>
    fa24:	e1510000 	cmp	r1, r0
    fa28:	3a00010b 	bcc	fe5c <deflate+0x1170>
    fa2c:	e59b6018 	ldr	r6, [fp, #24]
    fa30:	e1a00006 	mov	r0, r6
    fa34:	eb000a59 	bl	123a0 <_tr_flush_bits>
    fa38:	e5963014 	ldr	r3, [r6, #20]
    fa3c:	e59b7010 	ldr	r7, [fp, #16]
    fa40:	e1570003 	cmp	r7, r3
    fa44:	21a07003 	movcs	r7, r3
    fa48:	e3570000 	cmp	r7, #0
    fa4c:	0a000015 	beq	faa8 <deflate+0xdbc>
    fa50:	e1a02007 	mov	r2, r7
    fa54:	e59b000c 	ldr	r0, [fp, #12]
    fa58:	e5961010 	ldr	r1, [r6, #16]
    fa5c:	ebffe26a 	bl	840c <xmemcpy>
    fa60:	e5963014 	ldr	r3, [r6, #20]
    fa64:	e5961010 	ldr	r1, [r6, #16]
    fa68:	e59b000c 	ldr	r0, [fp, #12]
    fa6c:	e59b2014 	ldr	r2, [fp, #20]
    fa70:	e59bc010 	ldr	ip, [fp, #16]
    fa74:	e0673003 	rsb	r3, r7, r3
    fa78:	e0800007 	add	r0, r0, r7
    fa7c:	e0811007 	add	r1, r1, r7
    fa80:	e0822007 	add	r2, r2, r7
    fa84:	e3530000 	cmp	r3, #0
    fa88:	e067700c 	rsb	r7, r7, ip
    fa8c:	e58b000c 	str	r0, [fp, #12]
    fa90:	e5861010 	str	r1, [r6, #16]
    fa94:	e58b2014 	str	r2, [fp, #20]
    fa98:	e58b7010 	str	r7, [fp, #16]
    fa9c:	e5863014 	str	r3, [r6, #20]
    faa0:	05963008 	ldreq	r3, [r6, #8]
    faa4:	05863010 	streq	r3, [r6, #16]
    faa8:	e5941014 	ldr	r1, [r4, #20]
    faac:	e594300c 	ldr	r3, [r4, #12]
    fab0:	e1a02001 	mov	r2, r1
    fab4:	e1510003 	cmp	r1, r3
    fab8:	0a0001d4 	beq	10210 <deflate+0x1524>
    fabc:	e594c01c 	ldr	ip, [r4, #28]
    fac0:	e1a00001 	mov	r0, r1
    fac4:	eaffffc4 	b	f9dc <deflate+0xcf0>
    fac8:	e1a06003 	mov	r6, r3
    facc:	e1a02000 	mov	r2, r0
    fad0:	e594301c 	ldr	r3, [r4, #28]
    fad4:	e593302c 	ldr	r3, [r3, #44]	; 0x2c
    fad8:	e3530000 	cmp	r3, #0
    fadc:	0a000001 	beq	fae8 <deflate+0xdfc>
    fae0:	e1510002 	cmp	r1, r2
    fae4:	3a0001bf 	bcc	101e8 <deflate+0x14fc>
    fae8:	e3560000 	cmp	r6, #0
    faec:	0a00001f 	beq	fb70 <deflate+0xe84>
    faf0:	e5943004 	ldr	r3, [r4, #4]
    faf4:	e1a00002 	mov	r0, r2
    faf8:	e3530067 	cmp	r3, #103	; 0x67
    fafc:	1afffca0 	bne	ed84 <deflate+0x98>
    fb00:	e594c01c 	ldr	ip, [r4, #28]
    fb04:	e59c302c 	ldr	r3, [ip, #44]	; 0x2c
    fb08:	e3530000 	cmp	r3, #0
    fb0c:	03a03071 	moveq	r3, #113	; 0x71
    fb10:	05843004 	streq	r3, [r4, #4]
    fb14:	0afffc9a 	beq	ed84 <deflate+0x98>
    fb18:	e594200c 	ldr	r2, [r4, #12]
    fb1c:	e2803002 	add	r3, r0, #2
    fb20:	e1530002 	cmp	r3, r2
    fb24:	8a0000ed 	bhi	fee0 <deflate+0x11f4>
    fb28:	e59bc02c 	ldr	ip, [fp, #44]	; 0x2c
    fb2c:	e5941008 	ldr	r1, [r4, #8]
    fb30:	e2802001 	add	r2, r0, #1
    fb34:	e7c1c000 	strb	ip, [r1, r0]
    fb38:	e59bc02c 	ldr	ip, [fp, #44]	; 0x2c
    fb3c:	e5941008 	ldr	r1, [r4, #8]
    fb40:	e3a00000 	mov	r0, #0
    fb44:	e1a0c42c 	lsr	ip, ip, #8
    fb48:	e7c1c002 	strb	ip, [r1, r2]
    fb4c:	e5843014 	str	r3, [r4, #20]
    fb50:	e1a01000 	mov	r1, r0
    fb54:	e1a02000 	mov	r2, r0
    fb58:	ebffee79 	bl	b544 <crc32>
    fb5c:	e3a03071 	mov	r3, #113	; 0x71
    fb60:	e58b002c 	str	r0, [fp, #44]	; 0x2c
    fb64:	e5940014 	ldr	r0, [r4, #20]
    fb68:	e5843004 	str	r3, [r4, #4]
    fb6c:	eafffc84 	b	ed84 <deflate+0x98>
    fb70:	e3a03067 	mov	r3, #103	; 0x67
    fb74:	e1a00002 	mov	r0, r2
    fb78:	e5843004 	str	r3, [r4, #4]
    fb7c:	e594c01c 	ldr	ip, [r4, #28]
    fb80:	eaffffdf 	b	fb04 <deflate+0xe18>
    fb84:	e59d2008 	ldr	r2, [sp, #8]
    fb88:	e59f306c 	ldr	r3, [pc, #108]	; fbfc <deflate+0xf10>
    fb8c:	e3520004 	cmp	r2, #4
    fb90:	e7841003 	str	r1, [r4, r3]
    fb94:	0afffe65 	beq	f530 <deflate+0x844>
    fb98:	e59f3060 	ldr	r3, [pc, #96]	; fc00 <deflate+0xf14>
    fb9c:	e7943003 	ldr	r3, [r4, r3]
    fba0:	e3530000 	cmp	r3, #0
    fba4:	0afffd08 	beq	efcc <deflate+0x2e0>
    fba8:	e594305c 	ldr	r3, [r4, #92]	; 0x5c
    fbac:	e3530000 	cmp	r3, #0
    fbb0:	aa000046 	bge	fcd0 <deflate+0xfe4>
    fbb4:	ea000047 	b	fcd8 <deflate+0xfec>
    fbb8:	e59f6040 	ldr	r6, [pc, #64]	; fc00 <deflate+0xf14>
    fbbc:	e59fa024 	ldr	sl, [pc, #36]	; fbe8 <deflate+0xefc>
    fbc0:	e59f8024 	ldr	r8, [pc, #36]	; fbec <deflate+0xf00>
    fbc4:	e59f702c 	ldr	r7, [pc, #44]	; fbf8 <deflate+0xf0c>
    fbc8:	e3a05000 	mov	r5, #0
    fbcc:	e58db010 	str	fp, [sp, #16]
    fbd0:	e5949074 	ldr	r9, [r4, #116]	; 0x74
    fbd4:	ea000025 	b	fc70 <deflate+0xf84>
    fbd8:	0000029a 	muleq	r0, sl, r2
    fbdc:	00013f9c 	muleq	r1, ip, pc	; <UNPREDICTABLE>
    fbe0:	08421085 	stmdaeq	r2, {r0, r2, r7, ip}^
    fbe4:	00000102 	andeq	r0, r0, r2, lsl #2
    fbe8:	000016a4 	andeq	r1, r0, r4, lsr #13
    fbec:	00001698 	muleq	r0, r8, r6
    fbf0:	00014058 	andeq	r4, r1, r8, asr r0
    fbf4:	00014240 	andeq	r4, r1, r0, asr #4
    fbf8:	0000169c 	muleq	r0, ip, r6
    fbfc:	000016b4 			; <UNDEFINED> instruction: 0x000016b4
    fc00:	000016a0 	andeq	r1, r0, r0, lsr #13
    fc04:	e594306c 	ldr	r3, [r4, #108]	; 0x6c
    fc08:	e5942038 	ldr	r2, [r4, #56]	; 0x38
    fc0c:	e5845060 	str	r5, [r4, #96]	; 0x60
    fc10:	e7d21003 	ldrb	r1, [r2, r3]
    fc14:	e7943006 	ldr	r3, [r4, r6]
    fc18:	e794e00a 	ldr	lr, [r4, sl]
    fc1c:	e794c008 	ldr	ip, [r4, r8]
    fc20:	e1a02083 	lsl	r2, r3, #1
    fc24:	e18e50b2 	strh	r5, [lr, r2]
    fc28:	e2810024 	add	r0, r1, #36	; 0x24
    fc2c:	e2832001 	add	r2, r3, #1
    fc30:	e7cc1003 	strb	r1, [ip, r3]
    fc34:	e0843100 	add	r3, r4, r0, lsl #2
    fc38:	e7842006 	str	r2, [r4, r6]
    fc3c:	e1d310b4 	ldrh	r1, [r3, #4]
    fc40:	e2811001 	add	r1, r1, #1
    fc44:	e1c310b4 	strh	r1, [r3, #4]
    fc48:	e7941007 	ldr	r1, [r4, r7]
    fc4c:	e5949074 	ldr	r9, [r4, #116]	; 0x74
    fc50:	e594306c 	ldr	r3, [r4, #108]	; 0x6c
    fc54:	e2411001 	sub	r1, r1, #1
    fc58:	e2499001 	sub	r9, r9, #1
    fc5c:	e2833001 	add	r3, r3, #1
    fc60:	e1520001 	cmp	r2, r1
    fc64:	e5849074 	str	r9, [r4, #116]	; 0x74
    fc68:	e584306c 	str	r3, [r4, #108]	; 0x6c
    fc6c:	0a000047 	beq	fd90 <deflate+0x10a4>
    fc70:	e3590000 	cmp	r9, #0
    fc74:	1affffe2 	bne	fc04 <deflate+0xf18>
    fc78:	e1a00004 	mov	r0, r4
    fc7c:	ebfff54a 	bl	d1ac <fill_window>
    fc80:	e5943074 	ldr	r3, [r4, #116]	; 0x74
    fc84:	e3530000 	cmp	r3, #0
    fc88:	1affffdd 	bne	fc04 <deflate+0xf18>
    fc8c:	e59d2008 	ldr	r2, [sp, #8]
    fc90:	e59db010 	ldr	fp, [sp, #16]
    fc94:	e3520000 	cmp	r2, #0
    fc98:	0afffcc4 	beq	efb0 <deflate+0x2c4>
    fc9c:	e51f30a8 	ldr	r3, [pc, #-168]	; fbfc <deflate+0xf10>
    fca0:	e3520004 	cmp	r2, #4
    fca4:	e1a01002 	mov	r1, r2
    fca8:	e7849003 	str	r9, [r4, r3]
    fcac:	0a000159 	beq	10218 <deflate+0x152c>
    fcb0:	e51f30b8 	ldr	r3, [pc, #-184]	; fc00 <deflate+0xf14>
    fcb4:	e7943003 	ldr	r3, [r4, r3]
    fcb8:	e3530000 	cmp	r3, #0
    fcbc:	0afffcc2 	beq	efcc <deflate+0x2e0>
    fcc0:	e594305c 	ldr	r3, [r4, #92]	; 0x5c
    fcc4:	e3530000 	cmp	r3, #0
    fcc8:	b1a01009 	movlt	r1, r9
    fccc:	ba000001 	blt	fcd8 <deflate+0xfec>
    fcd0:	e5941038 	ldr	r1, [r4, #56]	; 0x38
    fcd4:	e0811003 	add	r1, r1, r3
    fcd8:	e594206c 	ldr	r2, [r4, #108]	; 0x6c
    fcdc:	e1a00004 	mov	r0, r4
    fce0:	e0632002 	rsb	r2, r3, r2
    fce4:	e3a03000 	mov	r3, #0
    fce8:	eb000a36 	bl	125c8 <_tr_flush_block>
    fcec:	e5946000 	ldr	r6, [r4]
    fcf0:	e594306c 	ldr	r3, [r4, #108]	; 0x6c
    fcf4:	e5965018 	ldr	r5, [r6, #24]
    fcf8:	e584305c 	str	r3, [r4, #92]	; 0x5c
    fcfc:	e1a00005 	mov	r0, r5
    fd00:	eb0009a6 	bl	123a0 <_tr_flush_bits>
    fd04:	e5953014 	ldr	r3, [r5, #20]
    fd08:	e5967010 	ldr	r7, [r6, #16]
    fd0c:	e1570003 	cmp	r7, r3
    fd10:	21a07003 	movcs	r7, r3
    fd14:	e3570000 	cmp	r7, #0
    fd18:	0a000015 	beq	fd74 <deflate+0x1088>
    fd1c:	e1a02007 	mov	r2, r7
    fd20:	e596000c 	ldr	r0, [r6, #12]
    fd24:	e5951010 	ldr	r1, [r5, #16]
    fd28:	ebffe1b7 	bl	840c <xmemcpy>
    fd2c:	e5953014 	ldr	r3, [r5, #20]
    fd30:	e596000c 	ldr	r0, [r6, #12]
    fd34:	e5951010 	ldr	r1, [r5, #16]
    fd38:	e5962014 	ldr	r2, [r6, #20]
    fd3c:	e596c010 	ldr	ip, [r6, #16]
    fd40:	e0673003 	rsb	r3, r7, r3
    fd44:	e0800007 	add	r0, r0, r7
    fd48:	e586000c 	str	r0, [r6, #12]
    fd4c:	e0811007 	add	r1, r1, r7
    fd50:	e0822007 	add	r2, r2, r7
    fd54:	e3530000 	cmp	r3, #0
    fd58:	e067700c 	rsb	r7, r7, ip
    fd5c:	e5851010 	str	r1, [r5, #16]
    fd60:	e5862014 	str	r2, [r6, #20]
    fd64:	e5867010 	str	r7, [r6, #16]
    fd68:	e5853014 	str	r3, [r5, #20]
    fd6c:	05953008 	ldreq	r3, [r5, #8]
    fd70:	05853010 	streq	r3, [r5, #16]
    fd74:	e5943000 	ldr	r3, [r4]
    fd78:	e5930010 	ldr	r0, [r3, #16]
    fd7c:	e2900000 	adds	r0, r0, #0
    fd80:	13a00001 	movne	r0, #1
    fd84:	e2402002 	sub	r2, r0, #2
    fd88:	e1a03000 	mov	r3, r0
    fd8c:	eafffc83 	b	efa0 <deflate+0x2b4>
    fd90:	e594205c 	ldr	r2, [r4, #92]	; 0x5c
    fd94:	e1a00004 	mov	r0, r4
    fd98:	e3520000 	cmp	r2, #0
    fd9c:	a5941038 	ldrge	r1, [r4, #56]	; 0x38
    fda0:	b3a01000 	movlt	r1, #0
    fda4:	a0811002 	addge	r1, r1, r2
    fda8:	e0622003 	rsb	r2, r2, r3
    fdac:	e3a03000 	mov	r3, #0
    fdb0:	eb000a04 	bl	125c8 <_tr_flush_block>
    fdb4:	e5949000 	ldr	r9, [r4]
    fdb8:	e594306c 	ldr	r3, [r4, #108]	; 0x6c
    fdbc:	e599b018 	ldr	fp, [r9, #24]
    fdc0:	e584305c 	str	r3, [r4, #92]	; 0x5c
    fdc4:	e1a0000b 	mov	r0, fp
    fdc8:	eb000974 	bl	123a0 <_tr_flush_bits>
    fdcc:	e59b3014 	ldr	r3, [fp, #20]
    fdd0:	e5992010 	ldr	r2, [r9, #16]
    fdd4:	e1520003 	cmp	r2, r3
    fdd8:	31a03002 	movcc	r3, r2
    fddc:	e3530000 	cmp	r3, #0
    fde0:	0a000017 	beq	fe44 <deflate+0x1158>
    fde4:	e599000c 	ldr	r0, [r9, #12]
    fde8:	e59b1010 	ldr	r1, [fp, #16]
    fdec:	e1a02003 	mov	r2, r3
    fdf0:	e58d3000 	str	r3, [sp]
    fdf4:	ebffe184 	bl	840c <xmemcpy>
    fdf8:	e59d3000 	ldr	r3, [sp]
    fdfc:	e59b0010 	ldr	r0, [fp, #16]
    fe00:	e599c00c 	ldr	ip, [r9, #12]
    fe04:	e0800003 	add	r0, r0, r3
    fe08:	e58b0010 	str	r0, [fp, #16]
    fe0c:	e5990014 	ldr	r0, [r9, #20]
    fe10:	e59b2014 	ldr	r2, [fp, #20]
    fe14:	e0801003 	add	r1, r0, r3
    fe18:	e5990010 	ldr	r0, [r9, #16]
    fe1c:	e0632002 	rsb	r2, r3, r2
    fe20:	e08cc003 	add	ip, ip, r3
    fe24:	e3520000 	cmp	r2, #0
    fe28:	e0633000 	rsb	r3, r3, r0
    fe2c:	e5893010 	str	r3, [r9, #16]
    fe30:	059b3008 	ldreq	r3, [fp, #8]
    fe34:	e589c00c 	str	ip, [r9, #12]
    fe38:	e5891014 	str	r1, [r9, #20]
    fe3c:	e58b2014 	str	r2, [fp, #20]
    fe40:	058b3010 	streq	r3, [fp, #16]
    fe44:	e5943000 	ldr	r3, [r4]
    fe48:	e5933010 	ldr	r3, [r3, #16]
    fe4c:	e3530000 	cmp	r3, #0
    fe50:	1affff5e 	bne	fbd0 <deflate+0xee4>
    fe54:	e59db010 	ldr	fp, [sp, #16]
    fe58:	eafffc54 	b	efb0 <deflate+0x2c4>
    fe5c:	e5943008 	ldr	r3, [r4, #8]
    fe60:	e0612000 	rsb	r2, r1, r0
    fe64:	e0831001 	add	r1, r3, r1
    fe68:	e59b002c 	ldr	r0, [fp, #44]	; 0x2c
    fe6c:	ebffedb4 	bl	b544 <crc32>
    fe70:	e58b002c 	str	r0, [fp, #44]	; 0x2c
    fe74:	eafffeec 	b	fa2c <deflate+0xd40>
    fe78:	e5943008 	ldr	r3, [r4, #8]
    fe7c:	e0612000 	rsb	r2, r1, r0
    fe80:	e0831001 	add	r1, r3, r1
    fe84:	e59b002c 	ldr	r0, [fp, #44]	; 0x2c
    fe88:	ebffedad 	bl	b544 <crc32>
    fe8c:	e58b002c 	str	r0, [fp, #44]	; 0x2c
    fe90:	eafffd5d 	b	f40c <deflate+0x720>
    fe94:	e5943008 	ldr	r3, [r4, #8]
    fe98:	e0612002 	rsb	r2, r1, r2
    fe9c:	e59b002c 	ldr	r0, [fp, #44]	; 0x2c
    fea0:	e0831001 	add	r1, r3, r1
    fea4:	ebffeda6 	bl	b544 <crc32>
    fea8:	e594c01c 	ldr	ip, [r4, #28]
    feac:	e5942014 	ldr	r2, [r4, #20]
    feb0:	e58b002c 	str	r0, [fp, #44]	; 0x2c
    feb4:	eafffd15 	b	f310 <deflate+0x624>
    feb8:	e3a03067 	mov	r3, #103	; 0x67
    febc:	e5843004 	str	r3, [r4, #4]
    fec0:	eaffff0f 	b	fb04 <deflate+0xe18>
    fec4:	e3a0305b 	mov	r3, #91	; 0x5b
    fec8:	e5843004 	str	r3, [r4, #4]
    fecc:	eafffebd 	b	f9c8 <deflate+0xcdc>
    fed0:	e3a03049 	mov	r3, #73	; 0x49
    fed4:	e1a00001 	mov	r0, r1
    fed8:	e5843004 	str	r3, [r4, #4]
    fedc:	eafffd31 	b	f3a8 <deflate+0x6bc>
    fee0:	e59b6018 	ldr	r6, [fp, #24]
    fee4:	e1a00006 	mov	r0, r6
    fee8:	eb00092c 	bl	123a0 <_tr_flush_bits>
    feec:	e5963014 	ldr	r3, [r6, #20]
    fef0:	e59b7010 	ldr	r7, [fp, #16]
    fef4:	e1570003 	cmp	r7, r3
    fef8:	21a07003 	movcs	r7, r3
    fefc:	e3570000 	cmp	r7, #0
    ff00:	0a000015 	beq	ff5c <deflate+0x1270>
    ff04:	e1a02007 	mov	r2, r7
    ff08:	e59b000c 	ldr	r0, [fp, #12]
    ff0c:	e5961010 	ldr	r1, [r6, #16]
    ff10:	ebffe13d 	bl	840c <xmemcpy>
    ff14:	e5963014 	ldr	r3, [r6, #20]
    ff18:	e5961010 	ldr	r1, [r6, #16]
    ff1c:	e59b000c 	ldr	r0, [fp, #12]
    ff20:	e59b2014 	ldr	r2, [fp, #20]
    ff24:	e59bc010 	ldr	ip, [fp, #16]
    ff28:	e0673003 	rsb	r3, r7, r3
    ff2c:	e0800007 	add	r0, r0, r7
    ff30:	e0811007 	add	r1, r1, r7
    ff34:	e0822007 	add	r2, r2, r7
    ff38:	e3530000 	cmp	r3, #0
    ff3c:	e067700c 	rsb	r7, r7, ip
    ff40:	e58b000c 	str	r0, [fp, #12]
    ff44:	e5861010 	str	r1, [r6, #16]
    ff48:	e58b2014 	str	r2, [fp, #20]
    ff4c:	e58b7010 	str	r7, [fp, #16]
    ff50:	e5863014 	str	r3, [r6, #20]
    ff54:	05963008 	ldreq	r3, [r6, #8]
    ff58:	05863010 	streq	r3, [r6, #16]
    ff5c:	e5940014 	ldr	r0, [r4, #20]
    ff60:	e594200c 	ldr	r2, [r4, #12]
    ff64:	e2803002 	add	r3, r0, #2
    ff68:	e1530002 	cmp	r3, r2
    ff6c:	8afffb84 	bhi	ed84 <deflate+0x98>
    ff70:	eafffeec 	b	fb28 <deflate+0xe3c>
    ff74:	e5943014 	ldr	r3, [r4, #20]
    ff78:	e59b002c 	ldr	r0, [fp, #44]	; 0x2c
    ff7c:	e5941008 	ldr	r1, [r4, #8]
    ff80:	e2832001 	add	r2, r3, #1
    ff84:	e7c10003 	strb	r0, [r1, r3]
    ff88:	e59b002c 	ldr	r0, [fp, #44]	; 0x2c
    ff8c:	e5941008 	ldr	r1, [r4, #8]
    ff90:	e1a00420 	lsr	r0, r0, #8
    ff94:	e7c10002 	strb	r0, [r1, r2]
    ff98:	e1db02be 	ldrh	r0, [fp, #46]	; 0x2e
    ff9c:	e5941008 	ldr	r1, [r4, #8]
    ffa0:	e2832002 	add	r2, r3, #2
    ffa4:	e7c10002 	strb	r0, [r1, r2]
    ffa8:	e5db002f 	ldrb	r0, [fp, #47]	; 0x2f
    ffac:	e5941008 	ldr	r1, [r4, #8]
    ffb0:	e2832003 	add	r2, r3, #3
    ffb4:	e7c10002 	strb	r0, [r1, r2]
    ffb8:	e59b0008 	ldr	r0, [fp, #8]
    ffbc:	e5941008 	ldr	r1, [r4, #8]
    ffc0:	e2832004 	add	r2, r3, #4
    ffc4:	e7c10002 	strb	r0, [r1, r2]
    ffc8:	e59b0008 	ldr	r0, [fp, #8]
    ffcc:	e5941008 	ldr	r1, [r4, #8]
    ffd0:	e2832005 	add	r2, r3, #5
    ffd4:	e1a00420 	lsr	r0, r0, #8
    ffd8:	e7c10002 	strb	r0, [r1, r2]
    ffdc:	e1db00ba 	ldrh	r0, [fp, #10]
    ffe0:	e5941008 	ldr	r1, [r4, #8]
    ffe4:	e2832006 	add	r2, r3, #6
    ffe8:	e7c10002 	strb	r0, [r1, r2]
    ffec:	e5db000b 	ldrb	r0, [fp, #11]
    fff0:	e5941008 	ldr	r1, [r4, #8]
    fff4:	e2832007 	add	r2, r3, #7
    fff8:	e2833008 	add	r3, r3, #8
    fffc:	e7c10002 	strb	r0, [r1, r2]
   10000:	e5843014 	str	r3, [r4, #20]
   10004:	eafffb98 	b	ee6c <deflate+0x180>
   10008:	e3a00000 	mov	r0, #0
   1000c:	e1a01000 	mov	r1, r0
   10010:	e1a02000 	mov	r2, r0
   10014:	ebffed4a 	bl	b544 <crc32>
   10018:	e5943014 	ldr	r3, [r4, #20]
   1001c:	e5942008 	ldr	r2, [r4, #8]
   10020:	e3a0101f 	mov	r1, #31
   10024:	e58b002c 	str	r0, [fp, #44]	; 0x2c
   10028:	e7c21003 	strb	r1, [r2, r3]
   1002c:	e5941008 	ldr	r1, [r4, #8]
   10030:	e2832001 	add	r2, r3, #1
   10034:	e3e00074 	mvn	r0, #116	; 0x74
   10038:	e7c10002 	strb	r0, [r1, r2]
   1003c:	e5941008 	ldr	r1, [r4, #8]
   10040:	e2832002 	add	r2, r3, #2
   10044:	e3a00008 	mov	r0, #8
   10048:	e7c10002 	strb	r0, [r1, r2]
   1004c:	e594201c 	ldr	r2, [r4, #28]
   10050:	e2831003 	add	r1, r3, #3
   10054:	e3520000 	cmp	r2, #0
   10058:	e5841014 	str	r1, [r4, #20]
   1005c:	0a000099 	beq	102c8 <deflate+0x15dc>
   10060:	e592002c 	ldr	r0, [r2, #44]	; 0x2c
   10064:	e592c010 	ldr	ip, [r2, #16]
   10068:	e5928000 	ldr	r8, [r2]
   1006c:	e3500000 	cmp	r0, #0
   10070:	e592701c 	ldr	r7, [r2, #28]
   10074:	13a00002 	movne	r0, #2
   10078:	03a00000 	moveq	r0, #0
   1007c:	e3580000 	cmp	r8, #0
   10080:	01a08000 	moveq	r8, r0
   10084:	12808001 	addne	r8, r0, #1
   10088:	e5920024 	ldr	r0, [r2, #36]	; 0x24
   1008c:	e35c0000 	cmp	ip, #0
   10090:	13a0c004 	movne	ip, #4
   10094:	03a0c000 	moveq	ip, #0
   10098:	e3570000 	cmp	r7, #0
   1009c:	13a02008 	movne	r2, #8
   100a0:	03a02000 	moveq	r2, #0
   100a4:	e088c00c 	add	ip, r8, ip
   100a8:	e3500000 	cmp	r0, #0
   100ac:	e08cc002 	add	ip, ip, r2
   100b0:	13a00010 	movne	r0, #16
   100b4:	e5942008 	ldr	r2, [r4, #8]
   100b8:	03a00000 	moveq	r0, #0
   100bc:	e08c0000 	add	r0, ip, r0
   100c0:	e7c20001 	strb	r0, [r2, r1]
   100c4:	e594201c 	ldr	r2, [r4, #28]
   100c8:	e5941008 	ldr	r1, [r4, #8]
   100cc:	e5920004 	ldr	r0, [r2, #4]
   100d0:	e2832004 	add	r2, r3, #4
   100d4:	e7c10002 	strb	r0, [r1, r2]
   100d8:	e594201c 	ldr	r2, [r4, #28]
   100dc:	e5941008 	ldr	r1, [r4, #8]
   100e0:	e5920004 	ldr	r0, [r2, #4]
   100e4:	e2832005 	add	r2, r3, #5
   100e8:	e1a00420 	lsr	r0, r0, #8
   100ec:	e7c10002 	strb	r0, [r1, r2]
   100f0:	e594201c 	ldr	r2, [r4, #28]
   100f4:	e5941008 	ldr	r1, [r4, #8]
   100f8:	e1d200b6 	ldrh	r0, [r2, #6]
   100fc:	e2832006 	add	r2, r3, #6
   10100:	e7c10002 	strb	r0, [r1, r2]
   10104:	e594201c 	ldr	r2, [r4, #28]
   10108:	e5941008 	ldr	r1, [r4, #8]
   1010c:	e5d20007 	ldrb	r0, [r2, #7]
   10110:	e2832007 	add	r2, r3, #7
   10114:	e7c10002 	strb	r0, [r1, r2]
   10118:	e5941084 	ldr	r1, [r4, #132]	; 0x84
   1011c:	e2832008 	add	r2, r3, #8
   10120:	e3510009 	cmp	r1, #9
   10124:	e5940008 	ldr	r0, [r4, #8]
   10128:	e5842014 	str	r2, [r4, #20]
   1012c:	0a000003 	beq	10140 <deflate+0x1454>
   10130:	e594c088 	ldr	ip, [r4, #136]	; 0x88
   10134:	e35c0001 	cmp	ip, #1
   10138:	da000085 	ble	10354 <deflate+0x1668>
   1013c:	e3a06004 	mov	r6, #4
   10140:	e7c06002 	strb	r6, [r0, r2]
   10144:	e594201c 	ldr	r2, [r4, #28]
   10148:	e5941008 	ldr	r1, [r4, #8]
   1014c:	e592000c 	ldr	r0, [r2, #12]
   10150:	e2832009 	add	r2, r3, #9
   10154:	e7c10002 	strb	r0, [r1, r2]
   10158:	e594601c 	ldr	r6, [r4, #28]
   1015c:	e283100a 	add	r1, r3, #10
   10160:	e5962010 	ldr	r2, [r6, #16]
   10164:	e1a0c006 	mov	ip, r6
   10168:	e3520000 	cmp	r2, #0
   1016c:	e5841014 	str	r1, [r4, #20]
   10170:	0a00000c 	beq	101a8 <deflate+0x14bc>
   10174:	e596c014 	ldr	ip, [r6, #20]
   10178:	e5940008 	ldr	r0, [r4, #8]
   1017c:	e283200b 	add	r2, r3, #11
   10180:	e7c0c001 	strb	ip, [r0, r1]
   10184:	e594101c 	ldr	r1, [r4, #28]
   10188:	e5940008 	ldr	r0, [r4, #8]
   1018c:	e591c014 	ldr	ip, [r1, #20]
   10190:	e283100c 	add	r1, r3, #12
   10194:	e1a0342c 	lsr	r3, ip, #8
   10198:	e7c03002 	strb	r3, [r0, r2]
   1019c:	e594601c 	ldr	r6, [r4, #28]
   101a0:	e5841014 	str	r1, [r4, #20]
   101a4:	e1a0c006 	mov	ip, r6
   101a8:	e596302c 	ldr	r3, [r6, #44]	; 0x2c
   101ac:	e3530000 	cmp	r3, #0
   101b0:	1a000023 	bne	10244 <deflate+0x1558>
   101b4:	e3a02000 	mov	r2, #0
   101b8:	e3a03045 	mov	r3, #69	; 0x45
   101bc:	e5842020 	str	r2, [r4, #32]
   101c0:	e5843004 	str	r3, [r4, #4]
   101c4:	eafffc04 	b	f1dc <deflate+0x4f0>
   101c8:	e5943008 	ldr	r3, [r4, #8]
   101cc:	e0612002 	rsb	r2, r1, r2
   101d0:	e59b002c 	ldr	r0, [fp, #44]	; 0x2c
   101d4:	e0831001 	add	r1, r3, r1
   101d8:	ebffecd9 	bl	b544 <crc32>
   101dc:	e5942014 	ldr	r2, [r4, #20]
   101e0:	e58b002c 	str	r0, [fp, #44]	; 0x2c
   101e4:	eafffcc9 	b	f510 <deflate+0x824>
   101e8:	e5943008 	ldr	r3, [r4, #8]
   101ec:	e0612002 	rsb	r2, r1, r2
   101f0:	e59b002c 	ldr	r0, [fp, #44]	; 0x2c
   101f4:	e0831001 	add	r1, r3, r1
   101f8:	ebffecd1 	bl	b544 <crc32>
   101fc:	e5942014 	ldr	r2, [r4, #20]
   10200:	e58b002c 	str	r0, [fp, #44]	; 0x2c
   10204:	eafffe37 	b	fae8 <deflate+0xdfc>
   10208:	e3a06001 	mov	r6, #1
   1020c:	eafffcb9 	b	f4f8 <deflate+0x80c>
   10210:	e3a06001 	mov	r6, #1
   10214:	eafffe2d 	b	fad0 <deflate+0xde4>
   10218:	e594305c 	ldr	r3, [r4, #92]	; 0x5c
   1021c:	e3530000 	cmp	r3, #0
   10220:	b1a01009 	movlt	r1, r9
   10224:	aafffcc4 	bge	f53c <deflate+0x850>
   10228:	eafffcc5 	b	f544 <deflate+0x858>
   1022c:	e59d4010 	ldr	r4, [sp, #16]
   10230:	e59d3014 	ldr	r3, [sp, #20]
   10234:	eafffd65 	b	f7d0 <deflate+0xae4>
   10238:	e1a00004 	mov	r0, r4
   1023c:	eb00087f 	bl	12440 <_tr_align>
   10240:	eafffb7d 	b	f03c <deflate+0x350>
   10244:	e1a02001 	mov	r2, r1
   10248:	e59b002c 	ldr	r0, [fp, #44]	; 0x2c
   1024c:	e5941008 	ldr	r1, [r4, #8]
   10250:	ebffecbb 	bl	b544 <crc32>
   10254:	e594601c 	ldr	r6, [r4, #28]
   10258:	e5941014 	ldr	r1, [r4, #20]
   1025c:	e1a0c006 	mov	ip, r6
   10260:	e58b002c 	str	r0, [fp, #44]	; 0x2c
   10264:	eaffffd2 	b	101b4 <deflate+0x14c8>
   10268:	e59d4010 	ldr	r4, [sp, #16]
   1026c:	e59d3014 	ldr	r3, [sp, #20]
   10270:	e28ec003 	add	ip, lr, #3
   10274:	eafffd55 	b	f7d0 <deflate+0xae4>
   10278:	e59d4010 	ldr	r4, [sp, #16]
   1027c:	e59d3014 	ldr	r3, [sp, #20]
   10280:	e28ec002 	add	ip, lr, #2
   10284:	eafffd51 	b	f7d0 <deflate+0xae4>
   10288:	e59d4010 	ldr	r4, [sp, #16]
   1028c:	e59d3014 	ldr	r3, [sp, #20]
   10290:	e28ec007 	add	ip, lr, #7
   10294:	eafffd4d 	b	f7d0 <deflate+0xae4>
   10298:	e59d4010 	ldr	r4, [sp, #16]
   1029c:	e59d3014 	ldr	r3, [sp, #20]
   102a0:	e28ec006 	add	ip, lr, #6
   102a4:	eafffd49 	b	f7d0 <deflate+0xae4>
   102a8:	e59d4010 	ldr	r4, [sp, #16]
   102ac:	e59d3014 	ldr	r3, [sp, #20]
   102b0:	e28ec005 	add	ip, lr, #5
   102b4:	eafffd45 	b	f7d0 <deflate+0xae4>
   102b8:	e59d4010 	ldr	r4, [sp, #16]
   102bc:	e59d3014 	ldr	r3, [sp, #20]
   102c0:	e28ec004 	add	ip, lr, #4
   102c4:	eafffd41 	b	f7d0 <deflate+0xae4>
   102c8:	e5940008 	ldr	r0, [r4, #8]
   102cc:	e283c004 	add	ip, r3, #4
   102d0:	e7c02001 	strb	r2, [r0, r1]
   102d4:	e5941008 	ldr	r1, [r4, #8]
   102d8:	e2830005 	add	r0, r3, #5
   102dc:	e7c1200c 	strb	r2, [r1, ip]
   102e0:	e594c008 	ldr	ip, [r4, #8]
   102e4:	e2831006 	add	r1, r3, #6
   102e8:	e7cc2000 	strb	r2, [ip, r0]
   102ec:	e594c008 	ldr	ip, [r4, #8]
   102f0:	e2830007 	add	r0, r3, #7
   102f4:	e7cc2001 	strb	r2, [ip, r1]
   102f8:	e594c008 	ldr	ip, [r4, #8]
   102fc:	e2831008 	add	r1, r3, #8
   10300:	e7cc2000 	strb	r2, [ip, r0]
   10304:	e5940084 	ldr	r0, [r4, #132]	; 0x84
   10308:	e594c008 	ldr	ip, [r4, #8]
   1030c:	e3500009 	cmp	r0, #9
   10310:	e5841014 	str	r1, [r4, #20]
   10314:	01a02006 	moveq	r2, r6
   10318:	0a000003 	beq	1032c <deflate+0x1640>
   1031c:	e5946088 	ldr	r6, [r4, #136]	; 0x88
   10320:	e3560001 	cmp	r6, #1
   10324:	da00000e 	ble	10364 <deflate+0x1678>
   10328:	e3a02004 	mov	r2, #4
   1032c:	e7cc2001 	strb	r2, [ip, r1]
   10330:	e5941008 	ldr	r1, [r4, #8]
   10334:	e2832009 	add	r2, r3, #9
   10338:	e283000a 	add	r0, r3, #10
   1033c:	e3a0c003 	mov	ip, #3
   10340:	e3a03071 	mov	r3, #113	; 0x71
   10344:	e7c1c002 	strb	ip, [r1, r2]
   10348:	e5840014 	str	r0, [r4, #20]
   1034c:	e5843004 	str	r3, [r4, #4]
   10350:	eafffa8b 	b	ed84 <deflate+0x98>
   10354:	e3510001 	cmp	r1, #1
   10358:	daffff77 	ble	1013c <deflate+0x1450>
   1035c:	e3a06000 	mov	r6, #0
   10360:	eaffff76 	b	10140 <deflate+0x1454>
   10364:	e3500001 	cmp	r0, #1
   10368:	caffffef 	bgt	1032c <deflate+0x1640>
   1036c:	eaffffed 	b	10328 <deflate+0x163c>

00010370 <deflateParams>:
   10370:	e3500000 	cmp	r0, #0
   10374:	e92d40f8 	push	{r3, r4, r5, r6, r7, lr}
   10378:	e1a05001 	mov	r5, r1
   1037c:	e1a06002 	mov	r6, r2
   10380:	0a000036 	beq	10460 <deflateParams+0xf0>
   10384:	e5904018 	ldr	r4, [r0, #24]
   10388:	e3540000 	cmp	r4, #0
   1038c:	0a000033 	beq	10460 <deflateParams+0xf0>
   10390:	e3710001 	cmn	r1, #1
   10394:	0a000022 	beq	10424 <deflateParams+0xb4>
   10398:	e3510009 	cmp	r1, #9
   1039c:	93a03000 	movls	r3, #0
   103a0:	83a03001 	movhi	r3, #1
   103a4:	e1932fa6 	orrs	r2, r3, r6, lsr #31
   103a8:	1a00002c 	bne	10460 <deflateParams+0xf0>
   103ac:	e3560004 	cmp	r6, #4
   103b0:	ca00002a 	bgt	10460 <deflateParams+0xf0>
   103b4:	e5943084 	ldr	r3, [r4, #132]	; 0x84
   103b8:	e59f70a8 	ldr	r7, [pc, #168]	; 10468 <deflateParams+0xf8>
   103bc:	e594c088 	ldr	ip, [r4, #136]	; 0x88
   103c0:	e0831083 	add	r1, r3, r3, lsl #1
   103c4:	e0871101 	add	r1, r7, r1, lsl #2
   103c8:	e15c0006 	cmp	ip, r6
   103cc:	e5911008 	ldr	r1, [r1, #8]
   103d0:	0a000016 	beq	10430 <deflateParams+0xc0>
   103d4:	e5902008 	ldr	r2, [r0, #8]
   103d8:	e3520000 	cmp	r2, #0
   103dc:	1a00001b 	bne	10450 <deflateParams+0xe0>
   103e0:	e1a00002 	mov	r0, r2
   103e4:	e1550003 	cmp	r5, r3
   103e8:	0a00000b 	beq	1041c <deflateParams+0xac>
   103ec:	e0853085 	add	r3, r5, r5, lsl #1
   103f0:	e1a03103 	lsl	r3, r3, #2
   103f4:	e0872003 	add	r2, r7, r3
   103f8:	e1d2c0b2 	ldrh	ip, [r2, #2]
   103fc:	e19770b3 	ldrh	r7, [r7, r3]
   10400:	e1d210b4 	ldrh	r1, [r2, #4]
   10404:	e1d230b6 	ldrh	r3, [r2, #6]
   10408:	e5845084 	str	r5, [r4, #132]	; 0x84
   1040c:	e584708c 	str	r7, [r4, #140]	; 0x8c
   10410:	e584c080 	str	ip, [r4, #128]	; 0x80
   10414:	e5841090 	str	r1, [r4, #144]	; 0x90
   10418:	e584307c 	str	r3, [r4, #124]	; 0x7c
   1041c:	e5846088 	str	r6, [r4, #136]	; 0x88
   10420:	e8bd80f8 	pop	{r3, r4, r5, r6, r7, pc}
   10424:	e3a03000 	mov	r3, #0
   10428:	e3a05006 	mov	r5, #6
   1042c:	eaffffdc 	b	103a4 <deflateParams+0x34>
   10430:	e085c085 	add	ip, r5, r5, lsl #1
   10434:	e087c10c 	add	ip, r7, ip, lsl #2
   10438:	e59cc008 	ldr	ip, [ip, #8]
   1043c:	e15c0001 	cmp	ip, r1
   10440:	0affffe6 	beq	103e0 <deflateParams+0x70>
   10444:	e5902008 	ldr	r2, [r0, #8]
   10448:	e3520000 	cmp	r2, #0
   1044c:	0affffe3 	beq	103e0 <deflateParams+0x70>
   10450:	e3a01005 	mov	r1, #5
   10454:	ebfffa24 	bl	ecec <deflate>
   10458:	e5943084 	ldr	r3, [r4, #132]	; 0x84
   1045c:	eaffffe0 	b	103e4 <deflateParams+0x74>
   10460:	e3e00001 	mvn	r0, #1
   10464:	e8bd80f8 	pop	{r3, r4, r5, r6, r7, pc}
   10468:	00013f9c 	muleq	r1, ip, pc	; <UNPREDICTABLE>

0001046c <deflateEnd>:
   1046c:	e92d4038 	push	{r3, r4, r5, lr}
   10470:	e2504000 	subs	r4, r0, #0
   10474:	0a000035 	beq	10550 <deflateEnd+0xe4>
   10478:	e5943018 	ldr	r3, [r4, #24]
   1047c:	e3530000 	cmp	r3, #0
   10480:	0a000032 	beq	10550 <deflateEnd+0xe4>
   10484:	e5935004 	ldr	r5, [r3, #4]
   10488:	e3550045 	cmp	r5, #69	; 0x45
   1048c:	1355002a 	cmpne	r5, #42	; 0x2a
   10490:	1a000025 	bne	1052c <deflateEnd+0xc0>
   10494:	e5931008 	ldr	r1, [r3, #8]
   10498:	e3510000 	cmp	r1, #0
   1049c:	0a000003 	beq	104b0 <deflateEnd+0x44>
   104a0:	e5943020 	ldr	r3, [r4, #32]
   104a4:	e5940024 	ldr	r0, [r4, #36]	; 0x24
   104a8:	e12fff33 	blx	r3
   104ac:	e5943018 	ldr	r3, [r4, #24]
   104b0:	e5931044 	ldr	r1, [r3, #68]	; 0x44
   104b4:	e3510000 	cmp	r1, #0
   104b8:	0a000003 	beq	104cc <deflateEnd+0x60>
   104bc:	e5943020 	ldr	r3, [r4, #32]
   104c0:	e5940024 	ldr	r0, [r4, #36]	; 0x24
   104c4:	e12fff33 	blx	r3
   104c8:	e5943018 	ldr	r3, [r4, #24]
   104cc:	e5931040 	ldr	r1, [r3, #64]	; 0x40
   104d0:	e3510000 	cmp	r1, #0
   104d4:	0a000003 	beq	104e8 <deflateEnd+0x7c>
   104d8:	e5943020 	ldr	r3, [r4, #32]
   104dc:	e5940024 	ldr	r0, [r4, #36]	; 0x24
   104e0:	e12fff33 	blx	r3
   104e4:	e5943018 	ldr	r3, [r4, #24]
   104e8:	e5931038 	ldr	r1, [r3, #56]	; 0x38
   104ec:	e3510000 	cmp	r1, #0
   104f0:	0a000003 	beq	10504 <deflateEnd+0x98>
   104f4:	e5943020 	ldr	r3, [r4, #32]
   104f8:	e5940024 	ldr	r0, [r4, #36]	; 0x24
   104fc:	e12fff33 	blx	r3
   10500:	e5943018 	ldr	r3, [r4, #24]
   10504:	e1a01003 	mov	r1, r3
   10508:	e5940024 	ldr	r0, [r4, #36]	; 0x24
   1050c:	e5943020 	ldr	r3, [r4, #32]
   10510:	e12fff33 	blx	r3
   10514:	e3a03000 	mov	r3, #0
   10518:	e3550071 	cmp	r5, #113	; 0x71
   1051c:	11a00003 	movne	r0, r3
   10520:	03e00002 	mvneq	r0, #2
   10524:	e5843018 	str	r3, [r4, #24]
   10528:	e8bd8038 	pop	{r3, r4, r5, pc}
   1052c:	e355005b 	cmp	r5, #91	; 0x5b
   10530:	13550049 	cmpne	r5, #73	; 0x49
   10534:	0affffd6 	beq	10494 <deflateEnd+0x28>
   10538:	e3550071 	cmp	r5, #113	; 0x71
   1053c:	13550067 	cmpne	r5, #103	; 0x67
   10540:	0affffd3 	beq	10494 <deflateEnd+0x28>
   10544:	e59f200c 	ldr	r2, [pc, #12]	; 10558 <deflateEnd+0xec>
   10548:	e1550002 	cmp	r5, r2
   1054c:	0affffd0 	beq	10494 <deflateEnd+0x28>
   10550:	e3e00001 	mvn	r0, #1
   10554:	e8bd8038 	pop	{r3, r4, r5, pc}
   10558:	0000029a 	muleq	r0, sl, r2

0001055c <deflateInit2_>:
   1055c:	e92d4ff8 	push	{r3, r4, r5, r6, r7, r8, r9, sl, fp, lr}
   10560:	e59dc030 	ldr	ip, [sp, #48]	; 0x30
   10564:	e1a05000 	mov	r5, r0
   10568:	e35c0000 	cmp	ip, #0
   1056c:	e1a07001 	mov	r7, r1
   10570:	e1a06003 	mov	r6, r3
   10574:	e59da028 	ldr	sl, [sp, #40]	; 0x28
   10578:	0a0000d5 	beq	108d4 <deflateInit2_+0x378>
   1057c:	e5dc3000 	ldrb	r3, [ip]
   10580:	e3530031 	cmp	r3, #49	; 0x31
   10584:	1a0000d2 	bne	108d4 <deflateInit2_+0x378>
   10588:	e59d3034 	ldr	r3, [sp, #52]	; 0x34
   1058c:	e3530034 	cmp	r3, #52	; 0x34
   10590:	1a0000cf 	bne	108d4 <deflateInit2_+0x378>
   10594:	e3500000 	cmp	r0, #0
   10598:	0a0000cf 	beq	108dc <deflateInit2_+0x380>
   1059c:	e590301c 	ldr	r3, [r0, #28]
   105a0:	e3530000 	cmp	r3, #0
   105a4:	059f1358 	ldreq	r1, [pc, #856]	; 10904 <deflateInit2_+0x3a8>
   105a8:	05803024 	streq	r3, [r0, #36]	; 0x24
   105ac:	e5903020 	ldr	r3, [r0, #32]
   105b0:	0580101c 	streq	r1, [r0, #28]
   105b4:	e3530000 	cmp	r3, #0
   105b8:	059f3348 	ldreq	r3, [pc, #840]	; 10908 <deflateInit2_+0x3ac>
   105bc:	05803020 	streq	r3, [r0, #32]
   105c0:	e3770001 	cmn	r7, #1
   105c4:	03a07006 	moveq	r7, #6
   105c8:	e3560000 	cmp	r6, #0
   105cc:	b2666000 	rsblt	r6, r6, #0
   105d0:	b3a0b000 	movlt	fp, #0
   105d4:	ba000003 	blt	105e8 <deflateInit2_+0x8c>
   105d8:	e356000f 	cmp	r6, #15
   105dc:	c2466010 	subgt	r6, r6, #16
   105e0:	c3a0b002 	movgt	fp, #2
   105e4:	d3a0b001 	movle	fp, #1
   105e8:	e24a3001 	sub	r3, sl, #1
   105ec:	e3530008 	cmp	r3, #8
   105f0:	8a0000b9 	bhi	108dc <deflateInit2_+0x380>
   105f4:	e2522008 	subs	r2, r2, #8
   105f8:	13a02001 	movne	r2, #1
   105fc:	e3560007 	cmp	r6, #7
   10600:	d3822001 	orrle	r2, r2, #1
   10604:	e3520000 	cmp	r2, #0
   10608:	1a0000b3 	bne	108dc <deflateInit2_+0x380>
   1060c:	e356000f 	cmp	r6, #15
   10610:	d3a03000 	movle	r3, #0
   10614:	c3a03001 	movgt	r3, #1
   10618:	e1933fa7 	orrs	r3, r3, r7, lsr #31
   1061c:	1a0000ae 	bne	108dc <deflateInit2_+0x380>
   10620:	e59d302c 	ldr	r3, [sp, #44]	; 0x2c
   10624:	e1a08fa3 	lsr	r8, r3, #31
   10628:	e3570009 	cmp	r7, #9
   1062c:	c3888001 	orrgt	r8, r8, #1
   10630:	e3580000 	cmp	r8, #0
   10634:	1a0000a8 	bne	108dc <deflateInit2_+0x380>
   10638:	e3530004 	cmp	r3, #4
   1063c:	ca0000a6 	bgt	108dc <deflateInit2_+0x380>
   10640:	e595301c 	ldr	r3, [r5, #28]
   10644:	e5950024 	ldr	r0, [r5, #36]	; 0x24
   10648:	e3a01001 	mov	r1, #1
   1064c:	e59f22b8 	ldr	r2, [pc, #696]	; 1090c <deflateInit2_+0x3b0>
   10650:	e12fff33 	blx	r3
   10654:	e3560008 	cmp	r6, #8
   10658:	03a06009 	moveq	r6, #9
   1065c:	e2504000 	subs	r4, r0, #0
   10660:	0a0000a5 	beq	108fc <deflateInit2_+0x3a0>
   10664:	e59f02a4 	ldr	r0, [pc, #676]	; 10910 <deflateInit2_+0x3b4>
   10668:	e28ac009 	add	ip, sl, #9
   1066c:	e080ec90 	umull	lr, r0, r0, ip
   10670:	e3a09001 	mov	r9, #1
   10674:	e28a2007 	add	r2, sl, #7
   10678:	e1a01619 	lsl	r1, r9, r6
   1067c:	e1a03219 	lsl	r3, r9, r2
   10680:	e1a00930 	lsr	r0, r0, r9
   10684:	e241e001 	sub	lr, r1, #1
   10688:	e243c001 	sub	ip, r3, #1
   1068c:	e5854018 	str	r4, [r5, #24]
   10690:	e584e034 	str	lr, [r4, #52]	; 0x34
   10694:	e584c054 	str	ip, [r4, #84]	; 0x54
   10698:	e5846030 	str	r6, [r4, #48]	; 0x30
   1069c:	e584102c 	str	r1, [r4, #44]	; 0x2c
   106a0:	e5842050 	str	r2, [r4, #80]	; 0x50
   106a4:	e584304c 	str	r3, [r4, #76]	; 0x4c
   106a8:	e5840058 	str	r0, [r4, #88]	; 0x58
   106ac:	e595301c 	ldr	r3, [r5, #28]
   106b0:	e3a02002 	mov	r2, #2
   106b4:	e584801c 	str	r8, [r4, #28]
   106b8:	e5845000 	str	r5, [r4]
   106bc:	e584b018 	str	fp, [r4, #24]
   106c0:	e5950024 	ldr	r0, [r5, #36]	; 0x24
   106c4:	e12fff33 	blx	r3
   106c8:	e595301c 	ldr	r3, [r5, #28]
   106cc:	e594102c 	ldr	r1, [r4, #44]	; 0x2c
   106d0:	e5840038 	str	r0, [r4, #56]	; 0x38
   106d4:	e3a02002 	mov	r2, #2
   106d8:	e5950024 	ldr	r0, [r5, #36]	; 0x24
   106dc:	e12fff33 	blx	r3
   106e0:	e28aa006 	add	sl, sl, #6
   106e4:	e595301c 	ldr	r3, [r5, #28]
   106e8:	e594104c 	ldr	r1, [r4, #76]	; 0x4c
   106ec:	e5840040 	str	r0, [r4, #64]	; 0x40
   106f0:	e3a02002 	mov	r2, #2
   106f4:	e5950024 	ldr	r0, [r5, #36]	; 0x24
   106f8:	e12fff33 	blx	r3
   106fc:	e1a01a19 	lsl	r1, r9, sl
   10700:	e59f620c 	ldr	r6, [pc, #524]	; 10914 <deflateInit2_+0x3b8>
   10704:	e3a03d5b 	mov	r3, #5824	; 0x16c0
   10708:	e5840044 	str	r0, [r4, #68]	; 0x44
   1070c:	e7848003 	str	r8, [r4, r3]
   10710:	e7841006 	str	r1, [r4, r6]
   10714:	e595301c 	ldr	r3, [r5, #28]
   10718:	e3a02004 	mov	r2, #4
   1071c:	e5950024 	ldr	r0, [r5, #36]	; 0x24
   10720:	e12fff33 	blx	r3
   10724:	e7943006 	ldr	r3, [r4, r6]
   10728:	e5941038 	ldr	r1, [r4, #56]	; 0x38
   1072c:	e1a02103 	lsl	r2, r3, #2
   10730:	e3510000 	cmp	r1, #0
   10734:	e5840008 	str	r0, [r4, #8]
   10738:	e584200c 	str	r2, [r4, #12]
   1073c:	0a000068 	beq	108e4 <deflateInit2_+0x388>
   10740:	e5942040 	ldr	r2, [r4, #64]	; 0x40
   10744:	e3520000 	cmp	r2, #0
   10748:	0a000065 	beq	108e4 <deflateInit2_+0x388>
   1074c:	e5942044 	ldr	r2, [r4, #68]	; 0x44
   10750:	e3520000 	cmp	r2, #0
   10754:	0a000062 	beq	108e4 <deflateInit2_+0x388>
   10758:	e3500000 	cmp	r0, #0
   1075c:	0a000060 	beq	108e4 <deflateInit2_+0x388>
   10760:	e3a02008 	mov	r2, #8
   10764:	e5c42024 	strb	r2, [r4, #36]	; 0x24
   10768:	e595a018 	ldr	sl, [r5, #24]
   1076c:	e3c3c001 	bic	ip, r3, #1
   10770:	e0833083 	add	r3, r3, r3, lsl #1
   10774:	e080c00c 	add	ip, r0, ip
   10778:	e59f1198 	ldr	r1, [pc, #408]	; 10918 <deflateInit2_+0x3bc>
   1077c:	e0800003 	add	r0, r0, r3
   10780:	e59f2194 	ldr	r2, [pc, #404]	; 1091c <deflateInit2_+0x3c0>
   10784:	e59d302c 	ldr	r3, [sp, #44]	; 0x2c
   10788:	e35a0000 	cmp	sl, #0
   1078c:	e5847084 	str	r7, [r4, #132]	; 0x84
   10790:	e5843088 	str	r3, [r4, #136]	; 0x88
   10794:	e784c001 	str	ip, [r4, r1]
   10798:	e7840002 	str	r0, [r4, r2]
   1079c:	0a00004e 	beq	108dc <deflateInit2_+0x380>
   107a0:	e595301c 	ldr	r3, [r5, #28]
   107a4:	e3530000 	cmp	r3, #0
   107a8:	0a00004b 	beq	108dc <deflateInit2_+0x380>
   107ac:	e5953020 	ldr	r3, [r5, #32]
   107b0:	e3530000 	cmp	r3, #0
   107b4:	0a000048 	beq	108dc <deflateInit2_+0x380>
   107b8:	e59a3018 	ldr	r3, [sl, #24]
   107bc:	e59a2008 	ldr	r2, [sl, #8]
   107c0:	e3a01002 	mov	r1, #2
   107c4:	e3530000 	cmp	r3, #0
   107c8:	e5858014 	str	r8, [r5, #20]
   107cc:	e5858008 	str	r8, [r5, #8]
   107d0:	e5851028 	str	r1, [r5, #40]	; 0x28
   107d4:	e58a8014 	str	r8, [sl, #20]
   107d8:	e58a2010 	str	r2, [sl, #16]
   107dc:	ba000031 	blt	108a8 <deflateInit2_+0x34c>
   107e0:	03a03071 	moveq	r3, #113	; 0x71
   107e4:	058a3004 	streq	r3, [sl, #4]
   107e8:	1a000030 	bne	108b0 <deflateInit2_+0x354>
   107ec:	e3a00000 	mov	r0, #0
   107f0:	e1a01000 	mov	r1, r0
   107f4:	e1a02000 	mov	r2, r0
   107f8:	ebffeb9e 	bl	b678 <adler32>
   107fc:	e3a06000 	mov	r6, #0
   10800:	e585002c 	str	r0, [r5, #44]	; 0x2c
   10804:	e1a0000a 	mov	r0, sl
   10808:	e58a6028 	str	r6, [sl, #40]	; 0x28
   1080c:	eb000643 	bl	12120 <_tr_init>
   10810:	e5954018 	ldr	r4, [r5, #24]
   10814:	e1a01006 	mov	r1, r6
   10818:	e594204c 	ldr	r2, [r4, #76]	; 0x4c
   1081c:	e594c02c 	ldr	ip, [r4, #44]	; 0x2c
   10820:	e5940044 	ldr	r0, [r4, #68]	; 0x44
   10824:	e2423001 	sub	r3, r2, #1
   10828:	e1a0c08c 	lsl	ip, ip, #1
   1082c:	e1a03083 	lsl	r3, r3, #1
   10830:	e2422106 	sub	r2, r2, #-2147483647	; 0x80000001
   10834:	e584c03c 	str	ip, [r4, #60]	; 0x3c
   10838:	e1a02082 	lsl	r2, r2, #1
   1083c:	e18060b3 	strh	r6, [r0, r3]
   10840:	ebffdf1f 	bl	84c4 <xmemset>
   10844:	e5942084 	ldr	r2, [r4, #132]	; 0x84
   10848:	e59f10d0 	ldr	r1, [pc, #208]	; 10920 <deflateInit2_+0x3c4>
   1084c:	e0822082 	add	r2, r2, r2, lsl #1
   10850:	e1a02102 	lsl	r2, r2, #2
   10854:	e0813002 	add	r3, r1, r2
   10858:	e19150b2 	ldrh	r5, [r1, r2]
   1085c:	e1d300b4 	ldrh	r0, [r3, #4]
   10860:	e1d3c0b2 	ldrh	ip, [r3, #2]
   10864:	e1d310b6 	ldrh	r1, [r3, #6]
   10868:	e59f20b4 	ldr	r2, [pc, #180]	; 10924 <deflateInit2_+0x3c8>
   1086c:	e3a03002 	mov	r3, #2
   10870:	e5840090 	str	r0, [r4, #144]	; 0x90
   10874:	e584606c 	str	r6, [r4, #108]	; 0x6c
   10878:	e584605c 	str	r6, [r4, #92]	; 0x5c
   1087c:	e5846074 	str	r6, [r4, #116]	; 0x74
   10880:	e5846068 	str	r6, [r4, #104]	; 0x68
   10884:	e5846048 	str	r6, [r4, #72]	; 0x48
   10888:	e584508c 	str	r5, [r4, #140]	; 0x8c
   1088c:	e584c080 	str	ip, [r4, #128]	; 0x80
   10890:	e584107c 	str	r1, [r4, #124]	; 0x7c
   10894:	e7846002 	str	r6, [r4, r2]
   10898:	e1a00006 	mov	r0, r6
   1089c:	e5843078 	str	r3, [r4, #120]	; 0x78
   108a0:	e5843060 	str	r3, [r4, #96]	; 0x60
   108a4:	e8bd8ff8 	pop	{r3, r4, r5, r6, r7, r8, r9, sl, fp, pc}
   108a8:	e2633000 	rsb	r3, r3, #0
   108ac:	e58a3018 	str	r3, [sl, #24]
   108b0:	e3530002 	cmp	r3, #2
   108b4:	e3a0302a 	mov	r3, #42	; 0x2a
   108b8:	e58a3004 	str	r3, [sl, #4]
   108bc:	1affffca 	bne	107ec <deflateInit2_+0x290>
   108c0:	e3a00000 	mov	r0, #0
   108c4:	e1a01000 	mov	r1, r0
   108c8:	e1a02000 	mov	r2, r0
   108cc:	ebffeb1c 	bl	b544 <crc32>
   108d0:	eaffffc9 	b	107fc <deflateInit2_+0x2a0>
   108d4:	e3e00005 	mvn	r0, #5
   108d8:	e8bd8ff8 	pop	{r3, r4, r5, r6, r7, r8, r9, sl, fp, pc}
   108dc:	e3e00001 	mvn	r0, #1
   108e0:	e8bd8ff8 	pop	{r3, r4, r5, r6, r7, r8, r9, sl, fp, pc}
   108e4:	e59f303c 	ldr	r3, [pc, #60]	; 10928 <deflateInit2_+0x3cc>
   108e8:	e1a00005 	mov	r0, r5
   108ec:	e5843004 	str	r3, [r4, #4]
   108f0:	ebfffedd 	bl	1046c <deflateEnd>
   108f4:	e3e00003 	mvn	r0, #3
   108f8:	e8bd8ff8 	pop	{r3, r4, r5, r6, r7, r8, r9, sl, fp, pc}
   108fc:	e3e00003 	mvn	r0, #3
   10900:	e8bd8ff8 	pop	{r3, r4, r5, r6, r7, r8, r9, sl, fp, pc}
   10904:	0000cd60 	andeq	ip, r0, r0, ror #26
   10908:	0000cd68 	andeq	ip, r0, r8, ror #26
   1090c:	000016c4 	andeq	r1, r0, r4, asr #13
   10910:	aaaaaaab 	bge	feabb3c4 <malloc_base+0xfea9f978>
   10914:	0000169c 	muleq	r0, ip, r6
   10918:	000016a4 	andeq	r1, r0, r4, lsr #13
   1091c:	00001698 	muleq	r0, r8, r6
   10920:	00013f9c 	muleq	r1, ip, pc	; <UNPREDICTABLE>
   10924:	000016b4 			; <UNDEFINED> instruction: 0x000016b4
   10928:	0000029a 	muleq	r0, sl, r2

0001092c <deflateInit_>:
   1092c:	e52de004 	push	{lr}		; (str lr, [sp, #-4]!)
   10930:	e3a0c008 	mov	ip, #8
   10934:	e24dd014 	sub	sp, sp, #20
   10938:	e3a0e000 	mov	lr, #0
   1093c:	e58d2008 	str	r2, [sp, #8]
   10940:	e58d300c 	str	r3, [sp, #12]
   10944:	e58dc000 	str	ip, [sp]
   10948:	e1a0200c 	mov	r2, ip
   1094c:	e58de004 	str	lr, [sp, #4]
   10950:	e3a0300f 	mov	r3, #15
   10954:	ebffff00 	bl	1055c <deflateInit2_>
   10958:	e28dd014 	add	sp, sp, #20
   1095c:	e8bd8000 	pop	{pc}

00010960 <deflateCopy>:
   10960:	e3500000 	cmp	r0, #0
   10964:	13510000 	cmpne	r1, #0
   10968:	e92d45f8 	push	{r3, r4, r5, r6, r7, r8, sl, lr}
   1096c:	13a0a000 	movne	sl, #0
   10970:	03a0a001 	moveq	sl, #1
   10974:	e1a05000 	mov	r5, r0
   10978:	0a000060 	beq	10b00 <deflateCopy+0x1a0>
   1097c:	e5916018 	ldr	r6, [r1, #24]
   10980:	e3560000 	cmp	r6, #0
   10984:	0a00005d 	beq	10b00 <deflateCopy+0x1a0>
   10988:	e3a02034 	mov	r2, #52	; 0x34
   1098c:	ebffde9e 	bl	840c <xmemcpy>
   10990:	e595301c 	ldr	r3, [r5, #28]
   10994:	e5950024 	ldr	r0, [r5, #36]	; 0x24
   10998:	e3a01001 	mov	r1, #1
   1099c:	e59f217c 	ldr	r2, [pc, #380]	; 10b20 <deflateCopy+0x1c0>
   109a0:	e12fff33 	blx	r3
   109a4:	e2504000 	subs	r4, r0, #0
   109a8:	0a00005a 	beq	10b18 <deflateCopy+0x1b8>
   109ac:	e1a01006 	mov	r1, r6
   109b0:	e59f2168 	ldr	r2, [pc, #360]	; 10b20 <deflateCopy+0x1c0>
   109b4:	e5854018 	str	r4, [r5, #24]
   109b8:	ebffde93 	bl	840c <xmemcpy>
   109bc:	e595301c 	ldr	r3, [r5, #28]
   109c0:	e594102c 	ldr	r1, [r4, #44]	; 0x2c
   109c4:	e3a02002 	mov	r2, #2
   109c8:	e5845000 	str	r5, [r4]
   109cc:	e5950024 	ldr	r0, [r5, #36]	; 0x24
   109d0:	e12fff33 	blx	r3
   109d4:	e595301c 	ldr	r3, [r5, #28]
   109d8:	e594102c 	ldr	r1, [r4, #44]	; 0x2c
   109dc:	e5840038 	str	r0, [r4, #56]	; 0x38
   109e0:	e3a02002 	mov	r2, #2
   109e4:	e5950024 	ldr	r0, [r5, #36]	; 0x24
   109e8:	e12fff33 	blx	r3
   109ec:	e595301c 	ldr	r3, [r5, #28]
   109f0:	e594104c 	ldr	r1, [r4, #76]	; 0x4c
   109f4:	e5840040 	str	r0, [r4, #64]	; 0x40
   109f8:	e3a02002 	mov	r2, #2
   109fc:	e5950024 	ldr	r0, [r5, #36]	; 0x24
   10a00:	e12fff33 	blx	r3
   10a04:	e59f8118 	ldr	r8, [pc, #280]	; 10b24 <deflateCopy+0x1c4>
   10a08:	e5840044 	str	r0, [r4, #68]	; 0x44
   10a0c:	e7941008 	ldr	r1, [r4, r8]
   10a10:	e595301c 	ldr	r3, [r5, #28]
   10a14:	e5950024 	ldr	r0, [r5, #36]	; 0x24
   10a18:	e3a02004 	mov	r2, #4
   10a1c:	e12fff33 	blx	r3
   10a20:	e1a07000 	mov	r7, r0
   10a24:	e5940038 	ldr	r0, [r4, #56]	; 0x38
   10a28:	e5847008 	str	r7, [r4, #8]
   10a2c:	e3500000 	cmp	r0, #0
   10a30:	0a000034 	beq	10b08 <deflateCopy+0x1a8>
   10a34:	e5943040 	ldr	r3, [r4, #64]	; 0x40
   10a38:	e3530000 	cmp	r3, #0
   10a3c:	0a000031 	beq	10b08 <deflateCopy+0x1a8>
   10a40:	e5943044 	ldr	r3, [r4, #68]	; 0x44
   10a44:	e3530000 	cmp	r3, #0
   10a48:	0a00002e 	beq	10b08 <deflateCopy+0x1a8>
   10a4c:	e3570000 	cmp	r7, #0
   10a50:	0a00002c 	beq	10b08 <deflateCopy+0x1a8>
   10a54:	e594202c 	ldr	r2, [r4, #44]	; 0x2c
   10a58:	e5961038 	ldr	r1, [r6, #56]	; 0x38
   10a5c:	e1a02082 	lsl	r2, r2, #1
   10a60:	ebffde69 	bl	840c <xmemcpy>
   10a64:	e594202c 	ldr	r2, [r4, #44]	; 0x2c
   10a68:	e5940040 	ldr	r0, [r4, #64]	; 0x40
   10a6c:	e5961040 	ldr	r1, [r6, #64]	; 0x40
   10a70:	e1a02082 	lsl	r2, r2, #1
   10a74:	ebffde64 	bl	840c <xmemcpy>
   10a78:	e594204c 	ldr	r2, [r4, #76]	; 0x4c
   10a7c:	e5940044 	ldr	r0, [r4, #68]	; 0x44
   10a80:	e5961044 	ldr	r1, [r6, #68]	; 0x44
   10a84:	e1a02082 	lsl	r2, r2, #1
   10a88:	ebffde5f 	bl	840c <xmemcpy>
   10a8c:	e5940008 	ldr	r0, [r4, #8]
   10a90:	e5961008 	ldr	r1, [r6, #8]
   10a94:	e594200c 	ldr	r2, [r4, #12]
   10a98:	ebffde5b 	bl	840c <xmemcpy>
   10a9c:	e7943008 	ldr	r3, [r4, r8]
   10aa0:	e596c010 	ldr	ip, [r6, #16]
   10aa4:	e5961008 	ldr	r1, [r6, #8]
   10aa8:	e5942008 	ldr	r2, [r4, #8]
   10aac:	e3c30001 	bic	r0, r3, #1
   10ab0:	e061100c 	rsb	r1, r1, ip
   10ab4:	e59f806c 	ldr	r8, [pc, #108]	; 10b28 <deflateCopy+0x1c8>
   10ab8:	e59f606c 	ldr	r6, [pc, #108]	; 10b2c <deflateCopy+0x1cc>
   10abc:	e2845d26 	add	r5, r4, #2432	; 0x980
   10ac0:	e284cea7 	add	ip, r4, #2672	; 0xa70
   10ac4:	e0833083 	add	r3, r3, r3, lsl #1
   10ac8:	e0877000 	add	r7, r7, r0
   10acc:	e0823003 	add	r3, r2, r3
   10ad0:	e2855008 	add	r5, r5, #8
   10ad4:	e0822001 	add	r2, r2, r1
   10ad8:	e28cc00c 	add	ip, ip, #12
   10adc:	e2841094 	add	r1, r4, #148	; 0x94
   10ae0:	e1a0000a 	mov	r0, sl
   10ae4:	e7847008 	str	r7, [r4, r8]
   10ae8:	e7843006 	str	r3, [r4, r6]
   10aec:	e5842010 	str	r2, [r4, #16]
   10af0:	e5845b24 	str	r5, [r4, #2852]	; 0xb24
   10af4:	e584cb30 	str	ip, [r4, #2864]	; 0xb30
   10af8:	e5841b18 	str	r1, [r4, #2840]	; 0xb18
   10afc:	e8bd85f8 	pop	{r3, r4, r5, r6, r7, r8, sl, pc}
   10b00:	e3e00001 	mvn	r0, #1
   10b04:	e8bd85f8 	pop	{r3, r4, r5, r6, r7, r8, sl, pc}
   10b08:	e1a00005 	mov	r0, r5
   10b0c:	ebfffe56 	bl	1046c <deflateEnd>
   10b10:	e3e00003 	mvn	r0, #3
   10b14:	e8bd85f8 	pop	{r3, r4, r5, r6, r7, r8, sl, pc}
   10b18:	e3e00003 	mvn	r0, #3
   10b1c:	e8bd85f8 	pop	{r3, r4, r5, r6, r7, r8, sl, pc}
   10b20:	000016c4 	andeq	r1, r0, r4, asr #13
   10b24:	0000169c 	muleq	r0, ip, r6
   10b28:	000016a4 	andeq	r1, r0, r4, lsr #13
   10b2c:	00001698 	muleq	r0, r8, r6

00010b30 <send_tree>:
   10b30:	e92d0ff0 	push	{r4, r5, r6, r7, r8, r9, sl, fp}
   10b34:	e1d1a0b2 	ldrh	sl, [r1, #2]
   10b38:	e24dd010 	sub	sp, sp, #16
   10b3c:	e35a0000 	cmp	sl, #0
   10b40:	03a06003 	moveq	r6, #3
   10b44:	13a06004 	movne	r6, #4
   10b48:	03a0508a 	moveq	r5, #138	; 0x8a
   10b4c:	13a05007 	movne	r5, #7
   10b50:	e3520000 	cmp	r2, #0
   10b54:	ba000044 	blt	10c6c <send_tree+0x13c>
   10b58:	e2813004 	add	r3, r1, #4
   10b5c:	e0833102 	add	r3, r3, r2, lsl #2
   10b60:	e59f456c 	ldr	r4, [pc, #1388]	; 110d4 <send_tree+0x5a4>
   10b64:	e59fc56c 	ldr	ip, [pc, #1388]	; 110d8 <send_tree+0x5a8>
   10b68:	e58d300c 	str	r3, [sp, #12]
   10b6c:	e3a02000 	mov	r2, #0
   10b70:	e3e07000 	mvn	r7, #0
   10b74:	e2823001 	add	r3, r2, #1
   10b78:	e1530005 	cmp	r3, r5
   10b7c:	e1d190b6 	ldrh	r9, [r1, #6]
   10b80:	aa000002 	bge	10b90 <send_tree+0x60>
   10b84:	e15a0009 	cmp	sl, r9
   10b88:	01a02003 	moveq	r2, r3
   10b8c:	0a000031 	beq	10c58 <send_tree+0x128>
   10b90:	e1530006 	cmp	r3, r6
   10b94:	aa000037 	bge	10c78 <send_tree+0x148>
   10b98:	e28a6fa7 	add	r6, sl, #668	; 0x29c
   10b9c:	e2866002 	add	r6, r6, #2
   10ba0:	e0806106 	add	r6, r0, r6, lsl #2
   10ba4:	e58d1008 	str	r1, [sp, #8]
   10ba8:	ea000016 	b	10c08 <send_tree+0xd8>
   10bac:	e190b0bc 	ldrh	fp, [r0, ip]
   10bb0:	e5905014 	ldr	r5, [r0, #20]
   10bb4:	e18b8817 	orr	r8, fp, r7, lsl r8
   10bb8:	e590b008 	ldr	fp, [r0, #8]
   10bbc:	e6ff8078 	uxth	r8, r8
   10bc0:	e18080bc 	strh	r8, [r0, ip]
   10bc4:	e7cb8005 	strb	r8, [fp, r5]
   10bc8:	e190b0bc 	ldrh	fp, [r0, ip]
   10bcc:	e5901008 	ldr	r1, [r0, #8]
   10bd0:	e2858001 	add	r8, r5, #1
   10bd4:	e1a0b42b 	lsr	fp, fp, #8
   10bd8:	e7c1b008 	strb	fp, [r1, r8]
   10bdc:	e7908004 	ldr	r8, [r0, r4]
   10be0:	e2422010 	sub	r2, r2, #16
   10be4:	e268b010 	rsb	fp, r8, #16
   10be8:	e1a07b57 	asr	r7, r7, fp
   10bec:	e2855002 	add	r5, r5, #2
   10bf0:	e0888002 	add	r8, r8, r2
   10bf4:	e2533001 	subs	r3, r3, #1
   10bf8:	e5805014 	str	r5, [r0, #20]
   10bfc:	e18070bc 	strh	r7, [r0, ip]
   10c00:	e7808004 	str	r8, [r0, r4]
   10c04:	0a00000c 	beq	10c3c <send_tree+0x10c>
   10c08:	e1d620b6 	ldrh	r2, [r6, #6]
   10c0c:	e7908004 	ldr	r8, [r0, r4]
   10c10:	e2625010 	rsb	r5, r2, #16
   10c14:	e1580005 	cmp	r8, r5
   10c18:	e1d670b4 	ldrh	r7, [r6, #4]
   10c1c:	caffffe2 	bgt	10bac <send_tree+0x7c>
   10c20:	e19050bc 	ldrh	r5, [r0, ip]
   10c24:	e0822008 	add	r2, r2, r8
   10c28:	e1858817 	orr	r8, r5, r7, lsl r8
   10c2c:	e2533001 	subs	r3, r3, #1
   10c30:	e7802004 	str	r2, [r0, r4]
   10c34:	e18080bc 	strh	r8, [r0, ip]
   10c38:	1afffff2 	bne	10c08 <send_tree+0xd8>
   10c3c:	e3590000 	cmp	r9, #0
   10c40:	e59d1008 	ldr	r1, [sp, #8]
   10c44:	1a000063 	bne	10dd8 <send_tree+0x2a8>
   10c48:	e1a0700a 	mov	r7, sl
   10c4c:	e3a06003 	mov	r6, #3
   10c50:	e3a0508a 	mov	r5, #138	; 0x8a
   10c54:	e1a02009 	mov	r2, r9
   10c58:	e59d800c 	ldr	r8, [sp, #12]
   10c5c:	e2811004 	add	r1, r1, #4
   10c60:	e1510008 	cmp	r1, r8
   10c64:	e1a0a009 	mov	sl, r9
   10c68:	1affffc1 	bne	10b74 <send_tree+0x44>
   10c6c:	e28dd010 	add	sp, sp, #16
   10c70:	e8bd0ff0 	pop	{r4, r5, r6, r7, r8, r9, sl, fp}
   10c74:	e12fff1e 	bx	lr
   10c78:	e35a0000 	cmp	sl, #0
   10c7c:	0a00005c 	beq	10df4 <send_tree+0x2c4>
   10c80:	e157000a 	cmp	r7, sl
   10c84:	0a0000f0 	beq	1104c <send_tree+0x51c>
   10c88:	e28a5fa7 	add	r5, sl, #668	; 0x29c
   10c8c:	e2855002 	add	r5, r5, #2
   10c90:	e0805105 	add	r5, r0, r5, lsl #2
   10c94:	e1d530b6 	ldrh	r3, [r5, #6]
   10c98:	e7907004 	ldr	r7, [r0, r4]
   10c9c:	e2636010 	rsb	r6, r3, #16
   10ca0:	e1570006 	cmp	r7, r6
   10ca4:	e1d560b4 	ldrh	r6, [r5, #4]
   10ca8:	da0000e0 	ble	11030 <send_tree+0x500>
   10cac:	e19080bc 	ldrh	r8, [r0, ip]
   10cb0:	e5905014 	ldr	r5, [r0, #20]
   10cb4:	e1887716 	orr	r7, r8, r6, lsl r7
   10cb8:	e5908008 	ldr	r8, [r0, #8]
   10cbc:	e6ff7077 	uxth	r7, r7
   10cc0:	e18070bc 	strh	r7, [r0, ip]
   10cc4:	e7c87005 	strb	r7, [r8, r5]
   10cc8:	e19080bc 	ldrh	r8, [r0, ip]
   10ccc:	e590b008 	ldr	fp, [r0, #8]
   10cd0:	e2857001 	add	r7, r5, #1
   10cd4:	e1a08428 	lsr	r8, r8, #8
   10cd8:	e7cb8007 	strb	r8, [fp, r7]
   10cdc:	e7907004 	ldr	r7, [r0, r4]
   10ce0:	e2433010 	sub	r3, r3, #16
   10ce4:	e2678010 	rsb	r8, r7, #16
   10ce8:	e1a06856 	asr	r6, r6, r8
   10cec:	e2855002 	add	r5, r5, #2
   10cf0:	e0873003 	add	r3, r7, r3
   10cf4:	e6ff6076 	uxth	r6, r6
   10cf8:	e5805014 	str	r5, [r0, #20]
   10cfc:	e18060bc 	strh	r6, [r0, ip]
   10d00:	e7803004 	str	r3, [r0, r4]
   10d04:	e59f73d0 	ldr	r7, [pc, #976]	; 110dc <send_tree+0x5ac>
   10d08:	e19050b7 	ldrh	r5, [r0, r7]
   10d0c:	e2657010 	rsb	r7, r5, #16
   10d10:	e1570003 	cmp	r7, r3
   10d14:	aa000079 	bge	10f00 <send_tree+0x3d0>
   10d18:	e59fb3c0 	ldr	fp, [pc, #960]	; 110e0 <send_tree+0x5b0>
   10d1c:	e5907014 	ldr	r7, [r0, #20]
   10d20:	e19080bb 	ldrh	r8, [r0, fp]
   10d24:	e590b008 	ldr	fp, [r0, #8]
   10d28:	e1863318 	orr	r3, r6, r8, lsl r3
   10d2c:	e6ff3073 	uxth	r3, r3
   10d30:	e18030bc 	strh	r3, [r0, ip]
   10d34:	e7cb3007 	strb	r3, [fp, r7]
   10d38:	e19060bc 	ldrh	r6, [r0, ip]
   10d3c:	e590b008 	ldr	fp, [r0, #8]
   10d40:	e2873001 	add	r3, r7, #1
   10d44:	e1a06426 	lsr	r6, r6, #8
   10d48:	e7cb6003 	strb	r6, [fp, r3]
   10d4c:	e7903004 	ldr	r3, [r0, r4]
   10d50:	e2455010 	sub	r5, r5, #16
   10d54:	e2636010 	rsb	r6, r3, #16
   10d58:	e1a08658 	asr	r8, r8, r6
   10d5c:	e0835005 	add	r5, r3, r5
   10d60:	e2877002 	add	r7, r7, #2
   10d64:	e6ff8078 	uxth	r8, r8
   10d68:	e2422003 	sub	r2, r2, #3
   10d6c:	e355000e 	cmp	r5, #14
   10d70:	e5807014 	str	r7, [r0, #20]
   10d74:	e18080bc 	strh	r8, [r0, ip]
   10d78:	e7805004 	str	r5, [r0, r4]
   10d7c:	e6ff2072 	uxth	r2, r2
   10d80:	da000069 	ble	10f2c <send_tree+0x3fc>
   10d84:	e1885512 	orr	r5, r8, r2, lsl r5
   10d88:	e5903014 	ldr	r3, [r0, #20]
   10d8c:	e5906008 	ldr	r6, [r0, #8]
   10d90:	e6ff5075 	uxth	r5, r5
   10d94:	e18050bc 	strh	r5, [r0, ip]
   10d98:	e7c65003 	strb	r5, [r6, r3]
   10d9c:	e19070bc 	ldrh	r7, [r0, ip]
   10da0:	e5906008 	ldr	r6, [r0, #8]
   10da4:	e2835001 	add	r5, r3, #1
   10da8:	e1a07427 	lsr	r7, r7, #8
   10dac:	e7c67005 	strb	r7, [r6, r5]
   10db0:	e7905004 	ldr	r5, [r0, r4]
   10db4:	e2833002 	add	r3, r3, #2
   10db8:	e2656010 	rsb	r6, r5, #16
   10dbc:	e1a02652 	asr	r2, r2, r6
   10dc0:	e245500e 	sub	r5, r5, #14
   10dc4:	e5803014 	str	r3, [r0, #20]
   10dc8:	e18020bc 	strh	r2, [r0, ip]
   10dcc:	e7805004 	str	r5, [r0, r4]
   10dd0:	e3590000 	cmp	r9, #0
   10dd4:	0affff9b 	beq	10c48 <send_tree+0x118>
   10dd8:	e15a0009 	cmp	sl, r9
   10ddc:	0a000042 	beq	10eec <send_tree+0x3bc>
   10de0:	e1a0700a 	mov	r7, sl
   10de4:	e3a06004 	mov	r6, #4
   10de8:	e3a05007 	mov	r5, #7
   10dec:	e3a02000 	mov	r2, #0
   10df0:	eaffff98 	b	10c58 <send_tree+0x128>
   10df4:	e353000a 	cmp	r3, #10
   10df8:	ca000050 	bgt	10f40 <send_tree+0x410>
   10dfc:	e59f82e0 	ldr	r8, [pc, #736]	; 110e4 <send_tree+0x5b4>
   10e00:	e7906004 	ldr	r6, [r0, r4]
   10e04:	e19050b8 	ldrh	r5, [r0, r8]
   10e08:	e2657010 	rsb	r7, r5, #16
   10e0c:	e1560007 	cmp	r6, r7
   10e10:	e3a07d2b 	mov	r7, #2752	; 0xac0
   10e14:	da000097 	ble	11078 <send_tree+0x548>
   10e18:	e19070b7 	ldrh	r7, [r0, r7]
   10e1c:	e190b0bc 	ldrh	fp, [r0, ip]
   10e20:	e58d7000 	str	r7, [sp]
   10e24:	e59d8000 	ldr	r8, [sp]
   10e28:	e5907014 	ldr	r7, [r0, #20]
   10e2c:	e18b6618 	orr	r6, fp, r8, lsl r6
   10e30:	e590b008 	ldr	fp, [r0, #8]
   10e34:	e6ff6076 	uxth	r6, r6
   10e38:	e18060bc 	strh	r6, [r0, ip]
   10e3c:	e7cb6007 	strb	r6, [fp, r7]
   10e40:	e190b0bc 	ldrh	fp, [r0, ip]
   10e44:	e5908008 	ldr	r8, [r0, #8]
   10e48:	e1a0b42b 	lsr	fp, fp, #8
   10e4c:	e58db008 	str	fp, [sp, #8]
   10e50:	e59d6008 	ldr	r6, [sp, #8]
   10e54:	e287b001 	add	fp, r7, #1
   10e58:	e7c8600b 	strb	r6, [r8, fp]
   10e5c:	e7906004 	ldr	r6, [r0, r4]
   10e60:	e2455010 	sub	r5, r5, #16
   10e64:	e266b010 	rsb	fp, r6, #16
   10e68:	e59d6000 	ldr	r6, [sp]
   10e6c:	e2877002 	add	r7, r7, #2
   10e70:	e1a08b56 	asr	r8, r6, fp
   10e74:	e790b004 	ldr	fp, [r0, r4]
   10e78:	e6ff8078 	uxth	r8, r8
   10e7c:	e08b5005 	add	r5, fp, r5
   10e80:	e5807014 	str	r7, [r0, #20]
   10e84:	e18080bc 	strh	r8, [r0, ip]
   10e88:	e7805004 	str	r5, [r0, r4]
   10e8c:	e355000d 	cmp	r5, #13
   10e90:	da000071 	ble	1105c <send_tree+0x52c>
   10e94:	e2422002 	sub	r2, r2, #2
   10e98:	e6ff2072 	uxth	r2, r2
   10e9c:	e1885512 	orr	r5, r8, r2, lsl r5
   10ea0:	e5903014 	ldr	r3, [r0, #20]
   10ea4:	e5906008 	ldr	r6, [r0, #8]
   10ea8:	e6ff5075 	uxth	r5, r5
   10eac:	e18050bc 	strh	r5, [r0, ip]
   10eb0:	e7c65003 	strb	r5, [r6, r3]
   10eb4:	e19070bc 	ldrh	r7, [r0, ip]
   10eb8:	e5906008 	ldr	r6, [r0, #8]
   10ebc:	e2835001 	add	r5, r3, #1
   10ec0:	e1a07427 	lsr	r7, r7, #8
   10ec4:	e7c67005 	strb	r7, [r6, r5]
   10ec8:	e7905004 	ldr	r5, [r0, r4]
   10ecc:	e2833002 	add	r3, r3, #2
   10ed0:	e2656010 	rsb	r6, r5, #16
   10ed4:	e1a02652 	asr	r2, r2, r6
   10ed8:	e245500d 	sub	r5, r5, #13
   10edc:	e5803014 	str	r3, [r0, #20]
   10ee0:	e18020bc 	strh	r2, [r0, ip]
   10ee4:	e7805004 	str	r5, [r0, r4]
   10ee8:	eaffffb8 	b	10dd0 <send_tree+0x2a0>
   10eec:	e1a07009 	mov	r7, r9
   10ef0:	e3a06003 	mov	r6, #3
   10ef4:	e3a05006 	mov	r5, #6
   10ef8:	e3a02000 	mov	r2, #0
   10efc:	eaffff55 	b	10c58 <send_tree+0x128>
   10f00:	e59f71d8 	ldr	r7, [pc, #472]	; 110e0 <send_tree+0x5b0>
   10f04:	e0855003 	add	r5, r5, r3
   10f08:	e19080b7 	ldrh	r8, [r0, r7]
   10f0c:	e2422003 	sub	r2, r2, #3
   10f10:	e1863318 	orr	r3, r6, r8, lsl r3
   10f14:	e355000e 	cmp	r5, #14
   10f18:	e6ff8073 	uxth	r8, r3
   10f1c:	e7805004 	str	r5, [r0, r4]
   10f20:	e18080bc 	strh	r8, [r0, ip]
   10f24:	e6ff2072 	uxth	r2, r2
   10f28:	caffff95 	bgt	10d84 <send_tree+0x254>
   10f2c:	e1888512 	orr	r8, r8, r2, lsl r5
   10f30:	e2855002 	add	r5, r5, #2
   10f34:	e18080bc 	strh	r8, [r0, ip]
   10f38:	e7805004 	str	r5, [r0, r4]
   10f3c:	eaffffa3 	b	10dd0 <send_tree+0x2a0>
   10f40:	e59f61a0 	ldr	r6, [pc, #416]	; 110e8 <send_tree+0x5b8>
   10f44:	e19050b6 	ldrh	r5, [r0, r6]
   10f48:	e7906004 	ldr	r6, [r0, r4]
   10f4c:	e2657010 	rsb	r7, r5, #16
   10f50:	e1560007 	cmp	r6, r7
   10f54:	e59f7190 	ldr	r7, [pc, #400]	; 110ec <send_tree+0x5bc>
   10f58:	da000055 	ble	110b4 <send_tree+0x584>
   10f5c:	e19070b7 	ldrh	r7, [r0, r7]
   10f60:	e190b0bc 	ldrh	fp, [r0, ip]
   10f64:	e58d7000 	str	r7, [sp]
   10f68:	e59d8000 	ldr	r8, [sp]
   10f6c:	e5907014 	ldr	r7, [r0, #20]
   10f70:	e18b6618 	orr	r6, fp, r8, lsl r6
   10f74:	e590b008 	ldr	fp, [r0, #8]
   10f78:	e6ff6076 	uxth	r6, r6
   10f7c:	e18060bc 	strh	r6, [r0, ip]
   10f80:	e7cb6007 	strb	r6, [fp, r7]
   10f84:	e190b0bc 	ldrh	fp, [r0, ip]
   10f88:	e5908008 	ldr	r8, [r0, #8]
   10f8c:	e1a0b42b 	lsr	fp, fp, #8
   10f90:	e58db008 	str	fp, [sp, #8]
   10f94:	e59d6008 	ldr	r6, [sp, #8]
   10f98:	e287b001 	add	fp, r7, #1
   10f9c:	e7c8600b 	strb	r6, [r8, fp]
   10fa0:	e7906004 	ldr	r6, [r0, r4]
   10fa4:	e2455010 	sub	r5, r5, #16
   10fa8:	e266b010 	rsb	fp, r6, #16
   10fac:	e59d6000 	ldr	r6, [sp]
   10fb0:	e2877002 	add	r7, r7, #2
   10fb4:	e1a08b56 	asr	r8, r6, fp
   10fb8:	e790b004 	ldr	fp, [r0, r4]
   10fbc:	e6ff8078 	uxth	r8, r8
   10fc0:	e08b5005 	add	r5, fp, r5
   10fc4:	e5807014 	str	r7, [r0, #20]
   10fc8:	e18080bc 	strh	r8, [r0, ip]
   10fcc:	e7805004 	str	r5, [r0, r4]
   10fd0:	e3550009 	cmp	r5, #9
   10fd4:	da00002f 	ble	11098 <send_tree+0x568>
   10fd8:	e242200a 	sub	r2, r2, #10
   10fdc:	e6ff2072 	uxth	r2, r2
   10fe0:	e1885512 	orr	r5, r8, r2, lsl r5
   10fe4:	e5903014 	ldr	r3, [r0, #20]
   10fe8:	e5906008 	ldr	r6, [r0, #8]
   10fec:	e6ff5075 	uxth	r5, r5
   10ff0:	e18050bc 	strh	r5, [r0, ip]
   10ff4:	e7c65003 	strb	r5, [r6, r3]
   10ff8:	e19070bc 	ldrh	r7, [r0, ip]
   10ffc:	e5906008 	ldr	r6, [r0, #8]
   11000:	e2835001 	add	r5, r3, #1
   11004:	e1a07427 	lsr	r7, r7, #8
   11008:	e7c67005 	strb	r7, [r6, r5]
   1100c:	e7905004 	ldr	r5, [r0, r4]
   11010:	e2833002 	add	r3, r3, #2
   11014:	e2656010 	rsb	r6, r5, #16
   11018:	e1a02652 	asr	r2, r2, r6
   1101c:	e2455009 	sub	r5, r5, #9
   11020:	e5803014 	str	r3, [r0, #20]
   11024:	e18020bc 	strh	r2, [r0, ip]
   11028:	e7805004 	str	r5, [r0, r4]
   1102c:	eaffff67 	b	10dd0 <send_tree+0x2a0>
   11030:	e19050bc 	ldrh	r5, [r0, ip]
   11034:	e0833007 	add	r3, r3, r7
   11038:	e1856716 	orr	r6, r5, r6, lsl r7
   1103c:	e6ff6076 	uxth	r6, r6
   11040:	e7803004 	str	r3, [r0, r4]
   11044:	e18060bc 	strh	r6, [r0, ip]
   11048:	eaffff2d 	b	10d04 <send_tree+0x1d4>
   1104c:	e1a02003 	mov	r2, r3
   11050:	e19060bc 	ldrh	r6, [r0, ip]
   11054:	e7903004 	ldr	r3, [r0, r4]
   11058:	eaffff29 	b	10d04 <send_tree+0x1d4>
   1105c:	e2433003 	sub	r3, r3, #3
   11060:	e6ff3073 	uxth	r3, r3
   11064:	e1888513 	orr	r8, r8, r3, lsl r5
   11068:	e2855003 	add	r5, r5, #3
   1106c:	e18080bc 	strh	r8, [r0, ip]
   11070:	e7805004 	str	r5, [r0, r4]
   11074:	eaffff55 	b	10dd0 <send_tree+0x2a0>
   11078:	e19080b7 	ldrh	r8, [r0, r7]
   1107c:	e19070bc 	ldrh	r7, [r0, ip]
   11080:	e0855006 	add	r5, r5, r6
   11084:	e1878618 	orr	r8, r7, r8, lsl r6
   11088:	e6ff8078 	uxth	r8, r8
   1108c:	e7805004 	str	r5, [r0, r4]
   11090:	e18080bc 	strh	r8, [r0, ip]
   11094:	eaffff7c 	b	10e8c <send_tree+0x35c>
   11098:	e243300b 	sub	r3, r3, #11
   1109c:	e6ff3073 	uxth	r3, r3
   110a0:	e1888513 	orr	r8, r8, r3, lsl r5
   110a4:	e2855007 	add	r5, r5, #7
   110a8:	e18080bc 	strh	r8, [r0, ip]
   110ac:	e7805004 	str	r5, [r0, r4]
   110b0:	eaffff46 	b	10dd0 <send_tree+0x2a0>
   110b4:	e19080b7 	ldrh	r8, [r0, r7]
   110b8:	e19070bc 	ldrh	r7, [r0, ip]
   110bc:	e0855006 	add	r5, r5, r6
   110c0:	e1878618 	orr	r8, r7, r8, lsl r6
   110c4:	e6ff8078 	uxth	r8, r8
   110c8:	e7805004 	str	r5, [r0, r4]
   110cc:	e18080bc 	strh	r8, [r0, ip]
   110d0:	eaffffbe 	b	10fd0 <send_tree+0x4a0>
   110d4:	000016bc 			; <UNDEFINED> instruction: 0x000016bc
   110d8:	000016b8 			; <UNDEFINED> instruction: 0x000016b8
   110dc:	00000abe 			; <UNDEFINED> instruction: 0x00000abe
   110e0:	00000abc 			; <UNDEFINED> instruction: 0x00000abc
   110e4:	00000ac2 	andeq	r0, r0, r2, asr #21
   110e8:	00000ac6 	andeq	r0, r0, r6, asr #21
   110ec:	00000ac4 	andeq	r0, r0, r4, asr #21

000110f0 <compress_block>:
   110f0:	e92d0ff0 	push	{r4, r5, r6, r7, r8, r9, sl, fp}
   110f4:	e59f541c 	ldr	r5, [pc, #1052]	; 11518 <compress_block+0x428>
   110f8:	e24dd010 	sub	sp, sp, #16
   110fc:	e7903005 	ldr	r3, [r0, r5]
   11100:	e58d200c 	str	r2, [sp, #12]
   11104:	e3530000 	cmp	r3, #0
   11108:	1a000013 	bne	1115c <compress_block+0x6c>
   1110c:	e59f3408 	ldr	r3, [pc, #1032]	; 1151c <compress_block+0x42c>
   11110:	e59f2408 	ldr	r2, [pc, #1032]	; 11520 <compress_block+0x430>
   11114:	e7903003 	ldr	r3, [r0, r3]
   11118:	e190c0b2 	ldrh	ip, [r0, r2]
   1111c:	e59f2400 	ldr	r2, [pc, #1024]	; 11524 <compress_block+0x434>
   11120:	e19120b2 	ldrh	r2, [r1, r2]
   11124:	e2624010 	rsb	r4, r2, #16
   11128:	e1540003 	cmp	r4, r3
   1112c:	e3a04b01 	mov	r4, #1024	; 0x400
   11130:	ba0000e0 	blt	114b8 <compress_block+0x3c8>
   11134:	e19110b4 	ldrh	r1, [r1, r4]
   11138:	e59f43dc 	ldr	r4, [pc, #988]	; 1151c <compress_block+0x42c>
   1113c:	e18cc311 	orr	ip, ip, r1, lsl r3
   11140:	e59f13d8 	ldr	r1, [pc, #984]	; 11520 <compress_block+0x430>
   11144:	e0823003 	add	r3, r2, r3
   11148:	e7803004 	str	r3, [r0, r4]
   1114c:	e180c0b1 	strh	ip, [r0, r1]
   11150:	e28dd010 	add	sp, sp, #16
   11154:	e8bd0ff0 	pop	{r4, r5, r6, r7, r8, r9, sl, fp}
   11158:	e12fff1e 	bx	lr
   1115c:	e59f63b8 	ldr	r6, [pc, #952]	; 1151c <compress_block+0x42c>
   11160:	e59f43b8 	ldr	r4, [pc, #952]	; 11520 <compress_block+0x430>
   11164:	e7903006 	ldr	r3, [r0, r6]
   11168:	e190c0b4 	ldrh	ip, [r0, r4]
   1116c:	e3a02000 	mov	r2, #0
   11170:	ea00001f 	b	111f4 <compress_block+0x104>
   11174:	e1a08108 	lsl	r8, r8, #2
   11178:	e0815008 	add	r5, r1, r8
   1117c:	e1d550b2 	ldrh	r5, [r5, #2]
   11180:	e2657010 	rsb	r7, r5, #16
   11184:	e1570003 	cmp	r7, r3
   11188:	aa0000b0 	bge	11450 <compress_block+0x360>
   1118c:	e191a0b8 	ldrh	sl, [r1, r8]
   11190:	e5907014 	ldr	r7, [r0, #20]
   11194:	e18c331a 	orr	r3, ip, sl, lsl r3
   11198:	e5908008 	ldr	r8, [r0, #8]
   1119c:	e6ff3073 	uxth	r3, r3
   111a0:	e18030b4 	strh	r3, [r0, r4]
   111a4:	e7c83007 	strb	r3, [r8, r7]
   111a8:	e19080b4 	ldrh	r8, [r0, r4]
   111ac:	e590c008 	ldr	ip, [r0, #8]
   111b0:	e2873001 	add	r3, r7, #1
   111b4:	e1a08428 	lsr	r8, r8, #8
   111b8:	e7cc8003 	strb	r8, [ip, r3]
   111bc:	e7908006 	ldr	r8, [r0, r6]
   111c0:	e2453010 	sub	r3, r5, #16
   111c4:	e268c010 	rsb	ip, r8, #16
   111c8:	e1a0cc5a 	asr	ip, sl, ip
   111cc:	e2877002 	add	r7, r7, #2
   111d0:	e0883003 	add	r3, r8, r3
   111d4:	e6ffc07c 	uxth	ip, ip
   111d8:	e5807014 	str	r7, [r0, #20]
   111dc:	e180c0b4 	strh	ip, [r0, r4]
   111e0:	e7803006 	str	r3, [r0, r6]
   111e4:	e59f732c 	ldr	r7, [pc, #812]	; 11518 <compress_block+0x428>
   111e8:	e7905007 	ldr	r5, [r0, r7]
   111ec:	e1520005 	cmp	r2, r5
   111f0:	2affffc9 	bcs	1111c <compress_block+0x2c>
   111f4:	e59f532c 	ldr	r5, [pc, #812]	; 11528 <compress_block+0x438>
   111f8:	e59f832c 	ldr	r8, [pc, #812]	; 1152c <compress_block+0x43c>
   111fc:	e7907005 	ldr	r7, [r0, r5]
   11200:	e1a05082 	lsl	r5, r2, #1
   11204:	e19770b5 	ldrh	r7, [r7, r5]
   11208:	e7905008 	ldr	r5, [r0, r8]
   1120c:	e3570000 	cmp	r7, #0
   11210:	e7d58002 	ldrb	r8, [r5, r2]
   11214:	e2822001 	add	r2, r2, #1
   11218:	0affffd5 	beq	11174 <compress_block+0x84>
   1121c:	e59fb30c 	ldr	fp, [pc, #780]	; 11530 <compress_block+0x440>
   11220:	e7dba008 	ldrb	sl, [fp, r8]
   11224:	e28a9c01 	add	r9, sl, #256	; 0x100
   11228:	e2899001 	add	r9, r9, #1
   1122c:	e1a09109 	lsl	r9, r9, #2
   11230:	e0815009 	add	r5, r1, r9
   11234:	e1d550b2 	ldrh	r5, [r5, #2]
   11238:	e265b010 	rsb	fp, r5, #16
   1123c:	e15b0003 	cmp	fp, r3
   11240:	aa000090 	bge	11488 <compress_block+0x398>
   11244:	e19190b9 	ldrh	r9, [r1, r9]
   11248:	e2455010 	sub	r5, r5, #16
   1124c:	e58d9000 	str	r9, [sp]
   11250:	e59db000 	ldr	fp, [sp]
   11254:	e5909014 	ldr	r9, [r0, #20]
   11258:	e18c331b 	orr	r3, ip, fp, lsl r3
   1125c:	e590c008 	ldr	ip, [r0, #8]
   11260:	e6ff3073 	uxth	r3, r3
   11264:	e18030b4 	strh	r3, [r0, r4]
   11268:	e7cc3009 	strb	r3, [ip, r9]
   1126c:	e190c0b4 	ldrh	ip, [r0, r4]
   11270:	e590b008 	ldr	fp, [r0, #8]
   11274:	e1a0c42c 	lsr	ip, ip, #8
   11278:	e58dc008 	str	ip, [sp, #8]
   1127c:	e59d3008 	ldr	r3, [sp, #8]
   11280:	e289c001 	add	ip, r9, #1
   11284:	e7cb300c 	strb	r3, [fp, ip]
   11288:	e7903006 	ldr	r3, [r0, r6]
   1128c:	e2899002 	add	r9, r9, #2
   11290:	e263c010 	rsb	ip, r3, #16
   11294:	e59d3000 	ldr	r3, [sp]
   11298:	e5809014 	str	r9, [r0, #20]
   1129c:	e1a0bc53 	asr	fp, r3, ip
   112a0:	e790c006 	ldr	ip, [r0, r6]
   112a4:	e6ffb07b 	uxth	fp, fp
   112a8:	e08c5005 	add	r5, ip, r5
   112ac:	e180b0b4 	strh	fp, [r0, r4]
   112b0:	e7805006 	str	r5, [r0, r6]
   112b4:	e59f3274 	ldr	r3, [pc, #628]	; 11530 <compress_block+0x440>
   112b8:	e083a10a 	add	sl, r3, sl, lsl #2
   112bc:	e59a9100 	ldr	r9, [sl, #256]	; 0x100
   112c0:	e3590000 	cmp	r9, #0
   112c4:	0a00001a 	beq	11334 <compress_block+0x244>
   112c8:	e59a3174 	ldr	r3, [sl, #372]	; 0x174
   112cc:	e269c010 	rsb	ip, r9, #16
   112d0:	e0638008 	rsb	r8, r3, r8
   112d4:	e6ff8078 	uxth	r8, r8
   112d8:	e15c0005 	cmp	ip, r5
   112dc:	e18bb518 	orr	fp, fp, r8, lsl r5
   112e0:	aa00006f 	bge	114a4 <compress_block+0x3b4>
   112e4:	e590a014 	ldr	sl, [r0, #20]
   112e8:	e5903008 	ldr	r3, [r0, #8]
   112ec:	e6ffb07b 	uxth	fp, fp
   112f0:	e180b0b4 	strh	fp, [r0, r4]
   112f4:	e7c3b00a 	strb	fp, [r3, sl]
   112f8:	e19050b4 	ldrh	r5, [r0, r4]
   112fc:	e590c008 	ldr	ip, [r0, #8]
   11300:	e28a3001 	add	r3, sl, #1
   11304:	e1a05425 	lsr	r5, r5, #8
   11308:	e7cc5003 	strb	r5, [ip, r3]
   1130c:	e7903006 	ldr	r3, [r0, r6]
   11310:	e2495010 	sub	r5, r9, #16
   11314:	e263b010 	rsb	fp, r3, #16
   11318:	e1a0bb58 	asr	fp, r8, fp
   1131c:	e28aa002 	add	sl, sl, #2
   11320:	e0835005 	add	r5, r3, r5
   11324:	e6ffb07b 	uxth	fp, fp
   11328:	e580a014 	str	sl, [r0, #20]
   1132c:	e180b0b4 	strh	fp, [r0, r4]
   11330:	e7805006 	str	r5, [r0, r6]
   11334:	e2477001 	sub	r7, r7, #1
   11338:	e35700ff 	cmp	r7, #255	; 0xff
   1133c:	959f81ec 	ldrls	r8, [pc, #492]	; 11530 <compress_block+0x440>
   11340:	859fa1e8 	ldrhi	sl, [pc, #488]	; 11530 <compress_block+0x440>
   11344:	90883007 	addls	r3, r8, r7
   11348:	808a33a7 	addhi	r3, sl, r7, lsr #7
   1134c:	95d381e8 	ldrbls	r8, [r3, #488]	; 0x1e8
   11350:	85d382e8 	ldrbhi	r8, [r3, #744]	; 0x2e8
   11354:	e59dc00c 	ldr	ip, [sp, #12]
   11358:	e1a08108 	lsl	r8, r8, #2
   1135c:	e08c3008 	add	r3, ip, r8
   11360:	e1d330b2 	ldrh	r3, [r3, #2]
   11364:	e59da00c 	ldr	sl, [sp, #12]
   11368:	e263c010 	rsb	ip, r3, #16
   1136c:	e15c0005 	cmp	ip, r5
   11370:	aa00003d 	bge	1146c <compress_block+0x37c>
   11374:	e19a90b8 	ldrh	r9, [sl, r8]
   11378:	e590c008 	ldr	ip, [r0, #8]
   1137c:	e18bb519 	orr	fp, fp, r9, lsl r5
   11380:	e590a014 	ldr	sl, [r0, #20]
   11384:	e6ffb07b 	uxth	fp, fp
   11388:	e180b0b4 	strh	fp, [r0, r4]
   1138c:	e7ccb00a 	strb	fp, [ip, sl]
   11390:	e19050b4 	ldrh	r5, [r0, r4]
   11394:	e590b008 	ldr	fp, [r0, #8]
   11398:	e28ac001 	add	ip, sl, #1
   1139c:	e1a05425 	lsr	r5, r5, #8
   113a0:	e7cb500c 	strb	r5, [fp, ip]
   113a4:	e7905006 	ldr	r5, [r0, r6]
   113a8:	e2433010 	sub	r3, r3, #16
   113ac:	e265c010 	rsb	ip, r5, #16
   113b0:	e1a0cc59 	asr	ip, r9, ip
   113b4:	e28aa002 	add	sl, sl, #2
   113b8:	e0853003 	add	r3, r5, r3
   113bc:	e6ffc07c 	uxth	ip, ip
   113c0:	e580a014 	str	sl, [r0, #20]
   113c4:	e180c0b4 	strh	ip, [r0, r4]
   113c8:	e7803006 	str	r3, [r0, r6]
   113cc:	e59fb15c 	ldr	fp, [pc, #348]	; 11530 <compress_block+0x440>
   113d0:	e08b8008 	add	r8, fp, r8
   113d4:	e59853e8 	ldr	r5, [r8, #1000]	; 0x3e8
   113d8:	e3550000 	cmp	r5, #0
   113dc:	0affff80 	beq	111e4 <compress_block+0xf4>
   113e0:	e5988460 	ldr	r8, [r8, #1120]	; 0x460
   113e4:	e265a010 	rsb	sl, r5, #16
   113e8:	e0687007 	rsb	r7, r8, r7
   113ec:	e15a0003 	cmp	sl, r3
   113f0:	e6ff7077 	uxth	r7, r7
   113f4:	aa000016 	bge	11454 <compress_block+0x364>
   113f8:	e18c3317 	orr	r3, ip, r7, lsl r3
   113fc:	e5908014 	ldr	r8, [r0, #20]
   11400:	e590a008 	ldr	sl, [r0, #8]
   11404:	e6ff3073 	uxth	r3, r3
   11408:	e18030b4 	strh	r3, [r0, r4]
   1140c:	e7ca3008 	strb	r3, [sl, r8]
   11410:	e190a0b4 	ldrh	sl, [r0, r4]
   11414:	e590c008 	ldr	ip, [r0, #8]
   11418:	e2883001 	add	r3, r8, #1
   1141c:	e1a0a42a 	lsr	sl, sl, #8
   11420:	e7cca003 	strb	sl, [ip, r3]
   11424:	e790a006 	ldr	sl, [r0, r6]
   11428:	e2453010 	sub	r3, r5, #16
   1142c:	e26ac010 	rsb	ip, sl, #16
   11430:	e1a07c57 	asr	r7, r7, ip
   11434:	e2888002 	add	r8, r8, #2
   11438:	e08a3003 	add	r3, sl, r3
   1143c:	e6ffc077 	uxth	ip, r7
   11440:	e5808014 	str	r8, [r0, #20]
   11444:	e180c0b4 	strh	ip, [r0, r4]
   11448:	e7803006 	str	r3, [r0, r6]
   1144c:	eaffff64 	b	111e4 <compress_block+0xf4>
   11450:	e19170b8 	ldrh	r7, [r1, r8]
   11454:	e18cc317 	orr	ip, ip, r7, lsl r3
   11458:	e0833005 	add	r3, r3, r5
   1145c:	e6ffc07c 	uxth	ip, ip
   11460:	e180c0b4 	strh	ip, [r0, r4]
   11464:	e7803006 	str	r3, [r0, r6]
   11468:	eaffff5d 	b	111e4 <compress_block+0xf4>
   1146c:	e19ac0b8 	ldrh	ip, [sl, r8]
   11470:	e0833005 	add	r3, r3, r5
   11474:	e18bb51c 	orr	fp, fp, ip, lsl r5
   11478:	e6ffc07b 	uxth	ip, fp
   1147c:	e180c0b4 	strh	ip, [r0, r4]
   11480:	e7803006 	str	r3, [r0, r6]
   11484:	eaffffd0 	b	113cc <compress_block+0x2dc>
   11488:	e191b0b9 	ldrh	fp, [r1, r9]
   1148c:	e0855003 	add	r5, r5, r3
   11490:	e18cb31b 	orr	fp, ip, fp, lsl r3
   11494:	e6ffb07b 	uxth	fp, fp
   11498:	e180b0b4 	strh	fp, [r0, r4]
   1149c:	e7805006 	str	r5, [r0, r6]
   114a0:	eaffff83 	b	112b4 <compress_block+0x1c4>
   114a4:	e0855009 	add	r5, r5, r9
   114a8:	e6ffb07b 	uxth	fp, fp
   114ac:	e180b0b4 	strh	fp, [r0, r4]
   114b0:	e7805006 	str	r5, [r0, r6]
   114b4:	eaffff9e 	b	11334 <compress_block+0x244>
   114b8:	e19160b4 	ldrh	r6, [r1, r4]
   114bc:	e5905008 	ldr	r5, [r0, #8]
   114c0:	e18c3316 	orr	r3, ip, r6, lsl r3
   114c4:	e5904014 	ldr	r4, [r0, #20]
   114c8:	e59f1050 	ldr	r1, [pc, #80]	; 11520 <compress_block+0x430>
   114cc:	e6ff3073 	uxth	r3, r3
   114d0:	e18030b1 	strh	r3, [r0, r1]
   114d4:	e7c53004 	strb	r3, [r5, r4]
   114d8:	e19070b1 	ldrh	r7, [r0, r1]
   114dc:	e5905008 	ldr	r5, [r0, #8]
   114e0:	e2843001 	add	r3, r4, #1
   114e4:	e59fc030 	ldr	ip, [pc, #48]	; 1151c <compress_block+0x42c>
   114e8:	e1a07427 	lsr	r7, r7, #8
   114ec:	e7c57003 	strb	r7, [r5, r3]
   114f0:	e790500c 	ldr	r5, [r0, ip]
   114f4:	e2422010 	sub	r2, r2, #16
   114f8:	e2653010 	rsb	r3, r5, #16
   114fc:	e1a06356 	asr	r6, r6, r3
   11500:	e2844002 	add	r4, r4, #2
   11504:	e0855002 	add	r5, r5, r2
   11508:	e5804014 	str	r4, [r0, #20]
   1150c:	e18060b1 	strh	r6, [r0, r1]
   11510:	e780500c 	str	r5, [r0, ip]
   11514:	eaffff0d 	b	11150 <compress_block+0x60>
   11518:	000016a0 	andeq	r1, r0, r0, lsr #13
   1151c:	000016bc 			; <UNDEFINED> instruction: 0x000016bc
   11520:	000016b8 			; <UNDEFINED> instruction: 0x000016b8
   11524:	00000402 	andeq	r0, r0, r2, lsl #8
   11528:	000016a4 	andeq	r1, r0, r4, lsr #13
   1152c:	00001698 	muleq	r0, r8, r6
   11530:	00014058 	andeq	r4, r1, r8, asr r0

00011534 <build_tree>:
   11534:	e92d0ff0 	push	{r4, r5, r6, r7, r8, r9, sl, fp}
   11538:	e5913008 	ldr	r3, [r1, #8]
   1153c:	e24dd040 	sub	sp, sp, #64	; 0x40
   11540:	e593700c 	ldr	r7, [r3, #12]
   11544:	e58d101c 	str	r1, [sp, #28]
   11548:	e5934000 	ldr	r4, [r3]
   1154c:	e59f1b98 	ldr	r1, [pc, #2968]	; 120ec <build_tree+0xbb8>
   11550:	e59f5b98 	ldr	r5, [pc, #2968]	; 120f0 <build_tree+0xbbc>
   11554:	e59fcb98 	ldr	ip, [pc, #2968]	; 120f4 <build_tree+0xbc0>
   11558:	e59d301c 	ldr	r3, [sp, #28]
   1155c:	e3a02000 	mov	r2, #0
   11560:	e3570000 	cmp	r7, #0
   11564:	e593b000 	ldr	fp, [r3]
   11568:	e1a0a000 	mov	sl, r0
   1156c:	e7805001 	str	r5, [r0, r1]
   11570:	e780200c 	str	r2, [r0, ip]
   11574:	da0002d8 	ble	120dc <build_tree+0xba8>
   11578:	e3e06000 	mvn	r6, #0
   1157c:	e1a03002 	mov	r3, r2
   11580:	e1a05002 	mov	r5, r2
   11584:	e58d6018 	str	r6, [sp, #24]
   11588:	e19b10b2 	ldrh	r1, [fp, r2]
   1158c:	e08a0003 	add	r0, sl, r3
   11590:	e3510000 	cmp	r1, #0
   11594:	179a100c 	ldrne	r1, [sl, ip]
   11598:	008b0002 	addeq	r0, fp, r2
   1159c:	12811001 	addne	r1, r1, #1
   115a0:	108a6101 	addne	r6, sl, r1, lsl #2
   115a4:	15863b5c 	strne	r3, [r6, #2908]	; 0xb5c
   115a8:	12800d51 	addne	r0, r0, #5184	; 0x1440
   115ac:	11a06003 	movne	r6, r3
   115b0:	e2833001 	add	r3, r3, #1
   115b4:	178a100c 	strne	r1, [sl, ip]
   115b8:	01c010b2 	strheq	r1, [r0, #2]
   115bc:	15c05018 	strbne	r5, [r0, #24]
   115c0:	e1530007 	cmp	r3, r7
   115c4:	e2822004 	add	r2, r2, #4
   115c8:	1affffee 	bne	11588 <build_tree+0x54>
   115cc:	e59f3b20 	ldr	r3, [pc, #2848]	; 120f4 <build_tree+0xbc0>
   115d0:	e58d6018 	str	r6, [sp, #24]
   115d4:	e79a9003 	ldr	r9, [sl, r3]
   115d8:	e3540000 	cmp	r4, #0
   115dc:	0a0002a2 	beq	1206c <build_tree+0xb38>
   115e0:	e59fcb0c 	ldr	ip, [pc, #2828]	; 120f4 <build_tree+0xbc0>
   115e4:	e59f0b0c 	ldr	r0, [pc, #2828]	; 120f8 <build_tree+0xbc4>
   115e8:	e59f1b0c 	ldr	r1, [pc, #2828]	; 120fc <build_tree+0xbc8>
   115ec:	e3a06000 	mov	r6, #0
   115f0:	e3a05001 	mov	r5, #1
   115f4:	e59d8018 	ldr	r8, [sp, #24]
   115f8:	ea000015 	b	11654 <build_tree+0x120>
   115fc:	e3580001 	cmp	r8, #1
   11600:	c3a02000 	movgt	r2, #0
   11604:	d2888001 	addle	r8, r8, #1
   11608:	e78a300c 	str	r3, [sl, ip]
   1160c:	c1a09002 	movgt	r9, r2
   11610:	d1a09008 	movle	r9, r8
   11614:	d1a02108 	lslle	r2, r8, #2
   11618:	e08a3103 	add	r3, sl, r3, lsl #2
   1161c:	e5839b5c 	str	r9, [r3, #2908]	; 0xb5c
   11620:	e18b50b2 	strh	r5, [fp, r2]
   11624:	e08a3009 	add	r3, sl, r9
   11628:	e79a9000 	ldr	r9, [sl, r0]
   1162c:	e2833d51 	add	r3, r3, #5184	; 0x1440
   11630:	e2499001 	sub	r9, r9, #1
   11634:	e0842002 	add	r2, r4, r2
   11638:	e78a9000 	str	r9, [sl, r0]
   1163c:	e5c36018 	strb	r6, [r3, #24]
   11640:	e1d230b2 	ldrh	r3, [r2, #2]
   11644:	e79a2001 	ldr	r2, [sl, r1]
   11648:	e79a900c 	ldr	r9, [sl, ip]
   1164c:	e0633002 	rsb	r3, r3, r2
   11650:	e78a3001 	str	r3, [sl, r1]
   11654:	e3590001 	cmp	r9, #1
   11658:	e2893001 	add	r3, r9, #1
   1165c:	daffffe6 	ble	115fc <build_tree+0xc8>
   11660:	e58d8018 	str	r8, [sp, #24]
   11664:	e1a01008 	mov	r1, r8
   11668:	e1a000c9 	asr	r0, r9, #1
   1166c:	e08a3100 	add	r3, sl, r0, lsl #2
   11670:	e59d201c 	ldr	r2, [sp, #28]
   11674:	e2833eb6 	add	r3, r3, #2912	; 0xb60
   11678:	e58d0004 	str	r0, [sp, #4]
   1167c:	e5821004 	str	r1, [r2, #4]
   11680:	e58d300c 	str	r3, [sp, #12]
   11684:	e58d7010 	str	r7, [sp, #16]
   11688:	e59d600c 	ldr	r6, [sp, #12]
   1168c:	e59d4004 	ldr	r4, [sp, #4]
   11690:	e5365004 	ldr	r5, [r6, #-4]!
   11694:	e1a03084 	lsl	r3, r4, #1
   11698:	e1530009 	cmp	r3, r9
   1169c:	e58d600c 	str	r6, [sp, #12]
   116a0:	e58d5008 	str	r5, [sp, #8]
   116a4:	ca00023e 	bgt	11fa4 <build_tree+0xa70>
   116a8:	e08a6005 	add	r6, sl, r5
   116ac:	e2866d51 	add	r6, r6, #5184	; 0x1440
   116b0:	e2866018 	add	r6, r6, #24
   116b4:	e08b5105 	add	r5, fp, r5, lsl #2
   116b8:	e1a0c004 	mov	ip, r4
   116bc:	ea00000e 	b	116fc <build_tree+0x1c8>
   116c0:	e08a2103 	add	r2, sl, r3, lsl #2
   116c4:	e5921b5c 	ldr	r1, [r2, #2908]	; 0xb5c
   116c8:	e1a02003 	mov	r2, r3
   116cc:	e1a03101 	lsl	r3, r1, #2
   116d0:	e19b00b3 	ldrh	r0, [fp, r3]
   116d4:	e1d530b0 	ldrh	r3, [r5]
   116d8:	e1530000 	cmp	r3, r0
   116dc:	3a000025 	bcc	11778 <build_tree+0x244>
   116e0:	0a0000e1 	beq	11a6c <build_tree+0x538>
   116e4:	e1a03082 	lsl	r3, r2, #1
   116e8:	e08a010c 	add	r0, sl, ip, lsl #2
   116ec:	e1530009 	cmp	r3, r9
   116f0:	e1a0c002 	mov	ip, r2
   116f4:	e5801b5c 	str	r1, [r0, #2908]	; 0xb5c
   116f8:	ca00001e 	bgt	11778 <build_tree+0x244>
   116fc:	e1530009 	cmp	r3, r9
   11700:	aaffffee 	bge	116c0 <build_tree+0x18c>
   11704:	e2832001 	add	r2, r3, #1
   11708:	e08a0103 	add	r0, sl, r3, lsl #2
   1170c:	e08a1102 	add	r1, sl, r2, lsl #2
   11710:	e5904b5c 	ldr	r4, [r0, #2908]	; 0xb5c
   11714:	e5911b5c 	ldr	r1, [r1, #2908]	; 0xb5c
   11718:	e1a07104 	lsl	r7, r4, #2
   1171c:	e1a00101 	lsl	r0, r1, #2
   11720:	e19b00b0 	ldrh	r0, [fp, r0]
   11724:	e19b70b7 	ldrh	r7, [fp, r7]
   11728:	e1500007 	cmp	r0, r7
   1172c:	3affffe8 	bcc	116d4 <build_tree+0x1a0>
   11730:	11a00007 	movne	r0, r7
   11734:	11a01004 	movne	r1, r4
   11738:	11a02003 	movne	r2, r3
   1173c:	1affffe4 	bne	116d4 <build_tree+0x1a0>
   11740:	e08a8001 	add	r8, sl, r1
   11744:	e08a7004 	add	r7, sl, r4
   11748:	e2888d51 	add	r8, r8, #5184	; 0x1440
   1174c:	e2877d51 	add	r7, r7, #5184	; 0x1440
   11750:	e2888018 	add	r8, r8, #24
   11754:	e2877018 	add	r7, r7, #24
   11758:	e5d88000 	ldrb	r8, [r8]
   1175c:	e5d77000 	ldrb	r7, [r7]
   11760:	e1580007 	cmp	r8, r7
   11764:	81a02003 	movhi	r2, r3
   11768:	e1d530b0 	ldrh	r3, [r5]
   1176c:	81a01004 	movhi	r1, r4
   11770:	e1530000 	cmp	r3, r0
   11774:	2affffd9 	bcs	116e0 <build_tree+0x1ac>
   11778:	e59d7004 	ldr	r7, [sp, #4]
   1177c:	e59d0008 	ldr	r0, [sp, #8]
   11780:	e08ac10c 	add	ip, sl, ip, lsl #2
   11784:	e2577001 	subs	r7, r7, #1
   11788:	e58d7004 	str	r7, [sp, #4]
   1178c:	e58c0b5c 	str	r0, [ip, #2908]	; 0xb5c
   11790:	1affffbc 	bne	11688 <build_tree+0x154>
   11794:	e59d7010 	ldr	r7, [sp, #16]
   11798:	e59f3954 	ldr	r3, [pc, #2388]	; 120f4 <build_tree+0xbc0>
   1179c:	e2872d51 	add	r2, r7, #5184	; 0x1440
   117a0:	e2822018 	add	r2, r2, #24
   117a4:	e08a2002 	add	r2, sl, r2
   117a8:	e1a01107 	lsl	r1, r7, #2
   117ac:	e79ac003 	ldr	ip, [sl, r3]
   117b0:	e58d2004 	str	r2, [sp, #4]
   117b4:	e58d1014 	str	r1, [sp, #20]
   117b8:	e58d7008 	str	r7, [sp, #8]
   117bc:	e08a310c 	add	r3, sl, ip, lsl #2
   117c0:	e5933b5c 	ldr	r3, [r3, #2908]	; 0xb5c
   117c4:	e24cc001 	sub	ip, ip, #1
   117c8:	e58d300c 	str	r3, [sp, #12]
   117cc:	e59f2920 	ldr	r2, [pc, #2336]	; 120f4 <build_tree+0xbc0>
   117d0:	e59a3b60 	ldr	r3, [sl, #2912]	; 0xb60
   117d4:	e59d400c 	ldr	r4, [sp, #12]
   117d8:	e35c0001 	cmp	ip, #1
   117dc:	e78ac002 	str	ip, [sl, r2]
   117e0:	e58d3010 	str	r3, [sp, #16]
   117e4:	e58a4b60 	str	r4, [sl, #2912]	; 0xb60
   117e8:	da0000b8 	ble	11ad0 <build_tree+0x59c>
   117ec:	e08a7004 	add	r7, sl, r4
   117f0:	e2877d51 	add	r7, r7, #5184	; 0x1440
   117f4:	e08b6104 	add	r6, fp, r4, lsl #2
   117f8:	e2877018 	add	r7, r7, #24
   117fc:	e3a04001 	mov	r4, #1
   11800:	e3a03002 	mov	r3, #2
   11804:	ea00000e 	b	11844 <build_tree+0x310>
   11808:	e08a2103 	add	r2, sl, r3, lsl #2
   1180c:	e5921b5c 	ldr	r1, [r2, #2908]	; 0xb5c
   11810:	e1a02003 	mov	r2, r3
   11814:	e1a03101 	lsl	r3, r1, #2
   11818:	e19b00b3 	ldrh	r0, [fp, r3]
   1181c:	e1d630b0 	ldrh	r3, [r6]
   11820:	e1530000 	cmp	r3, r0
   11824:	3a000025 	bcc	118c0 <build_tree+0x38c>
   11828:	0a000097 	beq	11a8c <build_tree+0x558>
   1182c:	e1a03082 	lsl	r3, r2, #1
   11830:	e08a4104 	add	r4, sl, r4, lsl #2
   11834:	e15c0003 	cmp	ip, r3
   11838:	e5841b5c 	str	r1, [r4, #2908]	; 0xb5c
   1183c:	e1a04002 	mov	r4, r2
   11840:	ba00001e 	blt	118c0 <build_tree+0x38c>
   11844:	e15c0003 	cmp	ip, r3
   11848:	daffffee 	ble	11808 <build_tree+0x2d4>
   1184c:	e2832001 	add	r2, r3, #1
   11850:	e08a0103 	add	r0, sl, r3, lsl #2
   11854:	e08a1102 	add	r1, sl, r2, lsl #2
   11858:	e5905b5c 	ldr	r5, [r0, #2908]	; 0xb5c
   1185c:	e5911b5c 	ldr	r1, [r1, #2908]	; 0xb5c
   11860:	e1a08105 	lsl	r8, r5, #2
   11864:	e1a00101 	lsl	r0, r1, #2
   11868:	e19b00b0 	ldrh	r0, [fp, r0]
   1186c:	e19b80b8 	ldrh	r8, [fp, r8]
   11870:	e1500008 	cmp	r0, r8
   11874:	3affffe8 	bcc	1181c <build_tree+0x2e8>
   11878:	11a00008 	movne	r0, r8
   1187c:	11a01005 	movne	r1, r5
   11880:	11a02003 	movne	r2, r3
   11884:	1affffe4 	bne	1181c <build_tree+0x2e8>
   11888:	e08a9001 	add	r9, sl, r1
   1188c:	e08a8005 	add	r8, sl, r5
   11890:	e2899d51 	add	r9, r9, #5184	; 0x1440
   11894:	e2888d51 	add	r8, r8, #5184	; 0x1440
   11898:	e2899018 	add	r9, r9, #24
   1189c:	e2888018 	add	r8, r8, #24
   118a0:	e5d99000 	ldrb	r9, [r9]
   118a4:	e5d88000 	ldrb	r8, [r8]
   118a8:	e1590008 	cmp	r9, r8
   118ac:	81a02003 	movhi	r2, r3
   118b0:	e1d630b0 	ldrh	r3, [r6]
   118b4:	81a01005 	movhi	r1, r5
   118b8:	e1530000 	cmp	r3, r0
   118bc:	2affffd9 	bcs	11828 <build_tree+0x2f4>
   118c0:	e59f5824 	ldr	r5, [pc, #2084]	; 120ec <build_tree+0xbb8>
   118c4:	e59d600c 	ldr	r6, [sp, #12]
   118c8:	e79a1005 	ldr	r1, [sl, r5]
   118cc:	e08a4104 	add	r4, sl, r4, lsl #2
   118d0:	e5846b5c 	str	r6, [r4, #2908]	; 0xb5c
   118d4:	e59a3b60 	ldr	r3, [sl, #2912]	; 0xb60
   118d8:	e2412002 	sub	r2, r1, #2
   118dc:	e59d7010 	ldr	r7, [sp, #16]
   118e0:	e2411001 	sub	r1, r1, #1
   118e4:	e08a0102 	add	r0, sl, r2, lsl #2
   118e8:	e08a1101 	add	r1, sl, r1, lsl #2
   118ec:	e78a2005 	str	r2, [sl, r5]
   118f0:	e5817b5c 	str	r7, [r1, #2908]	; 0xb5c
   118f4:	e5803b5c 	str	r3, [r0, #2908]	; 0xb5c
   118f8:	e1a01107 	lsl	r1, r7, #2
   118fc:	e1a00103 	lsl	r0, r3, #2
   11900:	e19b40b0 	ldrh	r4, [fp, r0]
   11904:	e19bc0b1 	ldrh	ip, [fp, r1]
   11908:	e59d9014 	ldr	r9, [sp, #20]
   1190c:	e08a3003 	add	r3, sl, r3
   11910:	e08a2007 	add	r2, sl, r7
   11914:	e084c00c 	add	ip, r4, ip
   11918:	e2833d51 	add	r3, r3, #5184	; 0x1440
   1191c:	e2822d51 	add	r2, r2, #5184	; 0x1440
   11920:	e18bc0b9 	strh	ip, [fp, r9]
   11924:	e2833018 	add	r3, r3, #24
   11928:	e2822018 	add	r2, r2, #24
   1192c:	e5d22000 	ldrb	r2, [r2]
   11930:	e5d33000 	ldrb	r3, [r3]
   11934:	e59dc008 	ldr	ip, [sp, #8]
   11938:	e1520003 	cmp	r2, r3
   1193c:	22822001 	addcs	r2, r2, #1
   11940:	32833001 	addcc	r3, r3, #1
   11944:	e59d4004 	ldr	r4, [sp, #4]
   11948:	36ef2073 	uxtbcc	r2, r3
   1194c:	26ef2072 	uxtbcs	r2, r2
   11950:	e6ff307c 	uxth	r3, ip
   11954:	e08b0000 	add	r0, fp, r0
   11958:	e08b1001 	add	r1, fp, r1
   1195c:	e59f5790 	ldr	r5, [pc, #1936]	; 120f4 <build_tree+0xbc0>
   11960:	e4c42001 	strb	r2, [r4], #1
   11964:	e1c030b2 	strh	r3, [r0, #2]
   11968:	e1c130b2 	strh	r3, [r1, #2]
   1196c:	e79ac005 	ldr	ip, [sl, r5]
   11970:	e59d6008 	ldr	r6, [sp, #8]
   11974:	e35c0001 	cmp	ip, #1
   11978:	e58d4004 	str	r4, [sp, #4]
   1197c:	e58a6b60 	str	r6, [sl, #2912]	; 0xb60
   11980:	e2869001 	add	r9, r6, #1
   11984:	da000053 	ble	11ad8 <build_tree+0x5a4>
   11988:	e59d7014 	ldr	r7, [sp, #20]
   1198c:	e3a04001 	mov	r4, #1
   11990:	e3a03002 	mov	r3, #2
   11994:	e19b60b7 	ldrh	r6, [fp, r7]
   11998:	ea00000d 	b	119d4 <build_tree+0x4a0>
   1199c:	e08a2103 	add	r2, sl, r3, lsl #2
   119a0:	e5921b5c 	ldr	r1, [r2, #2908]	; 0xb5c
   119a4:	e1a02003 	mov	r2, r3
   119a8:	e1a03101 	lsl	r3, r1, #2
   119ac:	e19b00b3 	ldrh	r0, [fp, r3]
   119b0:	e1560000 	cmp	r6, r0
   119b4:	3a000024 	bcc	11a4c <build_tree+0x518>
   119b8:	0a00003b 	beq	11aac <build_tree+0x578>
   119bc:	e1a03082 	lsl	r3, r2, #1
   119c0:	e08a4104 	add	r4, sl, r4, lsl #2
   119c4:	e153000c 	cmp	r3, ip
   119c8:	e5841b5c 	str	r1, [r4, #2908]	; 0xb5c
   119cc:	e1a04002 	mov	r4, r2
   119d0:	ca00001d 	bgt	11a4c <build_tree+0x518>
   119d4:	e153000c 	cmp	r3, ip
   119d8:	aaffffef 	bge	1199c <build_tree+0x468>
   119dc:	e2832001 	add	r2, r3, #1
   119e0:	e08a0103 	add	r0, sl, r3, lsl #2
   119e4:	e08a1102 	add	r1, sl, r2, lsl #2
   119e8:	e5905b5c 	ldr	r5, [r0, #2908]	; 0xb5c
   119ec:	e5911b5c 	ldr	r1, [r1, #2908]	; 0xb5c
   119f0:	e1a07105 	lsl	r7, r5, #2
   119f4:	e1a00101 	lsl	r0, r1, #2
   119f8:	e19b00b0 	ldrh	r0, [fp, r0]
   119fc:	e19b70b7 	ldrh	r7, [fp, r7]
   11a00:	e1500007 	cmp	r0, r7
   11a04:	3affffe9 	bcc	119b0 <build_tree+0x47c>
   11a08:	11a00007 	movne	r0, r7
   11a0c:	11a01005 	movne	r1, r5
   11a10:	11a02003 	movne	r2, r3
   11a14:	1affffe5 	bne	119b0 <build_tree+0x47c>
   11a18:	e08a8001 	add	r8, sl, r1
   11a1c:	e08a7005 	add	r7, sl, r5
   11a20:	e2888d51 	add	r8, r8, #5184	; 0x1440
   11a24:	e2877d51 	add	r7, r7, #5184	; 0x1440
   11a28:	e2888018 	add	r8, r8, #24
   11a2c:	e2877018 	add	r7, r7, #24
   11a30:	e5d88000 	ldrb	r8, [r8]
   11a34:	e5d77000 	ldrb	r7, [r7]
   11a38:	e1580007 	cmp	r8, r7
   11a3c:	81a01005 	movhi	r1, r5
   11a40:	81a02003 	movhi	r2, r3
   11a44:	e1560000 	cmp	r6, r0
   11a48:	2affffda 	bcs	119b8 <build_tree+0x484>
   11a4c:	e59d7014 	ldr	r7, [sp, #20]
   11a50:	e59d6008 	ldr	r6, [sp, #8]
   11a54:	e08a4104 	add	r4, sl, r4, lsl #2
   11a58:	e2877004 	add	r7, r7, #4
   11a5c:	e5846b5c 	str	r6, [r4, #2908]	; 0xb5c
   11a60:	e58d7014 	str	r7, [sp, #20]
   11a64:	e58d9008 	str	r9, [sp, #8]
   11a68:	eaffff53 	b	117bc <build_tree+0x288>
   11a6c:	e08a3001 	add	r3, sl, r1
   11a70:	e2833d51 	add	r3, r3, #5184	; 0x1440
   11a74:	e2833018 	add	r3, r3, #24
   11a78:	e5d33000 	ldrb	r3, [r3]
   11a7c:	e5d60000 	ldrb	r0, [r6]
   11a80:	e1500003 	cmp	r0, r3
   11a84:	8affff16 	bhi	116e4 <build_tree+0x1b0>
   11a88:	eaffff3a 	b	11778 <build_tree+0x244>
   11a8c:	e08a3001 	add	r3, sl, r1
   11a90:	e2833d51 	add	r3, r3, #5184	; 0x1440
   11a94:	e2833018 	add	r3, r3, #24
   11a98:	e5d33000 	ldrb	r3, [r3]
   11a9c:	e5d70000 	ldrb	r0, [r7]
   11aa0:	e1500003 	cmp	r0, r3
   11aa4:	8affff60 	bhi	1182c <build_tree+0x2f8>
   11aa8:	eaffff84 	b	118c0 <build_tree+0x38c>
   11aac:	e08a3001 	add	r3, sl, r1
   11ab0:	e2833d51 	add	r3, r3, #5184	; 0x1440
   11ab4:	e59d5004 	ldr	r5, [sp, #4]
   11ab8:	e2833018 	add	r3, r3, #24
   11abc:	e5d33000 	ldrb	r3, [r3]
   11ac0:	e5550001 	ldrb	r0, [r5, #-1]
   11ac4:	e1500003 	cmp	r0, r3
   11ac8:	8affffbb 	bhi	119bc <build_tree+0x488>
   11acc:	eaffffde 	b	11a4c <build_tree+0x518>
   11ad0:	e3a04001 	mov	r4, #1
   11ad4:	eaffff79 	b	118c0 <build_tree+0x38c>
   11ad8:	e59f060c 	ldr	r0, [pc, #1548]	; 120ec <build_tree+0xbb8>
   11adc:	e59d901c 	ldr	r9, [sp, #28]
   11ae0:	e79a2000 	ldr	r2, [sl, r0]
   11ae4:	e5993000 	ldr	r3, [r9]
   11ae8:	e2422001 	sub	r2, r2, #1
   11aec:	e59d5014 	ldr	r5, [sp, #20]
   11af0:	e599c008 	ldr	ip, [r9, #8]
   11af4:	e08a1102 	add	r1, sl, r2, lsl #2
   11af8:	e5816b5c 	str	r6, [r1, #2908]	; 0xb5c
   11afc:	e0834005 	add	r4, r3, r5
   11b00:	e3a05000 	mov	r5, #0
   11b04:	e78a2000 	str	r2, [sl, r0]
   11b08:	e59c6008 	ldr	r6, [ip, #8]
   11b0c:	e59c7000 	ldr	r7, [ip]
   11b10:	e59c2010 	ldr	r2, [ip, #16]
   11b14:	e5991004 	ldr	r1, [r9, #4]
   11b18:	e59cc004 	ldr	ip, [ip, #4]
   11b1c:	e58a5b3c 	str	r5, [sl, #2876]	; 0xb3c
   11b20:	e58a5b40 	str	r5, [sl, #2880]	; 0xb40
   11b24:	e58a5b44 	str	r5, [sl, #2884]	; 0xb44
   11b28:	e58a5b48 	str	r5, [sl, #2888]	; 0xb48
   11b2c:	e58a5b4c 	str	r5, [sl, #2892]	; 0xb4c
   11b30:	e58a5b50 	str	r5, [sl, #2896]	; 0xb50
   11b34:	e58a5b54 	str	r5, [sl, #2900]	; 0xb54
   11b38:	e58a5b58 	str	r5, [sl, #2904]	; 0xb58
   11b3c:	e1c450b2 	strh	r5, [r4, #2]
   11b40:	e79a0000 	ldr	r0, [sl, r0]
   11b44:	e58dc010 	str	ip, [sp, #16]
   11b48:	e280c001 	add	ip, r0, #1
   11b4c:	e35c0f8f 	cmp	ip, #572	; 0x23c
   11b50:	e58d6008 	str	r6, [sp, #8]
   11b54:	e58d700c 	str	r7, [sp, #12]
   11b58:	ca000089 	bgt	11d84 <build_tree+0x850>
   11b5c:	e2800fb5 	add	r0, r0, #724	; 0x2d4
   11b60:	e1570005 	cmp	r7, r5
   11b64:	e08a4100 	add	r4, sl, r0, lsl #2
   11b68:	e28a0d51 	add	r0, sl, #5184	; 0x1440
   11b6c:	0a000110 	beq	11fb4 <build_tree+0xa80>
   11b70:	e280000c 	add	r0, r0, #12
   11b74:	e59f957c 	ldr	r9, [pc, #1404]	; 120f8 <build_tree+0xbc4>
   11b78:	e59f857c 	ldr	r8, [pc, #1404]	; 120fc <build_tree+0xbc8>
   11b7c:	e58db014 	str	fp, [sp, #20]
   11b80:	e284400c 	add	r4, r4, #12
   11b84:	e58d5004 	str	r5, [sp, #4]
   11b88:	e1a0b000 	mov	fp, r0
   11b8c:	e5b4c004 	ldr	ip, [r4, #4]!
   11b90:	e1a0510c 	lsl	r5, ip, #2
   11b94:	e0836005 	add	r6, r3, r5
   11b98:	e1d600b2 	ldrh	r0, [r6, #2]
   11b9c:	e0830100 	add	r0, r3, r0, lsl #2
   11ba0:	e1d000b2 	ldrh	r0, [r0, #2]
   11ba4:	e2800001 	add	r0, r0, #1
   11ba8:	e1520000 	cmp	r2, r0
   11bac:	b59d0004 	ldrlt	r0, [sp, #4]
   11bb0:	b2800001 	addlt	r0, r0, #1
   11bb4:	b58d0004 	strlt	r0, [sp, #4]
   11bb8:	b1a00002 	movlt	r0, r2
   11bbc:	e2807e59 	add	r7, r0, #1424	; 0x590
   11bc0:	e287700c 	add	r7, r7, #12
   11bc4:	e151000c 	cmp	r1, ip
   11bc8:	e08a7087 	add	r7, sl, r7, lsl #1
   11bcc:	e1c600b2 	strh	r0, [r6, #2]
   11bd0:	ba000017 	blt	11c34 <build_tree+0x700>
   11bd4:	e1d760b4 	ldrh	r6, [r7, #4]
   11bd8:	e58d601c 	str	r6, [sp, #28]
   11bdc:	e59d6008 	ldr	r6, [sp, #8]
   11be0:	e156000c 	cmp	r6, ip
   11be4:	e59d601c 	ldr	r6, [sp, #28]
   11be8:	e2866001 	add	r6, r6, #1
   11bec:	e1c760b4 	strh	r6, [r7, #4]
   11bf0:	d59d7008 	ldrle	r7, [sp, #8]
   11bf4:	c3a06000 	movgt	r6, #0
   11bf8:	d067c00c 	rsble	ip, r7, ip
   11bfc:	d59d7010 	ldrle	r7, [sp, #16]
   11c00:	d797610c 	ldrle	r6, [r7, ip, lsl #2]
   11c04:	e193c0b5 	ldrh	ip, [r3, r5]
   11c08:	e79a7009 	ldr	r7, [sl, r9]
   11c0c:	e0800006 	add	r0, r0, r6
   11c10:	e020709c 	mla	r0, ip, r0, r7
   11c14:	e59d700c 	ldr	r7, [sp, #12]
   11c18:	e78a0009 	str	r0, [sl, r9]
   11c1c:	e0875005 	add	r5, r7, r5
   11c20:	e1d500b2 	ldrh	r0, [r5, #2]
   11c24:	e79a5008 	ldr	r5, [sl, r8]
   11c28:	e0860000 	add	r0, r6, r0
   11c2c:	e020509c 	mla	r0, ip, r0, r5
   11c30:	e78a0008 	str	r0, [sl, r8]
   11c34:	e154000b 	cmp	r4, fp
   11c38:	1affffd3 	bne	11b8c <build_tree+0x658>
   11c3c:	e59db014 	ldr	fp, [sp, #20]
   11c40:	e59f54a8 	ldr	r5, [pc, #1192]	; 120f0 <build_tree+0xbbc>
   11c44:	e59d9004 	ldr	r9, [sp, #4]
   11c48:	e3590000 	cmp	r9, #0
   11c4c:	0a00004c 	beq	11d84 <build_tree+0x850>
   11c50:	e2828e59 	add	r8, r2, #1424	; 0x590
   11c54:	e2429001 	sub	r9, r2, #1
   11c58:	e1a06008 	mov	r6, r8
   11c5c:	e2897e59 	add	r7, r9, #1424	; 0x590
   11c60:	e287700c 	add	r7, r7, #12
   11c64:	e288800b 	add	r8, r8, #11
   11c68:	e286600c 	add	r6, r6, #12
   11c6c:	e58d3008 	str	r3, [sp, #8]
   11c70:	e59d3004 	ldr	r3, [sp, #4]
   11c74:	e08a7087 	add	r7, sl, r7, lsl #1
   11c78:	e08a8088 	add	r8, sl, r8, lsl #1
   11c7c:	e08a6086 	add	r6, sl, r6, lsl #1
   11c80:	e1d8c0b4 	ldrh	ip, [r8, #4]
   11c84:	e35c0000 	cmp	ip, #0
   11c88:	1a0000c7 	bne	11fac <build_tree+0xa78>
   11c8c:	e2874004 	add	r4, r7, #4
   11c90:	e1a00009 	mov	r0, r9
   11c94:	e174c0b2 	ldrh	ip, [r4, #-2]!
   11c98:	e2400001 	sub	r0, r0, #1
   11c9c:	e35c0000 	cmp	ip, #0
   11ca0:	0afffffb 	beq	11c94 <build_tree+0x760>
   11ca4:	e2804e59 	add	r4, r0, #1424	; 0x590
   11ca8:	e1a00004 	mov	r0, r4
   11cac:	e24cc001 	sub	ip, ip, #1
   11cb0:	e08a4084 	add	r4, sl, r4, lsl #1
   11cb4:	e280000d 	add	r0, r0, #13
   11cb8:	e1c4c1bc 	strh	ip, [r4, #28]
   11cbc:	e08a0080 	add	r0, sl, r0, lsl #1
   11cc0:	e1d0c0b4 	ldrh	ip, [r0, #4]
   11cc4:	e2433002 	sub	r3, r3, #2
   11cc8:	e28cc002 	add	ip, ip, #2
   11ccc:	e1c0c0b4 	strh	ip, [r0, #4]
   11cd0:	e1d600b4 	ldrh	r0, [r6, #4]
   11cd4:	e3530000 	cmp	r3, #0
   11cd8:	e2400001 	sub	r0, r0, #1
   11cdc:	e1c600b4 	strh	r0, [r6, #4]
   11ce0:	caffffe6 	bgt	11c80 <build_tree+0x74c>
   11ce4:	e3520000 	cmp	r2, #0
   11ce8:	e59d3008 	ldr	r3, [sp, #8]
   11cec:	0a000024 	beq	11d84 <build_tree+0x850>
   11cf0:	e08a0082 	add	r0, sl, r2, lsl #1
   11cf4:	e2800eb3 	add	r0, r0, #2864	; 0xb30
   11cf8:	e280000e 	add	r0, r0, #14
   11cfc:	e59f83f4 	ldr	r8, [pc, #1012]	; 120f8 <build_tree+0xbc4>
   11d00:	e58db008 	str	fp, [sp, #8]
   11d04:	e1a0b000 	mov	fp, r0
   11d08:	e17b40b2 	ldrh	r4, [fp, #-2]!
   11d0c:	e3540000 	cmp	r4, #0
   11d10:	0a000016 	beq	11d70 <build_tree+0x83c>
   11d14:	e2856fb5 	add	r6, r5, #724	; 0x2d4
   11d18:	e08a6106 	add	r6, sl, r6, lsl #2
   11d1c:	e286600c 	add	r6, r6, #12
   11d20:	e58d9004 	str	r9, [sp, #4]
   11d24:	e536c004 	ldr	ip, [r6, #-4]!
   11d28:	e2455001 	sub	r5, r5, #1
   11d2c:	e1a0710c 	lsl	r7, ip, #2
   11d30:	e151000c 	cmp	r1, ip
   11d34:	e0830007 	add	r0, r3, r7
   11d38:	ba000009 	blt	11d64 <build_tree+0x830>
   11d3c:	e1d0c0b2 	ldrh	ip, [r0, #2]
   11d40:	e2444001 	sub	r4, r4, #1
   11d44:	e15c0002 	cmp	ip, r2
   11d48:	0a000005 	beq	11d64 <build_tree+0x830>
   11d4c:	e79a9008 	ldr	r9, [sl, r8]
   11d50:	e19370b7 	ldrh	r7, [r3, r7]
   11d54:	e06cc002 	rsb	ip, ip, r2
   11d58:	e02c9c97 	mla	ip, r7, ip, r9
   11d5c:	e78ac008 	str	ip, [sl, r8]
   11d60:	e1c020b2 	strh	r2, [r0, #2]
   11d64:	e3540000 	cmp	r4, #0
   11d68:	1affffed 	bne	11d24 <build_tree+0x7f0>
   11d6c:	e59d9004 	ldr	r9, [sp, #4]
   11d70:	e3590000 	cmp	r9, #0
   11d74:	e1a02009 	mov	r2, r9
   11d78:	12499001 	subne	r9, r9, #1
   11d7c:	1affffe1 	bne	11d08 <build_tree+0x7d4>
   11d80:	e59db008 	ldr	fp, [sp, #8]
   11d84:	e59f2374 	ldr	r2, [pc, #884]	; 12100 <build_tree+0xbcc>
   11d88:	e59f3374 	ldr	r3, [pc, #884]	; 12104 <build_tree+0xbd0>
   11d8c:	e19a60b2 	ldrh	r6, [sl, r2]
   11d90:	e19a50b3 	ldrh	r5, [sl, r3]
   11d94:	e1a06086 	lsl	r6, r6, #1
   11d98:	e6ff6076 	uxth	r6, r6
   11d9c:	e0865005 	add	r5, r6, r5
   11da0:	e3a03d2d 	mov	r3, #2880	; 0xb40
   11da4:	e6ff5075 	uxth	r5, r5
   11da8:	e19a40b3 	ldrh	r4, [sl, r3]
   11dac:	e1a05085 	lsl	r5, r5, #1
   11db0:	e6ff5075 	uxth	r5, r5
   11db4:	e0854004 	add	r4, r5, r4
   11db8:	e2833002 	add	r3, r3, #2
   11dbc:	e6ff4074 	uxth	r4, r4
   11dc0:	e19ac0b3 	ldrh	ip, [sl, r3]
   11dc4:	e1a04084 	lsl	r4, r4, #1
   11dc8:	e6ff4074 	uxth	r4, r4
   11dcc:	e084c00c 	add	ip, r4, ip
   11dd0:	e2833002 	add	r3, r3, #2
   11dd4:	e6ffc07c 	uxth	ip, ip
   11dd8:	e19a00b3 	ldrh	r0, [sl, r3]
   11ddc:	e1a0c08c 	lsl	ip, ip, #1
   11de0:	e6ffc07c 	uxth	ip, ip
   11de4:	e08c0000 	add	r0, ip, r0
   11de8:	e2833002 	add	r3, r3, #2
   11dec:	e6ff0070 	uxth	r0, r0
   11df0:	e19a10b3 	ldrh	r1, [sl, r3]
   11df4:	e1a00080 	lsl	r0, r0, #1
   11df8:	e6ff0070 	uxth	r0, r0
   11dfc:	e0801001 	add	r1, r0, r1
   11e00:	e2833002 	add	r3, r3, #2
   11e04:	e6ff1071 	uxth	r1, r1
   11e08:	e19a20b3 	ldrh	r2, [sl, r3]
   11e0c:	e1a01081 	lsl	r1, r1, #1
   11e10:	e6ff1071 	uxth	r1, r1
   11e14:	e0812002 	add	r2, r1, r2
   11e18:	e2833002 	add	r3, r3, #2
   11e1c:	e6ff2072 	uxth	r2, r2
   11e20:	e19a30b3 	ldrh	r3, [sl, r3]
   11e24:	e1a02082 	lsl	r2, r2, #1
   11e28:	e6ff2072 	uxth	r2, r2
   11e2c:	e0823003 	add	r3, r2, r3
   11e30:	e59f72d0 	ldr	r7, [pc, #720]	; 12108 <build_tree+0xbd4>
   11e34:	e6ff3073 	uxth	r3, r3
   11e38:	e19a70b7 	ldrh	r7, [sl, r7]
   11e3c:	e1a03083 	lsl	r3, r3, #1
   11e40:	e6ff3073 	uxth	r3, r3
   11e44:	e0838007 	add	r8, r3, r7
   11e48:	e59f72bc 	ldr	r7, [pc, #700]	; 1210c <build_tree+0xbd8>
   11e4c:	e6ff8078 	uxth	r8, r8
   11e50:	e1a09088 	lsl	r9, r8, #1
   11e54:	e19a80b7 	ldrh	r8, [sl, r7]
   11e58:	e6ff9079 	uxth	r9, r9
   11e5c:	e0898008 	add	r8, r9, r8
   11e60:	e6ff8078 	uxth	r8, r8
   11e64:	e3a07eb5 	mov	r7, #2896	; 0xb50
   11e68:	e1a08088 	lsl	r8, r8, #1
   11e6c:	e19a70b7 	ldrh	r7, [sl, r7]
   11e70:	e58d9004 	str	r9, [sp, #4]
   11e74:	e6ff9078 	uxth	r9, r8
   11e78:	e0897007 	add	r7, r9, r7
   11e7c:	e6ff8077 	uxth	r8, r7
   11e80:	e59f7288 	ldr	r7, [pc, #648]	; 12110 <build_tree+0xbdc>
   11e84:	e58d300c 	str	r3, [sp, #12]
   11e88:	e1a08088 	lsl	r8, r8, #1
   11e8c:	e19a30b7 	ldrh	r3, [sl, r7]
   11e90:	e6ff8078 	uxth	r8, r8
   11e94:	e0883003 	add	r3, r8, r3
   11e98:	e59d7018 	ldr	r7, [sp, #24]
   11e9c:	e6ff3073 	uxth	r3, r3
   11ea0:	e1a03083 	lsl	r3, r3, #1
   11ea4:	e3770001 	cmn	r7, #1
   11ea8:	e6ff7073 	uxth	r7, r3
   11eac:	e59f3260 	ldr	r3, [pc, #608]	; 12114 <build_tree+0xbe0>
   11eb0:	e1cd62b2 	strh	r6, [sp, #34]	; 0x22
   11eb4:	e19a30b3 	ldrh	r3, [sl, r3]
   11eb8:	e1cd52b4 	strh	r5, [sp, #36]	; 0x24
   11ebc:	e59f6254 	ldr	r6, [pc, #596]	; 12118 <build_tree+0xbe4>
   11ec0:	e0875003 	add	r5, r7, r3
   11ec4:	e6ff5075 	uxth	r5, r5
   11ec8:	e19a60b6 	ldrh	r6, [sl, r6]
   11ecc:	e1a05085 	lsl	r5, r5, #1
   11ed0:	e6ff5075 	uxth	r5, r5
   11ed4:	e1cd42b6 	strh	r4, [sp, #38]	; 0x26
   11ed8:	e0854006 	add	r4, r5, r6
   11edc:	e59f6238 	ldr	r6, [pc, #568]	; 1211c <build_tree+0xbe8>
   11ee0:	e6ff4074 	uxth	r4, r4
   11ee4:	e19a60b6 	ldrh	r6, [sl, r6]
   11ee8:	e1a04084 	lsl	r4, r4, #1
   11eec:	e6ff4074 	uxth	r4, r4
   11ef0:	e1cdc2b8 	strh	ip, [sp, #40]	; 0x28
   11ef4:	e1cd02ba 	strh	r0, [sp, #42]	; 0x2a
   11ef8:	e084c006 	add	ip, r4, r6
   11efc:	e59d0004 	ldr	r0, [sp, #4]
   11f00:	e59d600c 	ldr	r6, [sp, #12]
   11f04:	e1a0c08c 	lsl	ip, ip, #1
   11f08:	e1cd12bc 	strh	r1, [sp, #44]	; 0x2c
   11f0c:	e1cd22be 	strh	r2, [sp, #46]	; 0x2e
   11f10:	e1cd63b0 	strh	r6, [sp, #48]	; 0x30
   11f14:	e1cd03b2 	strh	r0, [sp, #50]	; 0x32
   11f18:	e1cd93b4 	strh	r9, [sp, #52]	; 0x34
   11f1c:	e1cd83b6 	strh	r8, [sp, #54]	; 0x36
   11f20:	e1cd73b8 	strh	r7, [sp, #56]	; 0x38
   11f24:	e1cd53ba 	strh	r5, [sp, #58]	; 0x3a
   11f28:	e1cd43bc 	strh	r4, [sp, #60]	; 0x3c
   11f2c:	e1cdc3be 	strh	ip, [sp, #62]	; 0x3e
   11f30:	0a000018 	beq	11f98 <build_tree+0xa64>
   11f34:	e59d1018 	ldr	r1, [sp, #24]
   11f38:	e3a0c000 	mov	ip, #0
   11f3c:	e2814001 	add	r4, r1, #1
   11f40:	e1a04104 	lsl	r4, r4, #2
   11f44:	e08b300c 	add	r3, fp, ip
   11f48:	e1d330b2 	ldrh	r3, [r3, #2]
   11f4c:	e3530000 	cmp	r3, #0
   11f50:	0a00000d 	beq	11f8c <build_tree+0xa58>
   11f54:	e28d2040 	add	r2, sp, #64	; 0x40
   11f58:	e0820083 	add	r0, r2, r3, lsl #1
   11f5c:	e15022b0 	ldrh	r2, [r0, #-32]	; 0xffffffe0
   11f60:	e3a01000 	mov	r1, #0
   11f64:	e2825001 	add	r5, r2, #1
   11f68:	e14052b0 	strh	r5, [r0, #-32]	; 0xffffffe0
   11f6c:	e2020001 	and	r0, r2, #1
   11f70:	e1811000 	orr	r1, r1, r0
   11f74:	e2533001 	subs	r3, r3, #1
   11f78:	e1a01081 	lsl	r1, r1, #1
   11f7c:	e1a020a2 	lsr	r2, r2, #1
   11f80:	1afffff9 	bne	11f6c <build_tree+0xa38>
   11f84:	e1a010a1 	lsr	r1, r1, #1
   11f88:	e18b10bc 	strh	r1, [fp, ip]
   11f8c:	e28cc004 	add	ip, ip, #4
   11f90:	e15c0004 	cmp	ip, r4
   11f94:	1affffea 	bne	11f44 <build_tree+0xa10>
   11f98:	e28dd040 	add	sp, sp, #64	; 0x40
   11f9c:	e8bd0ff0 	pop	{r4, r5, r6, r7, r8, r9, sl, fp}
   11fa0:	e12fff1e 	bx	lr
   11fa4:	e1a0c004 	mov	ip, r4
   11fa8:	eafffdf2 	b	11778 <build_tree+0x244>
   11fac:	e1a00009 	mov	r0, r9
   11fb0:	eaffff3b 	b	11ca4 <build_tree+0x770>
   11fb4:	e280900c 	add	r9, r0, #12
   11fb8:	e58db00c 	str	fp, [sp, #12]
   11fbc:	e59f8134 	ldr	r8, [pc, #308]	; 120f8 <build_tree+0xbc4>
   11fc0:	e284400c 	add	r4, r4, #12
   11fc4:	e1a0b007 	mov	fp, r7
   11fc8:	e58d9004 	str	r9, [sp, #4]
   11fcc:	ea000008 	b	11ff4 <build_tree+0xac0>
   11fd0:	e3a0c000 	mov	ip, #0
   11fd4:	e19350b6 	ldrh	r5, [r3, r6]
   11fd8:	e79a6008 	ldr	r6, [sl, r8]
   11fdc:	e080000c 	add	r0, r0, ip
   11fe0:	e0206095 	mla	r0, r5, r0, r6
   11fe4:	e78a0008 	str	r0, [sl, r8]
   11fe8:	e59d9004 	ldr	r9, [sp, #4]
   11fec:	e1540009 	cmp	r4, r9
   11ff0:	0a000019 	beq	1205c <build_tree+0xb28>
   11ff4:	e5b4c004 	ldr	ip, [r4, #4]!
   11ff8:	e1a0610c 	lsl	r6, ip, #2
   11ffc:	e0835006 	add	r5, r3, r6
   12000:	e1d500b2 	ldrh	r0, [r5, #2]
   12004:	e0830100 	add	r0, r3, r0, lsl #2
   12008:	e1d000b2 	ldrh	r0, [r0, #2]
   1200c:	e2800001 	add	r0, r0, #1
   12010:	e1500002 	cmp	r0, r2
   12014:	c1a00002 	movgt	r0, r2
   12018:	e2807e59 	add	r7, r0, #1424	; 0x590
   1201c:	c28bb001 	addgt	fp, fp, #1
   12020:	e287700c 	add	r7, r7, #12
   12024:	e15c0001 	cmp	ip, r1
   12028:	e08a7087 	add	r7, sl, r7, lsl #1
   1202c:	e1c500b2 	strh	r0, [r5, #2]
   12030:	caffffec 	bgt	11fe8 <build_tree+0xab4>
   12034:	e1d750b4 	ldrh	r5, [r7, #4]
   12038:	e59d9008 	ldr	r9, [sp, #8]
   1203c:	e2855001 	add	r5, r5, #1
   12040:	e15c0009 	cmp	ip, r9
   12044:	e1c750b4 	strh	r5, [r7, #4]
   12048:	baffffe0 	blt	11fd0 <build_tree+0xa9c>
   1204c:	e59d7010 	ldr	r7, [sp, #16]
   12050:	e069c00c 	rsb	ip, r9, ip
   12054:	e797c10c 	ldr	ip, [r7, ip, lsl #2]
   12058:	eaffffdd 	b	11fd4 <build_tree+0xaa0>
   1205c:	e58db004 	str	fp, [sp, #4]
   12060:	e59f5088 	ldr	r5, [pc, #136]	; 120f0 <build_tree+0xbbc>
   12064:	e59db00c 	ldr	fp, [sp, #12]
   12068:	eafffef5 	b	11c44 <build_tree+0x710>
   1206c:	e59f0080 	ldr	r0, [pc, #128]	; 120f4 <build_tree+0xbc0>
   12070:	e59f1080 	ldr	r1, [pc, #128]	; 120f8 <build_tree+0xbc4>
   12074:	e3a0c001 	mov	ip, #1
   12078:	e59d5018 	ldr	r5, [sp, #24]
   1207c:	ea000010 	b	120c4 <build_tree+0xb90>
   12080:	e3550001 	cmp	r5, #1
   12084:	d2853001 	addle	r3, r5, #1
   12088:	c3a02000 	movgt	r2, #0
   1208c:	e78a6000 	str	r6, [sl, r0]
   12090:	d1a02103 	lslle	r2, r3, #2
   12094:	c1a03002 	movgt	r3, r2
   12098:	e08a6106 	add	r6, sl, r6, lsl #2
   1209c:	e5863b5c 	str	r3, [r6, #2908]	; 0xb5c
   120a0:	e18bc0b2 	strh	ip, [fp, r2]
   120a4:	e79a2001 	ldr	r2, [sl, r1]
   120a8:	d1a05003 	movle	r5, r3
   120ac:	e08a3003 	add	r3, sl, r3
   120b0:	e2833d51 	add	r3, r3, #5184	; 0x1440
   120b4:	e2422001 	sub	r2, r2, #1
   120b8:	e79a9000 	ldr	r9, [sl, r0]
   120bc:	e5c34018 	strb	r4, [r3, #24]
   120c0:	e78a2001 	str	r2, [sl, r1]
   120c4:	e3590001 	cmp	r9, #1
   120c8:	e2896001 	add	r6, r9, #1
   120cc:	daffffeb 	ble	12080 <build_tree+0xb4c>
   120d0:	e58d5018 	str	r5, [sp, #24]
   120d4:	e1a01005 	mov	r1, r5
   120d8:	eafffd62 	b	11668 <build_tree+0x134>
   120dc:	e3e0c000 	mvn	ip, #0
   120e0:	e1a09002 	mov	r9, r2
   120e4:	e58dc018 	str	ip, [sp, #24]
   120e8:	eafffd3a 	b	115d8 <build_tree+0xa4>
   120ec:	00001454 	andeq	r1, r0, r4, asr r4
   120f0:	0000023d 	andeq	r0, r0, sp, lsr r2
   120f4:	00001450 	andeq	r1, r0, r0, asr r4
   120f8:	000016a8 	andeq	r1, r0, r8, lsr #13
   120fc:	000016ac 	andeq	r1, r0, ip, lsr #13
   12100:	00000b3c 	andeq	r0, r0, ip, lsr fp
   12104:	00000b3e 	andeq	r0, r0, lr, lsr fp
   12108:	00000b4c 	andeq	r0, r0, ip, asr #22
   1210c:	00000b4e 	andeq	r0, r0, lr, asr #22
   12110:	00000b52 	andeq	r0, r0, r2, asr fp
   12114:	00000b54 	andeq	r0, r0, r4, asr fp
   12118:	00000b56 	andeq	r0, r0, r6, asr fp
   1211c:	00000b58 	andeq	r0, r0, r8, asr fp

00012120 <_tr_init>:
   12120:	e59f20d4 	ldr	r2, [pc, #212]	; 121fc <_tr_init+0xdc>
   12124:	e92d05f0 	push	{r4, r5, r6, r7, r8, sl}
   12128:	e59fc0d0 	ldr	ip, [pc, #208]	; 12200 <_tr_init+0xe0>
   1212c:	e2808d26 	add	r8, r0, #2432	; 0x980
   12130:	e2805ea7 	add	r5, r0, #2672	; 0xa70
   12134:	e59f40c8 	ldr	r4, [pc, #200]	; 12204 <_tr_init+0xe4>
   12138:	e2827014 	add	r7, r2, #20
   1213c:	e2826028 	add	r6, r2, #40	; 0x28
   12140:	e3a01000 	mov	r1, #0
   12144:	e280a094 	add	sl, r0, #148	; 0x94
   12148:	e2888008 	add	r8, r8, #8
   1214c:	e285500c 	add	r5, r5, #12
   12150:	e59f30b0 	ldr	r3, [pc, #176]	; 12208 <_tr_init+0xe8>
   12154:	e5802b20 	str	r2, [r0, #2848]	; 0xb20
   12158:	e580ab18 	str	sl, [r0, #2840]	; 0xb18
   1215c:	e5808b24 	str	r8, [r0, #2852]	; 0xb24
   12160:	e5807b2c 	str	r7, [r0, #2860]	; 0xb2c
   12164:	e5806b38 	str	r6, [r0, #2872]	; 0xb38
   12168:	e5805b30 	str	r5, [r0, #2864]	; 0xb30
   1216c:	e18010b4 	strh	r1, [r0, r4]
   12170:	e780100c 	str	r1, [r0, ip]
   12174:	e1a02000 	mov	r2, r0
   12178:	e2533001 	subs	r3, r3, #1
   1217c:	e1c219b4 	strh	r1, [r2, #148]	; 0x94
   12180:	e2822004 	add	r2, r2, #4
   12184:	1afffffb 	bne	12178 <_tr_init+0x58>
   12188:	e1a01003 	mov	r1, r3
   1218c:	e0802003 	add	r2, r0, r3
   12190:	e2833004 	add	r3, r3, #4
   12194:	e2822d26 	add	r2, r2, #2432	; 0x980
   12198:	e3530078 	cmp	r3, #120	; 0x78
   1219c:	e1c210b8 	strh	r1, [r2, #8]
   121a0:	1afffff9 	bne	1218c <_tr_init+0x6c>
   121a4:	e3a03000 	mov	r3, #0
   121a8:	e1a01003 	mov	r1, r3
   121ac:	e0802003 	add	r2, r0, r3
   121b0:	e2833004 	add	r3, r3, #4
   121b4:	e2822ea7 	add	r2, r2, #2672	; 0xa70
   121b8:	e353004c 	cmp	r3, #76	; 0x4c
   121bc:	e1c210bc 	strh	r1, [r2, #12]
   121c0:	e3a02000 	mov	r2, #0
   121c4:	1afffff8 	bne	121ac <_tr_init+0x8c>
   121c8:	e59f503c 	ldr	r5, [pc, #60]	; 1220c <_tr_init+0xec>
   121cc:	e59f403c 	ldr	r4, [pc, #60]	; 12210 <_tr_init+0xf0>
   121d0:	e59fc03c 	ldr	ip, [pc, #60]	; 12214 <_tr_init+0xf4>
   121d4:	e59f103c 	ldr	r1, [pc, #60]	; 12218 <_tr_init+0xf8>
   121d8:	e59f303c 	ldr	r3, [pc, #60]	; 1221c <_tr_init+0xfc>
   121dc:	e3a06001 	mov	r6, #1
   121e0:	e18060b5 	strh	r6, [r0, r5]
   121e4:	e7802004 	str	r2, [r0, r4]
   121e8:	e780200c 	str	r2, [r0, ip]
   121ec:	e7802001 	str	r2, [r0, r1]
   121f0:	e7802003 	str	r2, [r0, r3]
   121f4:	e8bd05f0 	pop	{r4, r5, r6, r7, r8, sl}
   121f8:	e12fff1e 	bx	lr
   121fc:	00017a0c 	andeq	r7, r1, ip, lsl #20
   12200:	000016bc 			; <UNDEFINED> instruction: 0x000016bc
   12204:	000016b8 			; <UNDEFINED> instruction: 0x000016b8
   12208:	0000011e 	andeq	r0, r0, lr, lsl r1
   1220c:	00000494 	muleq	r0, r4, r4
   12210:	000016ac 	andeq	r1, r0, ip, lsr #13
   12214:	000016a8 	andeq	r1, r0, r8, lsr #13
   12218:	000016b0 			; <UNDEFINED> instruction: 0x000016b0
   1221c:	000016a0 	andeq	r1, r0, r0, lsr #13

00012220 <_tr_stored_block>:
   12220:	e92d01f0 	push	{r4, r5, r6, r7, r8}
   12224:	e59f516c 	ldr	r5, [pc, #364]	; 12398 <_tr_stored_block+0x178>
   12228:	e59f616c 	ldr	r6, [pc, #364]	; 1239c <_tr_stored_block+0x17c>
   1222c:	e790c005 	ldr	ip, [r0, r5]
   12230:	e6ff3073 	uxth	r3, r3
   12234:	e35c000d 	cmp	ip, #13
   12238:	ca000033 	bgt	1230c <_tr_stored_block+0xec>
   1223c:	e19070b6 	ldrh	r7, [r0, r6]
   12240:	e28c4003 	add	r4, ip, #3
   12244:	e187cc13 	orr	ip, r7, r3, lsl ip
   12248:	e3540008 	cmp	r4, #8
   1224c:	e6ffc07c 	uxth	ip, ip
   12250:	e180c0b6 	strh	ip, [r0, r6]
   12254:	e7804005 	str	r4, [r0, r5]
   12258:	ca000042 	bgt	12368 <_tr_stored_block+0x148>
   1225c:	e3540000 	cmp	r4, #0
   12260:	c5903014 	ldrgt	r3, [r0, #20]
   12264:	c5905008 	ldrgt	r5, [r0, #8]
   12268:	c2834001 	addgt	r4, r3, #1
   1226c:	c7c5c003 	strbgt	ip, [r5, r3]
   12270:	c5804014 	strgt	r4, [r0, #20]
   12274:	e5903014 	ldr	r3, [r0, #20]
   12278:	e5905008 	ldr	r5, [r0, #8]
   1227c:	e59f7118 	ldr	r7, [pc, #280]	; 1239c <_tr_stored_block+0x17c>
   12280:	e59f6110 	ldr	r6, [pc, #272]	; 12398 <_tr_stored_block+0x178>
   12284:	e3a0c000 	mov	ip, #0
   12288:	e6ef4072 	uxtb	r4, r2
   1228c:	e180c0b7 	strh	ip, [r0, r7]
   12290:	e780c006 	str	ip, [r0, r6]
   12294:	e7c54003 	strb	r4, [r5, r3]
   12298:	e5906008 	ldr	r6, [r0, #8]
   1229c:	e6ffc072 	uxth	ip, r2
   122a0:	e2835001 	add	r5, r3, #1
   122a4:	e1a0742c 	lsr	r7, ip, #8
   122a8:	e7c67005 	strb	r7, [r6, r5]
   122ac:	e5906008 	ldr	r6, [r0, #8]
   122b0:	e2835002 	add	r5, r3, #2
   122b4:	e1e04004 	mvn	r4, r4
   122b8:	e7c64005 	strb	r4, [r6, r5]
   122bc:	e22cccff 	eor	ip, ip, #65280	; 0xff00
   122c0:	e5905008 	ldr	r5, [r0, #8]
   122c4:	e2834003 	add	r4, r3, #3
   122c8:	e1a0c42c 	lsr	ip, ip, #8
   122cc:	e2833004 	add	r3, r3, #4
   122d0:	e3520000 	cmp	r2, #0
   122d4:	e7c5c004 	strb	ip, [r5, r4]
   122d8:	e5803014 	str	r3, [r0, #20]
   122dc:	0a000008 	beq	12304 <_tr_stored_block+0xe4>
   122e0:	e2411001 	sub	r1, r1, #1
   122e4:	e0822003 	add	r2, r2, r3
   122e8:	e5f14001 	ldrb	r4, [r1, #1]!
   122ec:	e590c008 	ldr	ip, [r0, #8]
   122f0:	e7cc4003 	strb	r4, [ip, r3]
   122f4:	e2833001 	add	r3, r3, #1
   122f8:	e1530002 	cmp	r3, r2
   122fc:	e5803014 	str	r3, [r0, #20]
   12300:	1afffff8 	bne	122e8 <_tr_stored_block+0xc8>
   12304:	e8bd01f0 	pop	{r4, r5, r6, r7, r8}
   12308:	e12fff1e 	bx	lr
   1230c:	e19040b6 	ldrh	r4, [r0, r6]
   12310:	e5907014 	ldr	r7, [r0, #20]
   12314:	e184cc13 	orr	ip, r4, r3, lsl ip
   12318:	e5904008 	ldr	r4, [r0, #8]
   1231c:	e6ffc07c 	uxth	ip, ip
   12320:	e180c0b6 	strh	ip, [r0, r6]
   12324:	e7c4c007 	strb	ip, [r4, r7]
   12328:	e19080b6 	ldrh	r8, [r0, r6]
   1232c:	e5904008 	ldr	r4, [r0, #8]
   12330:	e287c001 	add	ip, r7, #1
   12334:	e1a08428 	lsr	r8, r8, #8
   12338:	e7c4800c 	strb	r8, [r4, ip]
   1233c:	e7904005 	ldr	r4, [r0, r5]
   12340:	e2877002 	add	r7, r7, #2
   12344:	e264c010 	rsb	ip, r4, #16
   12348:	e1a03c53 	asr	r3, r3, ip
   1234c:	e244400d 	sub	r4, r4, #13
   12350:	e6ffc073 	uxth	ip, r3
   12354:	e3540008 	cmp	r4, #8
   12358:	e5807014 	str	r7, [r0, #20]
   1235c:	e180c0b6 	strh	ip, [r0, r6]
   12360:	e7804005 	str	r4, [r0, r5]
   12364:	daffffbc 	ble	1225c <_tr_stored_block+0x3c>
   12368:	e5903014 	ldr	r3, [r0, #20]
   1236c:	e5905008 	ldr	r5, [r0, #8]
   12370:	e59f4024 	ldr	r4, [pc, #36]	; 1239c <_tr_stored_block+0x17c>
   12374:	e7c5c003 	strb	ip, [r5, r3]
   12378:	e19050b4 	ldrh	r5, [r0, r4]
   1237c:	e5904008 	ldr	r4, [r0, #8]
   12380:	e283c001 	add	ip, r3, #1
   12384:	e1a05425 	lsr	r5, r5, #8
   12388:	e2833002 	add	r3, r3, #2
   1238c:	e7c4500c 	strb	r5, [r4, ip]
   12390:	e5803014 	str	r3, [r0, #20]
   12394:	eaffffb6 	b	12274 <_tr_stored_block+0x54>
   12398:	000016bc 			; <UNDEFINED> instruction: 0x000016bc
   1239c:	000016b8 			; <UNDEFINED> instruction: 0x000016b8

000123a0 <_tr_flush_bits>:
   123a0:	e59f3090 	ldr	r3, [pc, #144]	; 12438 <_tr_flush_bits+0x98>
   123a4:	e92d0070 	push	{r4, r5, r6}
   123a8:	e7902003 	ldr	r2, [r0, r3]
   123ac:	e3520010 	cmp	r2, #16
   123b0:	0a000010 	beq	123f8 <_tr_flush_bits+0x58>
   123b4:	e3520007 	cmp	r2, #7
   123b8:	da00000c 	ble	123f0 <_tr_flush_bits+0x50>
   123bc:	e59f2078 	ldr	r2, [pc, #120]	; 1243c <_tr_flush_bits+0x9c>
   123c0:	e5901014 	ldr	r1, [r0, #20]
   123c4:	e19050b2 	ldrh	r5, [r0, r2]
   123c8:	e590c008 	ldr	ip, [r0, #8]
   123cc:	e2814001 	add	r4, r1, #1
   123d0:	e7cc5001 	strb	r5, [ip, r1]
   123d4:	e190c0b2 	ldrh	ip, [r0, r2]
   123d8:	e7901003 	ldr	r1, [r0, r3]
   123dc:	e1a0c42c 	lsr	ip, ip, #8
   123e0:	e2411008 	sub	r1, r1, #8
   123e4:	e5804014 	str	r4, [r0, #20]
   123e8:	e180c0b2 	strh	ip, [r0, r2]
   123ec:	e7801003 	str	r1, [r0, r3]
   123f0:	e8bd0070 	pop	{r4, r5, r6}
   123f4:	e12fff1e 	bx	lr
   123f8:	e59f203c 	ldr	r2, [pc, #60]	; 1243c <_tr_flush_bits+0x9c>
   123fc:	e5901014 	ldr	r1, [r0, #20]
   12400:	e19050b2 	ldrh	r5, [r0, r2]
   12404:	e590c008 	ldr	ip, [r0, #8]
   12408:	e2814001 	add	r4, r1, #1
   1240c:	e7cc5001 	strb	r5, [ip, r1]
   12410:	e19060b2 	ldrh	r6, [r0, r2]
   12414:	e5905008 	ldr	r5, [r0, #8]
   12418:	e3a0c000 	mov	ip, #0
   1241c:	e1a06426 	lsr	r6, r6, #8
   12420:	e2811002 	add	r1, r1, #2
   12424:	e7c56004 	strb	r6, [r5, r4]
   12428:	e5801014 	str	r1, [r0, #20]
   1242c:	e180c0b2 	strh	ip, [r0, r2]
   12430:	e780c003 	str	ip, [r0, r3]
   12434:	eaffffed 	b	123f0 <_tr_flush_bits+0x50>
   12438:	000016bc 			; <UNDEFINED> instruction: 0x000016bc
   1243c:	000016b8 			; <UNDEFINED> instruction: 0x000016b8

00012440 <_tr_align>:
   12440:	e59f2178 	ldr	r2, [pc, #376]	; 125c0 <_tr_align+0x180>
   12444:	e92d0070 	push	{r4, r5, r6}
   12448:	e7901002 	ldr	r1, [r0, r2]
   1244c:	e59fc170 	ldr	ip, [pc, #368]	; 125c4 <_tr_align+0x184>
   12450:	e351000d 	cmp	r1, #13
   12454:	e3a05002 	mov	r5, #2
   12458:	da00002c 	ble	12510 <_tr_align+0xd0>
   1245c:	e19030bc 	ldrh	r3, [r0, ip]
   12460:	e5904014 	ldr	r4, [r0, #20]
   12464:	e1831115 	orr	r1, r3, r5, lsl r1
   12468:	e5903008 	ldr	r3, [r0, #8]
   1246c:	e6ff1071 	uxth	r1, r1
   12470:	e18010bc 	strh	r1, [r0, ip]
   12474:	e7c31004 	strb	r1, [r3, r4]
   12478:	e19060bc 	ldrh	r6, [r0, ip]
   1247c:	e5901008 	ldr	r1, [r0, #8]
   12480:	e2843001 	add	r3, r4, #1
   12484:	e1a06426 	lsr	r6, r6, #8
   12488:	e7c16003 	strb	r6, [r1, r3]
   1248c:	e7903002 	ldr	r3, [r0, r2]
   12490:	e0844005 	add	r4, r4, r5
   12494:	e2631010 	rsb	r1, r3, #16
   12498:	e1a05155 	asr	r5, r5, r1
   1249c:	e243300d 	sub	r3, r3, #13
   124a0:	e3530009 	cmp	r3, #9
   124a4:	e5804014 	str	r4, [r0, #20]
   124a8:	e18050bc 	strh	r5, [r0, ip]
   124ac:	e7803002 	str	r3, [r0, r2]
   124b0:	ca00001d 	bgt	1252c <_tr_align+0xec>
   124b4:	e2833007 	add	r3, r3, #7
   124b8:	e59f2100 	ldr	r2, [pc, #256]	; 125c0 <_tr_align+0x180>
   124bc:	e3530010 	cmp	r3, #16
   124c0:	e7803002 	str	r3, [r0, r2]
   124c4:	0a00002c 	beq	1257c <_tr_align+0x13c>
   124c8:	e3530007 	cmp	r3, #7
   124cc:	da00000d 	ble	12508 <_tr_align+0xc8>
   124d0:	e59f30ec 	ldr	r3, [pc, #236]	; 125c4 <_tr_align+0x184>
   124d4:	e5901014 	ldr	r1, [r0, #20]
   124d8:	e19040b3 	ldrh	r4, [r0, r3]
   124dc:	e590c008 	ldr	ip, [r0, #8]
   124e0:	e59f20d8 	ldr	r2, [pc, #216]	; 125c0 <_tr_align+0x180>
   124e4:	e7cc4001 	strb	r4, [ip, r1]
   124e8:	e19040b3 	ldrh	r4, [r0, r3]
   124ec:	e790c002 	ldr	ip, [r0, r2]
   124f0:	e2811001 	add	r1, r1, #1
   124f4:	e1a04424 	lsr	r4, r4, #8
   124f8:	e24cc008 	sub	ip, ip, #8
   124fc:	e5801014 	str	r1, [r0, #20]
   12500:	e18040b3 	strh	r4, [r0, r3]
   12504:	e780c002 	str	ip, [r0, r2]
   12508:	e8bd0070 	pop	{r4, r5, r6}
   1250c:	e12fff1e 	bx	lr
   12510:	e19040bc 	ldrh	r4, [r0, ip]
   12514:	e2813003 	add	r3, r1, #3
   12518:	e1841115 	orr	r1, r4, r5, lsl r1
   1251c:	e3530009 	cmp	r3, #9
   12520:	e7803002 	str	r3, [r0, r2]
   12524:	e18010bc 	strh	r1, [r0, ip]
   12528:	daffffe1 	ble	124b4 <_tr_align+0x74>
   1252c:	e59f2090 	ldr	r2, [pc, #144]	; 125c4 <_tr_align+0x184>
   12530:	e5901014 	ldr	r1, [r0, #20]
   12534:	e19040b2 	ldrh	r4, [r0, r2]
   12538:	e590c008 	ldr	ip, [r0, #8]
   1253c:	e2813001 	add	r3, r1, #1
   12540:	e7cc4001 	strb	r4, [ip, r1]
   12544:	e19050b2 	ldrh	r5, [r0, r2]
   12548:	e5904008 	ldr	r4, [r0, #8]
   1254c:	e59fc06c 	ldr	ip, [pc, #108]	; 125c0 <_tr_align+0x180>
   12550:	e1a05425 	lsr	r5, r5, #8
   12554:	e7c45003 	strb	r5, [r4, r3]
   12558:	e790300c 	ldr	r3, [r0, ip]
   1255c:	e2811002 	add	r1, r1, #2
   12560:	e2433009 	sub	r3, r3, #9
   12564:	e3a04000 	mov	r4, #0
   12568:	e3530010 	cmp	r3, #16
   1256c:	e5801014 	str	r1, [r0, #20]
   12570:	e18040b2 	strh	r4, [r0, r2]
   12574:	e780300c 	str	r3, [r0, ip]
   12578:	1affffd2 	bne	124c8 <_tr_align+0x88>
   1257c:	e59f3040 	ldr	r3, [pc, #64]	; 125c4 <_tr_align+0x184>
   12580:	e5902014 	ldr	r2, [r0, #20]
   12584:	e19040b3 	ldrh	r4, [r0, r3]
   12588:	e5901008 	ldr	r1, [r0, #8]
   1258c:	e59fc02c 	ldr	ip, [pc, #44]	; 125c0 <_tr_align+0x180>
   12590:	e7c14002 	strb	r4, [r1, r2]
   12594:	e19060b3 	ldrh	r6, [r0, r3]
   12598:	e5905008 	ldr	r5, [r0, #8]
   1259c:	e2824001 	add	r4, r2, #1
   125a0:	e3a01000 	mov	r1, #0
   125a4:	e1a06426 	lsr	r6, r6, #8
   125a8:	e2822002 	add	r2, r2, #2
   125ac:	e7c56004 	strb	r6, [r5, r4]
   125b0:	e5802014 	str	r2, [r0, #20]
   125b4:	e18010b3 	strh	r1, [r0, r3]
   125b8:	e780100c 	str	r1, [r0, ip]
   125bc:	eaffffd1 	b	12508 <_tr_align+0xc8>
   125c0:	000016bc 			; <UNDEFINED> instruction: 0x000016bc
   125c4:	000016b8 			; <UNDEFINED> instruction: 0x000016b8

000125c8 <_tr_flush_block>:
   125c8:	e92d4ff0 	push	{r4, r5, r6, r7, r8, r9, sl, fp, lr}
   125cc:	e1a04000 	mov	r4, r0
   125d0:	e5900084 	ldr	r0, [r0, #132]	; 0x84
   125d4:	e24dd00c 	sub	sp, sp, #12
   125d8:	e3500000 	cmp	r0, #0
   125dc:	e58d1004 	str	r1, [sp, #4]
   125e0:	e1a06002 	mov	r6, r2
   125e4:	e1a05003 	mov	r5, r3
   125e8:	da0001f8 	ble	12dd0 <_tr_flush_block+0x808>
   125ec:	e594c000 	ldr	ip, [r4]
   125f0:	e59c3028 	ldr	r3, [ip, #40]	; 0x28
   125f4:	e3530002 	cmp	r3, #2
   125f8:	0a0001f9 	beq	12de4 <_tr_flush_block+0x81c>
   125fc:	e2841eb1 	add	r1, r4, #2832	; 0xb10
   12600:	e2811008 	add	r1, r1, #8
   12604:	e1a00004 	mov	r0, r4
   12608:	ebfffbc9 	bl	11534 <build_tree>
   1260c:	e2841eb2 	add	r1, r4, #2848	; 0xb20
   12610:	e2811004 	add	r1, r1, #4
   12614:	e1a00004 	mov	r0, r4
   12618:	ebfffbc5 	bl	11534 <build_tree>
   1261c:	e1d439b6 	ldrh	r3, [r4, #150]	; 0x96
   12620:	e5941b1c 	ldr	r1, [r4, #2844]	; 0xb1c
   12624:	e3530000 	cmp	r3, #0
   12628:	03a0e003 	moveq	lr, #3
   1262c:	13a0e004 	movne	lr, #4
   12630:	03a0208a 	moveq	r2, #138	; 0x8a
   12634:	13a02007 	movne	r2, #7
   12638:	e0840101 	add	r0, r4, r1, lsl #2
   1263c:	e3e07000 	mvn	r7, #0
   12640:	e3510000 	cmp	r1, #0
   12644:	e1c079ba 	strh	r7, [r0, #154]	; 0x9a
   12648:	e284c094 	add	ip, r4, #148	; 0x94
   1264c:	ba000037 	blt	12730 <_tr_flush_block+0x168>
   12650:	e2848098 	add	r8, r4, #152	; 0x98
   12654:	e0888101 	add	r8, r8, r1, lsl #2
   12658:	e59fb9fc 	ldr	fp, [pc, #2556]	; 1305c <_tr_flush_block+0xa94>
   1265c:	e59fa9fc 	ldr	sl, [pc, #2556]	; 13060 <_tr_flush_block+0xa98>
   12660:	e3a01000 	mov	r1, #0
   12664:	e3a09d2b 	mov	r9, #2752	; 0xac0
   12668:	ea000011 	b	126b4 <_tr_flush_block+0xec>
   1266c:	e2832fa7 	add	r2, r3, #668	; 0x29c
   12670:	e2822002 	add	r2, r2, #2
   12674:	e0842102 	add	r2, r4, r2, lsl #2
   12678:	e1d2e0b4 	ldrh	lr, [r2, #4]
   1267c:	e081100e 	add	r1, r1, lr
   12680:	e1c210b4 	strh	r1, [r2, #4]
   12684:	e3500000 	cmp	r0, #0
   12688:	0a000020 	beq	12710 <_tr_flush_block+0x148>
   1268c:	e1500003 	cmp	r0, r3
   12690:	0a0000fa 	beq	12a80 <_tr_flush_block+0x4b8>
   12694:	e1a07003 	mov	r7, r3
   12698:	e3a0e004 	mov	lr, #4
   1269c:	e3a02007 	mov	r2, #7
   126a0:	e3a01000 	mov	r1, #0
   126a4:	e28cc004 	add	ip, ip, #4
   126a8:	e15c0008 	cmp	ip, r8
   126ac:	e1a03000 	mov	r3, r0
   126b0:	0a00001e 	beq	12730 <_tr_flush_block+0x168>
   126b4:	e2811001 	add	r1, r1, #1
   126b8:	e1520001 	cmp	r2, r1
   126bc:	e1dc00b6 	ldrh	r0, [ip, #6]
   126c0:	da000001 	ble	126cc <_tr_flush_block+0x104>
   126c4:	e1500003 	cmp	r0, r3
   126c8:	0afffff5 	beq	126a4 <_tr_flush_block+0xdc>
   126cc:	e151000e 	cmp	r1, lr
   126d0:	baffffe5 	blt	1266c <_tr_flush_block+0xa4>
   126d4:	e3530000 	cmp	r3, #0
   126d8:	0a0000e0 	beq	12a60 <_tr_flush_block+0x498>
   126dc:	e1530007 	cmp	r3, r7
   126e0:	0a000005 	beq	126fc <_tr_flush_block+0x134>
   126e4:	e2832fa7 	add	r2, r3, #668	; 0x29c
   126e8:	e2822002 	add	r2, r2, #2
   126ec:	e0842102 	add	r2, r4, r2, lsl #2
   126f0:	e1d210b4 	ldrh	r1, [r2, #4]
   126f4:	e2811001 	add	r1, r1, #1
   126f8:	e1c210b4 	strh	r1, [r2, #4]
   126fc:	e19420ba 	ldrh	r2, [r4, sl]
   12700:	e3500000 	cmp	r0, #0
   12704:	e2822001 	add	r2, r2, #1
   12708:	e18420ba 	strh	r2, [r4, sl]
   1270c:	1affffde 	bne	1268c <_tr_flush_block+0xc4>
   12710:	e28cc004 	add	ip, ip, #4
   12714:	e15c0008 	cmp	ip, r8
   12718:	e1a07003 	mov	r7, r3
   1271c:	e3a0e003 	mov	lr, #3
   12720:	e3a0208a 	mov	r2, #138	; 0x8a
   12724:	e1a01000 	mov	r1, r0
   12728:	e1a03000 	mov	r3, r0
   1272c:	1affffe0 	bne	126b4 <_tr_flush_block+0xec>
   12730:	e59f392c 	ldr	r3, [pc, #2348]	; 13064 <_tr_flush_block+0xa9c>
   12734:	e5940b28 	ldr	r0, [r4, #2856]	; 0xb28
   12738:	e19430b3 	ldrh	r3, [r4, r3]
   1273c:	e2801e26 	add	r1, r0, #608	; 0x260
   12740:	e3530000 	cmp	r3, #0
   12744:	e2811003 	add	r1, r1, #3
   12748:	03a0e003 	moveq	lr, #3
   1274c:	13a0e004 	movne	lr, #4
   12750:	03a0208a 	moveq	r2, #138	; 0x8a
   12754:	13a02007 	movne	r2, #7
   12758:	e0841101 	add	r1, r4, r1, lsl #2
   1275c:	e3e07000 	mvn	r7, #0
   12760:	e2848d26 	add	r8, r4, #2432	; 0x980
   12764:	e3500000 	cmp	r0, #0
   12768:	e1c170b2 	strh	r7, [r1, #2]
   1276c:	e288c008 	add	ip, r8, #8
   12770:	ba000037 	blt	12854 <_tr_flush_block+0x28c>
   12774:	e288800c 	add	r8, r8, #12
   12778:	e59fb8dc 	ldr	fp, [pc, #2268]	; 1305c <_tr_flush_block+0xa94>
   1277c:	e59fa8dc 	ldr	sl, [pc, #2268]	; 13060 <_tr_flush_block+0xa98>
   12780:	e0888100 	add	r8, r8, r0, lsl #2
   12784:	e3a01000 	mov	r1, #0
   12788:	e3a09d2b 	mov	r9, #2752	; 0xac0
   1278c:	ea000011 	b	127d8 <_tr_flush_block+0x210>
   12790:	e2832fa7 	add	r2, r3, #668	; 0x29c
   12794:	e2822002 	add	r2, r2, #2
   12798:	e0842102 	add	r2, r4, r2, lsl #2
   1279c:	e1d2e0b4 	ldrh	lr, [r2, #4]
   127a0:	e081100e 	add	r1, r1, lr
   127a4:	e1c210b4 	strh	r1, [r2, #4]
   127a8:	e3500000 	cmp	r0, #0
   127ac:	0a000020 	beq	12834 <_tr_flush_block+0x26c>
   127b0:	e1500003 	cmp	r0, r3
   127b4:	0a0000be 	beq	12ab4 <_tr_flush_block+0x4ec>
   127b8:	e1a07003 	mov	r7, r3
   127bc:	e3a0e004 	mov	lr, #4
   127c0:	e3a02007 	mov	r2, #7
   127c4:	e3a01000 	mov	r1, #0
   127c8:	e28cc004 	add	ip, ip, #4
   127cc:	e15c0008 	cmp	ip, r8
   127d0:	e1a03000 	mov	r3, r0
   127d4:	0a00001e 	beq	12854 <_tr_flush_block+0x28c>
   127d8:	e2811001 	add	r1, r1, #1
   127dc:	e1520001 	cmp	r2, r1
   127e0:	e1dc00b6 	ldrh	r0, [ip, #6]
   127e4:	da000001 	ble	127f0 <_tr_flush_block+0x228>
   127e8:	e1500003 	cmp	r0, r3
   127ec:	0afffff5 	beq	127c8 <_tr_flush_block+0x200>
   127f0:	e151000e 	cmp	r1, lr
   127f4:	baffffe5 	blt	12790 <_tr_flush_block+0x1c8>
   127f8:	e3530000 	cmp	r3, #0
   127fc:	0a0000a4 	beq	12a94 <_tr_flush_block+0x4cc>
   12800:	e1530007 	cmp	r3, r7
   12804:	0a000005 	beq	12820 <_tr_flush_block+0x258>
   12808:	e2832fa7 	add	r2, r3, #668	; 0x29c
   1280c:	e2822002 	add	r2, r2, #2
   12810:	e0842102 	add	r2, r4, r2, lsl #2
   12814:	e1d210b4 	ldrh	r1, [r2, #4]
   12818:	e2811001 	add	r1, r1, #1
   1281c:	e1c210b4 	strh	r1, [r2, #4]
   12820:	e19420ba 	ldrh	r2, [r4, sl]
   12824:	e3500000 	cmp	r0, #0
   12828:	e2822001 	add	r2, r2, #1
   1282c:	e18420ba 	strh	r2, [r4, sl]
   12830:	1affffde 	bne	127b0 <_tr_flush_block+0x1e8>
   12834:	e28cc004 	add	ip, ip, #4
   12838:	e15c0008 	cmp	ip, r8
   1283c:	e1a07003 	mov	r7, r3
   12840:	e3a0e003 	mov	lr, #3
   12844:	e3a0208a 	mov	r2, #138	; 0x8a
   12848:	e1a01000 	mov	r1, r0
   1284c:	e1a03000 	mov	r3, r0
   12850:	1affffe0 	bne	127d8 <_tr_flush_block+0x210>
   12854:	e1a00004 	mov	r0, r4
   12858:	e2841eb3 	add	r1, r4, #2864	; 0xb30
   1285c:	ebfffb34 	bl	11534 <build_tree>
   12860:	e59f3800 	ldr	r3, [pc, #2048]	; 13068 <_tr_flush_block+0xaa0>
   12864:	e19430b3 	ldrh	r3, [r4, r3]
   12868:	e3530000 	cmp	r3, #0
   1286c:	1a0001e0 	bne	12ff4 <_tr_flush_block+0xa2c>
   12870:	e59f37f4 	ldr	r3, [pc, #2036]	; 1306c <_tr_flush_block+0xaa4>
   12874:	e19430b3 	ldrh	r3, [r4, r3]
   12878:	e3530000 	cmp	r3, #0
   1287c:	1a0001da 	bne	12fec <_tr_flush_block+0xa24>
   12880:	e59f37e8 	ldr	r3, [pc, #2024]	; 13070 <_tr_flush_block+0xaa8>
   12884:	e19430b3 	ldrh	r3, [r4, r3]
   12888:	e3530000 	cmp	r3, #0
   1288c:	1a0001de 	bne	1300c <_tr_flush_block+0xa44>
   12890:	e59f37dc 	ldr	r3, [pc, #2012]	; 13074 <_tr_flush_block+0xaac>
   12894:	e19430b3 	ldrh	r3, [r4, r3]
   12898:	e3530000 	cmp	r3, #0
   1289c:	1a0001d8 	bne	13004 <_tr_flush_block+0xa3c>
   128a0:	e59f37d0 	ldr	r3, [pc, #2000]	; 13078 <_tr_flush_block+0xab0>
   128a4:	e19430b3 	ldrh	r3, [r4, r3]
   128a8:	e3530000 	cmp	r3, #0
   128ac:	1a0001d2 	bne	12ffc <_tr_flush_block+0xa34>
   128b0:	e59f37c4 	ldr	r3, [pc, #1988]	; 1307c <_tr_flush_block+0xab4>
   128b4:	e19430b3 	ldrh	r3, [r4, r3]
   128b8:	e3530000 	cmp	r3, #0
   128bc:	1a0001c8 	bne	12fe4 <_tr_flush_block+0xa1c>
   128c0:	e59f37b8 	ldr	r3, [pc, #1976]	; 13080 <_tr_flush_block+0xab8>
   128c4:	e19430b3 	ldrh	r3, [r4, r3]
   128c8:	e3530000 	cmp	r3, #0
   128cc:	1a0001d0 	bne	13014 <_tr_flush_block+0xa4c>
   128d0:	e59f37ac 	ldr	r3, [pc, #1964]	; 13084 <_tr_flush_block+0xabc>
   128d4:	e19430b3 	ldrh	r3, [r4, r3]
   128d8:	e3530000 	cmp	r3, #0
   128dc:	1a0001d6 	bne	1303c <_tr_flush_block+0xa74>
   128e0:	e59f37a0 	ldr	r3, [pc, #1952]	; 13088 <_tr_flush_block+0xac0>
   128e4:	e19430b3 	ldrh	r3, [r4, r3]
   128e8:	e3530000 	cmp	r3, #0
   128ec:	1a0001b8 	bne	12fd4 <_tr_flush_block+0xa0c>
   128f0:	e59f3794 	ldr	r3, [pc, #1940]	; 1308c <_tr_flush_block+0xac4>
   128f4:	e19430b3 	ldrh	r3, [r4, r3]
   128f8:	e3530000 	cmp	r3, #0
   128fc:	1a0001c6 	bne	1301c <_tr_flush_block+0xa54>
   12900:	e59f3788 	ldr	r3, [pc, #1928]	; 13090 <_tr_flush_block+0xac8>
   12904:	e19430b3 	ldrh	r3, [r4, r3]
   12908:	e3530000 	cmp	r3, #0
   1290c:	1a0001c4 	bne	13024 <_tr_flush_block+0xa5c>
   12910:	e59f377c 	ldr	r3, [pc, #1916]	; 13094 <_tr_flush_block+0xacc>
   12914:	e19430b3 	ldrh	r3, [r4, r3]
   12918:	e3530000 	cmp	r3, #0
   1291c:	1a0001c2 	bne	1302c <_tr_flush_block+0xa64>
   12920:	e59f3770 	ldr	r3, [pc, #1904]	; 13098 <_tr_flush_block+0xad0>
   12924:	e19430b3 	ldrh	r3, [r4, r3]
   12928:	e3530000 	cmp	r3, #0
   1292c:	1a0001c0 	bne	13034 <_tr_flush_block+0xa6c>
   12930:	e59f3764 	ldr	r3, [pc, #1892]	; 1309c <_tr_flush_block+0xad4>
   12934:	e19430b3 	ldrh	r3, [r4, r3]
   12938:	e3530000 	cmp	r3, #0
   1293c:	1a0001c2 	bne	1304c <_tr_flush_block+0xa84>
   12940:	e59f3758 	ldr	r3, [pc, #1880]	; 130a0 <_tr_flush_block+0xad8>
   12944:	e19430b3 	ldrh	r3, [r4, r3]
   12948:	e3530000 	cmp	r3, #0
   1294c:	1a0001c0 	bne	13054 <_tr_flush_block+0xa8c>
   12950:	e59f374c 	ldr	r3, [pc, #1868]	; 130a4 <_tr_flush_block+0xadc>
   12954:	e19430b3 	ldrh	r3, [r4, r3]
   12958:	e3530000 	cmp	r3, #0
   1295c:	1a0001b8 	bne	13044 <_tr_flush_block+0xa7c>
   12960:	e3a0c009 	mov	ip, #9
   12964:	e3a0a003 	mov	sl, #3
   12968:	e3a00002 	mov	r0, #2
   1296c:	e59f1734 	ldr	r1, [pc, #1844]	; 130a8 <_tr_flush_block+0xae0>
   12970:	e59f2734 	ldr	r2, [pc, #1844]	; 130ac <_tr_flush_block+0xae4>
   12974:	e7943001 	ldr	r3, [r4, r1]
   12978:	e7942002 	ldr	r2, [r4, r2]
   1297c:	e283300e 	add	r3, r3, #14
   12980:	e083c00c 	add	ip, r3, ip
   12984:	e28c300a 	add	r3, ip, #10
   12988:	e282200a 	add	r2, r2, #10
   1298c:	e1a031a3 	lsr	r3, r3, #3
   12990:	e1a021a2 	lsr	r2, r2, #3
   12994:	e784c001 	str	ip, [r4, r1]
   12998:	e1530002 	cmp	r3, r2
   1299c:	21a03002 	movcs	r3, r2
   129a0:	e2861004 	add	r1, r6, #4
   129a4:	e1530001 	cmp	r3, r1
   129a8:	3a000046 	bcc	12ac8 <_tr_flush_block+0x500>
   129ac:	e59d1004 	ldr	r1, [sp, #4]
   129b0:	e3510000 	cmp	r1, #0
   129b4:	0a000043 	beq	12ac8 <_tr_flush_block+0x500>
   129b8:	e1a02006 	mov	r2, r6
   129bc:	e1a00004 	mov	r0, r4
   129c0:	e1a03005 	mov	r3, r5
   129c4:	ebfffe15 	bl	12220 <_tr_stored_block>
   129c8:	e59f36e0 	ldr	r3, [pc, #1760]	; 130b0 <_tr_flush_block+0xae8>
   129cc:	e1a02004 	mov	r2, r4
   129d0:	e3a01000 	mov	r1, #0
   129d4:	e2533001 	subs	r3, r3, #1
   129d8:	e1c219b4 	strh	r1, [r2, #148]	; 0x94
   129dc:	e2822004 	add	r2, r2, #4
   129e0:	1afffffb 	bne	129d4 <_tr_flush_block+0x40c>
   129e4:	e1a01003 	mov	r1, r3
   129e8:	e0842003 	add	r2, r4, r3
   129ec:	e2833004 	add	r3, r3, #4
   129f0:	e2822d26 	add	r2, r2, #2432	; 0x980
   129f4:	e3530078 	cmp	r3, #120	; 0x78
   129f8:	e1c210b8 	strh	r1, [r2, #8]
   129fc:	1afffff9 	bne	129e8 <_tr_flush_block+0x420>
   12a00:	e3a03000 	mov	r3, #0
   12a04:	e1a01003 	mov	r1, r3
   12a08:	e0842003 	add	r2, r4, r3
   12a0c:	e2833004 	add	r3, r3, #4
   12a10:	e2822ea7 	add	r2, r2, #2672	; 0xa70
   12a14:	e353004c 	cmp	r3, #76	; 0x4c
   12a18:	e1c210bc 	strh	r1, [r2, #12]
   12a1c:	e3a02000 	mov	r2, #0
   12a20:	1afffff8 	bne	12a08 <_tr_flush_block+0x440>
   12a24:	e59f6688 	ldr	r6, [pc, #1672]	; 130b4 <_tr_flush_block+0xaec>
   12a28:	e59fc67c 	ldr	ip, [pc, #1660]	; 130ac <_tr_flush_block+0xae4>
   12a2c:	e59f0674 	ldr	r0, [pc, #1652]	; 130a8 <_tr_flush_block+0xae0>
   12a30:	e59f1680 	ldr	r1, [pc, #1664]	; 130b8 <_tr_flush_block+0xaf0>
   12a34:	e59f3680 	ldr	r3, [pc, #1664]	; 130bc <_tr_flush_block+0xaf4>
   12a38:	e1550002 	cmp	r5, r2
   12a3c:	e3a05001 	mov	r5, #1
   12a40:	e18450b6 	strh	r5, [r4, r6]
   12a44:	e784200c 	str	r2, [r4, ip]
   12a48:	e7842000 	str	r2, [r4, r0]
   12a4c:	e7842001 	str	r2, [r4, r1]
   12a50:	e7842003 	str	r2, [r4, r3]
   12a54:	1a0000b9 	bne	12d40 <_tr_flush_block+0x778>
   12a58:	e28dd00c 	add	sp, sp, #12
   12a5c:	e8bd8ff0 	pop	{r4, r5, r6, r7, r8, r9, sl, fp, pc}
   12a60:	e351000a 	cmp	r1, #10
   12a64:	d19420b9 	ldrhle	r2, [r4, r9]
   12a68:	c19420bb 	ldrhgt	r2, [r4, fp]
   12a6c:	d2822001 	addle	r2, r2, #1
   12a70:	c2822001 	addgt	r2, r2, #1
   12a74:	d18420b9 	strhle	r2, [r4, r9]
   12a78:	c18420bb 	strhgt	r2, [r4, fp]
   12a7c:	eaffff00 	b	12684 <_tr_flush_block+0xbc>
   12a80:	e1a07000 	mov	r7, r0
   12a84:	e3a0e003 	mov	lr, #3
   12a88:	e3a02006 	mov	r2, #6
   12a8c:	e3a01000 	mov	r1, #0
   12a90:	eaffff03 	b	126a4 <_tr_flush_block+0xdc>
   12a94:	e351000a 	cmp	r1, #10
   12a98:	d19420b9 	ldrhle	r2, [r4, r9]
   12a9c:	c19420bb 	ldrhgt	r2, [r4, fp]
   12aa0:	d2822001 	addle	r2, r2, #1
   12aa4:	c2822001 	addgt	r2, r2, #1
   12aa8:	d18420b9 	strhle	r2, [r4, r9]
   12aac:	c18420bb 	strhgt	r2, [r4, fp]
   12ab0:	eaffff3c 	b	127a8 <_tr_flush_block+0x1e0>
   12ab4:	e1a07000 	mov	r7, r0
   12ab8:	e3a0e003 	mov	lr, #3
   12abc:	e3a02006 	mov	r2, #6
   12ac0:	e3a01000 	mov	r1, #0
   12ac4:	eaffff3f 	b	127c8 <_tr_flush_block+0x200>
   12ac8:	e5941088 	ldr	r1, [r4, #136]	; 0x88
   12acc:	e3510004 	cmp	r1, #4
   12ad0:	0a0000ad 	beq	12d8c <_tr_flush_block+0x7c4>
   12ad4:	e1520003 	cmp	r2, r3
   12ad8:	0a0000ab 	beq	12d8c <_tr_flush_block+0x7c4>
   12adc:	e59f35dc 	ldr	r3, [pc, #1500]	; 130c0 <_tr_flush_block+0xaf8>
   12ae0:	e59f25dc 	ldr	r2, [pc, #1500]	; 130c4 <_tr_flush_block+0xafc>
   12ae4:	e7941003 	ldr	r1, [r4, r3]
   12ae8:	e285e004 	add	lr, r5, #4
   12aec:	e351000d 	cmp	r1, #13
   12af0:	e194c0b2 	ldrh	ip, [r4, r2]
   12af4:	e6ffe07e 	uxth	lr, lr
   12af8:	ca0000db 	bgt	12e6c <_tr_flush_block+0x8a4>
   12afc:	e18cc11e 	orr	ip, ip, lr, lsl r1
   12b00:	e2811003 	add	r1, r1, #3
   12b04:	e6ffc07c 	uxth	ip, ip
   12b08:	e351000b 	cmp	r1, #11
   12b0c:	e184c0b2 	strh	ip, [r4, r2]
   12b10:	e7841003 	str	r1, [r4, r3]
   12b14:	e5942b1c 	ldr	r2, [r4, #2844]	; 0xb1c
   12b18:	e5947b28 	ldr	r7, [r4, #2856]	; 0xb28
   12b1c:	da0000ea 	ble	12ecc <_tr_flush_block+0x904>
   12b20:	e2426c01 	sub	r6, r2, #256	; 0x100
   12b24:	e6ff6076 	uxth	r6, r6
   12b28:	e18c1116 	orr	r1, ip, r6, lsl r1
   12b2c:	e5943014 	ldr	r3, [r4, #20]
   12b30:	e59fe58c 	ldr	lr, [pc, #1420]	; 130c4 <_tr_flush_block+0xafc>
   12b34:	e5948008 	ldr	r8, [r4, #8]
   12b38:	e6ff1071 	uxth	r1, r1
   12b3c:	e18410be 	strh	r1, [r4, lr]
   12b40:	e7c81003 	strb	r1, [r8, r3]
   12b44:	e19490be 	ldrh	r9, [r4, lr]
   12b48:	e5948008 	ldr	r8, [r4, #8]
   12b4c:	e2831001 	add	r1, r3, #1
   12b50:	e59fc568 	ldr	ip, [pc, #1384]	; 130c0 <_tr_flush_block+0xaf8>
   12b54:	e1a09429 	lsr	r9, r9, #8
   12b58:	e7c89001 	strb	r9, [r8, r1]
   12b5c:	e794100c 	ldr	r1, [r4, ip]
   12b60:	e2838002 	add	r8, r3, #2
   12b64:	e2613010 	rsb	r3, r1, #16
   12b68:	e1a03356 	asr	r3, r6, r3
   12b6c:	e241100b 	sub	r1, r1, #11
   12b70:	e6ff3073 	uxth	r3, r3
   12b74:	e351000b 	cmp	r1, #11
   12b78:	e5848014 	str	r8, [r4, #20]
   12b7c:	e18430be 	strh	r3, [r4, lr]
   12b80:	e784100c 	str	r1, [r4, ip]
   12b84:	da0000db 	ble	12ef8 <_tr_flush_block+0x930>
   12b88:	e6ff8077 	uxth	r8, r7
   12b8c:	e1833118 	orr	r3, r3, r8, lsl r1
   12b90:	e594e014 	ldr	lr, [r4, #20]
   12b94:	e59fc528 	ldr	ip, [pc, #1320]	; 130c4 <_tr_flush_block+0xafc>
   12b98:	e5946008 	ldr	r6, [r4, #8]
   12b9c:	e6ff3073 	uxth	r3, r3
   12ba0:	e18430bc 	strh	r3, [r4, ip]
   12ba4:	e7c6300e 	strb	r3, [r6, lr]
   12ba8:	e19490bc 	ldrh	r9, [r4, ip]
   12bac:	e5941008 	ldr	r1, [r4, #8]
   12bb0:	e28e3001 	add	r3, lr, #1
   12bb4:	e59f6504 	ldr	r6, [pc, #1284]	; 130c0 <_tr_flush_block+0xaf8>
   12bb8:	e1a09429 	lsr	r9, r9, #8
   12bbc:	e7c19003 	strb	r9, [r1, r3]
   12bc0:	e7941006 	ldr	r1, [r4, r6]
   12bc4:	e28ee002 	add	lr, lr, #2
   12bc8:	e2613010 	rsb	r3, r1, #16
   12bcc:	e1a03358 	asr	r3, r8, r3
   12bd0:	e241100b 	sub	r1, r1, #11
   12bd4:	e6ff3073 	uxth	r3, r3
   12bd8:	e351000c 	cmp	r1, #12
   12bdc:	e584e014 	str	lr, [r4, #20]
   12be0:	e18430bc 	strh	r3, [r4, ip]
   12be4:	e7841006 	str	r1, [r4, r6]
   12be8:	da0000cc 	ble	12f20 <_tr_flush_block+0x958>
   12bec:	e2400003 	sub	r0, r0, #3
   12bf0:	e6ffe070 	uxth	lr, r0
   12bf4:	e183311e 	orr	r3, r3, lr, lsl r1
   12bf8:	e594c014 	ldr	ip, [r4, #20]
   12bfc:	e59f04c0 	ldr	r0, [pc, #1216]	; 130c4 <_tr_flush_block+0xafc>
   12c00:	e5946008 	ldr	r6, [r4, #8]
   12c04:	e6ff3073 	uxth	r3, r3
   12c08:	e18430b0 	strh	r3, [r4, r0]
   12c0c:	e7c6300c 	strb	r3, [r6, ip]
   12c10:	e19480b0 	ldrh	r8, [r4, r0]
   12c14:	e5946008 	ldr	r6, [r4, #8]
   12c18:	e28c1001 	add	r1, ip, #1
   12c1c:	e59f349c 	ldr	r3, [pc, #1180]	; 130c0 <_tr_flush_block+0xaf8>
   12c20:	e1a08428 	lsr	r8, r8, #8
   12c24:	e7c68001 	strb	r8, [r6, r1]
   12c28:	e7941003 	ldr	r1, [r4, r3]
   12c2c:	e28cc002 	add	ip, ip, #2
   12c30:	e2616010 	rsb	r6, r1, #16
   12c34:	e1a0e65e 	asr	lr, lr, r6
   12c38:	e241100c 	sub	r1, r1, #12
   12c3c:	e6ffe07e 	uxth	lr, lr
   12c40:	e584c014 	str	ip, [r4, #20]
   12c44:	e184e0b0 	strh	lr, [r4, r0]
   12c48:	e7841003 	str	r1, [r4, r3]
   12c4c:	e3a03000 	mov	r3, #0
   12c50:	e59f9470 	ldr	r9, [pc, #1136]	; 130c8 <_tr_flush_block+0xb00>
   12c54:	e59f0468 	ldr	r0, [pc, #1128]	; 130c4 <_tr_flush_block+0xafc>
   12c58:	e59fc460 	ldr	ip, [pc, #1120]	; 130c0 <_tr_flush_block+0xaf8>
   12c5c:	ea00001b 	b	12cd0 <_tr_flush_block+0x708>
   12c60:	e7d98003 	ldrb	r8, [r9, r3]
   12c64:	e5946014 	ldr	r6, [r4, #20]
   12c68:	e2888fa7 	add	r8, r8, #668	; 0x29c
   12c6c:	e0848108 	add	r8, r4, r8, lsl #2
   12c70:	e1d880be 	ldrh	r8, [r8, #14]
   12c74:	e594b008 	ldr	fp, [r4, #8]
   12c78:	e18e1118 	orr	r1, lr, r8, lsl r1
   12c7c:	e6ff1071 	uxth	r1, r1
   12c80:	e18410b0 	strh	r1, [r4, r0]
   12c84:	e7cb1006 	strb	r1, [fp, r6]
   12c88:	e194b0b0 	ldrh	fp, [r4, r0]
   12c8c:	e594e008 	ldr	lr, [r4, #8]
   12c90:	e2861001 	add	r1, r6, #1
   12c94:	e1a0b42b 	lsr	fp, fp, #8
   12c98:	e7ceb001 	strb	fp, [lr, r1]
   12c9c:	e794100c 	ldr	r1, [r4, ip]
   12ca0:	e2833001 	add	r3, r3, #1
   12ca4:	e261e010 	rsb	lr, r1, #16
   12ca8:	e1a08e58 	asr	r8, r8, lr
   12cac:	e2866002 	add	r6, r6, #2
   12cb0:	e241100d 	sub	r1, r1, #13
   12cb4:	e153000a 	cmp	r3, sl
   12cb8:	e5846014 	str	r6, [r4, #20]
   12cbc:	e18480b0 	strh	r8, [r4, r0]
   12cc0:	e784100c 	str	r1, [r4, ip]
   12cc4:	aa00000e 	bge	12d04 <_tr_flush_block+0x73c>
   12cc8:	e794100c 	ldr	r1, [r4, ip]
   12ccc:	e194e0b0 	ldrh	lr, [r4, r0]
   12cd0:	e351000d 	cmp	r1, #13
   12cd4:	caffffe1 	bgt	12c60 <_tr_flush_block+0x698>
   12cd8:	e7d96003 	ldrb	r6, [r9, r3]
   12cdc:	e2818003 	add	r8, r1, #3
   12ce0:	e2866fa7 	add	r6, r6, #668	; 0x29c
   12ce4:	e0846106 	add	r6, r4, r6, lsl #2
   12ce8:	e1d660be 	ldrh	r6, [r6, #14]
   12cec:	e2833001 	add	r3, r3, #1
   12cf0:	e18e1116 	orr	r1, lr, r6, lsl r1
   12cf4:	e153000a 	cmp	r3, sl
   12cf8:	e784800c 	str	r8, [r4, ip]
   12cfc:	e18410b0 	strh	r1, [r4, r0]
   12d00:	bafffff0 	blt	12cc8 <_tr_flush_block+0x700>
   12d04:	e2848094 	add	r8, r4, #148	; 0x94
   12d08:	e2846d26 	add	r6, r4, #2432	; 0x980
   12d0c:	e1a01008 	mov	r1, r8
   12d10:	e1a00004 	mov	r0, r4
   12d14:	e2866008 	add	r6, r6, #8
   12d18:	ebfff784 	bl	10b30 <send_tree>
   12d1c:	e1a02007 	mov	r2, r7
   12d20:	e1a01006 	mov	r1, r6
   12d24:	e1a00004 	mov	r0, r4
   12d28:	ebfff780 	bl	10b30 <send_tree>
   12d2c:	e1a00004 	mov	r0, r4
   12d30:	e1a01008 	mov	r1, r8
   12d34:	e1a02006 	mov	r2, r6
   12d38:	ebfff8ec 	bl	110f0 <compress_block>
   12d3c:	eaffff21 	b	129c8 <_tr_flush_block+0x400>
   12d40:	e283301c 	add	r3, r3, #28
   12d44:	e7943003 	ldr	r3, [r4, r3]
   12d48:	e3530008 	cmp	r3, #8
   12d4c:	ca000091 	bgt	12f98 <_tr_flush_block+0x9d0>
   12d50:	e3530000 	cmp	r3, #0
   12d54:	da000006 	ble	12d74 <_tr_flush_block+0x7ac>
   12d58:	e59f2364 	ldr	r2, [pc, #868]	; 130c4 <_tr_flush_block+0xafc>
   12d5c:	e5943014 	ldr	r3, [r4, #20]
   12d60:	e19400b2 	ldrh	r0, [r4, r2]
   12d64:	e5941008 	ldr	r1, [r4, #8]
   12d68:	e2832001 	add	r2, r3, #1
   12d6c:	e7c10003 	strb	r0, [r1, r3]
   12d70:	e5842014 	str	r2, [r4, #20]
   12d74:	e59f1348 	ldr	r1, [pc, #840]	; 130c4 <_tr_flush_block+0xafc>
   12d78:	e59f2340 	ldr	r2, [pc, #832]	; 130c0 <_tr_flush_block+0xaf8>
   12d7c:	e3a03000 	mov	r3, #0
   12d80:	e18430b1 	strh	r3, [r4, r1]
   12d84:	e7843002 	str	r3, [r4, r2]
   12d88:	eaffff32 	b	12a58 <_tr_flush_block+0x490>
   12d8c:	e59f332c 	ldr	r3, [pc, #812]	; 130c0 <_tr_flush_block+0xaf8>
   12d90:	e59f132c 	ldr	r1, [pc, #812]	; 130c4 <_tr_flush_block+0xafc>
   12d94:	e7942003 	ldr	r2, [r4, r3]
   12d98:	e285c002 	add	ip, r5, #2
   12d9c:	e352000d 	cmp	r2, #13
   12da0:	e19400b1 	ldrh	r0, [r4, r1]
   12da4:	e6ffc07c 	uxth	ip, ip
   12da8:	ca000066 	bgt	12f48 <_tr_flush_block+0x980>
   12dac:	e180021c 	orr	r0, r0, ip, lsl r2
   12db0:	e2822003 	add	r2, r2, #3
   12db4:	e18400b1 	strh	r0, [r4, r1]
   12db8:	e7842003 	str	r2, [r4, r3]
   12dbc:	e59f1308 	ldr	r1, [pc, #776]	; 130cc <_tr_flush_block+0xb04>
   12dc0:	e1a00004 	mov	r0, r4
   12dc4:	e2812d12 	add	r2, r1, #1152	; 0x480
   12dc8:	ebfff8c8 	bl	110f0 <compress_block>
   12dcc:	eafffefd 	b	129c8 <_tr_flush_block+0x400>
   12dd0:	e2822005 	add	r2, r2, #5
   12dd4:	e1a03002 	mov	r3, r2
   12dd8:	e3a0a001 	mov	sl, #1
   12ddc:	e3a00000 	mov	r0, #0
   12de0:	eafffeee 	b	129a0 <_tr_flush_block+0x3d8>
   12de4:	e59f22e4 	ldr	r2, [pc, #740]	; 130d0 <_tr_flush_block+0xb08>
   12de8:	e1a01004 	mov	r1, r4
   12dec:	e3a03000 	mov	r3, #0
   12df0:	e3120001 	tst	r2, #1
   12df4:	e2833001 	add	r3, r3, #1
   12df8:	0a000002 	beq	12e08 <_tr_flush_block+0x840>
   12dfc:	e1d109b4 	ldrh	r0, [r1, #148]	; 0x94
   12e00:	e3500000 	cmp	r0, #0
   12e04:	1a000070 	bne	12fcc <_tr_flush_block+0xa04>
   12e08:	e3530020 	cmp	r3, #32
   12e0c:	e1a020a2 	lsr	r2, r2, #1
   12e10:	e2811004 	add	r1, r1, #4
   12e14:	1afffff5 	bne	12df0 <_tr_flush_block+0x828>
   12e18:	e1d43bb8 	ldrh	r3, [r4, #184]	; 0xb8
   12e1c:	e3530000 	cmp	r3, #0
   12e20:	1a00000e 	bne	12e60 <_tr_flush_block+0x898>
   12e24:	e1d43bbc 	ldrh	r3, [r4, #188]	; 0xbc
   12e28:	e3530000 	cmp	r3, #0
   12e2c:	1a00000b 	bne	12e60 <_tr_flush_block+0x898>
   12e30:	e1d43cb8 	ldrh	r3, [r4, #200]	; 0xc8
   12e34:	e3530000 	cmp	r3, #0
   12e38:	0a000002 	beq	12e48 <_tr_flush_block+0x880>
   12e3c:	ea000007 	b	12e60 <_tr_flush_block+0x898>
   12e40:	e3530d0e 	cmp	r3, #896	; 0x380
   12e44:	0a000006 	beq	12e64 <_tr_flush_block+0x89c>
   12e48:	e0842003 	add	r2, r4, r3
   12e4c:	e2822f45 	add	r2, r2, #276	; 0x114
   12e50:	e1d220b0 	ldrh	r2, [r2]
   12e54:	e2833004 	add	r3, r3, #4
   12e58:	e3520000 	cmp	r2, #0
   12e5c:	0afffff7 	beq	12e40 <_tr_flush_block+0x878>
   12e60:	e3a02001 	mov	r2, #1
   12e64:	e58c2028 	str	r2, [ip, #40]	; 0x28
   12e68:	eafffde3 	b	125fc <_tr_flush_block+0x34>
   12e6c:	e18c111e 	orr	r1, ip, lr, lsl r1
   12e70:	e5946008 	ldr	r6, [r4, #8]
   12e74:	e594c014 	ldr	ip, [r4, #20]
   12e78:	e6ff1071 	uxth	r1, r1
   12e7c:	e18410b2 	strh	r1, [r4, r2]
   12e80:	e7c6100c 	strb	r1, [r6, ip]
   12e84:	e19470b2 	ldrh	r7, [r4, r2]
   12e88:	e5946008 	ldr	r6, [r4, #8]
   12e8c:	e28c1001 	add	r1, ip, #1
   12e90:	e1a07427 	lsr	r7, r7, #8
   12e94:	e7c67001 	strb	r7, [r6, r1]
   12e98:	e7941003 	ldr	r1, [r4, r3]
   12e9c:	e28c6002 	add	r6, ip, #2
   12ea0:	e261c010 	rsb	ip, r1, #16
   12ea4:	e1a0cc5e 	asr	ip, lr, ip
   12ea8:	e241100d 	sub	r1, r1, #13
   12eac:	e6ffc07c 	uxth	ip, ip
   12eb0:	e351000b 	cmp	r1, #11
   12eb4:	e184c0b2 	strh	ip, [r4, r2]
   12eb8:	e5846014 	str	r6, [r4, #20]
   12ebc:	e7841003 	str	r1, [r4, r3]
   12ec0:	e5942b1c 	ldr	r2, [r4, #2844]	; 0xb1c
   12ec4:	e5947b28 	ldr	r7, [r4, #2856]	; 0xb28
   12ec8:	caffff14 	bgt	12b20 <_tr_flush_block+0x558>
   12ecc:	e2423c01 	sub	r3, r2, #256	; 0x100
   12ed0:	e6ff3073 	uxth	r3, r3
   12ed4:	e18c3113 	orr	r3, ip, r3, lsl r1
   12ed8:	e59f61e4 	ldr	r6, [pc, #484]	; 130c4 <_tr_flush_block+0xafc>
   12edc:	e2811005 	add	r1, r1, #5
   12ee0:	e59fe1d8 	ldr	lr, [pc, #472]	; 130c0 <_tr_flush_block+0xaf8>
   12ee4:	e6ff3073 	uxth	r3, r3
   12ee8:	e351000b 	cmp	r1, #11
   12eec:	e18430b6 	strh	r3, [r4, r6]
   12ef0:	e784100e 	str	r1, [r4, lr]
   12ef4:	caffff23 	bgt	12b88 <_tr_flush_block+0x5c0>
   12ef8:	e6ffc077 	uxth	ip, r7
   12efc:	e183311c 	orr	r3, r3, ip, lsl r1
   12f00:	e59fe1bc 	ldr	lr, [pc, #444]	; 130c4 <_tr_flush_block+0xafc>
   12f04:	e2811005 	add	r1, r1, #5
   12f08:	e59fc1b0 	ldr	ip, [pc, #432]	; 130c0 <_tr_flush_block+0xaf8>
   12f0c:	e6ff3073 	uxth	r3, r3
   12f10:	e351000c 	cmp	r1, #12
   12f14:	e18430be 	strh	r3, [r4, lr]
   12f18:	e784100c 	str	r1, [r4, ip]
   12f1c:	caffff32 	bgt	12bec <_tr_flush_block+0x624>
   12f20:	e24a0004 	sub	r0, sl, #4
   12f24:	e6ff0070 	uxth	r0, r0
   12f28:	e1833110 	orr	r3, r3, r0, lsl r1
   12f2c:	e59fc190 	ldr	ip, [pc, #400]	; 130c4 <_tr_flush_block+0xafc>
   12f30:	e59f0188 	ldr	r0, [pc, #392]	; 130c0 <_tr_flush_block+0xaf8>
   12f34:	e6ffe073 	uxth	lr, r3
   12f38:	e2811004 	add	r1, r1, #4
   12f3c:	e184e0bc 	strh	lr, [r4, ip]
   12f40:	e7841000 	str	r1, [r4, r0]
   12f44:	eaffff40 	b	12c4c <_tr_flush_block+0x684>
   12f48:	e180221c 	orr	r2, r0, ip, lsl r2
   12f4c:	e594e008 	ldr	lr, [r4, #8]
   12f50:	e5940014 	ldr	r0, [r4, #20]
   12f54:	e6ff2072 	uxth	r2, r2
   12f58:	e18420b1 	strh	r2, [r4, r1]
   12f5c:	e7ce2000 	strb	r2, [lr, r0]
   12f60:	e19460b1 	ldrh	r6, [r4, r1]
   12f64:	e594e008 	ldr	lr, [r4, #8]
   12f68:	e2802001 	add	r2, r0, #1
   12f6c:	e1a06426 	lsr	r6, r6, #8
   12f70:	e7ce6002 	strb	r6, [lr, r2]
   12f74:	e7942003 	ldr	r2, [r4, r3]
   12f78:	e2800002 	add	r0, r0, #2
   12f7c:	e262e010 	rsb	lr, r2, #16
   12f80:	e1a0ce5c 	asr	ip, ip, lr
   12f84:	e242200d 	sub	r2, r2, #13
   12f88:	e5840014 	str	r0, [r4, #20]
   12f8c:	e184c0b1 	strh	ip, [r4, r1]
   12f90:	e7842003 	str	r2, [r4, r3]
   12f94:	eaffff88 	b	12dbc <_tr_flush_block+0x7f4>
   12f98:	e59f2124 	ldr	r2, [pc, #292]	; 130c4 <_tr_flush_block+0xafc>
   12f9c:	e5943014 	ldr	r3, [r4, #20]
   12fa0:	e194c0b2 	ldrh	ip, [r4, r2]
   12fa4:	e5940008 	ldr	r0, [r4, #8]
   12fa8:	e0831005 	add	r1, r3, r5
   12fac:	e7c0c003 	strb	ip, [r0, r3]
   12fb0:	e19400b2 	ldrh	r0, [r4, r2]
   12fb4:	e5942008 	ldr	r2, [r4, #8]
   12fb8:	e1a00420 	lsr	r0, r0, #8
   12fbc:	e2833002 	add	r3, r3, #2
   12fc0:	e7c20001 	strb	r0, [r2, r1]
   12fc4:	e5843014 	str	r3, [r4, #20]
   12fc8:	eaffff69 	b	12d74 <_tr_flush_block+0x7ac>
   12fcc:	e3a02000 	mov	r2, #0
   12fd0:	eaffffa3 	b	12e64 <_tr_flush_block+0x89c>
   12fd4:	e3a0000a 	mov	r0, #10
   12fd8:	e280a001 	add	sl, r0, #1
   12fdc:	e08ac08a 	add	ip, sl, sl, lsl #1
   12fe0:	eafffe61 	b	1296c <_tr_flush_block+0x3a4>
   12fe4:	e3a0000d 	mov	r0, #13
   12fe8:	eafffffa 	b	12fd8 <_tr_flush_block+0xa10>
   12fec:	e3a00011 	mov	r0, #17
   12ff0:	eafffff8 	b	12fd8 <_tr_flush_block+0xa10>
   12ff4:	e3a00012 	mov	r0, #18
   12ff8:	eafffff6 	b	12fd8 <_tr_flush_block+0xa10>
   12ffc:	e3a0000e 	mov	r0, #14
   13000:	eafffff4 	b	12fd8 <_tr_flush_block+0xa10>
   13004:	e3a0000f 	mov	r0, #15
   13008:	eafffff2 	b	12fd8 <_tr_flush_block+0xa10>
   1300c:	e3a00010 	mov	r0, #16
   13010:	eafffff0 	b	12fd8 <_tr_flush_block+0xa10>
   13014:	e3a0000c 	mov	r0, #12
   13018:	eaffffee 	b	12fd8 <_tr_flush_block+0xa10>
   1301c:	e3a00009 	mov	r0, #9
   13020:	eaffffec 	b	12fd8 <_tr_flush_block+0xa10>
   13024:	e3a00008 	mov	r0, #8
   13028:	eaffffea 	b	12fd8 <_tr_flush_block+0xa10>
   1302c:	e3a00007 	mov	r0, #7
   13030:	eaffffe8 	b	12fd8 <_tr_flush_block+0xa10>
   13034:	e3a00006 	mov	r0, #6
   13038:	eaffffe6 	b	12fd8 <_tr_flush_block+0xa10>
   1303c:	e3a0000b 	mov	r0, #11
   13040:	eaffffe4 	b	12fd8 <_tr_flush_block+0xa10>
   13044:	e3a00003 	mov	r0, #3
   13048:	eaffffe2 	b	12fd8 <_tr_flush_block+0xa10>
   1304c:	e3a00005 	mov	r0, #5
   13050:	eaffffe0 	b	12fd8 <_tr_flush_block+0xa10>
   13054:	e3a00004 	mov	r0, #4
   13058:	eaffffde 	b	12fd8 <_tr_flush_block+0xa10>
   1305c:	00000ac4 	andeq	r0, r0, r4, asr #21
   13060:	00000abc 			; <UNDEFINED> instruction: 0x00000abc
   13064:	0000098a 	andeq	r0, r0, sl, lsl #19
   13068:	00000aba 			; <UNDEFINED> instruction: 0x00000aba
   1306c:	00000a82 	andeq	r0, r0, r2, lsl #21
   13070:	00000ab6 			; <UNDEFINED> instruction: 0x00000ab6
   13074:	00000a86 	andeq	r0, r0, r6, lsl #21
   13078:	00000ab2 			; <UNDEFINED> instruction: 0x00000ab2
   1307c:	00000a8a 	andeq	r0, r0, sl, lsl #21
   13080:	00000aae 	andeq	r0, r0, lr, lsr #21
   13084:	00000a8e 	andeq	r0, r0, lr, lsl #21
   13088:	00000aaa 	andeq	r0, r0, sl, lsr #21
   1308c:	00000a92 	muleq	r0, r2, sl
   13090:	00000aa6 	andeq	r0, r0, r6, lsr #21
   13094:	00000a96 	muleq	r0, r6, sl
   13098:	00000aa2 	andeq	r0, r0, r2, lsr #21
   1309c:	00000a9a 	muleq	r0, sl, sl
   130a0:	00000a9e 	muleq	r0, lr, sl
   130a4:	00000a7e 	andeq	r0, r0, lr, ror sl
   130a8:	000016a8 	andeq	r1, r0, r8, lsr #13
   130ac:	000016ac 	andeq	r1, r0, ip, lsr #13
   130b0:	0000011e 	andeq	r0, r0, lr, lsl r1
   130b4:	00000494 	muleq	r0, r4, r4
   130b8:	000016b0 			; <UNDEFINED> instruction: 0x000016b0
   130bc:	000016a0 	andeq	r1, r0, r0, lsr #13
   130c0:	000016bc 			; <UNDEFINED> instruction: 0x000016bc
   130c4:	000016b8 			; <UNDEFINED> instruction: 0x000016b8
   130c8:	00014a28 	andeq	r4, r1, r8, lsr #20
   130cc:	00014530 	andeq	r4, r1, r0, lsr r5
   130d0:	f3ffc07f 	vshr.u32	q14, <illegal reg q15.5>, #1

000130d4 <_tr_tally>:
   130d4:	e59fc0c8 	ldr	ip, [pc, #200]	; 131a4 <_tr_tally+0xd0>
   130d8:	e92d00f0 	push	{r4, r5, r6, r7}
   130dc:	e59f50c4 	ldr	r5, [pc, #196]	; 131a8 <_tr_tally+0xd4>
   130e0:	e59f40c4 	ldr	r4, [pc, #196]	; 131ac <_tr_tally+0xd8>
   130e4:	e790300c 	ldr	r3, [r0, ip]
   130e8:	e7906005 	ldr	r6, [r0, r5]
   130ec:	e7905004 	ldr	r5, [r0, r4]
   130f0:	e1a07083 	lsl	r7, r3, #1
   130f4:	e2834001 	add	r4, r3, #1
   130f8:	e3510000 	cmp	r1, #0
   130fc:	e18610b7 	strh	r1, [r6, r7]
   13100:	e7c52003 	strb	r2, [r5, r3]
   13104:	e780400c 	str	r4, [r0, ip]
   13108:	0a00001f 	beq	1318c <_tr_tally+0xb8>
   1310c:	e59f309c 	ldr	r3, [pc, #156]	; 131b0 <_tr_tally+0xdc>
   13110:	e59fc09c 	ldr	ip, [pc, #156]	; 131b4 <_tr_tally+0xe0>
   13114:	e7d32002 	ldrb	r2, [r3, r2]
   13118:	e790500c 	ldr	r5, [r0, ip]
   1311c:	e2411001 	sub	r1, r1, #1
   13120:	e35100ff 	cmp	r1, #255	; 0xff
   13124:	e2822c01 	add	r2, r2, #256	; 0x100
   13128:	90831001 	addls	r1, r3, r1
   1312c:	808313a1 	addhi	r1, r3, r1, lsr #7
   13130:	e2822025 	add	r2, r2, #37	; 0x25
   13134:	e2855001 	add	r5, r5, #1
   13138:	e780500c 	str	r5, [r0, ip]
   1313c:	e0802102 	add	r2, r0, r2, lsl #2
   13140:	95d131e8 	ldrbls	r3, [r1, #488]	; 0x1e8
   13144:	85d132e8 	ldrbhi	r3, [r1, #744]	; 0x2e8
   13148:	e1d2c0b4 	ldrh	ip, [r2, #4]
   1314c:	e2833e26 	add	r3, r3, #608	; 0x260
   13150:	e28cc001 	add	ip, ip, #1
   13154:	e2833002 	add	r3, r3, #2
   13158:	e1c2c0b4 	strh	ip, [r2, #4]
   1315c:	e1a03103 	lsl	r3, r3, #2
   13160:	e19020b3 	ldrh	r2, [r0, r3]
   13164:	e2822001 	add	r2, r2, #1
   13168:	e18020b3 	strh	r2, [r0, r3]
   1316c:	e59f3044 	ldr	r3, [pc, #68]	; 131b8 <_tr_tally+0xe4>
   13170:	e7900003 	ldr	r0, [r0, r3]
   13174:	e2400001 	sub	r0, r0, #1
   13178:	e0543000 	subs	r3, r4, r0
   1317c:	e2730000 	rsbs	r0, r3, #0
   13180:	e0b00003 	adcs	r0, r0, r3
   13184:	e8bd00f0 	pop	{r4, r5, r6, r7}
   13188:	e12fff1e 	bx	lr
   1318c:	e2822024 	add	r2, r2, #36	; 0x24
   13190:	e0802102 	add	r2, r0, r2, lsl #2
   13194:	e1d230b4 	ldrh	r3, [r2, #4]
   13198:	e2833001 	add	r3, r3, #1
   1319c:	e1c230b4 	strh	r3, [r2, #4]
   131a0:	eafffff1 	b	1316c <_tr_tally+0x98>
   131a4:	000016a0 	andeq	r1, r0, r0, lsr #13
   131a8:	000016a4 	andeq	r1, r0, r4, lsr #13
   131ac:	00001698 	muleq	r0, r8, r6
   131b0:	00014058 	andeq	r4, r1, r8, asr r0
   131b4:	000016b0 			; <UNDEFINED> instruction: 0x000016b0
   131b8:	0000169c 	muleq	r0, ip, r6

Disassembly of section .rodata.str1.4:

000131bc <.rodata.str1.4>:
   131bc:	2e322e31 	mrccs	14, 1, r2, cr2, cr1, {1}
   131c0:	00000037 	andeq	r0, r0, r7, lsr r0

Disassembly of section .rodata:

000131c4 <lenfix.4121>:
   131c4:	00000760 	andeq	r0, r0, r0, ror #14
   131c8:	00500800 	subseq	r0, r0, r0, lsl #16
   131cc:	00100800 	andseq	r0, r0, r0, lsl #16
   131d0:	00730814 	rsbseq	r0, r3, r4, lsl r8
   131d4:	001f0712 	andseq	r0, pc, r2, lsl r7	; <UNPREDICTABLE>
   131d8:	00700800 	rsbseq	r0, r0, r0, lsl #16
   131dc:	00300800 	eorseq	r0, r0, r0, lsl #16
   131e0:	00c00900 	sbceq	r0, r0, r0, lsl #18
   131e4:	000a0710 	andeq	r0, sl, r0, lsl r7
   131e8:	00600800 	rsbeq	r0, r0, r0, lsl #16
   131ec:	00200800 	eoreq	r0, r0, r0, lsl #16
   131f0:	00a00900 	adceq	r0, r0, r0, lsl #18
   131f4:	00000800 	andeq	r0, r0, r0, lsl #16
   131f8:	00800800 	addeq	r0, r0, r0, lsl #16
   131fc:	00400800 	subeq	r0, r0, r0, lsl #16
   13200:	00e00900 	rsceq	r0, r0, r0, lsl #18
   13204:	00060710 	andeq	r0, r6, r0, lsl r7
   13208:	00580800 	subseq	r0, r8, r0, lsl #16
   1320c:	00180800 	andseq	r0, r8, r0, lsl #16
   13210:	00900900 	addseq	r0, r0, r0, lsl #18
   13214:	003b0713 	eorseq	r0, fp, r3, lsl r7
   13218:	00780800 	rsbseq	r0, r8, r0, lsl #16
   1321c:	00380800 	eorseq	r0, r8, r0, lsl #16
   13220:	00d00900 	sbcseq	r0, r0, r0, lsl #18
   13224:	00110711 	andseq	r0, r1, r1, lsl r7
   13228:	00680800 	rsbeq	r0, r8, r0, lsl #16
   1322c:	00280800 	eoreq	r0, r8, r0, lsl #16
   13230:	00b00900 	adcseq	r0, r0, r0, lsl #18
   13234:	00080800 	andeq	r0, r8, r0, lsl #16
   13238:	00880800 	addeq	r0, r8, r0, lsl #16
   1323c:	00480800 	subeq	r0, r8, r0, lsl #16
   13240:	00f00900 	rscseq	r0, r0, r0, lsl #18
   13244:	00040710 	andeq	r0, r4, r0, lsl r7
   13248:	00540800 	subseq	r0, r4, r0, lsl #16
   1324c:	00140800 	andseq	r0, r4, r0, lsl #16
   13250:	00e30815 	rsceq	r0, r3, r5, lsl r8
   13254:	002b0713 	eoreq	r0, fp, r3, lsl r7
   13258:	00740800 	rsbseq	r0, r4, r0, lsl #16
   1325c:	00340800 	eorseq	r0, r4, r0, lsl #16
   13260:	00c80900 	sbceq	r0, r8, r0, lsl #18
   13264:	000d0711 	andeq	r0, sp, r1, lsl r7
   13268:	00640800 	rsbeq	r0, r4, r0, lsl #16
   1326c:	00240800 	eoreq	r0, r4, r0, lsl #16
   13270:	00a80900 	adceq	r0, r8, r0, lsl #18
   13274:	00040800 	andeq	r0, r4, r0, lsl #16
   13278:	00840800 	addeq	r0, r4, r0, lsl #16
   1327c:	00440800 	subeq	r0, r4, r0, lsl #16
   13280:	00e80900 	rsceq	r0, r8, r0, lsl #18
   13284:	00080710 	andeq	r0, r8, r0, lsl r7
   13288:	005c0800 	subseq	r0, ip, r0, lsl #16
   1328c:	001c0800 	andseq	r0, ip, r0, lsl #16
   13290:	00980900 	addseq	r0, r8, r0, lsl #18
   13294:	00530714 	subseq	r0, r3, r4, lsl r7
   13298:	007c0800 	rsbseq	r0, ip, r0, lsl #16
   1329c:	003c0800 	eorseq	r0, ip, r0, lsl #16
   132a0:	00d80900 	sbcseq	r0, r8, r0, lsl #18
   132a4:	00170712 	andseq	r0, r7, r2, lsl r7
   132a8:	006c0800 	rsbeq	r0, ip, r0, lsl #16
   132ac:	002c0800 	eoreq	r0, ip, r0, lsl #16
   132b0:	00b80900 	adcseq	r0, r8, r0, lsl #18
   132b4:	000c0800 	andeq	r0, ip, r0, lsl #16
   132b8:	008c0800 	addeq	r0, ip, r0, lsl #16
   132bc:	004c0800 	subeq	r0, ip, r0, lsl #16
   132c0:	00f80900 	rscseq	r0, r8, r0, lsl #18
   132c4:	00030710 	andeq	r0, r3, r0, lsl r7
   132c8:	00520800 	subseq	r0, r2, r0, lsl #16
   132cc:	00120800 	andseq	r0, r2, r0, lsl #16
   132d0:	00a30815 	adceq	r0, r3, r5, lsl r8
   132d4:	00230713 	eoreq	r0, r3, r3, lsl r7
   132d8:	00720800 	rsbseq	r0, r2, r0, lsl #16
   132dc:	00320800 	eorseq	r0, r2, r0, lsl #16
   132e0:	00c40900 	sbceq	r0, r4, r0, lsl #18
   132e4:	000b0711 	andeq	r0, fp, r1, lsl r7
   132e8:	00620800 	rsbeq	r0, r2, r0, lsl #16
   132ec:	00220800 	eoreq	r0, r2, r0, lsl #16
   132f0:	00a40900 	adceq	r0, r4, r0, lsl #18
   132f4:	00020800 	andeq	r0, r2, r0, lsl #16
   132f8:	00820800 	addeq	r0, r2, r0, lsl #16
   132fc:	00420800 	subeq	r0, r2, r0, lsl #16
   13300:	00e40900 	rsceq	r0, r4, r0, lsl #18
   13304:	00070710 	andeq	r0, r7, r0, lsl r7
   13308:	005a0800 	subseq	r0, sl, r0, lsl #16
   1330c:	001a0800 	andseq	r0, sl, r0, lsl #16
   13310:	00940900 	addseq	r0, r4, r0, lsl #18
   13314:	00430714 	subeq	r0, r3, r4, lsl r7
   13318:	007a0800 	rsbseq	r0, sl, r0, lsl #16
   1331c:	003a0800 	eorseq	r0, sl, r0, lsl #16
   13320:	00d40900 	sbcseq	r0, r4, r0, lsl #18
   13324:	00130712 	andseq	r0, r3, r2, lsl r7
   13328:	006a0800 	rsbeq	r0, sl, r0, lsl #16
   1332c:	002a0800 	eoreq	r0, sl, r0, lsl #16
   13330:	00b40900 	adcseq	r0, r4, r0, lsl #18
   13334:	000a0800 	andeq	r0, sl, r0, lsl #16
   13338:	008a0800 	addeq	r0, sl, r0, lsl #16
   1333c:	004a0800 	subeq	r0, sl, r0, lsl #16
   13340:	00f40900 	rscseq	r0, r4, r0, lsl #18
   13344:	00050710 	andeq	r0, r5, r0, lsl r7
   13348:	00560800 	subseq	r0, r6, r0, lsl #16
   1334c:	00160800 	andseq	r0, r6, r0, lsl #16
   13350:	00000840 	andeq	r0, r0, r0, asr #16
   13354:	00330713 	eorseq	r0, r3, r3, lsl r7
   13358:	00760800 	rsbseq	r0, r6, r0, lsl #16
   1335c:	00360800 	eorseq	r0, r6, r0, lsl #16
   13360:	00cc0900 	sbceq	r0, ip, r0, lsl #18
   13364:	000f0711 	andeq	r0, pc, r1, lsl r7	; <UNPREDICTABLE>
   13368:	00660800 	rsbeq	r0, r6, r0, lsl #16
   1336c:	00260800 	eoreq	r0, r6, r0, lsl #16
   13370:	00ac0900 	adceq	r0, ip, r0, lsl #18
   13374:	00060800 	andeq	r0, r6, r0, lsl #16
   13378:	00860800 	addeq	r0, r6, r0, lsl #16
   1337c:	00460800 	subeq	r0, r6, r0, lsl #16
   13380:	00ec0900 	rsceq	r0, ip, r0, lsl #18
   13384:	00090710 	andeq	r0, r9, r0, lsl r7
   13388:	005e0800 	subseq	r0, lr, r0, lsl #16
   1338c:	001e0800 	andseq	r0, lr, r0, lsl #16
   13390:	009c0900 	addseq	r0, ip, r0, lsl #18
   13394:	00630714 	rsbeq	r0, r3, r4, lsl r7
   13398:	007e0800 	rsbseq	r0, lr, r0, lsl #16
   1339c:	003e0800 	eorseq	r0, lr, r0, lsl #16
   133a0:	00dc0900 	sbcseq	r0, ip, r0, lsl #18
   133a4:	001b0712 	andseq	r0, fp, r2, lsl r7
   133a8:	006e0800 	rsbeq	r0, lr, r0, lsl #16
   133ac:	002e0800 	eoreq	r0, lr, r0, lsl #16
   133b0:	00bc0900 	adcseq	r0, ip, r0, lsl #18
   133b4:	000e0800 	andeq	r0, lr, r0, lsl #16
   133b8:	008e0800 	addeq	r0, lr, r0, lsl #16
   133bc:	004e0800 	subeq	r0, lr, r0, lsl #16
   133c0:	00fc0900 	rscseq	r0, ip, r0, lsl #18
   133c4:	00000760 	andeq	r0, r0, r0, ror #14
   133c8:	00510800 	subseq	r0, r1, r0, lsl #16
   133cc:	00110800 	andseq	r0, r1, r0, lsl #16
   133d0:	00830815 	addeq	r0, r3, r5, lsl r8
   133d4:	001f0712 	andseq	r0, pc, r2, lsl r7	; <UNPREDICTABLE>
   133d8:	00710800 	rsbseq	r0, r1, r0, lsl #16
   133dc:	00310800 	eorseq	r0, r1, r0, lsl #16
   133e0:	00c20900 	sbceq	r0, r2, r0, lsl #18
   133e4:	000a0710 	andeq	r0, sl, r0, lsl r7
   133e8:	00610800 	rsbeq	r0, r1, r0, lsl #16
   133ec:	00210800 	eoreq	r0, r1, r0, lsl #16
   133f0:	00a20900 	adceq	r0, r2, r0, lsl #18
   133f4:	00010800 	andeq	r0, r1, r0, lsl #16
   133f8:	00810800 	addeq	r0, r1, r0, lsl #16
   133fc:	00410800 	subeq	r0, r1, r0, lsl #16
   13400:	00e20900 	rsceq	r0, r2, r0, lsl #18
   13404:	00060710 	andeq	r0, r6, r0, lsl r7
   13408:	00590800 	subseq	r0, r9, r0, lsl #16
   1340c:	00190800 	andseq	r0, r9, r0, lsl #16
   13410:	00920900 	addseq	r0, r2, r0, lsl #18
   13414:	003b0713 	eorseq	r0, fp, r3, lsl r7
   13418:	00790800 	rsbseq	r0, r9, r0, lsl #16
   1341c:	00390800 	eorseq	r0, r9, r0, lsl #16
   13420:	00d20900 	sbcseq	r0, r2, r0, lsl #18
   13424:	00110711 	andseq	r0, r1, r1, lsl r7
   13428:	00690800 	rsbeq	r0, r9, r0, lsl #16
   1342c:	00290800 	eoreq	r0, r9, r0, lsl #16
   13430:	00b20900 	adcseq	r0, r2, r0, lsl #18
   13434:	00090800 	andeq	r0, r9, r0, lsl #16
   13438:	00890800 	addeq	r0, r9, r0, lsl #16
   1343c:	00490800 	subeq	r0, r9, r0, lsl #16
   13440:	00f20900 	rscseq	r0, r2, r0, lsl #18
   13444:	00040710 	andeq	r0, r4, r0, lsl r7
   13448:	00550800 	subseq	r0, r5, r0, lsl #16
   1344c:	00150800 	andseq	r0, r5, r0, lsl #16
   13450:	01020810 	tsteq	r2, r0, lsl r8
   13454:	002b0713 	eoreq	r0, fp, r3, lsl r7
   13458:	00750800 	rsbseq	r0, r5, r0, lsl #16
   1345c:	00350800 	eorseq	r0, r5, r0, lsl #16
   13460:	00ca0900 	sbceq	r0, sl, r0, lsl #18
   13464:	000d0711 	andeq	r0, sp, r1, lsl r7
   13468:	00650800 	rsbeq	r0, r5, r0, lsl #16
   1346c:	00250800 	eoreq	r0, r5, r0, lsl #16
   13470:	00aa0900 	adceq	r0, sl, r0, lsl #18
   13474:	00050800 	andeq	r0, r5, r0, lsl #16
   13478:	00850800 	addeq	r0, r5, r0, lsl #16
   1347c:	00450800 	subeq	r0, r5, r0, lsl #16
   13480:	00ea0900 	rsceq	r0, sl, r0, lsl #18
   13484:	00080710 	andeq	r0, r8, r0, lsl r7
   13488:	005d0800 	subseq	r0, sp, r0, lsl #16
   1348c:	001d0800 	andseq	r0, sp, r0, lsl #16
   13490:	009a0900 	addseq	r0, sl, r0, lsl #18
   13494:	00530714 	subseq	r0, r3, r4, lsl r7
   13498:	007d0800 	rsbseq	r0, sp, r0, lsl #16
   1349c:	003d0800 	eorseq	r0, sp, r0, lsl #16
   134a0:	00da0900 	sbcseq	r0, sl, r0, lsl #18
   134a4:	00170712 	andseq	r0, r7, r2, lsl r7
   134a8:	006d0800 	rsbeq	r0, sp, r0, lsl #16
   134ac:	002d0800 	eoreq	r0, sp, r0, lsl #16
   134b0:	00ba0900 	adcseq	r0, sl, r0, lsl #18
   134b4:	000d0800 	andeq	r0, sp, r0, lsl #16
   134b8:	008d0800 	addeq	r0, sp, r0, lsl #16
   134bc:	004d0800 	subeq	r0, sp, r0, lsl #16
   134c0:	00fa0900 	rscseq	r0, sl, r0, lsl #18
   134c4:	00030710 	andeq	r0, r3, r0, lsl r7
   134c8:	00530800 	subseq	r0, r3, r0, lsl #16
   134cc:	00130800 	andseq	r0, r3, r0, lsl #16
   134d0:	00c30815 	sbceq	r0, r3, r5, lsl r8
   134d4:	00230713 	eoreq	r0, r3, r3, lsl r7
   134d8:	00730800 	rsbseq	r0, r3, r0, lsl #16
   134dc:	00330800 	eorseq	r0, r3, r0, lsl #16
   134e0:	00c60900 	sbceq	r0, r6, r0, lsl #18
   134e4:	000b0711 	andeq	r0, fp, r1, lsl r7
   134e8:	00630800 	rsbeq	r0, r3, r0, lsl #16
   134ec:	00230800 	eoreq	r0, r3, r0, lsl #16
   134f0:	00a60900 	adceq	r0, r6, r0, lsl #18
   134f4:	00030800 	andeq	r0, r3, r0, lsl #16
   134f8:	00830800 	addeq	r0, r3, r0, lsl #16
   134fc:	00430800 	subeq	r0, r3, r0, lsl #16
   13500:	00e60900 	rsceq	r0, r6, r0, lsl #18
   13504:	00070710 	andeq	r0, r7, r0, lsl r7
   13508:	005b0800 	subseq	r0, fp, r0, lsl #16
   1350c:	001b0800 	andseq	r0, fp, r0, lsl #16
   13510:	00960900 	addseq	r0, r6, r0, lsl #18
   13514:	00430714 	subeq	r0, r3, r4, lsl r7
   13518:	007b0800 	rsbseq	r0, fp, r0, lsl #16
   1351c:	003b0800 	eorseq	r0, fp, r0, lsl #16
   13520:	00d60900 	sbcseq	r0, r6, r0, lsl #18
   13524:	00130712 	andseq	r0, r3, r2, lsl r7
   13528:	006b0800 	rsbeq	r0, fp, r0, lsl #16
   1352c:	002b0800 	eoreq	r0, fp, r0, lsl #16
   13530:	00b60900 	adcseq	r0, r6, r0, lsl #18
   13534:	000b0800 	andeq	r0, fp, r0, lsl #16
   13538:	008b0800 	addeq	r0, fp, r0, lsl #16
   1353c:	004b0800 	subeq	r0, fp, r0, lsl #16
   13540:	00f60900 	rscseq	r0, r6, r0, lsl #18
   13544:	00050710 	andeq	r0, r5, r0, lsl r7
   13548:	00570800 	subseq	r0, r7, r0, lsl #16
   1354c:	00170800 	andseq	r0, r7, r0, lsl #16
   13550:	00000840 	andeq	r0, r0, r0, asr #16
   13554:	00330713 	eorseq	r0, r3, r3, lsl r7
   13558:	00770800 	rsbseq	r0, r7, r0, lsl #16
   1355c:	00370800 	eorseq	r0, r7, r0, lsl #16
   13560:	00ce0900 	sbceq	r0, lr, r0, lsl #18
   13564:	000f0711 	andeq	r0, pc, r1, lsl r7	; <UNPREDICTABLE>
   13568:	00670800 	rsbeq	r0, r7, r0, lsl #16
   1356c:	00270800 	eoreq	r0, r7, r0, lsl #16
   13570:	00ae0900 	adceq	r0, lr, r0, lsl #18
   13574:	00070800 	andeq	r0, r7, r0, lsl #16
   13578:	00870800 	addeq	r0, r7, r0, lsl #16
   1357c:	00470800 	subeq	r0, r7, r0, lsl #16
   13580:	00ee0900 	rsceq	r0, lr, r0, lsl #18
   13584:	00090710 	andeq	r0, r9, r0, lsl r7
   13588:	005f0800 	subseq	r0, pc, r0, lsl #16
   1358c:	001f0800 	andseq	r0, pc, r0, lsl #16
   13590:	009e0900 	addseq	r0, lr, r0, lsl #18
   13594:	00630714 	rsbeq	r0, r3, r4, lsl r7
   13598:	007f0800 	rsbseq	r0, pc, r0, lsl #16
   1359c:	003f0800 	eorseq	r0, pc, r0, lsl #16
   135a0:	00de0900 	sbcseq	r0, lr, r0, lsl #18
   135a4:	001b0712 	andseq	r0, fp, r2, lsl r7
   135a8:	006f0800 	rsbeq	r0, pc, r0, lsl #16
   135ac:	002f0800 	eoreq	r0, pc, r0, lsl #16
   135b0:	00be0900 	adcseq	r0, lr, r0, lsl #18
   135b4:	000f0800 	andeq	r0, pc, r0, lsl #16
   135b8:	008f0800 	addeq	r0, pc, r0, lsl #16
   135bc:	004f0800 	subeq	r0, pc, r0, lsl #16
   135c0:	00fe0900 	rscseq	r0, lr, r0, lsl #18
   135c4:	00000760 	andeq	r0, r0, r0, ror #14
   135c8:	00500800 	subseq	r0, r0, r0, lsl #16
   135cc:	00100800 	andseq	r0, r0, r0, lsl #16
   135d0:	00730814 	rsbseq	r0, r3, r4, lsl r8
   135d4:	001f0712 	andseq	r0, pc, r2, lsl r7	; <UNPREDICTABLE>
   135d8:	00700800 	rsbseq	r0, r0, r0, lsl #16
   135dc:	00300800 	eorseq	r0, r0, r0, lsl #16
   135e0:	00c10900 	sbceq	r0, r1, r0, lsl #18
   135e4:	000a0710 	andeq	r0, sl, r0, lsl r7
   135e8:	00600800 	rsbeq	r0, r0, r0, lsl #16
   135ec:	00200800 	eoreq	r0, r0, r0, lsl #16
   135f0:	00a10900 	adceq	r0, r1, r0, lsl #18
   135f4:	00000800 	andeq	r0, r0, r0, lsl #16
   135f8:	00800800 	addeq	r0, r0, r0, lsl #16
   135fc:	00400800 	subeq	r0, r0, r0, lsl #16
   13600:	00e10900 	rsceq	r0, r1, r0, lsl #18
   13604:	00060710 	andeq	r0, r6, r0, lsl r7
   13608:	00580800 	subseq	r0, r8, r0, lsl #16
   1360c:	00180800 	andseq	r0, r8, r0, lsl #16
   13610:	00910900 	addseq	r0, r1, r0, lsl #18
   13614:	003b0713 	eorseq	r0, fp, r3, lsl r7
   13618:	00780800 	rsbseq	r0, r8, r0, lsl #16
   1361c:	00380800 	eorseq	r0, r8, r0, lsl #16
   13620:	00d10900 	sbcseq	r0, r1, r0, lsl #18
   13624:	00110711 	andseq	r0, r1, r1, lsl r7
   13628:	00680800 	rsbeq	r0, r8, r0, lsl #16
   1362c:	00280800 	eoreq	r0, r8, r0, lsl #16
   13630:	00b10900 	adcseq	r0, r1, r0, lsl #18
   13634:	00080800 	andeq	r0, r8, r0, lsl #16
   13638:	00880800 	addeq	r0, r8, r0, lsl #16
   1363c:	00480800 	subeq	r0, r8, r0, lsl #16
   13640:	00f10900 	rscseq	r0, r1, r0, lsl #18
   13644:	00040710 	andeq	r0, r4, r0, lsl r7
   13648:	00540800 	subseq	r0, r4, r0, lsl #16
   1364c:	00140800 	andseq	r0, r4, r0, lsl #16
   13650:	00e30815 	rsceq	r0, r3, r5, lsl r8
   13654:	002b0713 	eoreq	r0, fp, r3, lsl r7
   13658:	00740800 	rsbseq	r0, r4, r0, lsl #16
   1365c:	00340800 	eorseq	r0, r4, r0, lsl #16
   13660:	00c90900 	sbceq	r0, r9, r0, lsl #18
   13664:	000d0711 	andeq	r0, sp, r1, lsl r7
   13668:	00640800 	rsbeq	r0, r4, r0, lsl #16
   1366c:	00240800 	eoreq	r0, r4, r0, lsl #16
   13670:	00a90900 	adceq	r0, r9, r0, lsl #18
   13674:	00040800 	andeq	r0, r4, r0, lsl #16
   13678:	00840800 	addeq	r0, r4, r0, lsl #16
   1367c:	00440800 	subeq	r0, r4, r0, lsl #16
   13680:	00e90900 	rsceq	r0, r9, r0, lsl #18
   13684:	00080710 	andeq	r0, r8, r0, lsl r7
   13688:	005c0800 	subseq	r0, ip, r0, lsl #16
   1368c:	001c0800 	andseq	r0, ip, r0, lsl #16
   13690:	00990900 	addseq	r0, r9, r0, lsl #18
   13694:	00530714 	subseq	r0, r3, r4, lsl r7
   13698:	007c0800 	rsbseq	r0, ip, r0, lsl #16
   1369c:	003c0800 	eorseq	r0, ip, r0, lsl #16
   136a0:	00d90900 	sbcseq	r0, r9, r0, lsl #18
   136a4:	00170712 	andseq	r0, r7, r2, lsl r7
   136a8:	006c0800 	rsbeq	r0, ip, r0, lsl #16
   136ac:	002c0800 	eoreq	r0, ip, r0, lsl #16
   136b0:	00b90900 	adcseq	r0, r9, r0, lsl #18
   136b4:	000c0800 	andeq	r0, ip, r0, lsl #16
   136b8:	008c0800 	addeq	r0, ip, r0, lsl #16
   136bc:	004c0800 	subeq	r0, ip, r0, lsl #16
   136c0:	00f90900 	rscseq	r0, r9, r0, lsl #18
   136c4:	00030710 	andeq	r0, r3, r0, lsl r7
   136c8:	00520800 	subseq	r0, r2, r0, lsl #16
   136cc:	00120800 	andseq	r0, r2, r0, lsl #16
   136d0:	00a30815 	adceq	r0, r3, r5, lsl r8
   136d4:	00230713 	eoreq	r0, r3, r3, lsl r7
   136d8:	00720800 	rsbseq	r0, r2, r0, lsl #16
   136dc:	00320800 	eorseq	r0, r2, r0, lsl #16
   136e0:	00c50900 	sbceq	r0, r5, r0, lsl #18
   136e4:	000b0711 	andeq	r0, fp, r1, lsl r7
   136e8:	00620800 	rsbeq	r0, r2, r0, lsl #16
   136ec:	00220800 	eoreq	r0, r2, r0, lsl #16
   136f0:	00a50900 	adceq	r0, r5, r0, lsl #18
   136f4:	00020800 	andeq	r0, r2, r0, lsl #16
   136f8:	00820800 	addeq	r0, r2, r0, lsl #16
   136fc:	00420800 	subeq	r0, r2, r0, lsl #16
   13700:	00e50900 	rsceq	r0, r5, r0, lsl #18
   13704:	00070710 	andeq	r0, r7, r0, lsl r7
   13708:	005a0800 	subseq	r0, sl, r0, lsl #16
   1370c:	001a0800 	andseq	r0, sl, r0, lsl #16
   13710:	00950900 	addseq	r0, r5, r0, lsl #18
   13714:	00430714 	subeq	r0, r3, r4, lsl r7
   13718:	007a0800 	rsbseq	r0, sl, r0, lsl #16
   1371c:	003a0800 	eorseq	r0, sl, r0, lsl #16
   13720:	00d50900 	sbcseq	r0, r5, r0, lsl #18
   13724:	00130712 	andseq	r0, r3, r2, lsl r7
   13728:	006a0800 	rsbeq	r0, sl, r0, lsl #16
   1372c:	002a0800 	eoreq	r0, sl, r0, lsl #16
   13730:	00b50900 	adcseq	r0, r5, r0, lsl #18
   13734:	000a0800 	andeq	r0, sl, r0, lsl #16
   13738:	008a0800 	addeq	r0, sl, r0, lsl #16
   1373c:	004a0800 	subeq	r0, sl, r0, lsl #16
   13740:	00f50900 	rscseq	r0, r5, r0, lsl #18
   13744:	00050710 	andeq	r0, r5, r0, lsl r7
   13748:	00560800 	subseq	r0, r6, r0, lsl #16
   1374c:	00160800 	andseq	r0, r6, r0, lsl #16
   13750:	00000840 	andeq	r0, r0, r0, asr #16
   13754:	00330713 	eorseq	r0, r3, r3, lsl r7
   13758:	00760800 	rsbseq	r0, r6, r0, lsl #16
   1375c:	00360800 	eorseq	r0, r6, r0, lsl #16
   13760:	00cd0900 	sbceq	r0, sp, r0, lsl #18
   13764:	000f0711 	andeq	r0, pc, r1, lsl r7	; <UNPREDICTABLE>
   13768:	00660800 	rsbeq	r0, r6, r0, lsl #16
   1376c:	00260800 	eoreq	r0, r6, r0, lsl #16
   13770:	00ad0900 	adceq	r0, sp, r0, lsl #18
   13774:	00060800 	andeq	r0, r6, r0, lsl #16
   13778:	00860800 	addeq	r0, r6, r0, lsl #16
   1377c:	00460800 	subeq	r0, r6, r0, lsl #16
   13780:	00ed0900 	rsceq	r0, sp, r0, lsl #18
   13784:	00090710 	andeq	r0, r9, r0, lsl r7
   13788:	005e0800 	subseq	r0, lr, r0, lsl #16
   1378c:	001e0800 	andseq	r0, lr, r0, lsl #16
   13790:	009d0900 	addseq	r0, sp, r0, lsl #18
   13794:	00630714 	rsbeq	r0, r3, r4, lsl r7
   13798:	007e0800 	rsbseq	r0, lr, r0, lsl #16
   1379c:	003e0800 	eorseq	r0, lr, r0, lsl #16
   137a0:	00dd0900 	sbcseq	r0, sp, r0, lsl #18
   137a4:	001b0712 	andseq	r0, fp, r2, lsl r7
   137a8:	006e0800 	rsbeq	r0, lr, r0, lsl #16
   137ac:	002e0800 	eoreq	r0, lr, r0, lsl #16
   137b0:	00bd0900 	adcseq	r0, sp, r0, lsl #18
   137b4:	000e0800 	andeq	r0, lr, r0, lsl #16
   137b8:	008e0800 	addeq	r0, lr, r0, lsl #16
   137bc:	004e0800 	subeq	r0, lr, r0, lsl #16
   137c0:	00fd0900 	rscseq	r0, sp, r0, lsl #18
   137c4:	00000760 	andeq	r0, r0, r0, ror #14
   137c8:	00510800 	subseq	r0, r1, r0, lsl #16
   137cc:	00110800 	andseq	r0, r1, r0, lsl #16
   137d0:	00830815 	addeq	r0, r3, r5, lsl r8
   137d4:	001f0712 	andseq	r0, pc, r2, lsl r7	; <UNPREDICTABLE>
   137d8:	00710800 	rsbseq	r0, r1, r0, lsl #16
   137dc:	00310800 	eorseq	r0, r1, r0, lsl #16
   137e0:	00c30900 	sbceq	r0, r3, r0, lsl #18
   137e4:	000a0710 	andeq	r0, sl, r0, lsl r7
   137e8:	00610800 	rsbeq	r0, r1, r0, lsl #16
   137ec:	00210800 	eoreq	r0, r1, r0, lsl #16
   137f0:	00a30900 	adceq	r0, r3, r0, lsl #18
   137f4:	00010800 	andeq	r0, r1, r0, lsl #16
   137f8:	00810800 	addeq	r0, r1, r0, lsl #16
   137fc:	00410800 	subeq	r0, r1, r0, lsl #16
   13800:	00e30900 	rsceq	r0, r3, r0, lsl #18
   13804:	00060710 	andeq	r0, r6, r0, lsl r7
   13808:	00590800 	subseq	r0, r9, r0, lsl #16
   1380c:	00190800 	andseq	r0, r9, r0, lsl #16
   13810:	00930900 	addseq	r0, r3, r0, lsl #18
   13814:	003b0713 	eorseq	r0, fp, r3, lsl r7
   13818:	00790800 	rsbseq	r0, r9, r0, lsl #16
   1381c:	00390800 	eorseq	r0, r9, r0, lsl #16
   13820:	00d30900 	sbcseq	r0, r3, r0, lsl #18
   13824:	00110711 	andseq	r0, r1, r1, lsl r7
   13828:	00690800 	rsbeq	r0, r9, r0, lsl #16
   1382c:	00290800 	eoreq	r0, r9, r0, lsl #16
   13830:	00b30900 	adcseq	r0, r3, r0, lsl #18
   13834:	00090800 	andeq	r0, r9, r0, lsl #16
   13838:	00890800 	addeq	r0, r9, r0, lsl #16
   1383c:	00490800 	subeq	r0, r9, r0, lsl #16
   13840:	00f30900 	rscseq	r0, r3, r0, lsl #18
   13844:	00040710 	andeq	r0, r4, r0, lsl r7
   13848:	00550800 	subseq	r0, r5, r0, lsl #16
   1384c:	00150800 	andseq	r0, r5, r0, lsl #16
   13850:	01020810 	tsteq	r2, r0, lsl r8
   13854:	002b0713 	eoreq	r0, fp, r3, lsl r7
   13858:	00750800 	rsbseq	r0, r5, r0, lsl #16
   1385c:	00350800 	eorseq	r0, r5, r0, lsl #16
   13860:	00cb0900 	sbceq	r0, fp, r0, lsl #18
   13864:	000d0711 	andeq	r0, sp, r1, lsl r7
   13868:	00650800 	rsbeq	r0, r5, r0, lsl #16
   1386c:	00250800 	eoreq	r0, r5, r0, lsl #16
   13870:	00ab0900 	adceq	r0, fp, r0, lsl #18
   13874:	00050800 	andeq	r0, r5, r0, lsl #16
   13878:	00850800 	addeq	r0, r5, r0, lsl #16
   1387c:	00450800 	subeq	r0, r5, r0, lsl #16
   13880:	00eb0900 	rsceq	r0, fp, r0, lsl #18
   13884:	00080710 	andeq	r0, r8, r0, lsl r7
   13888:	005d0800 	subseq	r0, sp, r0, lsl #16
   1388c:	001d0800 	andseq	r0, sp, r0, lsl #16
   13890:	009b0900 	addseq	r0, fp, r0, lsl #18
   13894:	00530714 	subseq	r0, r3, r4, lsl r7
   13898:	007d0800 	rsbseq	r0, sp, r0, lsl #16
   1389c:	003d0800 	eorseq	r0, sp, r0, lsl #16
   138a0:	00db0900 	sbcseq	r0, fp, r0, lsl #18
   138a4:	00170712 	andseq	r0, r7, r2, lsl r7
   138a8:	006d0800 	rsbeq	r0, sp, r0, lsl #16
   138ac:	002d0800 	eoreq	r0, sp, r0, lsl #16
   138b0:	00bb0900 	adcseq	r0, fp, r0, lsl #18
   138b4:	000d0800 	andeq	r0, sp, r0, lsl #16
   138b8:	008d0800 	addeq	r0, sp, r0, lsl #16
   138bc:	004d0800 	subeq	r0, sp, r0, lsl #16
   138c0:	00fb0900 	rscseq	r0, fp, r0, lsl #18
   138c4:	00030710 	andeq	r0, r3, r0, lsl r7
   138c8:	00530800 	subseq	r0, r3, r0, lsl #16
   138cc:	00130800 	andseq	r0, r3, r0, lsl #16
   138d0:	00c30815 	sbceq	r0, r3, r5, lsl r8
   138d4:	00230713 	eoreq	r0, r3, r3, lsl r7
   138d8:	00730800 	rsbseq	r0, r3, r0, lsl #16
   138dc:	00330800 	eorseq	r0, r3, r0, lsl #16
   138e0:	00c70900 	sbceq	r0, r7, r0, lsl #18
   138e4:	000b0711 	andeq	r0, fp, r1, lsl r7
   138e8:	00630800 	rsbeq	r0, r3, r0, lsl #16
   138ec:	00230800 	eoreq	r0, r3, r0, lsl #16
   138f0:	00a70900 	adceq	r0, r7, r0, lsl #18
   138f4:	00030800 	andeq	r0, r3, r0, lsl #16
   138f8:	00830800 	addeq	r0, r3, r0, lsl #16
   138fc:	00430800 	subeq	r0, r3, r0, lsl #16
   13900:	00e70900 	rsceq	r0, r7, r0, lsl #18
   13904:	00070710 	andeq	r0, r7, r0, lsl r7
   13908:	005b0800 	subseq	r0, fp, r0, lsl #16
   1390c:	001b0800 	andseq	r0, fp, r0, lsl #16
   13910:	00970900 	addseq	r0, r7, r0, lsl #18
   13914:	00430714 	subeq	r0, r3, r4, lsl r7
   13918:	007b0800 	rsbseq	r0, fp, r0, lsl #16
   1391c:	003b0800 	eorseq	r0, fp, r0, lsl #16
   13920:	00d70900 	sbcseq	r0, r7, r0, lsl #18
   13924:	00130712 	andseq	r0, r3, r2, lsl r7
   13928:	006b0800 	rsbeq	r0, fp, r0, lsl #16
   1392c:	002b0800 	eoreq	r0, fp, r0, lsl #16
   13930:	00b70900 	adcseq	r0, r7, r0, lsl #18
   13934:	000b0800 	andeq	r0, fp, r0, lsl #16
   13938:	008b0800 	addeq	r0, fp, r0, lsl #16
   1393c:	004b0800 	subeq	r0, fp, r0, lsl #16
   13940:	00f70900 	rscseq	r0, r7, r0, lsl #18
   13944:	00050710 	andeq	r0, r5, r0, lsl r7
   13948:	00570800 	subseq	r0, r7, r0, lsl #16
   1394c:	00170800 	andseq	r0, r7, r0, lsl #16
   13950:	00000840 	andeq	r0, r0, r0, asr #16
   13954:	00330713 	eorseq	r0, r3, r3, lsl r7
   13958:	00770800 	rsbseq	r0, r7, r0, lsl #16
   1395c:	00370800 	eorseq	r0, r7, r0, lsl #16
   13960:	00cf0900 	sbceq	r0, pc, r0, lsl #18
   13964:	000f0711 	andeq	r0, pc, r1, lsl r7	; <UNPREDICTABLE>
   13968:	00670800 	rsbeq	r0, r7, r0, lsl #16
   1396c:	00270800 	eoreq	r0, r7, r0, lsl #16
   13970:	00af0900 	adceq	r0, pc, r0, lsl #18
   13974:	00070800 	andeq	r0, r7, r0, lsl #16
   13978:	00870800 	addeq	r0, r7, r0, lsl #16
   1397c:	00470800 	subeq	r0, r7, r0, lsl #16
   13980:	00ef0900 	rsceq	r0, pc, r0, lsl #18
   13984:	00090710 	andeq	r0, r9, r0, lsl r7
   13988:	005f0800 	subseq	r0, pc, r0, lsl #16
   1398c:	001f0800 	andseq	r0, pc, r0, lsl #16
   13990:	009f0900 	addseq	r0, pc, r0, lsl #18
   13994:	00630714 	rsbeq	r0, r3, r4, lsl r7
   13998:	007f0800 	rsbseq	r0, pc, r0, lsl #16
   1399c:	003f0800 	eorseq	r0, pc, r0, lsl #16
   139a0:	00df0900 	sbcseq	r0, pc, r0, lsl #18
   139a4:	001b0712 	andseq	r0, fp, r2, lsl r7
   139a8:	006f0800 	rsbeq	r0, pc, r0, lsl #16
   139ac:	002f0800 	eoreq	r0, pc, r0, lsl #16
   139b0:	00bf0900 	adcseq	r0, pc, r0, lsl #18
   139b4:	000f0800 	andeq	r0, pc, r0, lsl #16
   139b8:	008f0800 	addeq	r0, pc, r0, lsl #16
   139bc:	004f0800 	subeq	r0, pc, r0, lsl #16
   139c0:	00ff0900 	rscseq	r0, pc, r0, lsl #18

000139c4 <distfix.4122>:
   139c4:	00010510 	andeq	r0, r1, r0, lsl r5
   139c8:	01010517 	tsteq	r1, r7, lsl r5
   139cc:	00110513 	andseq	r0, r1, r3, lsl r5
   139d0:	1001051b 	andne	r0, r1, fp, lsl r5
   139d4:	00050511 	andeq	r0, r5, r1, lsl r5
   139d8:	04010519 	streq	r0, [r1], #-1305	; 0x519
   139dc:	00410515 	subeq	r0, r1, r5, lsl r5
   139e0:	4001051d 	andmi	r0, r1, sp, lsl r5
   139e4:	00030510 	andeq	r0, r3, r0, lsl r5
   139e8:	02010518 	andeq	r0, r1, #100663296	; 0x6000000
   139ec:	00210514 	eoreq	r0, r1, r4, lsl r5
   139f0:	2001051c 	andcs	r0, r1, ip, lsl r5
   139f4:	00090512 	andeq	r0, r9, r2, lsl r5
   139f8:	0801051a 	stmdaeq	r1, {r1, r3, r4, r8, sl}
   139fc:	00810516 	addeq	r0, r1, r6, lsl r5
   13a00:	00000540 	andeq	r0, r0, r0, asr #10
   13a04:	00020510 	andeq	r0, r2, r0, lsl r5
   13a08:	01810517 	orreq	r0, r1, r7, lsl r5
   13a0c:	00190513 	andseq	r0, r9, r3, lsl r5
   13a10:	1801051b 	stmdane	r1, {r0, r1, r3, r4, r8, sl}
   13a14:	00070511 	andeq	r0, r7, r1, lsl r5
   13a18:	06010519 			; <UNDEFINED> instruction: 0x06010519
   13a1c:	00610515 	rsbeq	r0, r1, r5, lsl r5
   13a20:	6001051d 	andvs	r0, r1, sp, lsl r5
   13a24:	00040510 	andeq	r0, r4, r0, lsl r5
   13a28:	03010518 	movweq	r0, #5400	; 0x1518
   13a2c:	00310514 	eorseq	r0, r1, r4, lsl r5
   13a30:	3001051c 	andcc	r0, r1, ip, lsl r5
   13a34:	000d0512 	andeq	r0, sp, r2, lsl r5
   13a38:	0c01051a 	cfstr32eq	mvfx0, [r1], {26}
   13a3c:	00c10516 	sbceq	r0, r1, r6, lsl r5
   13a40:	00000540 	andeq	r0, r0, r0, asr #10

00013a44 <order.4150>:
   13a44:	00110010 	andseq	r0, r1, r0, lsl r0
   13a48:	00000012 	andeq	r0, r0, r2, lsl r0
   13a4c:	00070008 	andeq	r0, r7, r8
   13a50:	00060009 	andeq	r0, r6, r9
   13a54:	0005000a 	andeq	r0, r5, sl
   13a58:	0004000b 	andeq	r0, r4, fp
   13a5c:	0003000c 	andeq	r0, r3, ip
   13a60:	0002000d 	andeq	r0, r2, sp
   13a64:	0001000e 	andeq	r0, r1, lr
   13a68:	0000000f 	andeq	r0, r0, pc

00013a6c <crc_table>:
   13a6c:	00000000 	andeq	r0, r0, r0
   13a70:	77073096 			; <UNDEFINED> instruction: 0x77073096
   13a74:	ee0e612c 	adfep	f6, f6, #4.0
   13a78:	990951ba 	stmdbls	r9, {r1, r3, r4, r5, r7, r8, ip, lr}
   13a7c:	076dc419 			; <UNDEFINED> instruction: 0x076dc419
   13a80:	706af48f 	rsbvc	pc, sl, pc, lsl #9
   13a84:	e963a535 	stmdb	r3!, {r0, r2, r4, r5, r8, sl, sp, pc}^
   13a88:	9e6495a3 	cdpls	5, 6, cr9, cr4, cr3, {5}
   13a8c:	0edb8832 	mrceq	8, 6, r8, cr11, cr2, {1}
   13a90:	79dcb8a4 	ldmibvc	ip, {r2, r5, r7, fp, ip, sp, pc}^
   13a94:	e0d5e91e 	sbcs	lr, r5, lr, lsl r9
   13a98:	97d2d988 	ldrbls	sp, [r2, r8, lsl #19]
   13a9c:	09b64c2b 	ldmibeq	r6!, {r0, r1, r3, r5, sl, fp, lr}
   13aa0:	7eb17cbd 	mrcvc	12, 5, r7, cr1, cr13, {5}
   13aa4:	e7b82d07 	ldr	r2, [r8, r7, lsl #26]!
   13aa8:	90bf1d91 	umlalsls	r1, pc, r1, sp	; <UNPREDICTABLE>
   13aac:	1db71064 	ldcne	0, cr1, [r7, #400]!	; 0x190
   13ab0:	6ab020f2 	bvs	fec1be80 <malloc_base+0xfec00434>
   13ab4:	f3b97148 	vceq.i32	<illegal reg q3.5>, q4, #0
   13ab8:	84be41de 	ldrthi	r4, [lr], #478	; 0x1de
   13abc:	1adad47d 	bne	ff6c8cb8 <malloc_base+0xff6ad26c>
   13ac0:	6ddde4eb 	cfldrdvs	mvd14, [sp, #940]	; 0x3ac
   13ac4:	f4d4b551 			; <UNDEFINED> instruction: 0xf4d4b551
   13ac8:	83d385c7 	bicshi	r8, r3, #834666496	; 0x31c00000
   13acc:	136c9856 	cmnne	ip, #5636096	; 0x560000
   13ad0:	646ba8c0 	strbtvs	sl, [fp], #-2240	; 0x8c0
   13ad4:	fd62f97a 	stc2l	9, cr15, [r2, #-488]!	; 0xfffffe18
   13ad8:	8a65c9ec 	bhi	1986290 <malloc_base+0x196a844>
   13adc:	14015c4f 	strne	r5, [r1], #-3151	; 0xc4f
   13ae0:	63066cd9 	movwvs	r6, #27865	; 0x6cd9
   13ae4:	fa0f3d63 	blx	3e3078 <malloc_base+0x3c762c>
   13ae8:	8d080df5 	stchi	13, cr0, [r8, #-980]	; 0xfffffc2c
   13aec:	3b6e20c8 	blcc	1b9be14 <malloc_base+0x1b803c8>
   13af0:	4c69105e 	stclmi	0, cr1, [r9], #-376	; 0xfffffe88
   13af4:	d56041e4 	strble	r4, [r0, #-484]!	; 0x1e4
   13af8:	a2677172 	rsbge	r7, r7, #-2147483620	; 0x8000001c
   13afc:	3c03e4d1 	cfstrscc	mvf14, [r3], {209}	; 0xd1
   13b00:	4b04d447 	blmi	148c24 <malloc_base+0x12d1d8>
   13b04:	d20d85fd 	andle	r8, sp, #1061158912	; 0x3f400000
   13b08:	a50ab56b 	strge	fp, [sl, #-1387]	; 0x56b
   13b0c:	35b5a8fa 	ldrcc	sl, [r5, #2298]!	; 0x8fa
   13b10:	42b2986c 	adcsmi	r9, r2, #7077888	; 0x6c0000
   13b14:	dbbbc9d6 	blle	fef06274 <malloc_base+0xfeeea828>
   13b18:	acbcf940 	ldcge	9, cr15, [ip], #256	; 0x100
   13b1c:	32d86ce3 	sbcscc	r6, r8, #58112	; 0xe300
   13b20:	45df5c75 	ldrbmi	r5, [pc, #3189]	; 1479d <static_ltree+0x26d>
   13b24:	dcd60dcf 	ldclle	13, cr0, [r6], {207}	; 0xcf
   13b28:	abd13d59 	blge	ff463094 <malloc_base+0xff447648>
   13b2c:	26d930ac 	ldrbcs	r3, [r9], ip, lsr #1
   13b30:	51de003a 	bicspl	r0, lr, sl, lsr r0
   13b34:	c8d75180 	ldmgt	r7, {r7, r8, ip, lr}^
   13b38:	bfd06116 	svclt	0x00d06116
   13b3c:	21b4f4b5 			; <UNDEFINED> instruction: 0x21b4f4b5
   13b40:	56b3c423 	ldrtpl	ip, [r3], r3, lsr #8
   13b44:	cfba9599 	svcgt	0x00ba9599
   13b48:	b8bda50f 	poplt	{r0, r1, r2, r3, r8, sl, sp, pc}
   13b4c:	2802b89e 	stmdacs	r2, {r1, r2, r3, r4, r7, fp, ip, sp, pc}
   13b50:	5f058808 	svcpl	0x00058808
   13b54:	c60cd9b2 			; <UNDEFINED> instruction: 0xc60cd9b2
   13b58:	b10be924 	tstlt	fp, r4, lsr #18
   13b5c:	2f6f7c87 	svccs	0x006f7c87
   13b60:	58684c11 	stmdapl	r8!, {r0, r4, sl, fp, lr}^
   13b64:	c1611dab 	cmngt	r1, fp, lsr #27
   13b68:	b6662d3d 			; <UNDEFINED> instruction: 0xb6662d3d
   13b6c:	76dc4190 			; <UNDEFINED> instruction: 0x76dc4190
   13b70:	01db7106 	bicseq	r7, fp, r6, lsl #2
   13b74:	98d220bc 	ldmls	r2, {r2, r3, r4, r5, r7, sp}^
   13b78:	efd5102a 	svc	0x00d5102a
   13b7c:	71b18589 			; <UNDEFINED> instruction: 0x71b18589
   13b80:	06b6b51f 	ssateq	fp, #23, pc, lsl #10	; <UNPREDICTABLE>
   13b84:	9fbfe4a5 	svcls	0x00bfe4a5
   13b88:	e8b8d433 	ldm	r8!, {r0, r1, r4, r5, sl, ip, lr, pc}
   13b8c:	7807c9a2 	stmdavc	r7, {r1, r5, r7, r8, fp, lr, pc}
   13b90:	0f00f934 	svceq	0x0000f934
   13b94:	9609a88e 	strls	sl, [r9], -lr, lsl #17
   13b98:	e10e9818 	tst	lr, r8, lsl r8
   13b9c:	7f6a0dbb 	svcvc	0x006a0dbb
   13ba0:	086d3d2d 	stmdaeq	sp!, {r0, r2, r3, r5, r8, sl, fp, ip, sp}^
   13ba4:	91646c97 			; <UNDEFINED> instruction: 0x91646c97
   13ba8:	e6635c01 	strbt	r5, [r3], -r1, lsl #24
   13bac:	6b6b51f4 	blvs	1ae8384 <malloc_base+0x1acc938>
   13bb0:	1c6c6162 	stfnee	f6, [ip], #-392	; 0xfffffe78
   13bb4:	856530d8 	strbhi	r3, [r5, #-216]!	; 0xd8
   13bb8:	f262004e 	vhadd.s32	q8, q1, q7
   13bbc:	6c0695ed 	cfstr32vs	mvfx9, [r6], {237}	; 0xed
   13bc0:	1b01a57b 	blne	7d1b4 <malloc_base+0x61768>
   13bc4:	8208f4c1 	andhi	pc, r8, #-1056964608	; 0xc1000000
   13bc8:	f50fc457 			; <UNDEFINED> instruction: 0xf50fc457
   13bcc:	65b0d9c6 	ldrvs	sp, [r0, #2502]!	; 0x9c6
   13bd0:	12b7e950 	adcsne	lr, r7, #1310720	; 0x140000
   13bd4:	8bbeb8ea 	blhi	fefc1f84 <malloc_base+0xfefa6538>
   13bd8:	fcb9887c 	ldc2	8, cr8, [r9], #496	; 0x1f0
   13bdc:	62dd1ddf 	sbcsvs	r1, sp, #14272	; 0x37c0
   13be0:	15da2d49 	ldrbne	r2, [sl, #3401]	; 0xd49
   13be4:	8cd37cf3 	ldclhi	12, cr7, [r3], {243}	; 0xf3
   13be8:	fbd44c65 	blx	ff526d86 <malloc_base+0xff50b33a>
   13bec:	4db26158 	ldfmis	f6, [r2, #352]!	; 0x160
   13bf0:	3ab551ce 	bcc	fed68330 <malloc_base+0xfed4c8e4>
   13bf4:	a3bc0074 			; <UNDEFINED> instruction: 0xa3bc0074
   13bf8:	d4bb30e2 	ldrtle	r3, [fp], #226	; 0xe2
   13bfc:	4adfa541 	bmi	ff7fd108 <malloc_base+0xff7e16bc>
   13c00:	3dd895d7 	cfldr64cc	mvdx9, [r8, #860]	; 0x35c
   13c04:	a4d1c46d 	ldrbge	ip, [r1], #1133	; 0x46d
   13c08:	d3d6f4fb 	bicsle	pc, r6, #-83886080	; 0xfb000000
   13c0c:	4369e96a 	cmnmi	r9, #1736704	; 0x1a8000
   13c10:	346ed9fc 	strbtcc	sp, [lr], #-2556	; 0x9fc
   13c14:	ad678846 	stclge	8, cr8, [r7, #-280]!	; 0xfffffee8
   13c18:	da60b8d0 	ble	1841f60 <malloc_base+0x1826514>
   13c1c:	44042d73 	strmi	r2, [r4], #-3443	; 0xd73
   13c20:	33031de5 	movwcc	r1, #15845	; 0x3de5
   13c24:	aa0a4c5f 	bge	2a6da8 <malloc_base+0x28b35c>
   13c28:	dd0d7cc9 	stcle	12, cr7, [sp, #-804]	; 0xfffffcdc
   13c2c:	5005713c 	andpl	r7, r5, ip, lsr r1
   13c30:	270241aa 	strcs	r4, [r2, -sl, lsr #3]
   13c34:	be0b1010 	mcrlt	0, 0, r1, cr11, cr0, {0}
   13c38:	c90c2086 	stmdbgt	ip, {r1, r2, r7, sp}
   13c3c:	5768b525 	strbpl	fp, [r8, -r5, lsr #10]!
   13c40:	206f85b3 	strhtcs	r8, [pc], #-83
   13c44:	b966d409 	stmdblt	r6!, {r0, r3, sl, ip, lr, pc}^
   13c48:	ce61e49f 	mcrgt	4, 3, lr, cr1, cr15, {4}
   13c4c:	5edef90e 	cdppl	9, 13, cr15, cr14, cr14, {0}
   13c50:	29d9c998 	ldmibcs	r9, {r3, r4, r7, r8, fp, lr, pc}^
   13c54:	b0d09822 	sbcslt	r9, r0, r2, lsr #16
   13c58:	c7d7a8b4 			; <UNDEFINED> instruction: 0xc7d7a8b4
   13c5c:	59b33d17 	ldmibpl	r3!, {r0, r1, r2, r4, r8, sl, fp, ip, sp}
   13c60:	2eb40d81 	cdpcs	13, 11, cr0, cr4, cr1, {4}
   13c64:	b7bd5c3b 			; <UNDEFINED> instruction: 0xb7bd5c3b
   13c68:	c0ba6cad 	adcsgt	r6, sl, sp, lsr #25
   13c6c:	edb88320 	ldc	3, cr8, [r8, #128]!	; 0x80
   13c70:	9abfb3b6 	bls	ff000b50 <malloc_base+0xfefe5104>
   13c74:	03b6e20c 			; <UNDEFINED> instruction: 0x03b6e20c
   13c78:	74b1d29a 	ldrtvc	sp, [r1], #666	; 0x29a
   13c7c:	ead54739 	b	ff565968 <malloc_base+0xff549f1c>
   13c80:	9dd277af 	ldclls	7, cr7, [r2, #700]	; 0x2bc
   13c84:	04db2615 	ldrbeq	r2, [fp], #1557	; 0x615
   13c88:	73dc1683 	bicsvc	r1, ip, #137363456	; 0x8300000
   13c8c:	e3630b12 	cmn	r3, #18432	; 0x4800
   13c90:	94643b84 	strbtls	r3, [r4], #-2948	; 0xb84
   13c94:	0d6d6a3e 	vpusheq	{s13-s74}
   13c98:	7a6a5aa8 	bvc	1aaa740 <malloc_base+0x1a8ecf4>
   13c9c:	e40ecf0b 	str	ip, [lr], #-3851	; 0xf0b
   13ca0:	9309ff9d 	movwls	pc, #40861	; 0x9f9d	; <UNPREDICTABLE>
   13ca4:	0a00ae27 	beq	3f548 <malloc_base+0x23afc>
   13ca8:	7d079eb1 	stcvc	14, cr9, [r7, #-708]	; 0xfffffd3c
   13cac:	f00f9344 			; <UNDEFINED> instruction: 0xf00f9344
   13cb0:	8708a3d2 			; <UNDEFINED> instruction: 0x8708a3d2
   13cb4:	1e01f268 	cdpne	2, 0, cr15, cr1, cr8, {3}
   13cb8:	6906c2fe 	stmdbvs	r6, {r1, r2, r3, r4, r5, r6, r7, r9, lr, pc}
   13cbc:	f762575d 			; <UNDEFINED> instruction: 0xf762575d
   13cc0:	806567cb 	rsbhi	r6, r5, fp, asr #15
   13cc4:	196c3671 	stmdbne	ip!, {r0, r4, r5, r6, r9, sl, ip, sp}^
   13cc8:	6e6b06e7 	cdpvs	6, 6, cr0, cr11, cr7, {7}
   13ccc:	fed41b76 	mrc2	11, 6, r1, cr4, cr6, {3}
   13cd0:	89d32be0 	ldmibhi	r3, {r5, r6, r7, r8, r9, fp, sp}^
   13cd4:	10da7a5a 	sbcsne	r7, sl, sl, asr sl
   13cd8:	67dd4acc 	ldrbvs	r4, [sp, ip, asr #21]
   13cdc:	f9b9df6f 			; <UNDEFINED> instruction: 0xf9b9df6f
   13ce0:	8ebeeff9 	mrchi	15, 5, lr, cr14, cr9, {7}
   13ce4:	17b7be43 	ldrne	fp, [r7, r3, asr #28]!
   13ce8:	60b08ed5 	ldrsbtvs	r8, [r0], r5
   13cec:	d6d6a3e8 	ldrble	sl, [r6], r8, ror #7
   13cf0:	a1d1937e 	bicsge	r9, r1, lr, ror r3
   13cf4:	38d8c2c4 	ldmcc	r8, {r2, r6, r7, r9, lr, pc}^
   13cf8:	4fdff252 	svcmi	0x00dff252
   13cfc:	d1bb67f1 			; <UNDEFINED> instruction: 0xd1bb67f1
   13d00:	a6bc5767 	ldrtge	r5, [ip], r7, ror #14
   13d04:	3fb506dd 	svccc	0x00b506dd
   13d08:	48b2364b 	ldmmi	r2!, {r0, r1, r3, r6, r9, sl, ip, sp}
   13d0c:	d80d2bda 	stmdale	sp, {r1, r3, r4, r6, r7, r8, r9, fp, sp}
   13d10:	af0a1b4c 	svcge	0x000a1b4c
   13d14:	36034af6 			; <UNDEFINED> instruction: 0x36034af6
   13d18:	41047a60 	tstmi	r4, r0, ror #20
   13d1c:	df60efc3 	svcle	0x0060efc3
   13d20:	a867df55 	stmdage	r7!, {r0, r2, r4, r6, r8, r9, sl, fp, ip, lr, pc}^
   13d24:	316e8eef 	cmncc	lr, pc, ror #29
   13d28:	4669be79 			; <UNDEFINED> instruction: 0x4669be79
   13d2c:	cb61b38c 	blgt	1880b64 <malloc_base+0x1865118>
   13d30:	bc66831a 	stcllt	3, cr8, [r6], #-104	; 0xffffff98
   13d34:	256fd2a0 	strbcs	sp, [pc, #-672]!	; 13a9c <crc_table+0x30>
   13d38:	5268e236 	rsbpl	lr, r8, #1610612739	; 0x60000003
   13d3c:	cc0c7795 	stcgt	7, cr7, [ip], {149}	; 0x95
   13d40:	bb0b4703 	bllt	2e5954 <malloc_base+0x2c9f08>
   13d44:	220216b9 	andcs	r1, r2, #193986560	; 0xb900000
   13d48:	5505262f 	strpl	r2, [r5, #-1583]	; 0x62f
   13d4c:	c5ba3bbe 	ldrgt	r3, [sl, #3006]!	; 0xbbe
   13d50:	b2bd0b28 	adcslt	r0, sp, #40960	; 0xa000
   13d54:	2bb45a92 	blcs	fed2a7a4 <malloc_base+0xfed0ed58>
   13d58:	5cb36a04 	vldmiapl	r3!, {s12-s15}
   13d5c:	c2d7ffa7 	sbcsgt	pc, r7, #668	; 0x29c
   13d60:	b5d0cf31 	ldrblt	ip, [r0, #3889]	; 0xf31
   13d64:	2cd99e8b 	ldclcs	14, cr9, [r9], {139}	; 0x8b
   13d68:	5bdeae1d 	blpl	ff7bf5e4 <malloc_base+0xff7a3b98>
   13d6c:	9b64c2b0 	blls	1944834 <malloc_base+0x1928de8>
   13d70:	ec63f226 	sfm	f7, 3, [r3], #-152	; 0xffffff68
   13d74:	756aa39c 	strbvc	sl, [sl, #-924]!	; 0x39c
   13d78:	026d930a 	rsbeq	r9, sp, #671088640	; 0x28000000
   13d7c:	9c0906a9 	stcls	6, cr0, [r9], {169}	; 0xa9
   13d80:	eb0e363f 	bl	3a1684 <malloc_base+0x385c38>
   13d84:	72076785 	andvc	r6, r7, #34865152	; 0x2140000
   13d88:	05005713 	streq	r5, [r0, #-1811]	; 0x713
   13d8c:	95bf4a82 	ldrls	r4, [pc, #2690]!	; 14816 <static_ltree+0x2e6>
   13d90:	e2b87a14 	adcs	r7, r8, #81920	; 0x14000
   13d94:	7bb12bae 	blvc	fec5ec54 <malloc_base+0xfec43208>
   13d98:	0cb61b38 	vldmiaeq	r6!, {d1-d28}
   13d9c:	92d28e9b 	sbcsls	r8, r2, #2480	; 0x9b0
   13da0:	e5d5be0d 	ldrb	fp, [r5, #3597]	; 0xe0d
   13da4:	7cdcefb7 	ldclvc	15, cr14, [ip], {183}	; 0xb7
   13da8:	0bdbdf21 	bleq	ff70ba34 <malloc_base+0xff6effe8>
   13dac:	86d3d2d4 			; <UNDEFINED> instruction: 0x86d3d2d4
   13db0:	f1d4e242 			; <UNDEFINED> instruction: 0xf1d4e242
   13db4:	68ddb3f8 	ldmvs	sp, {r3, r4, r5, r6, r7, r8, r9, ip, sp, pc}^
   13db8:	1fda836e 	svcne	0x00da836e
   13dbc:	81be16cd 			; <UNDEFINED> instruction: 0x81be16cd
   13dc0:	f6b9265b 			; <UNDEFINED> instruction: 0xf6b9265b
   13dc4:	6fb077e1 	svcvs	0x00b077e1
   13dc8:	18b74777 	ldmne	r7!, {r0, r1, r2, r4, r5, r6, r8, r9, sl, lr}
   13dcc:	88085ae6 	stmdahi	r8, {r1, r2, r5, r6, r7, r9, fp, ip, lr}
   13dd0:	ff0f6a70 			; <UNDEFINED> instruction: 0xff0f6a70
   13dd4:	66063bca 	strvs	r3, [r6], -sl, asr #23
   13dd8:	11010b5c 	tstne	r1, ip, asr fp
   13ddc:	8f659eff 	svchi	0x00659eff
   13de0:	f862ae69 			; <UNDEFINED> instruction: 0xf862ae69
   13de4:	616bffd3 	ldrdvs	pc, [fp, #-243]!	; 0xffffff0d
   13de8:	166ccf45 	strbtne	ip, [ip], -r5, asr #30
   13dec:	a00ae278 	andge	lr, sl, r8, ror r2
   13df0:	d70dd2ee 	strle	sp, [sp, -lr, ror #5]
   13df4:	4e048354 	mcrmi	3, 0, r8, cr4, cr4, {2}
   13df8:	3903b3c2 	stmdbcc	r3, {r1, r6, r7, r8, r9, ip, sp, pc}
   13dfc:	a7672661 	strbge	r2, [r7, -r1, ror #12]!
   13e00:	d06016f7 	strdle	r1, [r0], #-103	; 0xffffff99	; <UNPREDICTABLE>
   13e04:	4969474d 	stmdbmi	r9!, {r0, r2, r3, r6, r8, r9, sl, lr}^
   13e08:	3e6e77db 	mcrcc	7, 3, r7, cr14, cr11, {6}
   13e0c:	aed16a4a 	vfnmage.f32	s13, s2, s20
   13e10:	d9d65adc 	ldmible	r6, {r2, r3, r4, r6, r7, r9, fp, ip, lr}^
   13e14:	40df0b66 	sbcsmi	r0, pc, r6, ror #22
   13e18:	37d83bf0 			; <UNDEFINED> instruction: 0x37d83bf0
   13e1c:	a9bcae53 	ldmibge	ip!, {r0, r1, r4, r6, r9, sl, fp, sp, pc}
   13e20:	debb9ec5 	cdple	14, 11, cr9, cr11, cr5, {6}
   13e24:	47b2cf7f 			; <UNDEFINED> instruction: 0x47b2cf7f
   13e28:	30b5ffe9 	adcscc	pc, r5, r9, ror #31
   13e2c:	bdbdf21c 	lfmlt	f7, 1, [sp, #112]!	; 0x70
   13e30:	cabac28a 	bgt	feec4860 <malloc_base+0xfeea8e14>
   13e34:	53b39330 			; <UNDEFINED> instruction: 0x53b39330
   13e38:	24b4a3a6 	ldrtcs	sl, [r4], #934	; 0x3a6
   13e3c:	bad03605 	blt	ff421658 <malloc_base+0xff405c0c>
   13e40:	cdd70693 	ldclgt	6, cr0, [r7, #588]	; 0x24c
   13e44:	54de5729 	ldrbpl	r5, [lr], #1833	; 0x729
   13e48:	23d967bf 	bicscs	r6, r9, #50069504	; 0x2fc0000
   13e4c:	b3667a2e 	cmnlt	r6, #188416	; 0x2e000
   13e50:	c4614ab8 	strbtgt	r4, [r1], #-2744	; 0xab8
   13e54:	5d681b02 	vstmdbpl	r8!, {d17}
   13e58:	2a6f2b94 	bcs	1bdecb0 <malloc_base+0x1bc3264>
   13e5c:	b40bbe37 	strlt	fp, [fp], #-3639	; 0xe37
   13e60:	c30c8ea1 	movwgt	r8, #52897	; 0xcea1
   13e64:	5a05df1b 	bpl	18bad8 <malloc_base+0x17008c>
   13e68:	2d02ef8d 	stccs	15, cr14, [r2, #-564]	; 0xfffffdcc

00013e6c <lext.4035>:
   13e6c:	00100010 	andseq	r0, r0, r0, lsl r0
   13e70:	00100010 	andseq	r0, r0, r0, lsl r0
   13e74:	00100010 	andseq	r0, r0, r0, lsl r0
   13e78:	00100010 	andseq	r0, r0, r0, lsl r0
   13e7c:	00110011 	andseq	r0, r1, r1, lsl r0
   13e80:	00110011 	andseq	r0, r1, r1, lsl r0
   13e84:	00120012 	andseq	r0, r2, r2, lsl r0
   13e88:	00120012 	andseq	r0, r2, r2, lsl r0
   13e8c:	00130013 	andseq	r0, r3, r3, lsl r0
   13e90:	00130013 	andseq	r0, r3, r3, lsl r0
   13e94:	00140014 	andseq	r0, r4, r4, lsl r0
   13e98:	00140014 	andseq	r0, r4, r4, lsl r0
   13e9c:	00150015 	andseq	r0, r5, r5, lsl r0
   13ea0:	00150015 	andseq	r0, r5, r5, lsl r0
   13ea4:	004e0010 	subeq	r0, lr, r0, lsl r0
   13ea8:	00000044 	andeq	r0, r0, r4, asr #32

00013eac <lbase.4034>:
   13eac:	00040003 	andeq	r0, r4, r3
   13eb0:	00060005 	andeq	r0, r6, r5
   13eb4:	00080007 	andeq	r0, r8, r7
   13eb8:	000a0009 	andeq	r0, sl, r9
   13ebc:	000d000b 	andeq	r0, sp, fp
   13ec0:	0011000f 	andseq	r0, r1, pc
   13ec4:	00170013 	andseq	r0, r7, r3, lsl r0
   13ec8:	001f001b 	andseq	r0, pc, fp, lsl r0	; <UNPREDICTABLE>
   13ecc:	002b0023 	eoreq	r0, fp, r3, lsr #32
   13ed0:	003b0033 	eorseq	r0, fp, r3, lsr r0
   13ed4:	00530043 	subseq	r0, r3, r3, asr #32
   13ed8:	00730063 	rsbseq	r0, r3, r3, rrx
   13edc:	00a30083 	adceq	r0, r3, r3, lsl #1
   13ee0:	00e300c3 	rsceq	r0, r3, r3, asr #1
   13ee4:	00000102 	andeq	r0, r0, r2, lsl #2
   13ee8:	00000000 	andeq	r0, r0, r0

00013eec <dext.4037>:
   13eec:	00100010 	andseq	r0, r0, r0, lsl r0
   13ef0:	00100010 	andseq	r0, r0, r0, lsl r0
   13ef4:	00110011 	andseq	r0, r1, r1, lsl r0
   13ef8:	00120012 	andseq	r0, r2, r2, lsl r0
   13efc:	00130013 	andseq	r0, r3, r3, lsl r0
   13f00:	00140014 	andseq	r0, r4, r4, lsl r0
   13f04:	00150015 	andseq	r0, r5, r5, lsl r0
   13f08:	00160016 	andseq	r0, r6, r6, lsl r0
   13f0c:	00170017 	andseq	r0, r7, r7, lsl r0
   13f10:	00180018 	andseq	r0, r8, r8, lsl r0
   13f14:	00190019 	andseq	r0, r9, r9, lsl r0
   13f18:	001a001a 	andseq	r0, sl, sl, lsl r0
   13f1c:	001b001b 	andseq	r0, fp, fp, lsl r0
   13f20:	001c001c 	andseq	r0, ip, ip, lsl r0
   13f24:	001d001d 	andseq	r0, sp, sp, lsl r0
   13f28:	00400040 	subeq	r0, r0, r0, asr #32

00013f2c <dbase.4036>:
   13f2c:	00020001 	andeq	r0, r2, r1
   13f30:	00040003 	andeq	r0, r4, r3
   13f34:	00070005 	andeq	r0, r7, r5
   13f38:	000d0009 	andeq	r0, sp, r9
   13f3c:	00190011 	andseq	r0, r9, r1, lsl r0
   13f40:	00310021 	eorseq	r0, r1, r1, lsr #32
   13f44:	00610041 	rsbeq	r0, r1, r1, asr #32
   13f48:	00c10081 	sbceq	r0, r1, r1, lsl #1
   13f4c:	01810101 	orreq	r0, r1, r1, lsl #2
   13f50:	03010201 	movweq	r0, #4609	; 0x1201
   13f54:	06010401 	streq	r0, [r1], -r1, lsl #8
   13f58:	0c010801 	stceq	8, cr0, [r1], {1}
   13f5c:	18011001 	stmdane	r1, {r0, ip}
   13f60:	30012001 	andcc	r2, r1, r1
   13f64:	60014001 	andvs	r4, r1, r1
   13f68:	00000000 	andeq	r0, r0, r0

00013f6c <inflate_copyright>:
   13f6c:	666e6920 	strbtvs	r6, [lr], -r0, lsr #18
   13f70:	6574616c 	ldrbvs	r6, [r4, #-364]!	; 0x16c
   13f74:	322e3120 	eorcc	r3, lr, #8
   13f78:	4320372e 	teqmi	r0, #12058624	; 0xb80000
   13f7c:	7279706f 	rsbsvc	r7, r9, #111	; 0x6f
   13f80:	74686769 	strbtvc	r6, [r8], #-1897	; 0x769
   13f84:	39393120 	ldmdbcc	r9!, {r5, r8, ip, sp}
   13f88:	30322d35 	eorscc	r2, r2, r5, lsr sp
   13f8c:	4d203231 	sfmmi	f3, 4, [r0, #-196]!	; 0xffffff3c
   13f90:	206b7261 	rsbcs	r7, fp, r1, ror #4
   13f94:	656c6441 	strbvs	r6, [ip, #-1089]!	; 0x441
   13f98:	00002072 	andeq	r2, r0, r2, ror r0

00013f9c <configuration_table>:
	...
   13fa4:	0000d4f8 	strdeq	sp, [r0], -r8
   13fa8:	00040004 	andeq	r0, r4, r4
   13fac:	00040008 	andeq	r0, r4, r8
   13fb0:	0000d8c0 	andeq	sp, r0, r0, asr #17
   13fb4:	00050004 	andeq	r0, r5, r4
   13fb8:	00080010 	andeq	r0, r8, r0, lsl r0
   13fbc:	0000d8c0 	andeq	sp, r0, r0, asr #17
   13fc0:	00060004 	andeq	r0, r6, r4
   13fc4:	00200020 	eoreq	r0, r0, r0, lsr #32
   13fc8:	0000d8c0 	andeq	sp, r0, r0, asr #17
   13fcc:	00040004 	andeq	r0, r4, r4
   13fd0:	00100010 	andseq	r0, r0, r0, lsl r0
   13fd4:	0000dec4 	andeq	sp, r0, r4, asr #29
   13fd8:	00100008 	andseq	r0, r0, r8
   13fdc:	00200020 	eoreq	r0, r0, r0, lsr #32
   13fe0:	0000dec4 	andeq	sp, r0, r4, asr #29
   13fe4:	00100008 	andseq	r0, r0, r8
   13fe8:	00800080 	addeq	r0, r0, r0, lsl #1
   13fec:	0000dec4 	andeq	sp, r0, r4, asr #29
   13ff0:	00200008 	eoreq	r0, r0, r8
   13ff4:	01000080 	smlabbeq	r0, r0, r0, r0
   13ff8:	0000dec4 	andeq	sp, r0, r4, asr #29
   13ffc:	00800020 	addeq	r0, r0, r0, lsr #32
   14000:	04000102 	streq	r0, [r0], #-258	; 0x102
   14004:	0000dec4 	andeq	sp, r0, r4, asr #29
   14008:	01020020 	tsteq	r2, r0, lsr #32
   1400c:	10000102 	andne	r0, r0, r2, lsl #2
   14010:	0000dec4 	andeq	sp, r0, r4, asr #29

00014014 <deflate_copyright>:
   14014:	66656420 	strbtvs	r6, [r5], -r0, lsr #8
   14018:	6574616c 	ldrbvs	r6, [r4, #-364]!	; 0x16c
   1401c:	322e3120 	eorcc	r3, lr, #8
   14020:	4320372e 	teqmi	r0, #12058624	; 0xb80000
   14024:	7279706f 	rsbsvc	r7, r9, #111	; 0x6f
   14028:	74686769 	strbtvc	r6, [r8], #-1897	; 0x769
   1402c:	39393120 	ldmdbcc	r9!, {r5, r8, ip, sp}
   14030:	30322d35 	eorscc	r2, r2, r5, lsr sp
   14034:	4a203231 	bmi	820900 <malloc_base+0x804eb4>
   14038:	2d6e6165 	stfcse	f6, [lr, #-404]!	; 0xfffffe6c
   1403c:	70756f6c 	rsbsvc	r6, r5, ip, ror #30
   14040:	69614720 	stmdbvs	r1!, {r5, r8, r9, sl, lr}^
   14044:	20796c6c 	rsbscs	r6, r9, ip, ror #24
   14048:	20646e61 	rsbcs	r6, r4, r1, ror #28
   1404c:	6b72614d 	blvs	1cac588 <malloc_base+0x1c90b3c>
   14050:	6c644120 	stfvse	f4, [r4], #-128	; 0xffffff80
   14054:	00207265 	eoreq	r7, r0, r5, ror #4

00014058 <_length_code>:
   14058:	03020100 	movweq	r0, #8448	; 0x2100
   1405c:	07060504 	streq	r0, [r6, -r4, lsl #10]
   14060:	09090808 	stmdbeq	r9, {r3, fp}
   14064:	0b0b0a0a 	bleq	2d6894 <malloc_base+0x2bae48>
   14068:	0c0c0c0c 	stceq	12, cr0, [ip], {12}
   1406c:	0d0d0d0d 	stceq	13, cr0, [sp, #-52]	; 0xffffffcc
   14070:	0e0e0e0e 	cdpeq	14, 0, cr0, cr14, cr14, {0}
   14074:	0f0f0f0f 	svceq	0x000f0f0f
   14078:	10101010 	andsne	r1, r0, r0, lsl r0
   1407c:	10101010 	andsne	r1, r0, r0, lsl r0
   14080:	11111111 	tstne	r1, r1, lsl r1
   14084:	11111111 	tstne	r1, r1, lsl r1
   14088:	12121212 	andsne	r1, r2, #536870913	; 0x20000001
   1408c:	12121212 	andsne	r1, r2, #536870913	; 0x20000001
   14090:	13131313 	tstne	r3, #1275068416	; 0x4c000000
   14094:	13131313 	tstne	r3, #1275068416	; 0x4c000000
   14098:	14141414 	ldrne	r1, [r4], #-1044	; 0x414
   1409c:	14141414 	ldrne	r1, [r4], #-1044	; 0x414
   140a0:	14141414 	ldrne	r1, [r4], #-1044	; 0x414
   140a4:	14141414 	ldrne	r1, [r4], #-1044	; 0x414
   140a8:	15151515 	ldrne	r1, [r5, #-1301]	; 0x515
   140ac:	15151515 	ldrne	r1, [r5, #-1301]	; 0x515
   140b0:	15151515 	ldrne	r1, [r5, #-1301]	; 0x515
   140b4:	15151515 	ldrne	r1, [r5, #-1301]	; 0x515
   140b8:	16161616 			; <UNDEFINED> instruction: 0x16161616
   140bc:	16161616 			; <UNDEFINED> instruction: 0x16161616
   140c0:	16161616 			; <UNDEFINED> instruction: 0x16161616
   140c4:	16161616 			; <UNDEFINED> instruction: 0x16161616
   140c8:	17171717 			; <UNDEFINED> instruction: 0x17171717
   140cc:	17171717 			; <UNDEFINED> instruction: 0x17171717
   140d0:	17171717 			; <UNDEFINED> instruction: 0x17171717
   140d4:	17171717 			; <UNDEFINED> instruction: 0x17171717
   140d8:	18181818 	ldmdane	r8, {r3, r4, fp, ip}
   140dc:	18181818 	ldmdane	r8, {r3, r4, fp, ip}
   140e0:	18181818 	ldmdane	r8, {r3, r4, fp, ip}
   140e4:	18181818 	ldmdane	r8, {r3, r4, fp, ip}
   140e8:	18181818 	ldmdane	r8, {r3, r4, fp, ip}
   140ec:	18181818 	ldmdane	r8, {r3, r4, fp, ip}
   140f0:	18181818 	ldmdane	r8, {r3, r4, fp, ip}
   140f4:	18181818 	ldmdane	r8, {r3, r4, fp, ip}
   140f8:	19191919 	ldmdbne	r9, {r0, r3, r4, r8, fp, ip}
   140fc:	19191919 	ldmdbne	r9, {r0, r3, r4, r8, fp, ip}
   14100:	19191919 	ldmdbne	r9, {r0, r3, r4, r8, fp, ip}
   14104:	19191919 	ldmdbne	r9, {r0, r3, r4, r8, fp, ip}
   14108:	19191919 	ldmdbne	r9, {r0, r3, r4, r8, fp, ip}
   1410c:	19191919 	ldmdbne	r9, {r0, r3, r4, r8, fp, ip}
   14110:	19191919 	ldmdbne	r9, {r0, r3, r4, r8, fp, ip}
   14114:	19191919 	ldmdbne	r9, {r0, r3, r4, r8, fp, ip}
   14118:	1a1a1a1a 	bne	69a988 <malloc_base+0x67ef3c>
   1411c:	1a1a1a1a 	bne	69a98c <malloc_base+0x67ef40>
   14120:	1a1a1a1a 	bne	69a990 <malloc_base+0x67ef44>
   14124:	1a1a1a1a 	bne	69a994 <malloc_base+0x67ef48>
   14128:	1a1a1a1a 	bne	69a998 <malloc_base+0x67ef4c>
   1412c:	1a1a1a1a 	bne	69a99c <malloc_base+0x67ef50>
   14130:	1a1a1a1a 	bne	69a9a0 <malloc_base+0x67ef54>
   14134:	1a1a1a1a 	bne	69a9a4 <malloc_base+0x67ef58>
   14138:	1b1b1b1b 	blne	6dadac <malloc_base+0x6bf360>
   1413c:	1b1b1b1b 	blne	6dadb0 <malloc_base+0x6bf364>
   14140:	1b1b1b1b 	blne	6dadb4 <malloc_base+0x6bf368>
   14144:	1b1b1b1b 	blne	6dadb8 <malloc_base+0x6bf36c>
   14148:	1b1b1b1b 	blne	6dadbc <malloc_base+0x6bf370>
   1414c:	1b1b1b1b 	blne	6dadc0 <malloc_base+0x6bf374>
   14150:	1b1b1b1b 	blne	6dadc4 <malloc_base+0x6bf378>
   14154:	1c1b1b1b 	ldcne	11, cr1, [fp], {27}

00014158 <extra_lbits>:
	...
   14178:	00000001 	andeq	r0, r0, r1
   1417c:	00000001 	andeq	r0, r0, r1
   14180:	00000001 	andeq	r0, r0, r1
   14184:	00000001 	andeq	r0, r0, r1
   14188:	00000002 	andeq	r0, r0, r2
   1418c:	00000002 	andeq	r0, r0, r2
   14190:	00000002 	andeq	r0, r0, r2
   14194:	00000002 	andeq	r0, r0, r2
   14198:	00000003 	andeq	r0, r0, r3
   1419c:	00000003 	andeq	r0, r0, r3
   141a0:	00000003 	andeq	r0, r0, r3
   141a4:	00000003 	andeq	r0, r0, r3
   141a8:	00000004 	andeq	r0, r0, r4
   141ac:	00000004 	andeq	r0, r0, r4
   141b0:	00000004 	andeq	r0, r0, r4
   141b4:	00000004 	andeq	r0, r0, r4
   141b8:	00000005 	andeq	r0, r0, r5
   141bc:	00000005 	andeq	r0, r0, r5
   141c0:	00000005 	andeq	r0, r0, r5
   141c4:	00000005 	andeq	r0, r0, r5
   141c8:	00000000 	andeq	r0, r0, r0

000141cc <base_length>:
   141cc:	00000000 	andeq	r0, r0, r0
   141d0:	00000001 	andeq	r0, r0, r1
   141d4:	00000002 	andeq	r0, r0, r2
   141d8:	00000003 	andeq	r0, r0, r3
   141dc:	00000004 	andeq	r0, r0, r4
   141e0:	00000005 	andeq	r0, r0, r5
   141e4:	00000006 	andeq	r0, r0, r6
   141e8:	00000007 	andeq	r0, r0, r7
   141ec:	00000008 	andeq	r0, r0, r8
   141f0:	0000000a 	andeq	r0, r0, sl
   141f4:	0000000c 	andeq	r0, r0, ip
   141f8:	0000000e 	andeq	r0, r0, lr
   141fc:	00000010 	andeq	r0, r0, r0, lsl r0
   14200:	00000014 	andeq	r0, r0, r4, lsl r0
   14204:	00000018 	andeq	r0, r0, r8, lsl r0
   14208:	0000001c 	andeq	r0, r0, ip, lsl r0
   1420c:	00000020 	andeq	r0, r0, r0, lsr #32
   14210:	00000028 	andeq	r0, r0, r8, lsr #32
   14214:	00000030 	andeq	r0, r0, r0, lsr r0
   14218:	00000038 	andeq	r0, r0, r8, lsr r0
   1421c:	00000040 	andeq	r0, r0, r0, asr #32
   14220:	00000050 	andeq	r0, r0, r0, asr r0
   14224:	00000060 	andeq	r0, r0, r0, rrx
   14228:	00000070 	andeq	r0, r0, r0, ror r0
   1422c:	00000080 	andeq	r0, r0, r0, lsl #1
   14230:	000000a0 	andeq	r0, r0, r0, lsr #1
   14234:	000000c0 	andeq	r0, r0, r0, asr #1
   14238:	000000e0 	andeq	r0, r0, r0, ror #1
   1423c:	00000000 	andeq	r0, r0, r0

00014240 <_dist_code>:
   14240:	03020100 	movweq	r0, #8448	; 0x2100
   14244:	05050404 	streq	r0, [r5, #-1028]	; 0x404
   14248:	06060606 	streq	r0, [r6], -r6, lsl #12
   1424c:	07070707 	streq	r0, [r7, -r7, lsl #14]
   14250:	08080808 	stmdaeq	r8, {r3, fp}
   14254:	08080808 	stmdaeq	r8, {r3, fp}
   14258:	09090909 	stmdbeq	r9, {r0, r3, r8, fp}
   1425c:	09090909 	stmdbeq	r9, {r0, r3, r8, fp}
   14260:	0a0a0a0a 	beq	296a90 <malloc_base+0x27b044>
   14264:	0a0a0a0a 	beq	296a94 <malloc_base+0x27b048>
   14268:	0a0a0a0a 	beq	296a98 <malloc_base+0x27b04c>
   1426c:	0a0a0a0a 	beq	296a9c <malloc_base+0x27b050>
   14270:	0b0b0b0b 	bleq	2d6ea4 <malloc_base+0x2bb458>
   14274:	0b0b0b0b 	bleq	2d6ea8 <malloc_base+0x2bb45c>
   14278:	0b0b0b0b 	bleq	2d6eac <malloc_base+0x2bb460>
   1427c:	0b0b0b0b 	bleq	2d6eb0 <malloc_base+0x2bb464>
   14280:	0c0c0c0c 	stceq	12, cr0, [ip], {12}
   14284:	0c0c0c0c 	stceq	12, cr0, [ip], {12}
   14288:	0c0c0c0c 	stceq	12, cr0, [ip], {12}
   1428c:	0c0c0c0c 	stceq	12, cr0, [ip], {12}
   14290:	0c0c0c0c 	stceq	12, cr0, [ip], {12}
   14294:	0c0c0c0c 	stceq	12, cr0, [ip], {12}
   14298:	0c0c0c0c 	stceq	12, cr0, [ip], {12}
   1429c:	0c0c0c0c 	stceq	12, cr0, [ip], {12}
   142a0:	0d0d0d0d 	stceq	13, cr0, [sp, #-52]	; 0xffffffcc
   142a4:	0d0d0d0d 	stceq	13, cr0, [sp, #-52]	; 0xffffffcc
   142a8:	0d0d0d0d 	stceq	13, cr0, [sp, #-52]	; 0xffffffcc
   142ac:	0d0d0d0d 	stceq	13, cr0, [sp, #-52]	; 0xffffffcc
   142b0:	0d0d0d0d 	stceq	13, cr0, [sp, #-52]	; 0xffffffcc
   142b4:	0d0d0d0d 	stceq	13, cr0, [sp, #-52]	; 0xffffffcc
   142b8:	0d0d0d0d 	stceq	13, cr0, [sp, #-52]	; 0xffffffcc
   142bc:	0d0d0d0d 	stceq	13, cr0, [sp, #-52]	; 0xffffffcc
   142c0:	0e0e0e0e 	cdpeq	14, 0, cr0, cr14, cr14, {0}
   142c4:	0e0e0e0e 	cdpeq	14, 0, cr0, cr14, cr14, {0}
   142c8:	0e0e0e0e 	cdpeq	14, 0, cr0, cr14, cr14, {0}
   142cc:	0e0e0e0e 	cdpeq	14, 0, cr0, cr14, cr14, {0}
   142d0:	0e0e0e0e 	cdpeq	14, 0, cr0, cr14, cr14, {0}
   142d4:	0e0e0e0e 	cdpeq	14, 0, cr0, cr14, cr14, {0}
   142d8:	0e0e0e0e 	cdpeq	14, 0, cr0, cr14, cr14, {0}
   142dc:	0e0e0e0e 	cdpeq	14, 0, cr0, cr14, cr14, {0}
   142e0:	0e0e0e0e 	cdpeq	14, 0, cr0, cr14, cr14, {0}
   142e4:	0e0e0e0e 	cdpeq	14, 0, cr0, cr14, cr14, {0}
   142e8:	0e0e0e0e 	cdpeq	14, 0, cr0, cr14, cr14, {0}
   142ec:	0e0e0e0e 	cdpeq	14, 0, cr0, cr14, cr14, {0}
   142f0:	0e0e0e0e 	cdpeq	14, 0, cr0, cr14, cr14, {0}
   142f4:	0e0e0e0e 	cdpeq	14, 0, cr0, cr14, cr14, {0}
   142f8:	0e0e0e0e 	cdpeq	14, 0, cr0, cr14, cr14, {0}
   142fc:	0e0e0e0e 	cdpeq	14, 0, cr0, cr14, cr14, {0}
   14300:	0f0f0f0f 	svceq	0x000f0f0f
   14304:	0f0f0f0f 	svceq	0x000f0f0f
   14308:	0f0f0f0f 	svceq	0x000f0f0f
   1430c:	0f0f0f0f 	svceq	0x000f0f0f
   14310:	0f0f0f0f 	svceq	0x000f0f0f
   14314:	0f0f0f0f 	svceq	0x000f0f0f
   14318:	0f0f0f0f 	svceq	0x000f0f0f
   1431c:	0f0f0f0f 	svceq	0x000f0f0f
   14320:	0f0f0f0f 	svceq	0x000f0f0f
   14324:	0f0f0f0f 	svceq	0x000f0f0f
   14328:	0f0f0f0f 	svceq	0x000f0f0f
   1432c:	0f0f0f0f 	svceq	0x000f0f0f
   14330:	0f0f0f0f 	svceq	0x000f0f0f
   14334:	0f0f0f0f 	svceq	0x000f0f0f
   14338:	0f0f0f0f 	svceq	0x000f0f0f
   1433c:	0f0f0f0f 	svceq	0x000f0f0f
   14340:	11100000 	tstne	r0, r0
   14344:	13131212 	tstne	r3, #536870913	; 0x20000001
   14348:	14141414 	ldrne	r1, [r4], #-1044	; 0x414
   1434c:	15151515 	ldrne	r1, [r5, #-1301]	; 0x515
   14350:	16161616 			; <UNDEFINED> instruction: 0x16161616
   14354:	16161616 			; <UNDEFINED> instruction: 0x16161616
   14358:	17171717 			; <UNDEFINED> instruction: 0x17171717
   1435c:	17171717 			; <UNDEFINED> instruction: 0x17171717
   14360:	18181818 	ldmdane	r8, {r3, r4, fp, ip}
   14364:	18181818 	ldmdane	r8, {r3, r4, fp, ip}
   14368:	18181818 	ldmdane	r8, {r3, r4, fp, ip}
   1436c:	18181818 	ldmdane	r8, {r3, r4, fp, ip}
   14370:	19191919 	ldmdbne	r9, {r0, r3, r4, r8, fp, ip}
   14374:	19191919 	ldmdbne	r9, {r0, r3, r4, r8, fp, ip}
   14378:	19191919 	ldmdbne	r9, {r0, r3, r4, r8, fp, ip}
   1437c:	19191919 	ldmdbne	r9, {r0, r3, r4, r8, fp, ip}
   14380:	1a1a1a1a 	bne	69abf0 <malloc_base+0x67f1a4>
   14384:	1a1a1a1a 	bne	69abf4 <malloc_base+0x67f1a8>
   14388:	1a1a1a1a 	bne	69abf8 <malloc_base+0x67f1ac>
   1438c:	1a1a1a1a 	bne	69abfc <malloc_base+0x67f1b0>
   14390:	1a1a1a1a 	bne	69ac00 <malloc_base+0x67f1b4>
   14394:	1a1a1a1a 	bne	69ac04 <malloc_base+0x67f1b8>
   14398:	1a1a1a1a 	bne	69ac08 <malloc_base+0x67f1bc>
   1439c:	1a1a1a1a 	bne	69ac0c <malloc_base+0x67f1c0>
   143a0:	1b1b1b1b 	blne	6db014 <malloc_base+0x6bf5c8>
   143a4:	1b1b1b1b 	blne	6db018 <malloc_base+0x6bf5cc>
   143a8:	1b1b1b1b 	blne	6db01c <malloc_base+0x6bf5d0>
   143ac:	1b1b1b1b 	blne	6db020 <malloc_base+0x6bf5d4>
   143b0:	1b1b1b1b 	blne	6db024 <malloc_base+0x6bf5d8>
   143b4:	1b1b1b1b 	blne	6db028 <malloc_base+0x6bf5dc>
   143b8:	1b1b1b1b 	blne	6db02c <malloc_base+0x6bf5e0>
   143bc:	1b1b1b1b 	blne	6db030 <malloc_base+0x6bf5e4>
   143c0:	1c1c1c1c 	ldcne	12, cr1, [ip], {28}
   143c4:	1c1c1c1c 	ldcne	12, cr1, [ip], {28}
   143c8:	1c1c1c1c 	ldcne	12, cr1, [ip], {28}
   143cc:	1c1c1c1c 	ldcne	12, cr1, [ip], {28}
   143d0:	1c1c1c1c 	ldcne	12, cr1, [ip], {28}
   143d4:	1c1c1c1c 	ldcne	12, cr1, [ip], {28}
   143d8:	1c1c1c1c 	ldcne	12, cr1, [ip], {28}
   143dc:	1c1c1c1c 	ldcne	12, cr1, [ip], {28}
   143e0:	1c1c1c1c 	ldcne	12, cr1, [ip], {28}
   143e4:	1c1c1c1c 	ldcne	12, cr1, [ip], {28}
   143e8:	1c1c1c1c 	ldcne	12, cr1, [ip], {28}
   143ec:	1c1c1c1c 	ldcne	12, cr1, [ip], {28}
   143f0:	1c1c1c1c 	ldcne	12, cr1, [ip], {28}
   143f4:	1c1c1c1c 	ldcne	12, cr1, [ip], {28}
   143f8:	1c1c1c1c 	ldcne	12, cr1, [ip], {28}
   143fc:	1c1c1c1c 	ldcne	12, cr1, [ip], {28}
   14400:	1d1d1d1d 	ldcne	13, cr1, [sp, #-116]	; 0xffffff8c
   14404:	1d1d1d1d 	ldcne	13, cr1, [sp, #-116]	; 0xffffff8c
   14408:	1d1d1d1d 	ldcne	13, cr1, [sp, #-116]	; 0xffffff8c
   1440c:	1d1d1d1d 	ldcne	13, cr1, [sp, #-116]	; 0xffffff8c
   14410:	1d1d1d1d 	ldcne	13, cr1, [sp, #-116]	; 0xffffff8c
   14414:	1d1d1d1d 	ldcne	13, cr1, [sp, #-116]	; 0xffffff8c
   14418:	1d1d1d1d 	ldcne	13, cr1, [sp, #-116]	; 0xffffff8c
   1441c:	1d1d1d1d 	ldcne	13, cr1, [sp, #-116]	; 0xffffff8c
   14420:	1d1d1d1d 	ldcne	13, cr1, [sp, #-116]	; 0xffffff8c
   14424:	1d1d1d1d 	ldcne	13, cr1, [sp, #-116]	; 0xffffff8c
   14428:	1d1d1d1d 	ldcne	13, cr1, [sp, #-116]	; 0xffffff8c
   1442c:	1d1d1d1d 	ldcne	13, cr1, [sp, #-116]	; 0xffffff8c
   14430:	1d1d1d1d 	ldcne	13, cr1, [sp, #-116]	; 0xffffff8c
   14434:	1d1d1d1d 	ldcne	13, cr1, [sp, #-116]	; 0xffffff8c
   14438:	1d1d1d1d 	ldcne	13, cr1, [sp, #-116]	; 0xffffff8c
   1443c:	1d1d1d1d 	ldcne	13, cr1, [sp, #-116]	; 0xffffff8c

00014440 <extra_dbits>:
	...
   14450:	00000001 	andeq	r0, r0, r1
   14454:	00000001 	andeq	r0, r0, r1
   14458:	00000002 	andeq	r0, r0, r2
   1445c:	00000002 	andeq	r0, r0, r2
   14460:	00000003 	andeq	r0, r0, r3
   14464:	00000003 	andeq	r0, r0, r3
   14468:	00000004 	andeq	r0, r0, r4
   1446c:	00000004 	andeq	r0, r0, r4
   14470:	00000005 	andeq	r0, r0, r5
   14474:	00000005 	andeq	r0, r0, r5
   14478:	00000006 	andeq	r0, r0, r6
   1447c:	00000006 	andeq	r0, r0, r6
   14480:	00000007 	andeq	r0, r0, r7
   14484:	00000007 	andeq	r0, r0, r7
   14488:	00000008 	andeq	r0, r0, r8
   1448c:	00000008 	andeq	r0, r0, r8
   14490:	00000009 	andeq	r0, r0, r9
   14494:	00000009 	andeq	r0, r0, r9
   14498:	0000000a 	andeq	r0, r0, sl
   1449c:	0000000a 	andeq	r0, r0, sl
   144a0:	0000000b 	andeq	r0, r0, fp
   144a4:	0000000b 	andeq	r0, r0, fp
   144a8:	0000000c 	andeq	r0, r0, ip
   144ac:	0000000c 	andeq	r0, r0, ip
   144b0:	0000000d 	andeq	r0, r0, sp
   144b4:	0000000d 	andeq	r0, r0, sp

000144b8 <base_dist>:
   144b8:	00000000 	andeq	r0, r0, r0
   144bc:	00000001 	andeq	r0, r0, r1
   144c0:	00000002 	andeq	r0, r0, r2
   144c4:	00000003 	andeq	r0, r0, r3
   144c8:	00000004 	andeq	r0, r0, r4
   144cc:	00000006 	andeq	r0, r0, r6
   144d0:	00000008 	andeq	r0, r0, r8
   144d4:	0000000c 	andeq	r0, r0, ip
   144d8:	00000010 	andeq	r0, r0, r0, lsl r0
   144dc:	00000018 	andeq	r0, r0, r8, lsl r0
   144e0:	00000020 	andeq	r0, r0, r0, lsr #32
   144e4:	00000030 	andeq	r0, r0, r0, lsr r0
   144e8:	00000040 	andeq	r0, r0, r0, asr #32
   144ec:	00000060 	andeq	r0, r0, r0, rrx
   144f0:	00000080 	andeq	r0, r0, r0, lsl #1
   144f4:	000000c0 	andeq	r0, r0, r0, asr #1
   144f8:	00000100 	andeq	r0, r0, r0, lsl #2
   144fc:	00000180 	andeq	r0, r0, r0, lsl #3
   14500:	00000200 	andeq	r0, r0, r0, lsl #4
   14504:	00000300 	andeq	r0, r0, r0, lsl #6
   14508:	00000400 	andeq	r0, r0, r0, lsl #8
   1450c:	00000600 	andeq	r0, r0, r0, lsl #12
   14510:	00000800 	andeq	r0, r0, r0, lsl #16
   14514:	00000c00 	andeq	r0, r0, r0, lsl #24
   14518:	00001000 	andeq	r1, r0, r0
   1451c:	00001800 	andeq	r1, r0, r0, lsl #16
   14520:	00002000 	andeq	r2, r0, r0
   14524:	00003000 	andeq	r3, r0, r0
   14528:	00004000 	andeq	r4, r0, r0
   1452c:	00006000 	andeq	r6, r0, r0

00014530 <static_ltree>:
   14530:	0008000c 	andeq	r0, r8, ip
   14534:	0008008c 	andeq	r0, r8, ip, lsl #1
   14538:	0008004c 	andeq	r0, r8, ip, asr #32
   1453c:	000800cc 	andeq	r0, r8, ip, asr #1
   14540:	0008002c 	andeq	r0, r8, ip, lsr #32
   14544:	000800ac 	andeq	r0, r8, ip, lsr #1
   14548:	0008006c 	andeq	r0, r8, ip, rrx
   1454c:	000800ec 	andeq	r0, r8, ip, ror #1
   14550:	0008001c 	andeq	r0, r8, ip, lsl r0
   14554:	0008009c 	muleq	r8, ip, r0
   14558:	0008005c 	andeq	r0, r8, ip, asr r0
   1455c:	000800dc 	ldrdeq	r0, [r8], -ip
   14560:	0008003c 	andeq	r0, r8, ip, lsr r0
   14564:	000800bc 	strheq	r0, [r8], -ip
   14568:	0008007c 	andeq	r0, r8, ip, ror r0
   1456c:	000800fc 	strdeq	r0, [r8], -ip
   14570:	00080002 	andeq	r0, r8, r2
   14574:	00080082 	andeq	r0, r8, r2, lsl #1
   14578:	00080042 	andeq	r0, r8, r2, asr #32
   1457c:	000800c2 	andeq	r0, r8, r2, asr #1
   14580:	00080022 	andeq	r0, r8, r2, lsr #32
   14584:	000800a2 	andeq	r0, r8, r2, lsr #1
   14588:	00080062 	andeq	r0, r8, r2, rrx
   1458c:	000800e2 	andeq	r0, r8, r2, ror #1
   14590:	00080012 	andeq	r0, r8, r2, lsl r0
   14594:	00080092 	muleq	r8, r2, r0
   14598:	00080052 	andeq	r0, r8, r2, asr r0
   1459c:	000800d2 	ldrdeq	r0, [r8], -r2
   145a0:	00080032 	andeq	r0, r8, r2, lsr r0
   145a4:	000800b2 	strheq	r0, [r8], -r2
   145a8:	00080072 	andeq	r0, r8, r2, ror r0
   145ac:	000800f2 	strdeq	r0, [r8], -r2
   145b0:	0008000a 	andeq	r0, r8, sl
   145b4:	0008008a 	andeq	r0, r8, sl, lsl #1
   145b8:	0008004a 	andeq	r0, r8, sl, asr #32
   145bc:	000800ca 	andeq	r0, r8, sl, asr #1
   145c0:	0008002a 	andeq	r0, r8, sl, lsr #32
   145c4:	000800aa 	andeq	r0, r8, sl, lsr #1
   145c8:	0008006a 	andeq	r0, r8, sl, rrx
   145cc:	000800ea 	andeq	r0, r8, sl, ror #1
   145d0:	0008001a 	andeq	r0, r8, sl, lsl r0
   145d4:	0008009a 	muleq	r8, sl, r0
   145d8:	0008005a 	andeq	r0, r8, sl, asr r0
   145dc:	000800da 	ldrdeq	r0, [r8], -sl
   145e0:	0008003a 	andeq	r0, r8, sl, lsr r0
   145e4:	000800ba 	strheq	r0, [r8], -sl
   145e8:	0008007a 	andeq	r0, r8, sl, ror r0
   145ec:	000800fa 	strdeq	r0, [r8], -sl
   145f0:	00080006 	andeq	r0, r8, r6
   145f4:	00080086 	andeq	r0, r8, r6, lsl #1
   145f8:	00080046 	andeq	r0, r8, r6, asr #32
   145fc:	000800c6 	andeq	r0, r8, r6, asr #1
   14600:	00080026 	andeq	r0, r8, r6, lsr #32
   14604:	000800a6 	andeq	r0, r8, r6, lsr #1
   14608:	00080066 	andeq	r0, r8, r6, rrx
   1460c:	000800e6 	andeq	r0, r8, r6, ror #1
   14610:	00080016 	andeq	r0, r8, r6, lsl r0
   14614:	00080096 	muleq	r8, r6, r0
   14618:	00080056 	andeq	r0, r8, r6, asr r0
   1461c:	000800d6 	ldrdeq	r0, [r8], -r6
   14620:	00080036 	andeq	r0, r8, r6, lsr r0
   14624:	000800b6 	strheq	r0, [r8], -r6
   14628:	00080076 	andeq	r0, r8, r6, ror r0
   1462c:	000800f6 	strdeq	r0, [r8], -r6
   14630:	0008000e 	andeq	r0, r8, lr
   14634:	0008008e 	andeq	r0, r8, lr, lsl #1
   14638:	0008004e 	andeq	r0, r8, lr, asr #32
   1463c:	000800ce 	andeq	r0, r8, lr, asr #1
   14640:	0008002e 	andeq	r0, r8, lr, lsr #32
   14644:	000800ae 	andeq	r0, r8, lr, lsr #1
   14648:	0008006e 	andeq	r0, r8, lr, rrx
   1464c:	000800ee 	andeq	r0, r8, lr, ror #1
   14650:	0008001e 	andeq	r0, r8, lr, lsl r0
   14654:	0008009e 	muleq	r8, lr, r0
   14658:	0008005e 	andeq	r0, r8, lr, asr r0
   1465c:	000800de 	ldrdeq	r0, [r8], -lr
   14660:	0008003e 	andeq	r0, r8, lr, lsr r0
   14664:	000800be 	strheq	r0, [r8], -lr
   14668:	0008007e 	andeq	r0, r8, lr, ror r0
   1466c:	000800fe 	strdeq	r0, [r8], -lr
   14670:	00080001 	andeq	r0, r8, r1
   14674:	00080081 	andeq	r0, r8, r1, lsl #1
   14678:	00080041 	andeq	r0, r8, r1, asr #32
   1467c:	000800c1 	andeq	r0, r8, r1, asr #1
   14680:	00080021 	andeq	r0, r8, r1, lsr #32
   14684:	000800a1 	andeq	r0, r8, r1, lsr #1
   14688:	00080061 	andeq	r0, r8, r1, rrx
   1468c:	000800e1 	andeq	r0, r8, r1, ror #1
   14690:	00080011 	andeq	r0, r8, r1, lsl r0
   14694:	00080091 	muleq	r8, r1, r0
   14698:	00080051 	andeq	r0, r8, r1, asr r0
   1469c:	000800d1 	ldrdeq	r0, [r8], -r1
   146a0:	00080031 	andeq	r0, r8, r1, lsr r0
   146a4:	000800b1 	strheq	r0, [r8], -r1
   146a8:	00080071 	andeq	r0, r8, r1, ror r0
   146ac:	000800f1 	strdeq	r0, [r8], -r1
   146b0:	00080009 	andeq	r0, r8, r9
   146b4:	00080089 	andeq	r0, r8, r9, lsl #1
   146b8:	00080049 	andeq	r0, r8, r9, asr #32
   146bc:	000800c9 	andeq	r0, r8, r9, asr #1
   146c0:	00080029 	andeq	r0, r8, r9, lsr #32
   146c4:	000800a9 	andeq	r0, r8, r9, lsr #1
   146c8:	00080069 	andeq	r0, r8, r9, rrx
   146cc:	000800e9 	andeq	r0, r8, r9, ror #1
   146d0:	00080019 	andeq	r0, r8, r9, lsl r0
   146d4:	00080099 	muleq	r8, r9, r0
   146d8:	00080059 	andeq	r0, r8, r9, asr r0
   146dc:	000800d9 	ldrdeq	r0, [r8], -r9
   146e0:	00080039 	andeq	r0, r8, r9, lsr r0
   146e4:	000800b9 	strheq	r0, [r8], -r9
   146e8:	00080079 	andeq	r0, r8, r9, ror r0
   146ec:	000800f9 	strdeq	r0, [r8], -r9
   146f0:	00080005 	andeq	r0, r8, r5
   146f4:	00080085 	andeq	r0, r8, r5, lsl #1
   146f8:	00080045 	andeq	r0, r8, r5, asr #32
   146fc:	000800c5 	andeq	r0, r8, r5, asr #1
   14700:	00080025 	andeq	r0, r8, r5, lsr #32
   14704:	000800a5 	andeq	r0, r8, r5, lsr #1
   14708:	00080065 	andeq	r0, r8, r5, rrx
   1470c:	000800e5 	andeq	r0, r8, r5, ror #1
   14710:	00080015 	andeq	r0, r8, r5, lsl r0
   14714:	00080095 	muleq	r8, r5, r0
   14718:	00080055 	andeq	r0, r8, r5, asr r0
   1471c:	000800d5 	ldrdeq	r0, [r8], -r5
   14720:	00080035 	andeq	r0, r8, r5, lsr r0
   14724:	000800b5 	strheq	r0, [r8], -r5
   14728:	00080075 	andeq	r0, r8, r5, ror r0
   1472c:	000800f5 	strdeq	r0, [r8], -r5
   14730:	0008000d 	andeq	r0, r8, sp
   14734:	0008008d 	andeq	r0, r8, sp, lsl #1
   14738:	0008004d 	andeq	r0, r8, sp, asr #32
   1473c:	000800cd 	andeq	r0, r8, sp, asr #1
   14740:	0008002d 	andeq	r0, r8, sp, lsr #32
   14744:	000800ad 	andeq	r0, r8, sp, lsr #1
   14748:	0008006d 	andeq	r0, r8, sp, rrx
   1474c:	000800ed 	andeq	r0, r8, sp, ror #1
   14750:	0008001d 	andeq	r0, r8, sp, lsl r0
   14754:	0008009d 	muleq	r8, sp, r0
   14758:	0008005d 	andeq	r0, r8, sp, asr r0
   1475c:	000800dd 	ldrdeq	r0, [r8], -sp
   14760:	0008003d 	andeq	r0, r8, sp, lsr r0
   14764:	000800bd 	strheq	r0, [r8], -sp
   14768:	0008007d 	andeq	r0, r8, sp, ror r0
   1476c:	000800fd 	strdeq	r0, [r8], -sp
   14770:	00090013 	andeq	r0, r9, r3, lsl r0
   14774:	00090113 	andeq	r0, r9, r3, lsl r1
   14778:	00090093 	muleq	r9, r3, r0
   1477c:	00090193 	muleq	r9, r3, r1
   14780:	00090053 	andeq	r0, r9, r3, asr r0
   14784:	00090153 	andeq	r0, r9, r3, asr r1
   14788:	000900d3 	ldrdeq	r0, [r9], -r3
   1478c:	000901d3 	ldrdeq	r0, [r9], -r3
   14790:	00090033 	andeq	r0, r9, r3, lsr r0
   14794:	00090133 	andeq	r0, r9, r3, lsr r1
   14798:	000900b3 	strheq	r0, [r9], -r3
   1479c:	000901b3 			; <UNDEFINED> instruction: 0x000901b3
   147a0:	00090073 	andeq	r0, r9, r3, ror r0
   147a4:	00090173 	andeq	r0, r9, r3, ror r1
   147a8:	000900f3 	strdeq	r0, [r9], -r3
   147ac:	000901f3 	strdeq	r0, [r9], -r3
   147b0:	0009000b 	andeq	r0, r9, fp
   147b4:	0009010b 	andeq	r0, r9, fp, lsl #2
   147b8:	0009008b 	andeq	r0, r9, fp, lsl #1
   147bc:	0009018b 	andeq	r0, r9, fp, lsl #3
   147c0:	0009004b 	andeq	r0, r9, fp, asr #32
   147c4:	0009014b 	andeq	r0, r9, fp, asr #2
   147c8:	000900cb 	andeq	r0, r9, fp, asr #1
   147cc:	000901cb 	andeq	r0, r9, fp, asr #3
   147d0:	0009002b 	andeq	r0, r9, fp, lsr #32
   147d4:	0009012b 	andeq	r0, r9, fp, lsr #2
   147d8:	000900ab 	andeq	r0, r9, fp, lsr #1
   147dc:	000901ab 	andeq	r0, r9, fp, lsr #3
   147e0:	0009006b 	andeq	r0, r9, fp, rrx
   147e4:	0009016b 	andeq	r0, r9, fp, ror #2
   147e8:	000900eb 	andeq	r0, r9, fp, ror #1
   147ec:	000901eb 	andeq	r0, r9, fp, ror #3
   147f0:	0009001b 	andeq	r0, r9, fp, lsl r0
   147f4:	0009011b 	andeq	r0, r9, fp, lsl r1
   147f8:	0009009b 	muleq	r9, fp, r0
   147fc:	0009019b 	muleq	r9, fp, r1
   14800:	0009005b 	andeq	r0, r9, fp, asr r0
   14804:	0009015b 	andeq	r0, r9, fp, asr r1
   14808:	000900db 	ldrdeq	r0, [r9], -fp
   1480c:	000901db 	ldrdeq	r0, [r9], -fp
   14810:	0009003b 	andeq	r0, r9, fp, lsr r0
   14814:	0009013b 	andeq	r0, r9, fp, lsr r1
   14818:	000900bb 	strheq	r0, [r9], -fp
   1481c:	000901bb 			; <UNDEFINED> instruction: 0x000901bb
   14820:	0009007b 	andeq	r0, r9, fp, ror r0
   14824:	0009017b 	andeq	r0, r9, fp, ror r1
   14828:	000900fb 	strdeq	r0, [r9], -fp
   1482c:	000901fb 	strdeq	r0, [r9], -fp
   14830:	00090007 	andeq	r0, r9, r7
   14834:	00090107 	andeq	r0, r9, r7, lsl #2
   14838:	00090087 	andeq	r0, r9, r7, lsl #1
   1483c:	00090187 	andeq	r0, r9, r7, lsl #3
   14840:	00090047 	andeq	r0, r9, r7, asr #32
   14844:	00090147 	andeq	r0, r9, r7, asr #2
   14848:	000900c7 	andeq	r0, r9, r7, asr #1
   1484c:	000901c7 	andeq	r0, r9, r7, asr #3
   14850:	00090027 	andeq	r0, r9, r7, lsr #32
   14854:	00090127 	andeq	r0, r9, r7, lsr #2
   14858:	000900a7 	andeq	r0, r9, r7, lsr #1
   1485c:	000901a7 	andeq	r0, r9, r7, lsr #3
   14860:	00090067 	andeq	r0, r9, r7, rrx
   14864:	00090167 	andeq	r0, r9, r7, ror #2
   14868:	000900e7 	andeq	r0, r9, r7, ror #1
   1486c:	000901e7 	andeq	r0, r9, r7, ror #3
   14870:	00090017 	andeq	r0, r9, r7, lsl r0
   14874:	00090117 	andeq	r0, r9, r7, lsl r1
   14878:	00090097 	muleq	r9, r7, r0
   1487c:	00090197 	muleq	r9, r7, r1
   14880:	00090057 	andeq	r0, r9, r7, asr r0
   14884:	00090157 	andeq	r0, r9, r7, asr r1
   14888:	000900d7 	ldrdeq	r0, [r9], -r7
   1488c:	000901d7 	ldrdeq	r0, [r9], -r7
   14890:	00090037 	andeq	r0, r9, r7, lsr r0
   14894:	00090137 	andeq	r0, r9, r7, lsr r1
   14898:	000900b7 	strheq	r0, [r9], -r7
   1489c:	000901b7 			; <UNDEFINED> instruction: 0x000901b7
   148a0:	00090077 	andeq	r0, r9, r7, ror r0
   148a4:	00090177 	andeq	r0, r9, r7, ror r1
   148a8:	000900f7 	strdeq	r0, [r9], -r7
   148ac:	000901f7 	strdeq	r0, [r9], -r7
   148b0:	0009000f 	andeq	r0, r9, pc
   148b4:	0009010f 	andeq	r0, r9, pc, lsl #2
   148b8:	0009008f 	andeq	r0, r9, pc, lsl #1
   148bc:	0009018f 	andeq	r0, r9, pc, lsl #3
   148c0:	0009004f 	andeq	r0, r9, pc, asr #32
   148c4:	0009014f 	andeq	r0, r9, pc, asr #2
   148c8:	000900cf 	andeq	r0, r9, pc, asr #1
   148cc:	000901cf 	andeq	r0, r9, pc, asr #3
   148d0:	0009002f 	andeq	r0, r9, pc, lsr #32
   148d4:	0009012f 	andeq	r0, r9, pc, lsr #2
   148d8:	000900af 	andeq	r0, r9, pc, lsr #1
   148dc:	000901af 	andeq	r0, r9, pc, lsr #3
   148e0:	0009006f 	andeq	r0, r9, pc, rrx
   148e4:	0009016f 	andeq	r0, r9, pc, ror #2
   148e8:	000900ef 	andeq	r0, r9, pc, ror #1
   148ec:	000901ef 	andeq	r0, r9, pc, ror #3
   148f0:	0009001f 	andeq	r0, r9, pc, lsl r0
   148f4:	0009011f 	andeq	r0, r9, pc, lsl r1
   148f8:	0009009f 	muleq	r9, pc, r0	; <UNPREDICTABLE>
   148fc:	0009019f 	muleq	r9, pc, r1	; <UNPREDICTABLE>
   14900:	0009005f 	andeq	r0, r9, pc, asr r0
   14904:	0009015f 	andeq	r0, r9, pc, asr r1
   14908:	000900df 	ldrdeq	r0, [r9], -pc	; <UNPREDICTABLE>
   1490c:	000901df 	ldrdeq	r0, [r9], -pc	; <UNPREDICTABLE>
   14910:	0009003f 	andeq	r0, r9, pc, lsr r0
   14914:	0009013f 	andeq	r0, r9, pc, lsr r1
   14918:	000900bf 	strheq	r0, [r9], -pc	; <UNPREDICTABLE>
   1491c:	000901bf 			; <UNDEFINED> instruction: 0x000901bf
   14920:	0009007f 	andeq	r0, r9, pc, ror r0
   14924:	0009017f 	andeq	r0, r9, pc, ror r1
   14928:	000900ff 	strdeq	r0, [r9], -pc	; <UNPREDICTABLE>
   1492c:	000901ff 	strdeq	r0, [r9], -pc	; <UNPREDICTABLE>
   14930:	00070000 	andeq	r0, r7, r0
   14934:	00070040 	andeq	r0, r7, r0, asr #32
   14938:	00070020 	andeq	r0, r7, r0, lsr #32
   1493c:	00070060 	andeq	r0, r7, r0, rrx
   14940:	00070010 	andeq	r0, r7, r0, lsl r0
   14944:	00070050 	andeq	r0, r7, r0, asr r0
   14948:	00070030 	andeq	r0, r7, r0, lsr r0
   1494c:	00070070 	andeq	r0, r7, r0, ror r0
   14950:	00070008 	andeq	r0, r7, r8
   14954:	00070048 	andeq	r0, r7, r8, asr #32
   14958:	00070028 	andeq	r0, r7, r8, lsr #32
   1495c:	00070068 	andeq	r0, r7, r8, rrx
   14960:	00070018 	andeq	r0, r7, r8, lsl r0
   14964:	00070058 	andeq	r0, r7, r8, asr r0
   14968:	00070038 	andeq	r0, r7, r8, lsr r0
   1496c:	00070078 	andeq	r0, r7, r8, ror r0
   14970:	00070004 	andeq	r0, r7, r4
   14974:	00070044 	andeq	r0, r7, r4, asr #32
   14978:	00070024 	andeq	r0, r7, r4, lsr #32
   1497c:	00070064 	andeq	r0, r7, r4, rrx
   14980:	00070014 	andeq	r0, r7, r4, lsl r0
   14984:	00070054 	andeq	r0, r7, r4, asr r0
   14988:	00070034 	andeq	r0, r7, r4, lsr r0
   1498c:	00070074 	andeq	r0, r7, r4, ror r0
   14990:	00080003 	andeq	r0, r8, r3
   14994:	00080083 	andeq	r0, r8, r3, lsl #1
   14998:	00080043 	andeq	r0, r8, r3, asr #32
   1499c:	000800c3 	andeq	r0, r8, r3, asr #1
   149a0:	00080023 	andeq	r0, r8, r3, lsr #32
   149a4:	000800a3 	andeq	r0, r8, r3, lsr #1
   149a8:	00080063 	andeq	r0, r8, r3, rrx
   149ac:	000800e3 	andeq	r0, r8, r3, ror #1

000149b0 <static_dtree>:
   149b0:	00050000 	andeq	r0, r5, r0
   149b4:	00050010 	andeq	r0, r5, r0, lsl r0
   149b8:	00050008 	andeq	r0, r5, r8
   149bc:	00050018 	andeq	r0, r5, r8, lsl r0
   149c0:	00050004 	andeq	r0, r5, r4
   149c4:	00050014 	andeq	r0, r5, r4, lsl r0
   149c8:	0005000c 	andeq	r0, r5, ip
   149cc:	0005001c 	andeq	r0, r5, ip, lsl r0
   149d0:	00050002 	andeq	r0, r5, r2
   149d4:	00050012 	andeq	r0, r5, r2, lsl r0
   149d8:	0005000a 	andeq	r0, r5, sl
   149dc:	0005001a 	andeq	r0, r5, sl, lsl r0
   149e0:	00050006 	andeq	r0, r5, r6
   149e4:	00050016 	andeq	r0, r5, r6, lsl r0
   149e8:	0005000e 	andeq	r0, r5, lr
   149ec:	0005001e 	andeq	r0, r5, lr, lsl r0
   149f0:	00050001 	andeq	r0, r5, r1
   149f4:	00050011 	andeq	r0, r5, r1, lsl r0
   149f8:	00050009 	andeq	r0, r5, r9
   149fc:	00050019 	andeq	r0, r5, r9, lsl r0
   14a00:	00050005 	andeq	r0, r5, r5
   14a04:	00050015 	andeq	r0, r5, r5, lsl r0
   14a08:	0005000d 	andeq	r0, r5, sp
   14a0c:	0005001d 	andeq	r0, r5, sp, lsl r0
   14a10:	00050003 	andeq	r0, r5, r3
   14a14:	00050013 	andeq	r0, r5, r3, lsl r0
   14a18:	0005000b 	andeq	r0, r5, fp
   14a1c:	0005001b 	andeq	r0, r5, fp, lsl r0
   14a20:	00050007 	andeq	r0, r5, r7
   14a24:	00050017 	andeq	r0, r5, r7, lsl r0

00014a28 <bl_order>:
   14a28:	00121110 	andseq	r1, r2, r0, lsl r1
   14a2c:	06090708 	streq	r0, [r9], -r8, lsl #14
   14a30:	040b050a 	streq	r0, [fp], #-1290	; 0x50a
   14a34:	020d030c 	andeq	r0, sp, #805306368	; 0x30000000
   14a38:	000f010e 	andeq	r0, pc, lr, lsl #2

00014a3c <extra_blbits>:
	...
   14a7c:	00000002 	andeq	r0, r0, r2
   14a80:	00000003 	andeq	r0, r0, r3
   14a84:	00000007 	andeq	r0, r0, r7

Disassembly of section .data:

00014a88 <twaindef>:
   14a88:	59659c78 	stmdbpl	r5!, {r3, r4, r5, r6, sl, fp, ip, pc}^
   14a8c:	b8db934d 	ldmlt	fp, {r0, r2, r3, r6, r8, r9, ip, pc}^
   14a90:	57e3bd11 			; <UNDEFINED> instruction: 0x57e3bd11
   14a94:	d9c43e20 	stmible	r4, {r5, r9, sl, fp, ip, sp}^
   14a98:	92aa692a 	adcls	r6, sl, #688128	; 0xa8000
   14a9c:	d48732dc 	strle	r3, [r7], #732	; 0x2dc
   14aa0:	3b59b278 	blcc	1681488 <malloc_base+0x1665a3c>
   14aa4:	76baceb5 			; <UNDEFINED> instruction: 0x76baceb5
   14aa8:	215cd95c 	cmpcs	ip, ip, asr r9
   14aac:	02b12212 	adcseq	r2, r1, #536870913	; 0x20000001
   14ab0:	4a002e09 	bmi	202dc <malloc_base+0x4890>
   14ab4:	79f5fda3 	ldmibvc	r5!, {r0, r1, r5, r7, r8, sl, fp, ip, sp, lr, pc}^
   14ab8:	c6941baf 	ldrgt	r1, [r4], pc, lsr #23
   14abc:	e23c5f15 	eors	r5, ip, #84	; 0x54
   14ac0:	7ee8d007 	cdpvc	0, 14, cr13, cr8, cr7, {0}
   14ac4:	d375fafd 	cmnle	r5, #1036288	; 0xfd000
   14ac8:	4f8fe798 	svcmi	0x008fe798
   14acc:	ff7ebe5f 			; <UNDEFINED> instruction: 0xff7ebe5f
   14ad0:	8feffdb3 	svchi	0x00effdb3
   14ad4:	1d7cc60f 	ldclne	6, cr12, [ip, #-60]!	; 0xffffffc4
   14ad8:	2ba3b143 	blcs	fe900fec <malloc_base+0xfe8e55a0>
   14adc:	6cfde0f6 	ldclvs	0, cr14, [sp], #984	; 0x3d8
   14ae0:	e4352d9d 	ldrt	r2, [r5], #-3485	; 0xd9d
   14ae4:	f6c1e61c 			; <UNDEFINED> instruction: 0xf6c1e61c
   14ae8:	ed60faee 	vstmdb	r0!, {s31-s268}
   14aec:	97dbd1d7 			; <UNDEFINED> instruction: 0x97dbd1d7
   14af0:	54b8f175 	ldrtpl	pc, [r8], #373	; 0x175	; <UNPREDICTABLE>
   14af4:	b9fbdcfd 	ldmiblt	fp!, {r0, r2, r3, r4, r5, r6, r7, sl, fp, ip, lr, pc}^
   14af8:	15b474da 	ldrne	r7, [r4, #1242]!	; 0x4da
   14afc:	f10bb357 			; <UNDEFINED> instruction: 0xf10bb357
   14b00:	5976aee2 	ldmdbpl	r6!, {r1, r5, r6, r7, r9, sl, fp, sp, pc}^
   14b04:	e2a675ab 	adc	r7, r6, #717225984	; 0x2ac00000
   14b08:	ddc75e27 	stclle	14, cr5, [r7, #156]	; 0x9c
   14b0c:	943edb35 	ldrtls	sp, [lr], #-2869	; 0xb35
   14b10:	77171525 	ldrvc	r1, [r7, -r5, lsr #10]
   14b14:	7e3dcdd6 	mrcvc	13, 1, ip, cr13, cr6, {6}
   14b18:	f22d76f5 	vmin.s32	<illegal reg q3.5>, <illegal reg q14.5>, <illegal reg q10.5>
   14b1c:	f8cd71ce 			; <UNDEFINED> instruction: 0xf8cd71ce
   14b20:	9853db2f 	ldmdals	r3, {r0, r1, r2, r3, r5, r8, r9, fp, ip, lr, pc}^
   14b24:	c297d9fb 	addsgt	sp, r7, #4112384	; 0x3ec000
   14b28:	a5d75cb5 	ldrbge	r5, [r7, #3253]	; 0xcb5
   14b2c:	95f37169 	ldrbls	r7, [r3, #361]!	; 0x169
   14b30:	d4c5ae9b 	strble	sl, [r5], #3739	; 0xe9b
   14b34:	465fbf64 	ldrbmi	fp, [pc], -r4, ror #30
   14b38:	df0af05f 	svcle	0x000af05f
   14b3c:	3799c21e 			; <UNDEFINED> instruction: 0x3799c21e
   14b40:	68171570 	ldmdavs	r7, {r4, r5, r6, r8, sl, ip}
   14b44:	6ed5c5eb 	cdpvs	5, 13, cr12, cr5, cr11, {7}
   14b48:	76d1ae3c 			; <UNDEFINED> instruction: 0x76d1ae3c
   14b4c:	f8587b2e 			; <UNDEFINED> instruction: 0xf8587b2e
   14b50:	9c87b78b 	stcls	7, cr11, [r7], {139}	; 0x8b
   14b54:	b6ac61d6 	ssatlt	r6, #13, r6, asr #3
   14b58:	b57ad784 	ldrblt	sp, [sl, #-1924]!	; 0x784
   14b5c:	1f3a3705 	svcne	0x003a3705
   14b60:	775606af 	ldrbvc	r0, [r6, -pc, lsr #13]
   14b64:	10e1a97e 	rscne	sl, r1, lr, ror r9
   14b68:	7cd3edbd 	ldclvc	13, cr14, [r3], {189}	; 0xbd
   14b6c:	6162d7f2 	strdvs	sp, [r2, #-114]!	; 0xffffff8e
   14b70:	7d9218a4 	ldcvc	8, cr1, [r2, #656]	; 0x290
   14b74:	b4781be0 	ldrbtlt	r1, [r8], #-3040	; 0xbe0
   14b78:	6531ecec 	ldrvs	lr, [r1, #-3308]!	; 0xcec
   14b7c:	42f0f17b 	rscsmi	pc, r0, #-1073741794	; 0xc000001e
   14b80:	1bb5a76f 	blne	fed7e944 <malloc_base+0xfed62ef8>
   14b84:	b0f580ed 	rscslt	r8, r5, sp, ror #1
   14b88:	921cf635 	andsls	pc, ip, #55574528	; 0x3500000
   14b8c:	759f6749 	ldrvc	r6, [pc, #1865]	; 152dd <twaindef+0x855>
   14b90:	bd9dd19b 	ldfltd	f5, [sp, #620]	; 0x26c
   14b94:	4953742d 	ldmdbmi	r3, {r0, r2, r3, r5, sl, ip, sp, lr}^
   14b98:	30fcdf93 	smlalscc	sp, ip, r3, pc	; <UNPREDICTABLE>
   14b9c:	46f952a5 	ldrbtmi	r5, [r9], r5, lsr #5
   14ba0:	d5b7e5f5 	ldrle	lr, [r7, #1525]!	; 0x5f5
   14ba4:	d73f0edb 			; <UNDEFINED> instruction: 0xd73f0edb
   14ba8:	175563c9 	ldrbne	r6, [r5, -r9, asr #7]
   14bac:	23c70d13 	biccs	r0, r7, #1216	; 0x4c0
   14bb0:	bcdecc31 	ldcllt	12, cr12, [lr], {49}	; 0x31
   14bb4:	ae4e5b71 	vmovge.8	d14[3], r5
   14bb8:	a397e1df 	orrsge	lr, r7, #-1073741769	; 0xc0000037
   14bbc:	6f3c3301 	svcvs	0x003c3301
   14bc0:	3c06e4c3 	cfstrscc	mvf14, [r6], {195}	; 0xc3
   14bc4:	4fa363d4 	svcmi	0x00a363d4
   14bc8:	88764dd6 	ldmdahi	r6!, {r1, r2, r4, r6, r7, r8, sl, fp, lr}^
   14bcc:	981e45b0 	ldmdals	lr, {r4, r5, r7, r8, sl, lr}
   14bd0:	0b2f8593 	bleq	bf6224 <malloc_base+0xbda7d8>
   14bd4:	a8e0610f 	stmiage	r0!, {r0, r1, r2, r3, r8, sp, lr}^
   14bd8:	0d5d9843 	ldcleq	8, cr9, [sp, #-268]	; 0xfffffef4
   14bdc:	97eee669 	strbls	lr, [lr, r9, ror #12]!
   14be0:	0d82fb94 	vstreq	d15, [r2, #592]	; 0x250
   14be4:	fb2708d7 	blx	9d6f4a <malloc_base+0x9bb4fe>
   14be8:	9580e5d2 	strls	lr, [r0, #1490]	; 0x5d2
   14bec:	27a4c7b0 			; <UNDEFINED> instruction: 0x27a4c7b0
   14bf0:	392764fa 	stmdbcc	r7!, {r1, r3, r4, r5, r6, r7, sl, sp, lr}
   14bf4:	1ec8ae23 	cdpne	14, 12, cr10, cr8, cr3, {1}
   14bf8:	286294c7 	stmdacs	r2!, {r0, r1, r2, r6, r7, sl, ip, pc}^
   14bfc:	bd33f1a3 	ldfltd	f7, [r3, #-652]!	; 0xfffffd74
   14c00:	5ab9d3c5 	bpl	fee89b1c <malloc_base+0xfee6e0d0>
   14c04:	1b54b4fd 	blne	1542000 <malloc_base+0x15265b4>
   14c08:	84f0802a 	ldrbthi	r8, [r0], #42	; 0x2a
   14c0c:	605dce30 	subsvs	ip, sp, r0, lsr lr
   14c10:	aeae9f84 	cdpge	15, 10, cr9, cr14, cr4, {4}
   14c14:	9d297c20 	stcls	12, cr7, [r9, #-128]!	; 0xffffff80
   14c18:	a6c39b76 			; <UNDEFINED> instruction: 0xa6c39b76
   14c1c:	bd0917d0 	stclt	7, cr1, [r9, #-832]	; 0xfffffcc0
   14c20:	d087dae3 	addle	sp, r7, r3, ror #21
   14c24:	5f1182f7 	svcpl	0x001182f7
   14c28:	3a3bae7c 	bcc	f00620 <malloc_base+0xee4bd4>
   14c2c:	c97073af 	ldmdbgt	r0!, {r0, r1, r2, r3, r5, r7, r8, r9, ip, sp, lr}^
   14c30:	c8d9a4ba 	ldmgt	r9, {r1, r3, r4, r5, r7, sl, sp, pc}^
   14c34:	096479b1 	stmdbeq	r4!, {r0, r4, r5, r7, r8, fp, ip, sp, lr}^
   14c38:	2e795e6f 	cdpcs	14, 7, cr5, cr9, cr15, {3}
   14c3c:	7e9be0eb 	cdpvc	0, 9, cr14, cr11, cr11, {7}
   14c40:	4c516aed 	mrrcmi	10, 14, r6, r1, cr13
   14c44:	f6418124 			; <UNDEFINED> instruction: 0xf6418124
   14c48:	aae6ecd3 	bge	ff9cff9c <malloc_base+0xff9b4550>
   14c4c:	18ddc830 	ldmne	sp, {r4, r5, fp, lr, pc}^
   14c50:	9aeaefaa 	bls	ffad0b00 <malloc_base+0xffab50b4>
   14c54:	c643345d 			; <UNDEFINED> instruction: 0xc643345d
   14c58:	cdcd7e53 	stclgt	14, cr7, [sp, #332]	; 0x14c
   14c5c:	c145354b 	cmpgt	r5, fp, asr #10
   14c60:	b28112d0 	addlt	r1, r1, #13
   14c64:	08edb578 	stmiaeq	sp!, {r3, r4, r5, r6, r8, sl, ip, sp, pc}^
   14c68:	b3e2f6d8 	mvnlt	pc, #226492416	; 0xd800000
   14c6c:	0277b3b7 	rsbseq	fp, r7, #-603979774	; 0xdc000002
   14c70:	659f0bd9 	ldrvs	r0, [pc, #3033]	; 15851 <twaindef+0xdc9>
   14c74:	66cb1514 			; <UNDEFINED> instruction: 0x66cb1514
   14c78:	85a735f2 	strhi	r3, [r7, #1522]!	; 0x5f2
   14c7c:	34d9dea7 	ldrbcc	sp, [r9], #3751	; 0xea7
   14c80:	d12d0d77 	teqle	sp, r7, ror sp
   14c84:	b629c51f 			; <UNDEFINED> instruction: 0xb629c51f
   14c88:	4ce61661 	stclmi	6, cr1, [r6], #388	; 0x184
   14c8c:	bdf57788 	ldcllt	7, cr7, [r5, #544]!	; 0x220
   14c90:	d9486d5c 	stmdble	r8, {r2, r3, r4, r6, r8, sl, fp, sp, lr}^
   14c94:	750977e2 	strvc	r7, [r9, #-2018]	; 0x7e2
   14c98:	98750434 	ldmdals	r5!, {r2, r4, r5, sl}^
   14c9c:	0ccf81cf 	stfeqp	f0, [pc], {207}	; 0xcf
   14ca0:	ecb52fab 	ldc	15, cr2, [r5], #684	; 0x2ac
   14ca4:	aef44bf7 	vmovge.u8	r4, d20[7]
   14ca8:	c57b7ac0 	ldrbgt	r7, [fp, #-2752]!	; 0xac0
   14cac:	e01d83cb 	ands	r8, sp, fp, asr #7
   14cb0:	ec27e8b8 	stc	8, cr14, [r7], #-736	; 0xfffffd20
   14cb4:	9269cc7b 	rsbls	ip, r9, #31488	; 0x7b00
   14cb8:	18f1d295 	ldmne	r1!, {r0, r2, r4, r7, r9, ip, lr, pc}^
   14cbc:	7bcb9f3a 	blvc	ff2fc9ac <malloc_base+0xff2e0f60>
   14cc0:	679c4378 			; <UNDEFINED> instruction: 0x679c4378
   14cc4:	09a7ec10 	stmibeq	r7!, {r4, sl, fp, sp, lr, pc}
   14cc8:	4fa8c4b9 	svcmi	0x00a8c4b9
   14ccc:	e3a7de6e 			; <UNDEFINED> instruction: 0xe3a7de6e
   14cd0:	64b2e2fe 	ldrtvs	lr, [r2], #766	; 0x2fe
   14cd4:	eb525121 	bl	14a9160 <malloc_base+0x148d714>
   14cd8:	1cf2a41b 	cfldrdne	mvd10, [r2], #108	; 0x6c
   14cdc:	847df5c5 	ldrbthi	pc, [sp], #-1477	; 0x5c5	; <UNPREDICTABLE>
   14ce0:	8957e91f 	ldmdbhi	r7, {r0, r1, r2, r3, r4, r8, fp, sp, lr, pc}^
   14ce4:	ba188e2c 	blt	63859c <malloc_base+0x61cb50>
   14ce8:	b93d4f51 	ldmdblt	sp!, {r0, r4, r6, r8, r9, sl, fp, lr}
   14cec:	f3805bde 			; <UNDEFINED> instruction: 0xf3805bde
   14cf0:	3380b48a 	orrcc	fp, r0, #-1979711488	; 0x8a000000
   14cf4:	07806cc2 	streq	r6, [r0, r2, asr #25]
   14cf8:	463d5578 			; <UNDEFINED> instruction: 0x463d5578
   14cfc:	7cfc05a8 	cfldr64vc	mvdx0, [ip], #672	; 0x2a0
   14d00:	fbd1ec5f 	blx	ff48fe86 <malloc_base+0xff47443a>
   14d04:	a730b0da 			; <UNDEFINED> instruction: 0xa730b0da
   14d08:	14ecfb6a 	strbtne	pc, [ip], #2922	; 0xb6a	; <UNPREDICTABLE>
   14d0c:	96f30a96 	usatls	r0, #19, r6, lsl #21
   14d10:	67f64be4 	ldrbvs	r4, [r6, r4, ror #23]!
   14d14:	3ae0011c 	bcc	ff81518c <malloc_base+0xff7f9740>
   14d18:	e594c37b 	ldr	ip, [r4, #891]	; 0x37b
   14d1c:	09d840a3 	ldmibeq	r8, {r0, r1, r5, r7, lr}^
   14d20:	c1b8c59b 			; <UNDEFINED> instruction: 0xc1b8c59b
   14d24:	c34573a0 	movtgt	r7, #21408	; 0x53a0
   14d28:	17548f4a 	ldrbne	r8, [r4, -sl, asr #30]
   14d2c:	4bb55c61 	blmi	fed6beb8 <malloc_base+0xfed5046c>
   14d30:	130e4388 	movwne	r4, #58248	; 0xe388
   14d34:	8ba6365c 	blhi	fe9a26ac <malloc_base+0xfe986c60>
   14d38:	92c174d7 	sbcls	r7, r1, #-687865856	; 0xd7000000
   14d3c:	4e8d1bd9 	mcrmi	11, 4, r1, cr13, cr9, {6}
   14d40:	9e068242 	cdpls	2, 0, cr8, cr6, cr2, {2}
   14d44:	a2c7bf63 	sbcge	fp, r7, #396	; 0x18c
   14d48:	20752323 	rsbscs	r2, r5, r3, lsr #6
   14d4c:	e75f2069 	ldrb	r2, [pc, -r9, rrx]
   14d50:	8c462701 	mcrrhi	7, 0, r2, r6, cr1
   14d54:	bc1d023c 	lfmlt	f0, 4, [sp], {60}	; 0x3c
   14d58:	39b71ca4 	ldmibcc	r7!, {r2, r5, r7, sl, fp, ip}
   14d5c:	04c89100 	strbeq	r9, [r8], #256	; 0x100
   14d60:	598ae018 	stmibpl	sl, {r3, r4, sp, lr, pc}
   14d64:	b66c8cd6 			; <UNDEFINED> instruction: 0xb66c8cd6
   14d68:	1880cf29 	stmne	r0, {r0, r3, r5, r8, r9, sl, fp, lr, pc}
   14d6c:	ef0a8c2c 	svc	0x000a8c2c
   14d70:	0984ac7b 	stmibeq	r4, {r0, r1, r3, r4, r5, r6, sl, fp, sp, pc}
   14d74:	9b5960c4 	blls	166d08c <malloc_base+0x1651640>
   14d78:	a3fdf537 	mvnsge	pc, #230686720	; 0xdc00000
   14d7c:	a621151d 			; <UNDEFINED> instruction: 0xa621151d
   14d80:	1b58e1cf 	blne	164d4c4 <malloc_base+0x1631a78>
   14d84:	f2ea948f 	vaddhn.i64	d25, q13, <illegal reg q7.5>
   14d88:	148cb921 	strne	fp, [ip], #2337	; 0x921
   14d8c:	639ae844 	orrsvs	lr, sl, #4456448	; 0x440000
   14d90:	1e5762c8 	cdpne	2, 5, cr6, cr7, cr8, {6}
   14d94:	c271f46a 	rsbsgt	pc, r1, #1778384896	; 0x6a000000
   14d98:	011997ba 			; <UNDEFINED> instruction: 0x011997ba
   14d9c:	05088ac8 	streq	r8, [r8, #-2760]	; 0xac8
   14da0:	676eb82b 	strbvs	fp, [lr, -fp, lsr #16]!
   14da4:	ab4b11c2 	blge	12d94b4 <malloc_base+0x12bda68>
   14da8:	8858c1fb 	ldmdahi	r8, {r0, r1, r3, r4, r5, r6, r7, r8, lr, pc}^
   14dac:	e8e50d4f 	stmia	r5!, {r0, r1, r2, r3, r6, r8, sl, fp}^
   14db0:	2c48c93a 	mcrrcs	9, 3, ip, r8, cr10
   14db4:	5ff0f5cd 	svcpl	0x00f0f5cd
   14db8:	4ed4f09f 	mrcmi	0, 6, APSR_nzcv, cr4, cr15, {4}
   14dbc:	2403490e 	strcs	r4, [r3], #-2318	; 0x90e
   14dc0:	c334bb41 	teqgt	r4, #66560	; 0x10400
   14dc4:	4d441000 	stclmi	0, cr1, [r4, #-0]
   14dc8:	a637cd6a 	ldrtge	ip, [r7], -sl, ror #26
   14dcc:	f6516c00 			; <UNDEFINED> instruction: 0xf6516c00
   14dd0:	e6e3382a 	strbt	r3, [r3], sl, lsr #16
   14dd4:	b81e9e3e 	ldmdalt	lr, {r1, r2, r3, r4, r5, r9, sl, fp, ip, pc}
   14dd8:	0667d9e5 	strbteq	sp, [r7], -r5, ror #19
   14ddc:	4ca47528 	cfstr32mi	mvfx7, [r4], #160	; 0xa0
   14de0:	bd648045 	stcllt	0, cr8, [r4, #-276]!	; 0xfffffeec
   14de4:	7ef75641 	cdpvc	6, 15, cr5, cr7, cr1, {2}
   14de8:	a5232f21 	strge	r2, [r3, #-3873]!	; 0xf21
   14dec:	20ad4d66 	adccs	r4, sp, r6, ror #26
   14df0:	42f2135e 	rscsmi	r1, r2, #2013265921	; 0x78000001
   14df4:	bc24e5d8 	cfstr32lt	mvfx14, [r4], #-864	; 0xfffffca0
   14df8:	f925b91c 			; <UNDEFINED> instruction: 0xf925b91c
   14dfc:	90592333 	subsls	r2, r9, r3, lsr r3
   14e00:	4070c26d 	rsbsmi	ip, r0, sp, ror #4
   14e04:	6abc887d 	bvs	fef37000 <malloc_base+0xfef1b5b4>
   14e08:	2db80f46 	ldccs	15, cr0, [r8, #280]!	; 0x118
   14e0c:	b41a4829 	ldrlt	r4, [sl], #-2089	; 0x829
   14e10:	4cf16760 	ldclmi	7, cr6, [r1], #384	; 0x180
   14e14:	0397b21f 	orrseq	fp, r7, #-268435455	; 0xf0000001
   14e18:	f3188722 	vabd.u16	d8, d8, d18
   14e1c:	4c308813 	ldcmi	8, cr8, [r0], #-76	; 0xffffffb4
   14e20:	13589578 	cmpne	r8, #503316480	; 0x1e000000
   14e24:	c93cb997 	ldmdbgt	ip!, {r0, r1, r2, r4, r7, r8, fp, ip, sp, pc}
   14e28:	be430816 	mcrlt	8, 2, r0, cr3, cr6, {0}
   14e2c:	b724de1a 			; <UNDEFINED> instruction: 0xb724de1a
   14e30:	7be5c5d8 	blvc	ff986598 <malloc_base+0xff96ab4c>
   14e34:	35e300b1 	strbcc	r0, [r3, #177]!	; 0xb1
   14e38:	f12289cb 			; <UNDEFINED> instruction: 0xf12289cb
   14e3c:	13460108 	movtne	r0, #24840	; 0x6108
   14e40:	318f2ad3 	ldrdcc	r2, [pc, r3]
   14e44:	1767f8d1 			; <UNDEFINED> instruction: 0x1767f8d1
   14e48:	786e5903 	stmdavc	lr!, {r0, r1, r8, fp, ip, lr}^
   14e4c:	2b28a490 	blcs	a3e094 <malloc_base+0xa22648>
   14e50:	29c22a12 	stmibcs	r2, {r1, r4, r9, fp, sp}^
   14e54:	120a3b7d 	andne	r3, sl, #128000	; 0x1f400
   14e58:	3fe1ef03 	svccc	0x00e1ef03
   14e5c:	bb326ac7 	bllt	caf980 <malloc_base+0xc93f34>
   14e60:	67b1ebce 	ldrvs	lr, [r1, lr, asr #23]!
   14e64:	a4f69ddf 	ldrbtge	r9, [r6], #3551	; 0xddf
   14e68:	787023fe 	ldmdavc	r0!, {r1, r2, r3, r4, r5, r6, r7, r8, r9, sp}^
   14e6c:	f94a21f6 			; <UNDEFINED> instruction: 0xf94a21f6
   14e70:	0074eb30 	rsbseq	lr, r4, r0, lsr fp
   14e74:	079e227a 			; <UNDEFINED> instruction: 0x079e227a
   14e78:	46157371 			; <UNDEFINED> instruction: 0x46157371
   14e7c:	f4651e15 			; <UNDEFINED> instruction: 0xf4651e15
   14e80:	1cb69216 	lfmne	f1, 1, [r6], #88	; 0x58
   14e84:	224691ed 	subcs	r9, r6, #1073741883	; 0x4000003b
   14e88:	c59f3e9c 	ldrgt	r3, [pc, #3740]	; 15d2c <twain+0x320>
   14e8c:	47007893 			; <UNDEFINED> instruction: 0x47007893
   14e90:	e1567898 			; <UNDEFINED> instruction: 0xe1567898
   14e94:	6981106f 	stmibvs	r1, {r0, r1, r2, r3, r5, r6, ip}
   14e98:	c9a467fe 	stmibgt	r4!, {r1, r2, r3, r4, r5, r6, r7, r8, r9, sl, sp, lr}
   14e9c:	cc8ce08c 	stcgt	0, cr14, [ip], {140}	; 0x8c
   14ea0:	4264c8bb 	rsbmi	ip, r4, #12255232	; 0xbb0000
   14ea4:	05411ede 	strbeq	r1, [r1, #-3806]	; 0xede
   14ea8:	dbb3c50e 	blle	fed062e8 <malloc_base+0xfecea89c>
   14eac:	724009ef 	subvc	r0, r0, #3915776	; 0x3bc000
   14eb0:	99a7b57a 	stmibls	r7!, {r1, r3, r4, r5, r6, r8, sl, ip, sp, pc}
   14eb4:	ae12cb36 	vmovge.s16	ip, d2[0]
   14eb8:	011cc80f 	tsteq	ip, pc, lsl #16
   14ebc:	848d6323 	strhi	r6, [sp], #803	; 0x323
   14ec0:	06f11c20 	ldrbteq	r1, [r1], r0, lsr #24
   14ec4:	778f14b3 			; <UNDEFINED> instruction: 0x778f14b3
   14ec8:	cd5e2d6e 	ldclgt	13, cr2, [lr, #-440]	; 0xfffffe48
   14ecc:	f807bbb8 			; <UNDEFINED> instruction: 0xf807bbb8
   14ed0:	1915f060 	ldmdbne	r5, {r5, r6, ip, sp, lr, pc}
   14ed4:	247c5ba3 	ldrbtcs	r5, [ip], #-2979	; 0xba3
   14ed8:	982b1a02 	stmdals	fp!, {r1, r9, fp, ip}
   14edc:	a12f3782 	smlawbge	pc, r2, r7, r3	; <UNPREDICTABLE>
   14ee0:	d0c87730 	sbcle	r7, r8, r0, lsr r7
   14ee4:	26011ea0 	strcs	r1, [r1], -r0, lsr #29
   14ee8:	82595eca 	subshi	r5, r9, #3232	; 0xca0
   14eec:	ad50a210 	lfmge	f2, 3, [r0, #-64]	; 0xffffffc0
   14ef0:	ef4c97ba 	svc	0x004c97ba
   14ef4:	c87d4f85 	ldmdagt	sp!, {r0, r2, r7, r8, r9, sl, fp, lr}^
   14ef8:	cc62094a 	stclgt	9, cr0, [r2], #-296	; 0xfffffed8
   14efc:	3c83cdc1 	stccc	13, cr12, [r3], {193}	; 0xc1
   14f00:	4b0c803a 	blmi	334ff0 <malloc_base+0x3195a4>
   14f04:	9dd48e23 	ldclls	14, cr8, [r4, #140]	; 0x8c
   14f08:	1b2deeca 	blne	b90a38 <malloc_base+0xb74fec>
   14f0c:	139dcaea 	orrsne	ip, sp, #958464	; 0xea000
   14f10:	20103021 	andscs	r3, r0, r1, lsr #32
   14f14:	06e7985e 	usateq	r9, #7, lr, asr #16
   14f18:	dfb0430e 	svcle	0x00b0430e
   14f1c:	72c04341 	sbcvc	r4, r0, #67108865	; 0x4000001
   14f20:	6c9783f3 	ldcvs	3, cr8, [r7], {243}	; 0xf3
   14f24:	121dd1f7 	andsne	sp, sp, #-1073741763	; 0xc000003d
   14f28:	46419473 			; <UNDEFINED> instruction: 0x46419473
   14f2c:	6943d784 	stmdbvs	r3, {r2, r7, r8, r9, sl, ip, lr, pc}^
   14f30:	d3c1aa69 	bicle	sl, r1, #430080	; 0x69000
   14f34:	c32ce0c5 	teqgt	ip, #197	; 0xc5
   14f38:	1cb0525f 	lfmne	f5, 4, [r0], #380	; 0x17c
   14f3c:	b3403aab 	movtlt	r3, #2731	; 0xaab
   14f40:	51a5b005 			; <UNDEFINED> instruction: 0x51a5b005
   14f44:	10887b59 	addne	r7, r8, r9, asr fp
   14f48:	0a4867c4 	beq	122ee60 <malloc_base+0x1213414>
   14f4c:	4278ed88 	rsbsmi	lr, r8, #8704	; 0x2200
   14f50:	3b17674e 	blcc	5eec90 <malloc_base+0x5d3244>
   14f54:	cb0ee2b0 	blgt	3cda1c <malloc_base+0x3b1fd0>
   14f58:	9aa042a0 	bls	fe8259e0 <malloc_base+0xfe809f94>
   14f5c:	726bc669 	rsbvc	ip, fp, #110100480	; 0x6900000
   14f60:	e24b3539 	sub	r3, fp, #239075328	; 0xe400000
   14f64:	8b4b28d6 	blhi	12df2c4 <malloc_base+0x12c3878>
   14f68:	abd77805 	blge	ff5f2f84 <malloc_base+0xff5d7538>
   14f6c:	dcb5fb8f 	fldmiaxle	r5!, {d15-d85}	;@ Deprecated
   14f70:	e4050789 	str	r0, [r5], #-1929	; 0x789
   14f74:	be512212 	mrclt	2, 2, r2, cr1, cr2, {0}
   14f78:	16a59604 	strtne	r9, [r5], r4, lsl #12
   14f7c:	8114a06d 	tsthi	r4, sp, rrx
   14f80:	752aa82a 	strvc	sl, [sl, #-2090]!	; 0x82a
   14f84:	9e53fd45 	cdpls	13, 5, cr15, cr3, cr5, {2}
   14f88:	81e1bd66 	mvnhi	fp, r6, ror #26
   14f8c:	35cae226 	strbcc	lr, [sl, #550]	; 0x226
   14f90:	b4eff4ed 	strbtlt	pc, [pc], #1261	; 14f98 <twaindef+0x510>	; <UNPREDICTABLE>
   14f94:	4408cfb9 	strmi	ip, [r8], #-4025	; 0xfb9
   14f98:	80ca2bfc 	strdhi	r2, [sl], #188	; 0xbc
   14f9c:	395d756f 	ldmdbcc	sp, {r0, r1, r2, r3, r5, r6, r8, sl, ip, sp, lr}^
   14fa0:	499634a4 	ldmibmi	r6, {r2, r5, r7, sl, ip, sp}
   14fa4:	30e77676 	rsccc	r7, r7, r6, ror r6
   14fa8:	60d72ab8 	ldrhvs	r2, [r7], #168	; 0xa8
   14fac:	c9faa30a 	ldmibgt	sl!, {r1, r3, r8, r9, sp, pc}^
   14fb0:	9a4ed092 	bls	13c9200 <malloc_base+0x13ad7b4>
   14fb4:	99b4ad77 	ldmibls	r4!, {r0, r1, r2, r4, r5, r6, r8, sl, fp, sp, pc}
   14fb8:	73937492 	orrsvc	r7, r3, #-1845493760	; 0x92000000
   14fbc:	bfc47888 	svclt	0x00c47888
   14fc0:	b89882ba 	ldmlt	r8, {r1, r3, r4, r5, r7, r9, pc}
   14fc4:	fe0151aa 	cdp2	1, 0, cr5, cr1, cr10, {5}
   14fc8:	ec58d466 	cfldrd	mvd13, [r8], {102}	; 0x66
   14fcc:	aa0753fd 	bge	1e9fc8 <malloc_base+0x1ce57c>
   14fd0:	f4705c46 			; <UNDEFINED> instruction: 0xf4705c46
   14fd4:	90e4eb2b 	rscls	lr, r4, fp, lsr #22
   14fd8:	834605fd 	movthi	r0, #26109	; 0x65fd
   14fdc:	66061965 	strvs	r1, [r6], -r5, ror #18
   14fe0:	eaeadc06 	b	ffacc000 <malloc_base+0xffab05b4>
   14fe4:	a8928028 	ldmge	r2, {r3, r5, pc}
   14fe8:	a0b8191c 	adcsge	r1, r8, ip, lsl r9
   14fec:	6cda658a 	cfldr64vs	mvdx6, [sl], {138}	; 0x8a
   14ff0:	d191d394 			; <UNDEFINED> instruction: 0xd191d394
   14ff4:	bbed817c 	bllt	ffb755ec <malloc_base+0xffb59ba0>
   14ff8:	66185efd 			; <UNDEFINED> instruction: 0x66185efd
   14ffc:	d8052242 	stmdale	r5, {r1, r6, r9, sp}
   15000:	411934ca 	tstmi	r9, sl, asr #9
   15004:	1bc2caae 	blne	ff0c7ac4 <malloc_base+0xff0ac078>
   15008:	235e4dcf 	cmpcs	lr, #13248	; 0x33c0
   1500c:	fbd02423 	blx	ff41e0a2 <malloc_base+0xff402656>
   15010:	79925508 	ldmibvc	r2, {r3, r8, sl, ip, lr}
   15014:	278b8bb0 			; <UNDEFINED> instruction: 0x278b8bb0
   15018:	639636a1 	orrsvs	r3, r6, #168820736	; 0xa100000
   1501c:	189452d9 	ldmne	r4, {r0, r3, r4, r6, r7, r9, ip, lr}
   15020:	1549476c 	strbne	r4, [r9, #-1900]	; 0x76c
   15024:	19aa981c 	stmibne	sl!, {r2, r3, r4, fp, ip, pc}
   15028:	896b6bbf 	stmdbhi	fp!, {r0, r1, r2, r3, r4, r5, r7, r8, r9, fp, sp, lr}^
   1502c:	e171e4b4 	ldrh	lr, [r1, #-68]!	; 0xffffffbc
   15030:	f2fde894 			; <UNDEFINED> instruction: 0xf2fde894
   15034:	29296028 	stmdbcs	r9!, {r3, r5, sp, lr}
   15038:	724bcdcd 	subvc	ip, fp, #13120	; 0x3340
   1503c:	f725424f 			; <UNDEFINED> instruction: 0xf725424f
   15040:	4e6fff77 	mcrmi	15, 3, pc, cr15, cr7, {3}	; <UNPREDICTABLE>
   15044:	360d6a0c 	strcc	r6, [sp], -ip, lsl #20
   15048:	eadd7cfe 	b	ff774448 <malloc_base+0xff7589fc>
   1504c:	88095205 	stmdahi	r9, {r0, r2, r9, ip, lr}
   15050:	08282598 	stmdaeq	r8!, {r3, r4, r7, r8, sl, sp}
   15054:	21e2d09d 			; <UNDEFINED> instruction: 0x21e2d09d
   15058:	fa94c75d 	blx	fe546dd4 <malloc_base+0xfe52b388>
   1505c:	0997e4f7 	ldmibeq	r7, {r0, r1, r2, r4, r5, r6, r7, sl, sp, lr, pc}
   15060:	c074ca39 	rsbsgt	ip, r4, r9, lsr sl
   15064:	88bd1f4b 	pophi	{r0, r1, r3, r6, r8, r9, sl, fp, ip}
   15068:	868eea63 	strhi	lr, [lr], r3, ror #20
   1506c:	1c08e837 	stcne	8, cr14, [r8], {55}	; 0x37
   15070:	4074012d 	rsbsmi	r0, r4, sp, lsr #2
   15074:	981f03cd 	ldmdals	pc, {r0, r2, r3, r6, r7, r8, r9}	; <UNPREDICTABLE>
   15078:	82641a80 	rsbhi	r1, r4, #524288	; 0x80000
   1507c:	bc871d47 	stclt	13, cr1, [r7], {71}	; 0x47
   15080:	0f05d2e0 	svceq	0x0005d2e0
   15084:	ecf468dc 	ldcl	8, cr6, [r4], #880	; 0x370
   15088:	cd5cad34 	ldclgt	13, cr10, [ip, #-208]	; 0xffffff30
   1508c:	95371a22 	ldrls	r1, [r7, #-2594]!	; 0xa22
   15090:	9c2e54d5 	cfstrsls	mvf5, [lr], #-852	; 0xfffffcac
   15094:	00aec72a 	adceq	ip, lr, sl, lsr #14
   15098:	e7e0fee7 	strb	pc, [r0, r7, ror #29]!	; <UNPREDICTABLE>
   1509c:	71bdf46e 			; <UNDEFINED> instruction: 0x71bdf46e
   150a0:	d43502d3 	ldrtle	r0, [r5], #-723	; 0x2d3
   150a4:	f39081de 	vsra.u64	q4, q7, #48
   150a8:	7be20b10 	blvc	ff897cf0 <malloc_base+0xff87c2a4>
   150ac:	7b9c83c6 	blvc	fe735fcc <malloc_base+0xfe71a580>
   150b0:	6a382483 	bvs	e1e2c4 <malloc_base+0xe02878>
   150b4:	ac06ba6e 	stcge	10, cr11, [r6], {110}	; 0x6e
   150b8:	1216d8c4 	andsne	sp, r6, #12845056	; 0xc40000
   150bc:	6f41401b 	svcvs	0x0041401b
   150c0:	5b2ec62a 	blpl	bc6970 <malloc_base+0xbaaf24>
   150c4:	22e21211 	rsccs	r1, r2, #268435457	; 0x10000001
   150c8:	45bc2e7a 	ldrmi	r2, [ip, #3706]!	; 0xe7a
   150cc:	81759584 	cmnhi	r5, r4, lsl #11
   150d0:	08ca6cbc 	stmiaeq	sl, {r2, r3, r4, r5, r7, sl, fp, sp, lr}^
   150d4:	e3ac8b75 			; <UNDEFINED> instruction: 0xe3ac8b75
   150d8:	a52c2427 	strge	r2, [ip, #-1063]!	; 0x427
   150dc:	c213b8a2 	andsgt	fp, r3, #10616832	; 0xa20000
   150e0:	848bf106 	strhi	pc, [fp], #262	; 0x106
   150e4:	ed378a40 	vldmdb	r7!, {s16-s79}
   150e8:	13f69ae9 	mvnsne	r9, #954368	; 0xe9000
   150ec:	836facc1 	cmnhi	pc, #49408	; 0xc100
   150f0:	f5815495 			; <UNDEFINED> instruction: 0xf5815495
   150f4:	bd439861 	stcllt	8, cr9, [r3, #-388]	; 0xfffffe7c
   150f8:	1c542aaa 	mrrcne	10, 10, r2, r4, cr10
   150fc:	e0993018 	adds	r3, r9, r8, lsl r0
   15100:	83507285 	cmphi	r0, #1342177288	; 0x50000008
   15104:	950053cf 	strls	r5, [r0, #-975]	; 0x3cf
   15108:	473b9c48 	ldrmi	r9, [fp, -r8, asr #24]!
   1510c:	babf84f3 	blt	feff64e0 <malloc_base+0xfefdaa94>
   15110:	49f904ee 	ldmibmi	r9!, {r1, r2, r3, r5, r6, r7, sl}^
   15114:	014e4d05 	cmpeq	lr, r5, lsl #26
   15118:	aa3a228b 	bge	e9db4c <malloc_base+0xe82100>
   1511c:	47cc1e8d 	strbmi	r1, [ip, sp, lsl #29]
   15120:	38a21815 	stmiacc	r2!, {r0, r2, r4, fp, ip}
   15124:	271114e9 	ldrcs	r1, [r1, -r9, ror #9]
   15128:	ac27fbf0 	stcge	11, cr15, [r7], #-960	; 0xfffffc40
   1512c:	16d34459 			; <UNDEFINED> instruction: 0x16d34459
   15130:	08ee1577 	stmiaeq	lr!, {r0, r1, r2, r4, r5, r6, r8, sl, ip}^
   15134:	46f2055e 	usatmi	r0, #18, lr, asr #10
   15138:	4e93cc0e 	cdpmi	12, 9, cr12, cr3, cr14, {0}
   1513c:	1df9a2a8 	lfmne	f2, 3, [r9, #672]!	; 0x2a0
   15140:	9a44fd6f 	bls	1154704 <malloc_base+0x1138cb8>
   15144:	c1da78a1 	bicsgt	r7, sl, r1, lsr #17
   15148:	fe0fc0fd 	mcr2	0, 0, ip, cr15, cr13, {7}
   1514c:	3517508e 	ldrcc	r5, [r7, #-142]	; 0x8e
   15150:	5fd2b65d 	svcpl	0x00d2b65d
   15154:	7f71dbbc 	svcvc	0x0071dbbc
   15158:	b35d5307 	cmplt	sp, #469762048	; 0x1c000000
   1515c:	8e404b1e 	vmovhi.8	d0[0], r4
   15160:	14121781 	ldrne	r1, [r2], #-1921	; 0x781
   15164:	2b9221e9 	blcs	fe49d910 <malloc_base+0xfe481ec4>
   15168:	9427ee29 	strtls	lr, [r7], #-3625	; 0xe29
   1516c:	b8a4a672 	stmialt	r4!, {r1, r4, r5, r6, r9, sl, sp, pc}
   15170:	90c30036 	sbcls	r0, r3, r6, lsr r0
   15174:	7f107d97 	svcvc	0x00107d97
   15178:	e69c26c1 	ldr	r2, [ip], r1, asr #13
   1517c:	c5f2d405 	ldrbgt	sp, [r2, #1029]!	; 0x405
   15180:	602171a1 	eorvs	r7, r1, r1, lsr #3
   15184:	50e4b4c3 	rscpl	fp, r4, r3, asr #9
   15188:	74b1a512 	ldrtvc	sl, [r1], #1298	; 0x512
   1518c:	e983f022 	stmib	r3, {r1, r5, ip, sp, lr, pc}
   15190:	b3358a80 	teqlt	r5, #524288	; 0x80000
   15194:	c121b84c 	teqgt	r1, ip, asr #16
   15198:	426cffa7 	rsbmi	pc, ip, #668	; 0x29c
   1519c:	fd437412 	stc2l	4, cr7, [r3, #-72]	; 0xffffffb8
   151a0:	5141fc8b 	smlalbbpl	pc, r1, fp, ip	; <UNPREDICTABLE>
   151a4:	4690c4a3 	ldrmi	ip, [r0], r3, lsr #9
   151a8:	2a879244 	bcs	fe1f9ac0 <malloc_base+0xfe1de074>
   151ac:	900b82bb 			; <UNDEFINED> instruction: 0x900b82bb
   151b0:	d34e7adc 	movtle	r7, #60124	; 0xeadc
   151b4:	b1d304c2 	bicslt	r0, r3, r2, asr #9
   151b8:	146b579c 	strbtne	r5, [fp], #-1948	; 0x79c
   151bc:	0dca0ab4 	vstreq	s1, [sl, #720]	; 0x2d0
   151c0:	803ef275 	eorshi	pc, lr, r5, ror r2	; <UNPREDICTABLE>
   151c4:	d1430e42 	cmple	r3, r2, asr #28
   151c8:	d8eebc65 	stmiale	lr!, {r0, r2, r5, r6, sl, fp, ip, sp, pc}^
   151cc:	0b683534 	bleq	1a226a4 <malloc_base+0x1a06c58>
   151d0:	e4a43333 	strt	r3, [r4], #819	; 0x333
   151d4:	1f28afbb 	svcne	0x0028afbb
   151d8:	8ffbe051 	svchi	0x00fbe051
   151dc:	672766e0 	strvs	r6, [r7, -r0, ror #13]!
   151e0:	9b0b8428 	blls	2f6288 <malloc_base+0x2da83c>
   151e4:	0806e62b 	stmdaeq	r6, {r0, r1, r3, r5, r9, sl, sp, lr, pc}
   151e8:	040a6862 	streq	r6, [sl], #-2146	; 0x862
   151ec:	6febfdd7 	svcvs	0x00ebfdd7
   151f0:	cbd0286b 	blgt	ff41f3a4 <malloc_base+0xff403958>
   151f4:	1394fb46 	orrsne	pc, r4, #71680	; 0x11800
   151f8:	618cb512 	orrvs	fp, ip, r2, lsl r5
   151fc:	411e7a69 	tstmi	lr, r9, ror #20
   15200:	5a27c085 	bpl	a0541c <malloc_base+0x9e99d0>
   15204:	6d6d749b 	cfstrdvs	mvd7, [sp, #-620]!	; 0xfffffd94
   15208:	f971b952 			; <UNDEFINED> instruction: 0xf971b952
   1520c:	fda8d50b 	stc2	5, cr13, [r8, #44]!	; 0x2c
   15210:	c14cfc45 	cmpgt	ip, r5, asr #24
   15214:	4bf0d429 	blmi	ffc4a2c0 <malloc_base+0xffc2e874>
   15218:	dc47b1ca 	stflep	f3, [r7], {202}	; 0xca
   1521c:	62f0783e 	rscsvs	r7, r0, #4063232	; 0x3e0000
   15220:	6508ae2f 	strvs	sl, [r8, #-3631]	; 0xe2f
   15224:	9723d38b 	strls	sp, [r3, -fp, lsl #7]!
   15228:	ab9ef681 	blge	fe7d2c34 <malloc_base+0xfe7b71e8>
   1522c:	85622c06 	strbhi	r2, [r2, #-3078]!	; 0xc06
   15230:	a67610d8 			; <UNDEFINED> instruction: 0xa67610d8
   15234:	eceebd52 	stcl	13, cr11, [lr], #328	; 0x148
   15238:	b926c89f 	stmdblt	r6!, {r0, r1, r2, r3, r4, r7, fp, lr, pc}
   1523c:	0c6b6c8c 	stcleq	12, cr6, [fp], #-560	; 0xfffffdd0
   15240:	3beedb75 	blcc	ffbcc01c <malloc_base+0xffbb05d0>
   15244:	56c6ca98 			; <UNDEFINED> instruction: 0x56c6ca98
   15248:	11852384 	orrne	r2, r5, r4, lsl #7
   1524c:	6d375a5b 	vldmdbvs	r7!, {s10-s100}
   15250:	06349b9d 			; <UNDEFINED> instruction: 0x06349b9d
   15254:	9b8f8c2c 	blls	fe3f830c <malloc_base+0xfe3dc8c0>
   15258:	edf56d34 	ldcl	13, cr6, [r5, #208]!	; 0xd0
   1525c:	6c48dad8 	mcrrvs	10, 13, sp, r8, cr8
   15260:	cdfdc467 	cfldrdgt	mvd12, [sp, #412]!	; 0x19c
   15264:	ce0a0610 	mcrgt	6, 0, r0, cr10, cr0, {0}
   15268:	7c8a1144 	stfvcs	f1, [sl], {68}	; 0x44
   1526c:	95276de8 	strls	r6, [r7, #-3560]!	; 0xde8
   15270:	cc09b436 	cfstrsgt	mvf11, [r9], {54}	; 0x36
   15274:	ed35751e 	cfldr32	mvfx7, [r5, #-120]!	; 0xffffff88
   15278:	f6273e8e 			; <UNDEFINED> instruction: 0xf6273e8e
   1527c:	f88b5b8e 			; <UNDEFINED> instruction: 0xf88b5b8e
   15280:	680ac6b2 	stmdavs	sl, {r1, r4, r5, r7, r9, sl, lr, pc}
   15284:	273a80bf 			; <UNDEFINED> instruction: 0x273a80bf
   15288:	5d19804a 	ldcpl	0, cr8, [r9, #-296]	; 0xfffffed8
   1528c:	c91c5b1e 	ldmdbgt	ip, {r1, r2, r3, r4, r8, r9, fp, ip, lr}
   15290:	34957505 	ldrcc	r7, [r5], #1285	; 0x505
   15294:	254f3842 	strbcs	r3, [pc, #-2114]	; 14a5a <extra_blbits+0x1e>
   15298:	d6bd9175 			; <UNDEFINED> instruction: 0xd6bd9175
   1529c:	59d56110 	ldmibpl	r5, {r4, r8, sp, lr}^
   152a0:	fb67bfe4 	blx	1a0523a <malloc_base+0x19e97ee>
   152a4:	11609674 	smcne	2404	; 0x964
   152a8:	634aff73 	movtvs	pc, #44915	; 0xaf73	; <UNPREDICTABLE>
   152ac:	86830c0b 	strhi	r0, [r3], fp, lsl #24
   152b0:	040e852a 	streq	r8, [lr], #-1322	; 0x52a
   152b4:	023cf899 	eorseq	pc, ip, #10027008	; 0x990000
   152b8:	c4c11580 	strbgt	r1, [r1], #1408	; 0x580
   152bc:	af9a2b5f 	svcge	0x009a2b5f
   152c0:	ed6f1eef 	stcl	14, cr1, [pc, #-956]!	; 14f0c <twaindef+0x484>
   152c4:	798026b9 	stmibvc	r0, {r0, r3, r4, r5, r7, r9, sl, sp}
   152c8:	cc5a5fe3 	mrrcgt	15, 14, r5, sl, cr3
   152cc:	0e88bef5 	mcreq	14, 4, fp, cr8, cr5, {7}
   152d0:	9151ea6c 	cmpls	r1, ip, ror #20
   152d4:	ca397371 	bgt	e720a0 <malloc_base+0xe56654>
   152d8:	ca48b23a 	bgt	1241bc8 <malloc_base+0x122617c>
   152dc:	d16f56cb 	cmnle	pc, fp, asr #13
   152e0:	b779d1e0 	ldrblt	sp, [r9, -r0, ror #3]!
   152e4:	2da717de 	stccs	7, cr1, [r7, #888]!	; 0x378
   152e8:	1f50526f 	svcne	0x0050526f
   152ec:	99421182 	stmdbls	r2, {r1, r7, r8, ip}^
   152f0:	dc11f0b0 	ldcle	0, cr15, [r1], {176}	; 0xb0
   152f4:	b3540e71 	cmplt	r4, #1808	; 0x710
   152f8:	bce144d2 	cfstrdlt	mvd4, [r1], #840	; 0x348
   152fc:	0cf36607 	ldcleq	6, cr6, [r3], #28
   15300:	a06d0961 	rsbge	r0, sp, r1, ror #18
   15304:	a24cdc51 	subge	sp, ip, #20736	; 0x5100
   15308:	5489db28 	strpl	sp, [r9], #2856	; 0xb28
   1530c:	3af36041 	bcc	ffced418 <malloc_base+0xffcd19cc>
   15310:	85bfbe0c 	ldrhi	fp, [pc, #3596]!	; 16124 <twain+0x718>
   15314:	a33c7b8b 	teqge	ip, #142336	; 0x22c00
   15318:	b9e617ce 	stmiblt	r6!, {r1, r2, r3, r6, r7, r8, r9, sl, ip}^
   1531c:	0e9a37f6 	mrceq	7, 4, r3, cr10, cr6, {7}
   15320:	9c940644 	ldcls	6, cr0, [r4], {68}	; 0x44
   15324:	b54455af 	strblt	r5, [r4, #-1455]	; 0x5af
   15328:	9d4ae5ba 	cfstr64ls	mvdx14, [sl, #-744]	; 0xfffffd18
   1532c:	d546d2dc 	strble	sp, [r6, #-732]	; 0x2dc
   15330:	0599789b 	ldreq	r7, [r9, #2203]	; 0x89b
   15334:	7c4cda90 	mcrrvc	10, 9, sp, ip, cr0
   15338:	c5862ecd 	strgt	r2, [r6, #3789]	; 0xecd
   1533c:	d1168486 	tstle	r6, r6, lsl #9
   15340:	c2bd6922 	adcsgt	r6, sp, #557056	; 0x88000
   15344:	dc27e575 	cfstr32le	mvfx14, [r7], #-468	; 0xfffffe2c
   15348:	1fde571d 	svcne	0x00de571d
   1534c:	b084e41d 	addlt	lr, r4, sp, lsl r4
   15350:	00fdf624 	rscseq	pc, sp, r4, lsr #12
   15354:	955adafe 	ldrbls	sp, [sl, #-2814]	; 0xafe
   15358:	a2e6832e 	rscge	r8, r6, #-1207959552	; 0xb8000000
   1535c:	db382d28 	blle	e20804 <malloc_base+0xe04db8>
   15360:	a277d697 	rsbsge	sp, r7, #158334976	; 0x9700000
   15364:	cc479364 	mcrrgt	3, 6, r9, r7, cr4
   15368:	91738812 	cmnls	r3, r2, lsl r8
   1536c:	3e34194c 	cdpcc	9, 3, cr1, cr4, cr12, {2}
   15370:	2f576cb7 	svccs	0x00576cb7
   15374:	76b37506 	ldrtvc	r7, [r3], r6, lsl #10
   15378:	6fe36895 	svcvs	0x00e36895
   1537c:	2c36fbf8 	ldccs	11, cr15, [r6], #-992	; 0xfffffc20
   15380:	6bb99038 	blvs	fee79468 <malloc_base+0xfee5da1c>
   15384:	f0787047 			; <UNDEFINED> instruction: 0xf0787047
   15388:	c1ae13c2 			; <UNDEFINED> instruction: 0xc1ae13c2
   1538c:	dd034826 	stcle	8, cr4, [r3, #-152]	; 0xffffff68
   15390:	4e07437d 	mcrmi	3, 0, r4, cr7, cr13, {3}
   15394:	99435f53 	stmdbls	r3, {r0, r1, r4, r6, r8, r9, sl, fp, ip, lr}^
   15398:	b455e8bd 	ldrblt	lr, [r5], #-2237	; 0x8bd
   1539c:	4eb62903 	cdpmi	9, 11, cr2, cr6, cr3, {0}
   153a0:	63437e72 	movtvs	r7, #15986	; 0x3e72
   153a4:	8f1f16a1 	svchi	0x001f16a1
   153a8:	bb088faa 	bllt	239258 <malloc_base+0x21d80c>
   153ac:	65b043b9 	ldrvs	r4, [r0, #953]!	; 0x3b9
   153b0:	c8dc82ba 	ldmgt	ip, {r1, r3, r4, r5, r7, r9, pc}^
   153b4:	b04918fe 	strdlt	r1, [r9], #-142	; 0xffffff72
   153b8:	41c4fbad 	bicmi	pc, r4, sp, lsr #23
   153bc:	64919559 	ldrvs	r9, [r1], #1369	; 0x559
   153c0:	89818853 	stmibhi	r1, {r0, r1, r4, r6, fp, pc}
   153c4:	3e1b4b45 	vnmlacc.f64	d4, d11, d5
   153c8:	ba9108c9 	blt	fe4576f4 <malloc_base+0xfe43bca8>
   153cc:	db33df62 	blle	d0d15c <malloc_base+0xcf1710>
   153d0:	7e217258 	mcrvc	2, 1, r7, cr1, cr8, {2}
   153d4:	ce392147 	rsfgtem	f2, f1, f7
   153d8:	3e347634 	mrccc	6, 1, r7, cr4, cr4, {1}
   153dc:	9c24cea9 	stcls	14, cr12, [r4], #-676	; 0xfffffd5c
   153e0:	f94d7961 			; <UNDEFINED> instruction: 0xf94d7961
   153e4:	4dcdedaa 	stclmi	13, cr14, [sp, #680]	; 0x2a8
   153e8:	5f1ca30d 	svcpl	0x001ca30d
   153ec:	4fa8e591 	svcmi	0x00a8e591
   153f0:	c087517d 	addgt	r5, r7, sp, ror r1
   153f4:	345902a8 	ldrbcc	r0, [r9], #-680	; 0x2a8
   153f8:	09025543 	stmdbeq	r2, {r0, r1, r6, r8, sl, ip, lr}
   153fc:	6894e679 	ldmvs	r4, {r0, r3, r4, r5, r6, r9, sl, sp, lr, pc}
   15400:	ac0f6a13 	stcge	10, cr6, [pc], {19}
   15404:	ee01a8cd 	cdp	8, 0, cr10, cr1, cr13, {6}
   15408:	a4b97924 	ldrtge	r7, [r9], #2340	; 0x924
   1540c:	e3ea9318 	mvn	r9, #1610612736	; 0x60000000
   15410:	86526946 	ldrbhi	r6, [r2], -r6, asr #18
   15414:	20cbaaaf 	sbccs	sl, fp, pc, lsr #21
   15418:	fc4a1156 	mcrr2	1, 5, r1, sl, cr6
   1541c:	ead1b8f5 	b	ff4837f8 <malloc_base+0xff467dac>
   15420:	21582be4 	cmpcs	r8, r4, ror #23
   15424:	9053f02f 	subsls	pc, r3, pc, lsr #32
   15428:	50ae5edd 	ldrdpl	r5, [lr], sp	; <UNPREDICTABLE>
   1542c:	4730afc2 	ldrmi	sl, [r0, -r2, asr #31]!
   15430:	a6580e64 	ldrbge	r0, [r8], -r4, ror #28
   15434:	eb5befdf 	bl	17113b8 <malloc_base+0x16f596c>
   15438:	be6653d5 	mcrlt	3, 3, r5, cr6, cr5, {6}
   1543c:	042c9b7d 	strteq	r9, [ip], #-2941	; 0xb7d
   15440:	37a90caf 	strcc	r0, [r9, pc, lsr #25]!
   15444:	a9c8585f 	stmibge	r8, {r0, r1, r2, r3, r4, r6, fp, ip, lr}^
   15448:	eab85134 	b	fee29920 <malloc_base+0xfee0ded4>
   1544c:	fb3eabbd 	blx	fc034a <malloc_base+0xfa48fe>
   15450:	a0b611fb 	ldrshtge	r1, [r6], fp
   15454:	adbe006e 	ldcge	0, cr0, [lr, #440]!	; 0x1b8
   15458:	dfb934f2 	svcle	0x00b934f2
   1545c:	8a1a1801 	bhi	69b468 <malloc_base+0x67fa1c>
   15460:	02545d10 	subseq	r5, r4, #1024	; 0x400
   15464:	6c1af605 	ldcvs	6, cr15, [sl], {5}
   15468:	9df873c2 	ldclls	3, cr7, [r8, #776]!	; 0x308
   1546c:	22f10a7c 	rscscs	r0, r1, #507904	; 0x7c000
   15470:	5d707c2f 	ldclpl	12, cr7, [r0, #-188]!	; 0xffffff44
   15474:	da19b637 	ble	682d58 <malloc_base+0x66730c>
   15478:	95bb9f47 	ldrls	r9, [fp, #3911]!	; 0xf47
   1547c:	a2438473 	subge	r8, r3, #1929379840	; 0x73000000
   15480:	1961d3d0 	stmdbne	r1!, {r4, r6, r7, r8, r9, ip, lr, pc}^
   15484:	8f34854f 	svchi	0x0034854f
   15488:	b078c4e1 	rsbslt	ip, r8, r1, ror #9
   1548c:	e4c6f87b 	strb	pc, [r6], #2171	; 0x87b	; <UNPREDICTABLE>
   15490:	d3176be7 	tstle	r7, #236544	; 0x39c00
   15494:	90579a52 	subsls	r9, r7, r2, asr sl
   15498:	ef105a02 	svc	0x00105a02
   1549c:	ddeb4f95 	stclle	15, cr4, [fp, #596]!	; 0x254
   154a0:	76f8029b 	usatvc	r0, #24, fp, lsl #5
   154a4:	7e99a628 	cdpvc	6, 9, cr10, cr9, cr8, {1}
   154a8:	c9658795 	stmdbgt	r5!, {r0, r2, r4, r7, r8, r9, sl, pc}^
   154ac:	d599b88f 	ldrle	fp, [r9, #2191]	; 0x88f
   154b0:	cad6d6f2 	bgt	ff5cb080 <malloc_base+0xff5af634>
   154b4:	3949fcb3 	stmdbcc	r9, {r0, r1, r4, r5, r7, sl, fp, ip, sp, lr, pc}^
   154b8:	d4010e6b 	strle	r0, [r1], #-3691	; 0xe6b
   154bc:	f3d4e823 	vmlal.u16	q15, d4, d19
   154c0:	a93c873e 	ldmdbge	ip!, {r1, r2, r3, r4, r5, r8, r9, sl, pc}
   154c4:	3b6278d2 	blcc	18b3814 <malloc_base+0x1897dc8>
   154c8:	629f17a0 	addsvs	r1, pc, #41943040	; 0x2800000
   154cc:	dc010e17 	stcle	14, cr0, [r1], {23}
   154d0:	78fc840a 	ldmvc	ip!, {r1, r3, sl, pc}^
   154d4:	41111c2d 	tstmi	r1, sp, lsr #24
   154d8:	a80d3c0a 	stmdage	sp, {r1, r3, sl, fp, ip, sp}
   154dc:	93ed113d 	mvnls	r1, #1073741839	; 0x4000000f
   154e0:	a59ec669 	ldrge	ip, [lr, #1641]	; 0x669
   154e4:	3cedf4f2 	cfstrdcc	mvd15, [sp], #968	; 0x3c8
   154e8:	671c46a8 	ldrvs	r4, [ip, -r8, lsr #13]
   154ec:	e568453c 	strb	r4, [r8, #-1340]!	; 0x53c
   154f0:	fc006fb9 	stc2	15, cr6, [r0], {185}	; 0xb9
   154f4:	ddb90181 	ldfles	f0, [r9, #516]!	; 0x204
   154f8:	217688fb 	ldrshcs	r8, [r6, #-139]!	; 0xffffff75
   154fc:	9871a01c 	ldmdals	r1!, {r2, r3, r4, sp, pc}^
   15500:	89e84fd3 	stmibhi	r8!, {r0, r1, r4, r6, r7, r8, r9, sl, fp, lr}^
   15504:	8a875d13 	bhi	fe1ec958 <malloc_base+0xfe1d0f0c>
   15508:	242585dd 	strtcs	r8, [r5], #-1501	; 0x5dd
   1550c:	7dc2b5ec 	cfstr64vc	mvdx11, [r2, #944]	; 0x3b0
   15510:	e5f339b1 	ldrb	r3, [r3, #2481]!	; 0x9b1
   15514:	68f2a90a 	ldmvs	r2!, {r1, r3, r8, fp, sp, pc}^
   15518:	f2b5e43f 			; <UNDEFINED> instruction: 0xf2b5e43f
   1551c:	7c106799 	ldcvc	7, cr6, [r0], {153}	; 0x99
   15520:	125f1fe0 	subsne	r1, pc, #896	; 0x380
   15524:	d1502c1a 	cmple	r0, sl, lsl ip
   15528:	693e6733 	ldmdbvs	lr!, {r0, r1, r4, r5, r8, r9, sl, sp, lr}
   1552c:	d3cc9d27 	bicle	r9, ip, #2496	; 0x9c0
   15530:	1913803a 	ldmdbne	r3, {r1, r3, r4, r5, pc}
   15534:	a89aac42 	ldmge	sl, {r1, r6, sl, fp, sp, pc}
   15538:	fd71a4bb 	ldc2l	4, cr10, [r1, #-748]!	; 0xfffffd14
   1553c:	ff07ed75 			; <UNDEFINED> instruction: 0xff07ed75
   15540:	132a4e6d 	teqne	sl, #1744	; 0x6d0
   15544:	604a68c9 	subvs	r6, sl, r9, asr #17
   15548:	45a4b7ec 	strmi	fp, [r4, #2028]!	; 0x7ec
   1554c:	cf834055 	svcgt	0x00834055
   15550:	6d06509e 	stcvs	0, cr5, [r6, #-632]	; 0xfffffd88
   15554:	7e968700 	cdpvc	7, 9, cr8, cr6, cr0, {0}
   15558:	07539fd7 	smmlseq	r3, r7, pc, r9	; <UNPREDICTABLE>
   1555c:	99ad6ac2 	stmibls	sp!, {r1, r6, r7, r9, fp, sp, lr}
   15560:	11903b20 	orrsne	r3, r0, r0, lsr #22
   15564:	9a688b99 	bls	1a383d0 <malloc_base+0x1a1c984>
   15568:	b669e41d 			; <UNDEFINED> instruction: 0xb669e41d
   1556c:	05a7d1cf 	streq	sp, [r7, #463]!	; 0x1cf
   15570:	0cedd222 	sfmeq	f5, 3, [sp], #136	; 0x88
   15574:	392d1c52 	pushcc	{r1, r4, r6, sl, fp, ip}
   15578:	e636d584 	ldrt	sp, [r6], -r4, lsl #11
   1557c:	634c884a 	movtvs	r8, #51274	; 0xc84a
   15580:	6937b215 	ldmdbvs	r7!, {r0, r2, r4, r9, ip, sp, pc}
   15584:	bd46c540 	cfstr64lt	mvdx12, [r6, #-256]	; 0xffffff00
   15588:	23614650 	cmncs	r1, #83886080	; 0x5000000
   1558c:	e656c2b6 			; <UNDEFINED> instruction: 0xe656c2b6
   15590:	c69a905c 			; <UNDEFINED> instruction: 0xc69a905c
   15594:	666b76bf 			; <UNDEFINED> instruction: 0x666b76bf
   15598:	2a64514f 	bcs	1929adc <malloc_base+0x190e090>
   1559c:	b71b0838 			; <UNDEFINED> instruction: 0xb71b0838
   155a0:	600101e6 	andvs	r0, r1, r6, ror #3
   155a4:	48d7276e 	ldmmi	r7, {r1, r2, r3, r5, r6, r8, r9, sl, sp}^
   155a8:	b8f3f20c 	ldmlt	r3!, {r2, r3, r9, ip, sp, lr, pc}^
   155ac:	3ae6ddb2 	bcc	ff9ccc7c <malloc_base+0xff9b1230>
   155b0:	24e0909b 	strbtcs	r9, [r0], #155	; 0x9b
   155b4:	41bd674d 			; <UNDEFINED> instruction: 0x41bd674d
   155b8:	6ef07ee1 	cdpvs	14, 15, cr7, cr0, cr1, {7}
   155bc:	3a5981ad 	bcc	1675c78 <malloc_base+0x165a22c>
   155c0:	66651c84 	strbtvs	r1, [r5], -r4, lsl #25
   155c4:	1b782d21 	blne	1e20a50 <malloc_base+0x1e05004>
   155c8:	d425f262 	strtle	pc, [r5], #-610	; 0x262
   155cc:	84d6d4e8 	ldrbhi	sp, [r6], #1256	; 0x4e8
   155d0:	321d0ecc 	andscc	r0, sp, #3264	; 0xcc0
   155d4:	2041cf95 	umaalcs	ip, r1, r5, pc	; <UNPREDICTABLE>
   155d8:	927976b7 	rsbsls	r7, r9, #191889408	; 0xb700000
   155dc:	d91e0fba 	ldmdble	lr, {r1, r3, r4, r5, r7, r8, r9, sl, fp}
   155e0:	7cda09aa 	ldclvc	9, cr0, [sl], {170}	; 0xaa
   155e4:	654c8d90 	strbvs	r8, [ip, #-3472]	; 0xd90
   155e8:	837884a7 	cmnhi	r8, #-1493172224	; 0xa7000000
   155ec:	69e90b18 	stmibvs	r9!, {r3, r4, r8, r9, fp}^
   155f0:	72ae6c4a 	adcvc	r6, lr, #18944	; 0x4a00
   155f4:	3a37b1eb 	bcc	e01da8 <malloc_base+0xde635c>
   155f8:	91aba835 			; <UNDEFINED> instruction: 0x91aba835
   155fc:	98653413 	stmdals	r5!, {r0, r1, r4, sl, ip, sp}^
   15600:	8de9072d 	stclhi	7, cr0, [r9, #180]!	; 0xb4
   15604:	c935aa9d 	ldmdbgt	r5!, {r0, r2, r3, r4, r7, r9, fp, sp, pc}
   15608:	ce64683c 	mcrgt	8, 3, r6, cr4, cr12, {1}
   1560c:	1c3950e6 	ldcne	0, cr5, [r9], #-920	; 0xfffffc68
   15610:	9c5cb9f5 	mrrcls	9, 15, fp, ip, cr5
   15614:	5ba1f551 	blpl	fe892b60 <malloc_base+0xfe877114>
   15618:	57f6c0c3 	ldrbpl	ip, [r6, r3, asr #1]!
   1561c:	3f5374f5 	svccc	0x005374f5
   15620:	eabdd4c4 	b	fef8a938 <malloc_base+0xfef6eeec>
   15624:	32d3028a 	sbcscc	r0, r3, #-1610612728	; 0xa0000008
   15628:	df76d4d1 	svcle	0x0076d4d1
   1562c:	58959c88 	ldmpl	r5, {r3, r7, sl, fp, ip, pc}
   15630:	05b0b120 	ldreq	fp, [r0, #288]!	; 0x120
   15634:	83d6cded 	bicshi	ip, r6, #15168	; 0x3b40
   15638:	73a4edb3 			; <UNDEFINED> instruction: 0x73a4edb3
   1563c:	69c36d4a 	stmibvs	r3, {r1, r3, r6, r8, sl, fp, sp, lr}^
   15640:	e4cff09c 	strb	pc, [pc], #156	; 15648 <twaindef+0xbc0>	; <UNPREDICTABLE>
   15644:	48cdb003 	stmiami	sp, {r0, r1, ip, sp, pc}^
   15648:	ebecec0f 	bl	ffb5068c <malloc_base+0xffb34c40>
   1564c:	f5fec1f9 			; <UNDEFINED> instruction: 0xf5fec1f9
   15650:	4626562f 	strtmi	r5, [r6], -pc, lsr #12
   15654:	6337f2d7 	teqvs	r7, #1879048205	; 0x7000000d
   15658:	fbbdff2c 	blx	fef95312 <malloc_base+0xfef798c6>
   1565c:	6f816c74 	svcvs	0x00816c74
   15660:	a0ccd1cd 	sbcge	sp, ip, sp, asr #3
   15664:	f036651c 			; <UNDEFINED> instruction: 0xf036651c
   15668:	cb636549 	blgt	18eeb94 <malloc_base+0x18d3148>
   1566c:	6e9a897e 	mrcvs	9, 4, r8, cr10, cr14, {3}
   15670:	a6fda9c1 	ldrbtge	sl, [sp], r1, asr #19
   15674:	3ae9df0a 	bcc	ffa8d2a4 <malloc_base+0xffa71858>
   15678:	761eec7f 			; <UNDEFINED> instruction: 0x761eec7f
   1567c:	b3f18806 	mvnslt	r8, #393216	; 0x60000
   15680:	5f7c9b36 	svcpl	0x007c9b36
   15684:	9f6b34cb 	svcls	0x006b34cb
   15688:	df7bfe54 	svcle	0x007bfe54
   1568c:	62216c2b 	eorvs	r6, r1, #11008	; 0x2b00
   15690:	facf51e2 	blx	ff3e9e20 <malloc_base+0xff3ce3d4>
   15694:	9f93c1d9 	svcls	0x0093c1d9
   15698:	703bd0dd 	ldrsbtvc	sp, [fp], -sp
   1569c:	d46341b1 	strbtle	r4, [r3], #-433	; 0x1b1
   156a0:	9f0471bf 	svcls	0x000471bf
   156a4:	03c84ffe 	biceq	r4, r8, #1016	; 0x3f8
   156a8:	e9cf248e 	stmib	pc, {r1, r2, r3, r7, sl, sp}^	; <UNPREDICTABLE>
   156ac:	43aa8af0 			; <UNDEFINED> instruction: 0x43aa8af0
   156b0:	35762862 	ldrbcc	r2, [r6, #-2146]!	; 0x862
   156b4:	8783c5df 			; <UNDEFINED> instruction: 0x8783c5df
   156b8:	ad267edb 	stcge	14, cr7, [r6, #-876]!	; 0xfffffc94
   156bc:	253307a0 	ldrcs	r0, [r3, #-1952]!	; 0x7a0
   156c0:	ee496cb0 	mcr	12, 2, r6, cr9, cr0, {5}
   156c4:	684b94c8 	stmdavs	fp, {r3, r6, r7, sl, ip, pc}^
   156c8:	9289900f 	addls	r9, r9, #15
   156cc:	ea84b207 	b	fe141ef0 <malloc_base+0xfe1264a4>
   156d0:	bf8b1f1e 	svclt	0x008b1f1e
   156d4:	af0fe4b4 	svcge	0x000fe4b4
   156d8:	a88b9eec 	stmge	fp, {r2, r3, r5, r6, r7, r9, sl, fp, ip, pc}
   156dc:	05a211c9 	streq	r1, [r2, #457]!	; 0x1c9
   156e0:	bd5ccb15 	vldrlt	d28, [ip, #-84]	; 0xffffffac
   156e4:	684874c0 	stmdavs	r8, {r6, r7, sl, ip, sp, lr}^
   156e8:	572814a9 	strpl	r1, [r8, -r9, lsr #9]!
   156ec:	0302e54f 	movweq	lr, #9551	; 0x254f
   156f0:	6d46ac76 	stclvs	12, cr10, [r6, #-472]	; 0xfffffe28
   156f4:	c93607c2 	ldmdbgt	r6!, {r1, r6, r7, r8, r9, sl}
   156f8:	0e281409 	cdpeq	4, 2, cr1, cr8, cr9, {0}
   156fc:	1df78c04 	ldclne	12, cr8, [r7, #16]!
   15700:	79cff287 	stmibvc	pc, {r0, r1, r2, r7, r9, ip, sp, lr, pc}^	; <UNPREDICTABLE>
   15704:	14a28e2d 	strtne	r8, [r2], #3629	; 0xe2d
   15708:	67ca148a 	strbvs	r1, [sl, sl, lsl #9]
   1570c:	1944c168 	stmdbne	r4, {r3, r5, r6, r8, lr, pc}^
   15710:	ed16bef7 	ldc	14, cr11, [r6, #-988]	; 0xfffffc24
   15714:	37d46150 			; <UNDEFINED> instruction: 0x37d46150
   15718:	01cd706d 	biceq	r7, sp, sp, rrx
   1571c:	d748b1c5 	strble	fp, [r8, -r5, asr #3]
   15720:	6c412b72 	mcrrvs	11, 7, r2, r1, cr2
   15724:	a7197a5f 			; <UNDEFINED> instruction: 0xa7197a5f
   15728:	a6ecbe18 	usatge	fp, #12, r8, lsl #28
   1572c:	4a472696 	bmi	11df18c <malloc_base+0x11c3740>
   15730:	e2e8275b 	rsc	r2, r8, #23855104	; 0x16c0000
   15734:	94f32e34 	ldrbtls	r2, [r3], #3636	; 0xe34
   15738:	4973531c 	ldmdbmi	r3!, {r2, r3, r4, r8, r9, ip, lr}^
   1573c:	3534a252 	ldrcc	sl, [r4, #-594]!	; 0x252
   15740:	d6ac1a12 	ssatle	r1, #13, r2, lsl #20
   15744:	aab5d287 	bge	fed8a168 <malloc_base+0xfed6e71c>
   15748:	9d51aaea 	vldrls	s21, [r1, #-936]	; 0xfffffc58
   1574c:	0e606da1 	cdpeq	13, 6, cr6, cr0, cr1, {5}
   15750:	37d9fcbc 			; <UNDEFINED> instruction: 0x37d9fcbc
   15754:	ca0ac492 	bgt	2c69a4 <malloc_base+0x2aaf58>
   15758:	3c2d37c6 	stccc	7, cr3, [sp], #-792	; 0xfffffce8
   1575c:	3c4155d0 	cfstr64cc	mvdx5, [r1], {208}	; 0xd0
   15760:	646cdfa8 	strbtvs	sp, [ip], #-4008	; 0xfa8
   15764:	3c90838e 	ldccc	3, cr8, [r0], {142}	; 0x8e
   15768:	ce77d418 	mrcgt	4, 3, sp, cr7, cr8, {0}
   1576c:	9ecd40be 	mcrls	0, 6, r4, cr13, cr14, {5}
   15770:	a748a293 			; <UNDEFINED> instruction: 0xa748a293
   15774:	a36f38b0 	cmnge	pc, #11534336	; 0xb00000
   15778:	8873db09 	ldmdahi	r3!, {r0, r3, r8, r9, fp, ip, lr, pc}^
   1577c:	554a9578 	strbpl	r9, [sl, #-1400]	; 0x578
   15780:	2be80434 	blcs	ffa16858 <malloc_base+0xff9fae0c>
   15784:	a4dbb4e5 	ldrbge	fp, [fp], #1253	; 0x4e5
   15788:	a664a0ba 			; <UNDEFINED> instruction: 0xa664a0ba
   1578c:	6723f652 			; <UNDEFINED> instruction: 0x6723f652
   15790:	760d52e3 	strvc	r5, [sp], -r3, ror #5
   15794:	a663755b 			; <UNDEFINED> instruction: 0xa663755b
   15798:	3f4dee85 	svccc	0x004dee85
   1579c:	070571c9 	streq	r7, [r5, -r9, asr #3]
   157a0:	bcb06c33 	ldclt	12, cr6, [r0], #204	; 0xcc
   157a4:	74be7f53 	ldrtvc	r7, [lr], #3923	; 0xf53
   157a8:	70ec2c39 	rscvc	r2, ip, r9, lsr ip
   157ac:	9239d18b 	eorsls	sp, r9, #-1073741790	; 0xc0000022
   157b0:	4cdb9988 	ldclmi	9, cr9, [fp], {136}	; 0x88
   157b4:	e64c3295 			; <UNDEFINED> instruction: 0xe64c3295
   157b8:	45c35a87 	strbmi	r5, [r3, #2695]	; 0xa87
   157bc:	dc076e3c 	stcle	14, cr6, [r7], {60}	; 0x3c
   157c0:	ad2a97a6 	stcge	7, cr9, [sl, #-664]!	; 0xfffffd68
   157c4:	937a26b7 	cmnls	sl, #191889408	; 0xb700000
   157c8:	45a1f26b 	strmi	pc, [r1, #619]!	; 0x26b
   157cc:	dc05d8db 	stcle	8, cr13, [r5], {219}	; 0xdb
   157d0:	9207c518 	andls	ip, r7, #100663296	; 0x6000000
   157d4:	c499f778 	ldrgt	pc, [r9], #1912	; 0x778
   157d8:	98550c19 	ldmdals	r5, {r0, r3, r4, sl, fp}^
   157dc:	789413e6 	ldmvc	r4, {r1, r2, r5, r6, r7, r8, r9, ip}
   157e0:	f210f31b 	vcge.s16	d15, d0, d11
   157e4:	3c1c3a53 	ldccc	10, cr3, [ip], {83}	; 0x53
   157e8:	df1af86b 	svcle	0x001af86b
   157ec:	94cbc3f3 	strbls	ip, [fp], #1011	; 0x3f3
   157f0:	eb6c8b59 	bl	1b3855c <malloc_base+0x1b1cb10>
   157f4:	270769b3 			; <UNDEFINED> instruction: 0x270769b3
   157f8:	76bb8498 	ssatvc	r8, #28, r8, lsl #9
   157fc:	39d438b8 	ldmibcc	r4, {r3, r4, r5, r7, fp, ip, sp}^
   15800:	3bfb9205 	blcc	ffefa01c <malloc_base+0xffede5d0>
   15804:	00a43829 	adceq	r3, r4, r9, lsr #16
   15808:	aa9a9f6d 	bge	fe6bd5c4 <malloc_base+0xfe6a1b78>
   1580c:	4263b490 	rsbmi	fp, r3, #-1879048192	; 0x90000000
   15810:	aa9de1ff 	bge	fe78e014 <malloc_base+0xfe7725c8>
   15814:	a74de854 	smlsldge	lr, sp, r4, r8
   15818:	c52cb5ed 	strgt	fp, [ip, #-1517]!	; 0x5ed
   1581c:	917e14b3 	ldrhls	r1, [lr, #-67]!	; 0xffffffbd
   15820:	a31d3772 	tstge	sp, #29884416	; 0x1c80000
   15824:	6d8ea041 	stcvs	0, cr10, [lr, #260]	; 0x104
   15828:	1940c71c 	stmdbne	r0, {r2, r3, r4, r8, r9, sl, lr, pc}^
   1582c:	ce46556e 	cdpgt	5, 4, cr5, cr6, cr14, {3}
   15830:	6135f8c6 	teqvs	r5, r6, asr #17
   15834:	2b015f9b 	blcs	6d6a8 <malloc_base+0x51c5c>
   15838:	2c7c88f4 	ldclcs	8, cr8, [ip], #-976	; 0xfffffc30
   1583c:	17934213 			; <UNDEFINED> instruction: 0x17934213
   15840:	dad7feb7 	ble	ff615324 <malloc_base+0xff5f98d8>
   15844:	0feb521f 	svceq	0x00eb521f
   15848:	4c2ff4a9 	cfstrsmi	mvf15, [pc], #-676	; 155ac <twaindef+0xb24>
   1584c:	3a48776f 	bcc	1233610 <malloc_base+0x1217bc4>
   15850:	74fc43c7 	ldrbtvc	r4, [ip], #967	; 0x3c7
   15854:	b7ea26fe 			; <UNDEFINED> instruction: 0xb7ea26fe
   15858:	a05ca8e8 	subsge	sl, ip, r8, ror #17
   1585c:	75e6fb79 	strbvc	pc, [r6, #2937]!	; 0xb79	; <UNPREDICTABLE>
   15860:	bf22f1eb 	svclt	0x0022f1eb
   15864:	c251adb9 	subsgt	sl, r1, #11840	; 0x2e40
   15868:	e0ba6fd5 	ldrsbt	r6, [sl], r5
   1586c:	71c0dd98 			; <UNDEFINED> instruction: 0x71c0dd98
   15870:	e3b6f23d 			; <UNDEFINED> instruction: 0xe3b6f23d
   15874:	b12ca677 	teqlt	ip, r7, ror r6
   15878:	4de9dd08 	stclmi	13, cr13, [r9, #32]!
   1587c:	9b71c577 	blls	1c86e60 <malloc_base+0x1c6b414>
   15880:	a7c80696 	bfige	r0, r6, (invalid: 13:8)
   15884:	ca1c3b96 	bgt	7246e4 <malloc_base+0x708c98>
   15888:	b1fb55e6 	mvnslt	r5, r6, ror #11
   1588c:	87eaf24d 	strbhi	pc, [sl, sp, asr #4]!	; <UNPREDICTABLE>
   15890:	26419d8a 	strbcs	r9, [r1], -sl, lsl #27
   15894:	884cf947 	stmdahi	ip, {r0, r1, r2, r6, r8, fp, ip, sp, lr, pc}^
   15898:	dafd6687 	ble	fff6f2bc <malloc_base+0xfff53870>
   1589c:	4a4423a4 	bmi	111e734 <malloc_base+0x1102ce8>
   158a0:	392d5bb6 	pushcc	{r1, r2, r4, r5, r7, r8, r9, fp, ip, lr}
   158a4:	e100c646 	tst	r0, r6, asr #12
   158a8:	eda4eb89 	stc	11, cr14, [r4, #548]!	; 0x224
   158ac:	76e142c6 	strbtvc	r4, [r1], r6, asr #5
   158b0:	f012026d 			; <UNDEFINED> instruction: 0xf012026d
   158b4:	85d00767 	ldrbhi	r0, [r0, #1895]	; 0x767
   158b8:	5b6988bb 	blpl	1a77bac <malloc_base+0x1a5c160>
   158bc:	883a4023 	ldmdahi	sl!, {r0, r1, r5, lr}
   158c0:	f72c1904 			; <UNDEFINED> instruction: 0xf72c1904
   158c4:	4c687b03 	stclmi	11, cr7, [r8], #-12
   158c8:	df28d737 	svcle	0x0028d737
   158cc:	9d7ec819 	ldclls	8, cr12, [lr, #-100]!	; 0xffffff9c
   158d0:	a8bb5f03 	ldmge	fp!, {r0, r1, r8, r9, sl, fp, ip, lr}
   158d4:	ff589cc8 			; <UNDEFINED> instruction: 0xff589cc8
   158d8:	57074991 			; <UNDEFINED> instruction: 0x57074991
   158dc:	be598eb6 	mrclt	14, 2, r8, cr9, cr6, {5}
   158e0:	70954938 	addsvc	r4, r5, r8, lsr r9
   158e4:	eb041c58 	bl	11ca4c <malloc_base+0x101000>
   158e8:	36a62167 	strtcc	r2, [r6], r7, ror #2
   158ec:	fc1404fe 	ldc2	4, cr0, [r4], {254}	; 0xfe
   158f0:	813ac389 	teqhi	sl, r9, lsl #7
   158f4:	64a9eb38 	strtvs	lr, [r9], #2872	; 0xb38
   158f8:	5180d05c 	orrpl	sp, r0, ip, asr r0
   158fc:	cde4d318 	stclgt	3, cr13, [r4, #96]!	; 0x60
   15900:	8e985642 	cdphi	6, 9, cr5, cr8, cr2, {2}
   15904:	461d5b0b 	ldrmi	r5, [sp], -fp, lsl #22
   15908:	614d9f6e 	cmpvs	sp, lr, ror #30
   1590c:	01e49b79 	mvneq	r9, r9, ror fp
   15910:	c766a0a5 	strbgt	sl, [r6, -r5, lsr #1]!
   15914:	89f83202 	ldmibhi	r8!, {r1, r9, ip, sp}^
   15918:	4d6a7d71 	stclmi	13, cr7, [sl, #-452]!	; 0xfffffe3c
   1591c:	5a634c8d 	bpl	18e8b58 <malloc_base+0x18cd10c>
   15920:	296a93c9 	stmdbcs	sl!, {r0, r3, r6, r7, r8, r9, ip, pc}^
   15924:	b235bcaa 	eorslt	fp, r5, #43520	; 0xaa00
   15928:	4b5bd697 	blmi	170b38c <malloc_base+0x16ef940>
   1592c:	ec98e4d5 	cfldrs	mvf14, [r8], {213}	; 0xd5
   15930:	b283d9c0 	addlt	sp, r3, #3145728	; 0x300000
   15934:	4a6f59b4 	bmi	1bec00c <malloc_base+0x1bd05c0>
   15938:	77ff7d49 	ldrbvc	r7, [pc, r9, asr #26]!
   1593c:	81515a2c 	cmphi	r1, ip, lsr #20
   15940:	0d5a6666 	ldcleq	6, cr6, [sl, #-408]	; 0xfffffe68
   15944:	47671333 			; <UNDEFINED> instruction: 0x47671333
   15948:	c5097d87 	strgt	r7, [r9, #-3463]	; 0xd87
   1594c:	02123edd 	andseq	r3, r2, #3536	; 0xdd0
   15950:	bfb2ad64 	svclt	0x00b2ad64
   15954:	0d4fec2c 	stcleq	12, cr14, [pc, #-176]	; 158ac <twaindef+0xe24>
   15958:	3bed56f7 	blcc	ffb6b53c <malloc_base+0xffb4faf0>
   1595c:	da5b8749 	ble	16f7688 <malloc_base+0x16dbc3c>
   15960:	dc3c0277 	lfmle	f0, 4, [ip], #-476	; 0xfffffe24
   15964:	a0614767 	rsbge	r4, r1, r7, ror #14
   15968:	ee7e878d 	cdp	7, 7, cr8, cr14, cr13, {4}
   1596c:	05a21ce3 	streq	r1, [r2, #3299]!	; 0xce3
   15970:	de26be4d 	cdple	14, 2, cr11, cr6, cr13, {2}
   15974:	e195746a 	orrs	r7, r5, sl, ror #8
   15978:	4e165343 	cdpmi	3, 1, cr5, cr6, cr3, {2}
   1597c:	2e9be244 	cdpcs	2, 9, cr14, cr11, cr4, {2}
   15980:	89c4def2 	stmibhi	r4, {r1, r4, r5, r6, r7, r9, sl, fp, ip, lr, pc}^
   15984:	99bedeee 	ldmibls	lr!, {r1, r2, r3, r5, r6, r7, r9, sl, fp, ip, lr, pc}
   15988:	99744c50 	ldmdbls	r4!, {r4, r6, sl, fp, lr}^
   1598c:	4b5b8b1f 	blmi	16f8610 <malloc_base+0x16dcbc4>
   15990:	d6ab3d2c 	strtle	r3, [fp], ip, lsr #26
   15994:	ed72f620 	ldcl	6, cr15, [r2, #-128]!	; 0xffffff80
   15998:	abc3a4c6 	blge	ff0fecb8 <malloc_base+0xff0e326c>
   1599c:	4e4123b7 	mcrmi	3, 2, r2, cr1, cr7, {5}
   159a0:	2077d5ed 	rsbscs	sp, r7, sp, ror #11
   159a4:	23f0398b 	mvnscs	r3, #2277376	; 0x22c000
   159a8:	284f2b1e 	stmdacs	pc, {r1, r2, r3, r4, r8, r9, fp, sp}^	; <UNPREDICTABLE>
   159ac:	4c1fa33b 	ldcmi	3, cr10, [pc], {59}	; 0x3b
   159b0:	3ce6ebb4 	vstmiacc	r6!, {d30-<overflow reg d55>}
   159b4:	2d4d383d 	stclcs	8, cr3, [sp, #-244]	; 0xffffff0c
   159b8:	23515199 	cmpcs	r1, #1073741862	; 0x40000026
   159bc:	dfae9c1f 	svcle	0x00ae9c1f
   159c0:	d3ed9926 	mvnle	r9, #622592	; 0x98000
   159c4:	a0d39b5e 	sbcsge	r9, r3, lr, asr fp
   159c8:	f644ebc9 			; <UNDEFINED> instruction: 0xf644ebc9
   159cc:	4745d2de 			; <UNDEFINED> instruction: 0x4745d2de
   159d0:	cd0f80ac 	stcgt	0, cr8, [pc, #-688]	; 15728 <twaindef+0xca0>
   159d4:	06da6a97 			; <UNDEFINED> instruction: 0x06da6a97
   159d8:	6d1672e0 	lfmvs	f7, 4, [r6, #-896]	; 0xfffffc80
   159dc:	7d85a6dd 	stcvc	6, cr10, [r5, #884]	; 0x374
   159e0:	bc4ba200 	sfmlt	f2, 3, [fp], {-0}
   159e4:	f6d0f122 	pli	[r0, r2, lsr #2]
   159e8:	6dd60fb7 	ldclvs	15, cr0, [r6, #732]	; 0x2dc
   159ec:	caf6275e 	bgt	ffd9f76c <malloc_base+0xffd83d20>
   159f0:	5f4d6b87 	svcpl	0x004d6b87
   159f4:	3f51777e 	svccc	0x0051777e
   159f8:	caa2492b 	bgt	fe8a7eac <malloc_base+0xfe88c460>
   159fc:	f9814e07 			; <UNDEFINED> instruction: 0xf9814e07
   15a00:	fe5d6f31 	mrc2	15, 2, r6, cr13, cr1, {1}
   15a04:	62224407 	eorvs	r4, r2, #117440512	; 0x7000000
   15a08:	00000042 	andeq	r0, r0, r2, asr #32

00015a0c <twain>:
   15a0c:	48430a0a 	stmdami	r3, {r1, r3, r9, fp}^
   15a10:	45545041 	ldrbmi	r5, [r4, #-65]	; 0x41
   15a14:	4c582052 	mrrcmi	0, 5, r2, r8, cr2
   15a18:	540a0a2e 	strpl	r0, [sl], #-2606	; 0xa2e
   15a1c:	20736968 	rsbscs	r6, r3, r8, ror #18
   15a20:	20736168 	rsbscs	r6, r3, r8, ror #2
   15a24:	6e656562 	cdpvs	5, 6, cr6, cr5, cr2, {3}
   15a28:	73206120 	teqvc	r0, #8
   15a2c:	72726974 	rsbsvc	r6, r2, #1900544	; 0x1d0000
   15a30:	20676e69 	rsbcs	r6, r7, r9, ror #28
   15a34:	2e796164 	rpwcsez	f6, f1, f4
   15a38:	68542020 	ldmdavs	r4, {r5, sp}^
   15a3c:	75532065 	ldrbvc	r2, [r3, #-101]	; 0x65
   15a40:	69726570 	ldmdbvs	r2!, {r4, r5, r6, r8, sl, sp, lr}^
   15a44:	6e65746e 	cdpvs	4, 6, cr7, cr5, cr14, {3}
   15a48:	746e6564 	strbtvc	r6, [lr], #-1380	; 0x564
   15a4c:	20666f20 	rsbcs	r6, r6, r0, lsr #30
   15a50:	20656874 	rsbcs	r6, r5, r4, ror r8
   15a54:	6c696172 	stfvse	f6, [r9], #-456	; 0xfffffe38
   15a58:	20796177 	rsbscs	r6, r9, r7, ror r1
   15a5c:	20747570 	rsbscs	r7, r4, r0, ror r5
   15a60:	72740a61 	rsbsvc	r0, r4, #397312	; 0x61000
   15a64:	206e6961 	rsbcs	r6, lr, r1, ror #18
   15a68:	6f207461 	svcvs	0x00207461
   15a6c:	64207275 	strtvs	r7, [r0], #-629	; 0x275
   15a70:	6f707369 	svcvs	0x00707369
   15a74:	2c6c6173 	stfcse	f6, [ip], #-460	; 0xfffffe34
   15a78:	646e6120 	strbtvs	r6, [lr], #-288	; 0x120
   15a7c:	64696420 	strbtvs	r6, [r9], #-1056	; 0x420
   15a80:	20737520 	rsbscs	r7, r3, r0, lsr #10
   15a84:	20656874 	rsbcs	r6, r5, r4, ror r8
   15a88:	74727566 	ldrbtvc	r7, [r2], #-1382	; 0x566
   15a8c:	20726568 	rsbscs	r6, r2, r8, ror #10
   15a90:	646e696b 	strbtvs	r6, [lr], #-2411	; 0x96b
   15a94:	7373656e 	cmnvc	r3, #461373440	; 0x1b800000
   15a98:	20666f20 	rsbcs	r6, r6, r0, lsr #30
   15a9c:	6f636361 	svcvs	0x00636361
   15aa0:	6e61706d 	cdpvs	0, 6, cr7, cr1, cr13, {3}
   15aa4:	676e6979 			; <UNDEFINED> instruction: 0x676e6979
   15aa8:	0a737520 	beq	1cf2f30 <malloc_base+0x1cd74e4>
   15aac:	45206f74 	strmi	r6, [r0, #-3956]!	; 0xf74
   15ab0:	73656870 	cmnvc	r5, #7340032	; 0x700000
   15ab4:	61207375 	teqvs	r0, r5, ror r3
   15ab8:	6720646e 	strvs	r6, [r0, -lr, ror #8]!
   15abc:	6e697669 	cdpvs	6, 6, cr7, cr9, cr9, {3}
   15ac0:	6f742067 	svcvs	0x00742067
   15ac4:	20737520 	rsbscs	r7, r3, r0, lsr #10
   15ac8:	20736968 	rsbscs	r6, r3, r8, ror #18
   15acc:	63746177 	cmnvs	r4, #-1073741795	; 0xc000001d
   15ad0:	6c756668 	ldclvs	6, cr6, [r5], #-416	; 0xfffffe60
   15ad4:	72616320 	rsbvc	r6, r1, #-2147483648	; 0x80000000
   15ad8:	20202e65 	eorcs	r2, r0, r5, ror #28
   15adc:	62206557 	eorvs	r6, r0, #364904448	; 0x15c00000
   15ae0:	67756f72 			; <UNDEFINED> instruction: 0x67756f72
   15ae4:	73207468 	teqvc	r0, #1744830464	; 0x68000000
   15ae8:	79747869 	ldmdbvc	r4!, {r0, r3, r5, r6, fp, ip, sp, lr}^
   15aec:	61637320 	cmnvs	r3, r0, lsr #6
   15af0:	6c656372 	stclvs	3, cr6, [r5], #-456	; 0xfffffe38
   15af4:	65700a79 	ldrbvs	r0, [r0, #-2681]!	; 0xa79
   15af8:	70656372 	rsbvc	r6, r5, r2, ror r3
   15afc:	6c626974 	stclvs	9, cr6, [r2], #-464	; 0xfffffe30
   15b00:	6f642065 	svcvs	0x00642065
   15b04:	79656b6e 	stmdbvc	r5!, {r1, r2, r3, r5, r6, r8, r9, fp, sp, lr}^
   15b08:	6e692073 	mcrvs	0, 3, r2, cr9, cr3, {3}
   15b0c:	65687420 	strbvs	r7, [r8, #-1056]!	; 0x420
   15b10:	65726620 	ldrbvs	r6, [r2, #-1568]!	; 0x620
   15b14:	74686769 	strbtvc	r6, [r8], #-1897	; 0x769
   15b18:	72616320 	rsbvc	r6, r1, #-2147483648	; 0x80000000
   15b1c:	66202c73 			; <UNDEFINED> instruction: 0x66202c73
   15b20:	7720726f 	strvc	r7, [r0, -pc, ror #4]!
   15b24:	61682065 	cmnvs	r8, r5, rrx
   15b28:	756d2064 	strbvc	r2, [sp, #-100]!	; 0x64
   15b2c:	67206863 	strvs	r6, [r0, -r3, ror #16]!
   15b30:	6e756f72 	mrcvs	15, 3, r6, cr5, cr2, {3}
   15b34:	6f742064 	svcvs	0x00742064
   15b38:	0a6f6720 	beq	1bef7c0 <malloc_base+0x1bd3d74>
   15b3c:	7265766f 	rsbvc	r7, r5, #116391936	; 0x6f00000
   15b40:	5720202e 	strpl	r2, [r0, -lr, lsr #32]!
   15b44:	61682065 	cmnvs	r8, r5, rrx
   15b48:	73206576 	teqvc	r0, #494927872	; 0x1d800000
   15b4c:	206e6565 	rsbcs	r6, lr, r5, ror #10
   15b50:	656d6f73 	strbvs	r6, [sp, #-3955]!	; 0xf73
   15b54:	20666f20 	rsbcs	r6, r6, r0, lsr #30
   15b58:	20656874 	rsbcs	r6, r5, r4, ror r8
   15b5c:	74736f6d 	ldrbtvc	r6, [r3], #-3949	; 0xf6d
   15b60:	6f726720 	svcvs	0x00726720
   15b64:	71736574 	cmnvc	r3, r4, ror r5
   15b68:	63206575 	teqvs	r0, #490733568	; 0x1d400000
   15b6c:	7574736f 	ldrbvc	r7, [r4, #-879]!	; 0x36f
   15b70:	2c73656d 	cfldr64cs	mvdx6, [r3], #-436	; 0xfffffe4c
   15b74:	6f6c6120 	svcvs	0x006c6120
   15b78:	7420676e 	strtvc	r6, [r0], #-1902	; 0x76e
   15b7c:	6c206568 	cfstr32vs	mvfx6, [r0], #-416	; 0xfffffe60
   15b80:	0a656e69 	beq	197152c <malloc_base+0x1955ae0>
   15b84:	7420666f 	strtvc	r6, [r0], #-1647	; 0x66f
   15b88:	72206568 	eorvc	r6, r0, #436207616	; 0x1a000000
   15b8c:	726c6961 	rsbvc	r6, ip, #1589248	; 0x184000
   15b90:	2c64616f 	stfcse	f6, [r4], #-444	; 0xfffffe44
   15b94:	61687420 	cmnvs	r8, r0, lsr #8
   15b98:	61632074 	smcvs	12804	; 0x3204
   15b9c:	6562206e 	strbvs	r2, [r2, #-110]!	; 0x6e
   15ba0:	616d6920 	cmnvs	sp, r0, lsr #18
   15ba4:	656e6967 	strbvs	r6, [lr, #-2407]!	; 0x967
   15ba8:	20202e64 	eorcs	r2, r0, r4, ror #28
   15bac:	6d612049 	stclvs	0, cr2, [r1, #-292]!	; 0xfffffedc
   15bb0:	616c6720 	cmnvs	ip, r0, lsr #14
   15bb4:	68742064 	ldmdavs	r4!, {r2, r5, r6, sp}^
   15bb8:	6e207461 	cdpvs	4, 2, cr7, cr0, cr1, {3}
   15bbc:	6f70206f 	svcvs	0x0070206f
   15bc0:	62697373 	rsbvs	r7, r9, #-872415231	; 0xcc000001
   15bc4:	630a656c 	movwvs	r6, #42348	; 0xa56c
   15bc8:	69626d6f 	stmdbvs	r2!, {r0, r1, r2, r3, r5, r6, r8, sl, fp, sp, lr}^
   15bcc:	6974616e 	ldmdbvs	r4!, {r1, r2, r3, r5, r6, r8, sp, lr}^
   15bd0:	6f206e6f 	svcvs	0x00206e6f
   15bd4:	6f772066 	svcvs	0x00772066
   15bd8:	20736472 	rsbscs	r6, r3, r2, ror r4
   15bdc:	6c756f63 	ldclvs	15, cr6, [r5], #-396	; 0xfffffe74
   15be0:	65642064 	strbvs	r2, [r4, #-100]!	; 0x64
   15be4:	69726373 	ldmdbvs	r2!, {r0, r1, r4, r5, r6, r8, r9, sp, lr}^
   15be8:	74206562 	strtvc	r6, [r0], #-1378	; 0x562
   15bec:	2c6d6568 	cfstr64cs	mvdx6, [sp], #-416	; 0xfffffe60
   15bf0:	726f6620 	rsbvc	r6, pc, #33554432	; 0x2000000
   15bf4:	6d204920 	stcvs	9, cr4, [r0, #-128]!	; 0xffffff80
   15bf8:	74686769 	strbtvc	r6, [r8], #-1897	; 0x769
   15bfc:	65687420 	strbvs	r7, [r8, #-1056]!	; 0x420
   15c00:	6562206e 	strbvs	r2, [r2, #-110]!	; 0x6e
   15c04:	6f6f6620 	svcvs	0x006f6620
   15c08:	6873696c 	ldmdavs	r3!, {r2, r3, r5, r6, r8, fp, sp, lr}^
   15c0c:	6f6e650a 	svcvs	0x006e650a
   15c10:	20686775 	rsbcs	r6, r8, r5, ror r7
   15c14:	61206f74 	teqvs	r0, r4, ror pc
   15c18:	6d657474 	cfstrdvs	mvd7, [r5, #-464]!	; 0xfffffe30
   15c1c:	69207470 	stmdbvs	r0!, {r4, r5, r6, sl, ip, sp, lr}
   15c20:	0a0a2e74 	beq	2a15f8 <malloc_base+0x285bac>
   15c24:	61207441 	teqvs	r0, r1, asr #8
   15c28:	6569636e 	strbvs	r6, [r9, #-878]!	; 0x36e
   15c2c:	4120746e 	teqmi	r0, lr, ror #8
   15c30:	73736179 	cmnvc	r3, #1073741854	; 0x4000001e
   15c34:	6f6f6c61 	svcvs	0x006f6c61
   15c38:	69202c6b 	stmdbvs	r0!, {r0, r1, r3, r5, r6, sl, fp, sp}
   15c3c:	6874206e 	ldmdavs	r4!, {r1, r2, r3, r5, r6, sp}^
   15c40:	696d2065 	stmdbvs	sp!, {r0, r2, r5, r6, sp}^
   15c44:	20747364 	rsbscs	r7, r4, r4, ror #6
   15c48:	6120666f 	teqvs	r0, pc, ror #12
   15c4c:	726f6620 	rsbvc	r6, pc, #33554432	; 0x2000000
   15c50:	64646962 	strbtvs	r6, [r4], #-2402	; 0x962
   15c54:	20676e69 	rsbcs	r6, r7, r9, ror #28
   15c58:	65736564 	ldrbvs	r6, [r3, #-1380]!	; 0x564
   15c5c:	202c7472 	eorcs	r7, ip, r2, ror r4
   15c60:	63206577 	teqvs	r0, #499122176	; 0x1dc00000
   15c64:	20656d61 	rsbcs	r6, r5, r1, ror #26
   15c68:	6e6f7075 	mcrvs	0, 3, r7, cr15, cr5, {3}
   15c6c:	6e6f6c0a 	cdpvs	12, 6, cr6, cr15, cr10, {0}
   15c70:	696c2067 	stmdbvs	ip!, {r0, r1, r2, r5, r6, sp}^
   15c74:	2073656e 	rsbscs	r6, r3, lr, ror #10
   15c78:	7220666f 	eorvc	r6, r0, #116391936	; 0x6f00000
   15c7c:	656e6975 	strbvs	r6, [lr, #-2421]!	; 0x975
   15c80:	71612064 	cmnvc	r1, r4, rrx
   15c84:	75646575 	strbvc	r6, [r4, #-1397]!	; 0x575
   15c88:	2c737463 	cfldrdcs	mvd7, [r3], #-396	; 0xfffffe74
   15c8c:	646e6120 	strbtvs	r6, [lr], #-288	; 0x120
   15c90:	68746f20 	ldmdavs	r4!, {r5, r8, r9, sl, fp, sp, lr}^
   15c94:	72207265 	eorvc	r7, r0, #1342177286	; 0x50000006
   15c98:	616e6d65 	cmnvs	lr, r5, ror #26
   15c9c:	2073746e 	rsbscs	r7, r3, lr, ror #8
   15ca0:	6120666f 	teqvs	r0, pc, ror #12
   15ca4:	69686372 	stmdbvs	r8!, {r1, r4, r5, r6, r8, r9, sp, lr}^
   15ca8:	74636574 	strbtvc	r6, [r3], #-1396	; 0x574
   15cac:	6c617275 	sfmvs	f7, 2, [r1], #-468	; 0xfffffe2c
   15cb0:	6172670a 	cmnvs	r2, sl, lsl #14
   15cb4:	7565646e 	strbvc	r6, [r5, #-1134]!	; 0x46e
   15cb8:	74202c72 	strtvc	r2, [r0], #-3186	; 0xc72
   15cbc:	20746168 	rsbscs	r6, r4, r8, ror #2
   15cc0:	646c6f74 	strbtvs	r6, [ip], #-3956	; 0xf74
   15cc4:	20737520 	rsbscs	r7, r3, r0, lsr #10
   15cc8:	69616c70 	stmdbvs	r1!, {r4, r5, r6, sl, fp, sp, lr}^
   15ccc:	20796c6e 	rsbscs	r6, r9, lr, ror #24
   15cd0:	756f6e65 	strbvc	r6, [pc, #-3685]!	; 14e73 <twaindef+0x3eb>
   15cd4:	77206867 	strvc	r6, [r0, -r7, ror #16]!
   15cd8:	65772065 	ldrbvs	r2, [r7, #-101]!	; 0x65
   15cdc:	6e206572 	mcrvs	5, 1, r6, cr0, cr2, {3}
   15ce0:	69726165 	ldmdbvs	r2!, {r0, r2, r5, r6, r8, sp, lr}^
   15ce4:	7720676e 	strvc	r6, [r0, -lr, ror #14]!
   15ce8:	20746168 	rsbscs	r6, r4, r8, ror #2
   15cec:	20646168 	rsbcs	r6, r4, r8, ror #2
   15cf0:	6e656562 	cdpvs	5, 6, cr6, cr5, cr2, {3}
   15cf4:	6d0a6120 	stfvss	f6, [sl, #-128]	; 0xffffff80
   15cf8:	6f727465 	svcvs	0x00727465
   15cfc:	696c6f70 	stmdbvs	ip!, {r4, r5, r6, r8, r9, sl, fp, sp, lr}^
   15d00:	6f202c73 	svcvs	0x00202c73
   15d04:	2e65636e 	cdpcs	3, 6, cr6, cr5, cr14, {3}
   15d08:	65572020 	ldrbvs	r2, [r7, #-32]
   15d0c:	66656c20 	strbtvs	r6, [r5], -r0, lsr #24
   15d10:	68742074 	ldmdavs	r4!, {r2, r4, r5, r6, sp}^
   15d14:	72742065 	rsbsvc	r2, r4, #101	; 0x65
   15d18:	206e6961 	rsbcs	r6, lr, r1, ror #18
   15d1c:	20646e61 	rsbcs	r6, r4, r1, ror #28
   15d20:	6e756f6d 	cdpvs	15, 7, cr6, cr5, cr13, {3}
   15d24:	20646574 	rsbcs	r6, r4, r4, ror r5
   15d28:	20656874 	rsbcs	r6, r5, r4, ror r8
   15d2c:	6b6e6f64 	blvs	1bb1ac4 <malloc_base+0x1b96078>
   15d30:	2c737965 	ldclcs	9, cr7, [r3], #-404	; 0xfffffe6c
   15d34:	6f6c6120 	svcvs	0x006c6120
   15d38:	7720676e 	strvc	r6, [r0, -lr, ror #14]!
   15d3c:	0a687469 	beq	1a32ee8 <malloc_base+0x1a1749c>
   15d40:	2072756f 	rsbscs	r7, r2, pc, ror #10
   15d44:	69766e69 	ldmdbvs	r6!, {r0, r3, r5, r6, r9, sl, fp, sp, lr}^
   15d48:	20646574 	rsbcs	r6, r4, r4, ror r5
   15d4c:	73657567 	cmnvc	r5, #432013312	; 0x19c00000
   15d50:	2d2d7374 	stccs	3, cr7, [sp, #-464]!	; 0xfffffe30
   15d54:	61656c70 	smcvs	22208	; 0x56c0
   15d58:	746e6173 	strbtvc	r6, [lr], #-371	; 0x173
   15d5c:	756f7920 	strbvc	r7, [pc, #-2336]!	; 15444 <twaindef+0x9bc>
   15d60:	6720676e 	strvs	r6, [r0, -lr, ror #14]!
   15d64:	6c746e65 	ldclvs	14, cr6, [r4], #-404	; 0xfffffe6c
   15d68:	6e656d65 	cdpvs	13, 6, cr6, cr5, cr5, {3}
   15d6c:	6f726620 	svcvs	0x00726620
   15d70:	6874206d 	ldmdavs	r4!, {r0, r2, r3, r5, r6, sp}^
   15d74:	666f2065 	strbtvs	r2, [pc], -r5, rrx
   15d78:	65636966 	strbvs	r6, [r3, #-2406]!	; 0x966
   15d7c:	20277372 	eorcs	r7, r7, r2, ror r3
   15d80:	7473696c 	ldrbtvc	r6, [r3], #-2412	; 0x96c
   15d84:	0a666f20 	beq	19b1a0c <malloc_base+0x1995fc0>
   15d88:	41206e61 	teqmi	r0, r1, ror #28
   15d8c:	6972656d 	ldmdbvs	r2!, {r0, r2, r3, r5, r6, r8, sl, sp, lr}^
   15d90:	206e6163 	rsbcs	r6, lr, r3, ror #2
   15d94:	2d6e616d 	stfcse	f6, [lr, #-436]!	; 0xfffffe4c
   15d98:	772d666f 	strvc	r6, [sp, -pc, ror #12]!
   15d9c:	0a2e7261 	beq	bb2728 <malloc_base+0xb96cdc>
   15da0:	6568540a 	strbvs	r5, [r8, #-1034]!	; 0x40a
   15da4:	74696c20 	strbtvc	r6, [r9], #-3104	; 0xc20
   15da8:	20656c74 	rsbcs	r6, r5, r4, ror ip
   15dac:	6b6e6f64 	blvs	1bb1b44 <malloc_base+0x1b960f8>
   15db0:	20737965 	rsbscs	r7, r3, r5, ror #18
   15db4:	20646168 	rsbcs	r6, r4, r8, ror #2
   15db8:	64646173 	strbtvs	r6, [r4], #-371	; 0x173
   15dbc:	2073656c 	rsbscs	r6, r3, ip, ror #10
   15dc0:	6e6f7075 	mcrvs	0, 3, r7, cr15, cr5, {3}
   15dc4:	65687420 	strbvs	r7, [r8, #-1056]!	; 0x420
   15dc8:	6877206d 	ldmdavs	r7!, {r0, r2, r3, r5, r6, sp}^
   15dcc:	20686369 	rsbcs	r6, r8, r9, ror #6
   15dd0:	65726577 	ldrbvs	r6, [r2, #-1399]!	; 0x577
   15dd4:	64616d20 	strbtvs	r6, [r1], #-3360	; 0xd20
   15dd8:	65762065 	ldrbvs	r2, [r6, #-101]!	; 0x65
   15ddc:	68207972 	stmdavs	r0!, {r1, r4, r5, r6, r8, fp, ip, sp, lr}
   15de0:	20686769 	rsbcs	r6, r8, r9, ror #14
   15de4:	6f0a6e69 	svcvs	0x000a6e69
   15de8:	72656472 	rsbvc	r6, r5, #1912602624	; 0x72000000
   15dec:	61687420 	cmnvs	r8, r0, lsr #8
   15df0:	68742074 	ldmdavs	r4!, {r2, r4, r5, r6, sp}^
   15df4:	69722065 	ldmdbvs	r2!, {r0, r2, r5, r6, sp}^
   15df8:	27726564 	ldrbcs	r6, [r2, -r4, ror #10]!
   15dfc:	65662073 	strbvs	r2, [r6, #-115]!	; 0x73
   15e00:	6d207465 	cfstrsvs	mvf7, [r0, #-404]!	; 0xfffffe6c
   15e04:	74686769 	strbtvc	r6, [r8], #-1897	; 0x769
   15e08:	746f6e20 	strbtvc	r6, [pc], #-3616	; 15e10 <twain+0x404>
   15e0c:	61726420 	cmnvs	r2, r0, lsr #8
   15e10:	68742067 	ldmdavs	r4!, {r0, r1, r2, r5, r6, sp}^
   15e14:	72672065 	rsbvc	r2, r7, #101	; 0x65
   15e18:	646e756f 	strbtvs	r7, [lr], #-1391	; 0x56f
   15e1c:	5420202e 	strtpl	r2, [r0], #-46	; 0x2e
   15e20:	70206568 	eorvc	r6, r0, r8, ror #10
   15e24:	65766572 	ldrbvs	r6, [r6, #-1394]!	; 0x572
   15e28:	7461746e 	strbtvc	r7, [r1], #-1134	; 0x46e
   15e2c:	0a657669 	beq	19737d8 <malloc_base+0x1957d8c>
   15e30:	20646964 	rsbcs	r6, r4, r4, ror #18
   15e34:	20746f6e 	rsbscs	r6, r4, lr, ror #30
   15e38:	6b726f77 	blvs	1cb1c1c <malloc_base+0x1c961d0>
   15e3c:	6c657720 	stclvs	7, cr7, [r5], #-128	; 0xffffff80
   15e40:	6e69206c 	cdpvs	0, 6, cr2, cr9, cr12, {3}
   15e44:	65687420 	strbvs	r7, [r8, #-1056]!	; 0x420
   15e48:	73616320 	cmnvc	r1, #-2147483648	; 0x80000000
   15e4c:	6f207365 	svcvs	0x00207365
   15e50:	756f2066 	strbvc	r2, [pc, #-102]!	; 15df2 <twain+0x3e6>
   15e54:	61742072 	cmnvs	r4, r2, ror r0
   15e58:	73656c6c 	cmnvc	r5, #27648	; 0x6c00
   15e5c:	69702074 	ldmdbvs	r0!, {r2, r4, r5, r6, sp}^
   15e60:	6972676c 	ldmdbvs	r2!, {r2, r3, r5, r6, r8, r9, sl, sp, lr}^
   15e64:	202c736d 	eorcs	r7, ip, sp, ror #6
   15e68:	65776f68 	ldrbvs	r6, [r7, #-3944]!	; 0xf68
   15e6c:	2e726576 	mrccs	5, 3, r6, cr2, cr6, {3}
   15e70:	68542020 	ldmdavs	r4, {r5, sp}^
   15e74:	0a657265 	beq	1972810 <malloc_base+0x1956dc4>
   15e78:	65726577 	ldrbvs	r6, [r2, #-1399]!	; 0x577
   15e7c:	206f6e20 	rsbcs	r6, pc, r0, lsr #28
   15e80:	64697262 	strbtvs	r7, [r9], #-610	; 0x262
   15e84:	2d73656c 	cfldr64cs	mvdx6, [r3, #-432]!	; 0xfffffe50
   15e88:	746f6e2d 	strbtvc	r6, [pc], #-3629	; 15e90 <twain+0x484>
   15e8c:	676e6968 	strbvs	r6, [lr, -r8, ror #18]!
   15e90:	74756220 	ldrbtvc	r6, [r5], #-544	; 0x220
   15e94:	73206120 	teqvc	r0, #8
   15e98:	6c676e69 	stclvs	14, cr6, [r7], #-420	; 0xfffffe5c
   15e9c:	6f722065 	svcvs	0x00722065
   15ea0:	202c6570 	eorcs	r6, ip, r0, ror r5
   15ea4:	64656974 	strbtvs	r6, [r5], #-2420	; 0x974
   15ea8:	206f7420 	rsbcs	r7, pc, r0, lsr #8
   15eac:	20656874 	rsbcs	r6, r5, r4, ror r8
   15eb0:	2e746962 	cdpcs	9, 7, cr6, cr4, cr2, {3}
   15eb4:	74492020 	strbvc	r2, [r9], #-32
   15eb8:	73617720 	cmnvc	r1, #8388608	; 0x800000
   15ebc:	7275700a 	rsbsvc	r7, r5, #10
   15ec0:	20796c65 	rsbscs	r6, r9, r5, ror #24
   15ec4:	616e726f 	cmnvs	lr, pc, ror #4
   15ec8:	746e656d 	strbtvc	r6, [lr], #-1389	; 0x56d
   15ecc:	202c6c61 	eorcs	r6, ip, r1, ror #24
   15ed0:	20726f66 	rsbscs	r6, r2, r6, ror #30
   15ed4:	20656874 	rsbcs	r6, r5, r4, ror r8
   15ed8:	6b6e6f64 	blvs	1bb1c70 <malloc_base+0x1b96224>
   15edc:	63207965 	teqvs	r0, #1654784	; 0x194000
   15ee0:	64657261 	strbtvs	r7, [r5], #-609	; 0x261
   15ee4:	746f6e20 	strbtvc	r6, [pc], #-3616	; 15eec <twain+0x4e0>
   15ee8:	676e6968 	strbvs	r6, [lr, -r8, ror #18]!
   15eec:	726f6620 	rsbvc	r6, pc, #33554432	; 0x2000000
   15ef0:	2e746920 	cdpcs	9, 7, cr6, cr4, cr0, {1}
   15ef4:	66492020 	strbvs	r2, [r9], -r0, lsr #32
   15ef8:	20656820 	rsbcs	r6, r5, r0, lsr #16
   15efc:	65726577 	ldrbvs	r6, [r2, #-1399]!	; 0x577
   15f00:	6972640a 	ldmdbvs	r2!, {r1, r3, sl, sp, lr}^
   15f04:	6e697466 	cdpvs	4, 6, cr7, cr9, cr6, {3}
   15f08:	6f742067 	svcvs	0x00742067
   15f0c:	61747320 	cmnvs	r4, r0, lsr #6
   15f10:	616f6272 	smcvs	63010	; 0xf622
   15f14:	202c6472 	eorcs	r6, ip, r2, ror r4
   15f18:	20756f79 	rsbscs	r6, r5, r9, ror pc
   15f1c:	6867696d 	stmdavs	r7!, {r0, r2, r3, r5, r6, r8, fp, sp, lr}^
   15f20:	75702074 	ldrbvc	r2, [r0, #-116]!	; 0x74
   15f24:	6f792074 	svcvs	0x00792074
   15f28:	68207275 	stmdavs	r0!, {r0, r2, r4, r5, r6, r9, ip, sp, lr}
   15f2c:	206d6c65 	rsbcs	r6, sp, r5, ror #24
   15f30:	6e776f64 	cdpvs	15, 7, cr6, cr7, cr4, {3}
   15f34:	72616820 	rsbvc	r6, r1, #2097152	; 0x200000
   15f38:	68742064 	ldmdavs	r4!, {r2, r5, r6, sp}^
   15f3c:	746f2065 	strbtvc	r2, [pc], #-101	; 15f44 <twain+0x538>
   15f40:	20726568 	rsbscs	r6, r2, r8, ror #10
   15f44:	2c796177 	ldfcse	f6, [r9], #-476	; 0xfffffe24
   15f48:	2066690a 	rsbcs	r6, r6, sl, lsl #18
   15f4c:	77207469 	strvc	r7, [r0, -r9, ror #8]!
   15f50:	20657265 	rsbcs	r7, r5, r5, ror #4
   15f54:	20796e61 	rsbscs	r6, r9, r1, ror #28
   15f58:	69746173 	ldmdbvs	r4!, {r0, r1, r4, r5, r6, r8, sp, lr}^
   15f5c:	63616673 	cmnvs	r1, #120586240	; 0x7300000
   15f60:	6e6f6974 	mcrvs	9, 3, r6, cr15, cr4, {3}
   15f64:	206f7420 	rsbcs	r7, pc, r0, lsr #8
   15f68:	20756f79 	rsbscs	r6, r5, r9, ror pc
   15f6c:	64206f74 	strtvs	r6, [r0], #-3956	; 0xf74
   15f70:	7469206f 	strbtvc	r2, [r9], #-111	; 0x6f
   15f74:	7562202c 	strbvc	r2, [r2, #-44]!	; 0x2c
   15f78:	65682074 	strbvs	r2, [r8, #-116]!	; 0x74
   15f7c:	756f7720 	strbvc	r7, [pc, #-1824]!	; 15864 <twaindef+0xddc>
   15f80:	6320646c 	teqvs	r0, #1811939328	; 0x6c000000
   15f84:	69746e6f 	ldmdbvs	r4!, {r0, r1, r2, r3, r5, r6, r9, sl, fp, sp, lr}^
   15f88:	2065756e 	rsbcs	r7, r5, lr, ror #10
   15f8c:	640a6f74 	strvs	r6, [sl], #-3956	; 0xf74
   15f90:	74666972 	strbtvc	r6, [r6], #-2418	; 0x972
   15f94:	206f7420 	rsbcs	r7, pc, r0, lsr #8
   15f98:	72617473 	rsbvc	r7, r1, #1929379840	; 0x73000000
   15f9c:	72616f62 	rsbvc	r6, r1, #392	; 0x188
   15fa0:	6c612064 	stclvs	0, cr2, [r1], #-400	; 0xfffffe70
   15fa4:	6874206c 	ldmdavs	r4!, {r2, r3, r5, r6, sp}^
   15fa8:	61732065 	cmnvs	r3, r5, rrx
   15fac:	202e656d 	eorcs	r6, lr, sp, ror #10
   15fb0:	65685420 	strbvs	r5, [r8, #-1056]!	; 0x420
   15fb4:	77206572 			; <UNDEFINED> instruction: 0x77206572
   15fb8:	6f207361 	svcvs	0x00207361
   15fbc:	20796c6e 	rsbscs	r6, r9, lr, ror #24
   15fc0:	20656e6f 	rsbcs	r6, r5, pc, ror #28
   15fc4:	636f7270 	cmnvs	pc, #7
   15fc8:	20737365 	rsbscs	r7, r3, r5, ror #6
   15fcc:	63696877 	cmnvs	r9, #7798784	; 0x770000
   15fd0:	6f632068 	svcvs	0x00632068
   15fd4:	0a646c75 	beq	19311b0 <malloc_base+0x1915764>
   15fd8:	64206562 	strtvs	r6, [r0], #-1378	; 0x562
   15fdc:	6e657065 	cdpvs	0, 6, cr7, cr5, cr5, {3}
   15fe0:	20646564 	rsbcs	r6, r4, r4, ror #10
   15fe4:	202c6e6f 	eorcs	r6, ip, pc, ror #28
   15fe8:	20646e61 	rsbcs	r6, r4, r1, ror #28
   15fec:	77207469 	strvc	r7, [r0, -r9, ror #8]!
   15ff0:	74207361 	strtvc	r7, [r0], #-865	; 0x361
   15ff4:	6567206f 	strbvs	r2, [r7, #-111]!	; 0x6f
   15ff8:	6f642074 	svcvs	0x00642074
   15ffc:	61206e77 	teqvs	r0, r7, ror lr
   16000:	6c20646e 	cfstrsvs	mvf6, [r0], #-440	; 0xfffffe48
   16004:	20746669 	rsbscs	r6, r4, r9, ror #12
   16008:	20736968 	rsbscs	r6, r3, r8, ror #18
   1600c:	72616572 	rsbvc	r6, r1, #478150656	; 0x1c800000
   16010:	6f726120 	svcvs	0x00726120
   16014:	20646e75 	rsbcs	r6, r4, r5, ror lr
   16018:	69746e75 	ldmdbvs	r4!, {r0, r2, r4, r5, r6, r9, sl, fp, sp, lr}^
   1601c:	6968206c 	stmdbvs	r8!, {r2, r3, r5, r6, sp}^
   16020:	65680a73 	strbvs	r0, [r8, #-2675]!	; 0xa73
   16024:	70206461 	eorvc	r6, r0, r1, ror #8
   16028:	746e696f 	strbtvc	r6, [lr], #-2415	; 0x96f
   1602c:	69206465 	stmdbvs	r0!, {r0, r2, r5, r6, sl, sp, lr}
   16030:	6874206e 	ldmdavs	r4!, {r1, r2, r3, r5, r6, sp}^
   16034:	69722065 	ldmdbvs	r2!, {r0, r2, r5, r6, sp}^
   16038:	20746867 	rsbscs	r6, r4, r7, ror #16
   1603c:	65726964 	ldrbvs	r6, [r2, #-2404]!	; 0x964
   16040:	6f697463 	svcvs	0x00697463
   16044:	6f202c6e 	svcvs	0x00202c6e
   16048:	61742072 	cmnvs	r4, r2, ror r0
   1604c:	6820656b 	stmdavs	r0!, {r0, r1, r3, r5, r6, r8, sl, sp, lr}
   16050:	75206d69 	strvc	r6, [r0, #-3433]!	; 0xd69
   16054:	7265646e 	rsbvc	r6, r5, #1845493760	; 0x6e000000
   16058:	756f7920 	strbvc	r7, [pc, #-2336]!	; 15740 <twaindef+0xcb8>
   1605c:	72612072 	rsbvc	r2, r1, #114	; 0x72
   16060:	6e61206d 	cdpvs	0, 6, cr2, cr1, cr13, {3}
   16064:	61632064 	cmnvs	r3, r4, rrx
   16068:	0a797272 	beq	1e72a38 <malloc_base+0x1e56fec>
   1606c:	206d6968 	rsbcs	r6, sp, r8, ror #18
   16070:	61206f74 	teqvs	r0, r4, ror pc
   16074:	72617020 	rsbvc	r7, r1, #32
   16078:	666f2074 			; <UNDEFINED> instruction: 0x666f2074
   1607c:	65687420 	strbvs	r7, [r8, #-1056]!	; 0x420
   16080:	616f7220 	cmnvs	pc, r0, lsr #4
   16084:	68772064 	ldmdavs	r7!, {r2, r5, r6, sp}^
   16088:	20686369 	rsbcs	r6, r8, r9, ror #6
   1608c:	63206568 	teqvs	r0, #436207616	; 0x1a000000
   16090:	646c756f 	strbtvs	r7, [ip], #-1391	; 0x56f
   16094:	746f6e20 	strbtvc	r6, [pc], #-3616	; 1609c <twain+0x690>
   16098:	74656720 	strbtvc	r6, [r5], #-1824	; 0x720
   1609c:	74756f20 	ldrbtvc	r6, [r5], #-3872	; 0xf20
   160a0:	20666f20 	rsbcs	r6, r6, r0, lsr #30
   160a4:	68746977 	ldmdavs	r4!, {r0, r1, r2, r4, r5, r6, r8, fp, sp, lr}^
   160a8:	2074756f 	rsbscs	r7, r4, pc, ror #10
   160ac:	6d696c63 	stclvs	12, cr6, [r9, #-396]!	; 0xfffffe74
   160b0:	676e6962 	strbvs	r6, [lr, -r2, ror #18]!
   160b4:	68540a2e 	ldmdavs	r4, {r1, r2, r3, r5, r9, fp}^
   160b8:	75732065 	ldrbvc	r2, [r3, #-101]!	; 0x65
   160bc:	6c66206e 	stclvs	0, cr2, [r6], #-440	; 0xfffffe48
   160c0:	64656d61 	strbtvs	r6, [r5], #-3425	; 0xd61
   160c4:	776f6420 	strbvc	r6, [pc, -r0, lsr #8]!
   160c8:	7361206e 	cmnvc	r1, #110	; 0x6e
   160cc:	746f6820 	strbtvc	r6, [pc], #-2080	; 160d4 <twain+0x6c8>
   160d0:	20736120 	rsbscs	r6, r3, r0, lsr #2
   160d4:	75662061 	strbvc	r2, [r6, #-97]!	; 0x61
   160d8:	63616e72 	cmnvs	r1, #1824	; 0x720
   160dc:	61202c65 	teqvs	r0, r5, ror #24
   160e0:	6e20646e 	cdpvs	4, 2, cr6, cr0, cr14, {3}
   160e4:	2d6b6365 	stclcs	3, cr6, [fp, #-404]!	; 0xfffffe6c
   160e8:	72616373 	rsbvc	r6, r1, #-872415231	; 0xcc000001
   160ec:	202c7366 	eorcs	r7, ip, r6, ror #6
   160f0:	6c696576 	cfstr64vs	mvdx6, [r9], #-472	; 0xfffffe28
   160f4:	6e612073 	mcrvs	0, 3, r2, cr1, cr3, {3}
   160f8:	6d750a64 	vldmdbvs	r5!, {s1-s100}
   160fc:	6c657262 	sfmvs	f7, 2, [r5], #-392	; 0xfffffe78
   16100:	2073616c 	rsbscs	r6, r3, ip, ror #2
   16104:	6d656573 	cfstr64vs	mvdx6, [r5, #-460]!	; 0xfffffe34
   16108:	68206465 	stmdavs	r0!, {r0, r2, r5, r6, sl, sp, lr}
   1610c:	6c647261 	sfmvs	f7, 2, [r4], #-388	; 0xfffffe7c
   16110:	6e612079 	mcrvs	0, 3, r2, cr1, cr9, {3}
   16114:	72702079 	rsbsvc	r2, r0, #121	; 0x79
   16118:	6365746f 	cmnvs	r5, #1862270976	; 0x6f000000
   1611c:	6e6f6974 	mcrvs	9, 3, r6, cr15, cr4, {3}
   16120:	6874203b 	ldmdavs	r4!, {r0, r1, r3, r4, r5, sp}^
   16124:	73207965 	teqvc	r0, #1654784	; 0x194000
   16128:	65767265 	ldrbvs	r7, [r6, #-613]!	; 0x265
   1612c:	6e6f2064 	cdpvs	0, 6, cr2, cr15, cr4, {3}
   16130:	7420796c 	strtvc	r7, [r0], #-2412	; 0x96c
   16134:	616d206f 	cmnvs	sp, pc, rrx
   16138:	7420656b 	strtvc	r6, [r0], #-1387	; 0x56b
   1613c:	6c206568 	cfstr32vs	mvfx6, [r0], #-416	; 0xfffffe60
   16140:	0a676e6f 	beq	19f1b04 <malloc_base+0x19d60b8>
   16144:	636f7270 	cmnvs	pc, #7
   16148:	69737365 	ldmdbvs	r3!, {r0, r2, r5, r6, r8, r9, ip, sp, lr}^
   1614c:	6c206e6f 	stcvs	14, cr6, [r0], #-444	; 0xfffffe44
   16150:	206b6f6f 	rsbcs	r6, fp, pc, ror #30
   16154:	65726f6d 	ldrbvs	r6, [r2, #-3949]!	; 0xf6d
   16158:	61687420 	cmnvs	r8, r0, lsr #8
   1615c:	7665206e 	strbtvc	r2, [r5], -lr, rrx
   16160:	66207265 	strtvs	r7, [r0], -r5, ror #4
   16164:	61746e61 	cmnvs	r4, r1, ror #28
   16168:	63697473 	cmnvs	r9, #1929379840	; 0x73000000
   1616c:	6f662d2d 	svcvs	0x00662d2d
   16170:	65622072 	strbvs	r2, [r2, #-114]!	; 0x72
   16174:	20746920 	rsbscs	r6, r4, r0, lsr #18
   16178:	776f6e6b 	strbvc	r6, [pc, -fp, ror #28]!
   1617c:	6874206e 	ldmdavs	r4!, {r1, r2, r3, r5, r6, sp}^
   16180:	616c2065 	cmnvs	ip, r5, rrx
   16184:	73656964 	cmnvc	r5, #1638400	; 0x190000
   16188:	72657720 	rsbvc	r7, r5, #8388608	; 0x800000
   1618c:	6c610a65 	stclvs	10, cr0, [r1], #-404	; 0xfffffe6c
   16190:	6972206c 	ldmdbvs	r2!, {r2, r3, r5, r6, sp}^
   16194:	676e6964 	strbvs	r6, [lr, -r4, ror #18]!
   16198:	74736120 	ldrbtvc	r6, [r3], #-288	; 0x120
   1619c:	65646972 	strbvs	r6, [r4, #-2418]!	; 0x972
   161a0:	63656220 	cmnvs	r5, #2
   161a4:	65737561 	ldrbvs	r7, [r3, #-1377]!	; 0x561
   161a8:	65687420 	strbvs	r7, [r8, #-1056]!	; 0x420
   161ac:	6f632079 	svcvs	0x00632079
   161b0:	20646c75 	rsbcs	r6, r4, r5, ror ip
   161b4:	20746f6e 	rsbscs	r6, r4, lr, ror #30
   161b8:	79617473 	stmdbvc	r1!, {r0, r1, r4, r5, r6, sl, ip, sp, lr}^
   161bc:	206e6f20 	rsbcs	r6, lr, r0, lsr #30
   161c0:	20656874 	rsbcs	r6, r5, r4, ror r8
   161c4:	70616873 	rsbvc	r6, r1, r3, ror r8
   161c8:	73656c65 	cmnvc	r5, #25856	; 0x6500
   161cc:	61732073 	cmnvs	r3, r3, ror r0
   161d0:	656c6464 	strbvs	r6, [ip, #-1124]!	; 0x464
   161d4:	69730a73 	ldmdbvs	r3!, {r0, r1, r4, r5, r6, r9, fp}^
   161d8:	69776564 	ldmdbvs	r7!, {r2, r5, r6, r8, sl, sp, lr}^
   161dc:	202c6573 	eorcs	r6, ip, r3, ror r5
   161e0:	20656874 	rsbcs	r6, r5, r4, ror r8
   161e4:	206e656d 	rsbcs	r6, lr, sp, ror #10
   161e8:	65726577 	ldrbvs	r6, [r2, #-1399]!	; 0x577
   161ec:	72657020 	rsbvc	r7, r5, #32
   161f0:	72697073 	rsbvc	r7, r9, #115	; 0x73
   161f4:	20676e69 	rsbcs	r6, r7, r9, ror #28
   161f8:	20646e61 	rsbcs	r6, r4, r1, ror #28
   161fc:	2074756f 	rsbscs	r7, r4, pc, ror #10
   16200:	7420666f 	strtvc	r6, [r0], #-1647	; 0x66f
   16204:	65706d65 	ldrbvs	r6, [r0, #-3429]!	; 0xd65
   16208:	74202c72 	strtvc	r2, [r0], #-3186	; 0xc72
   1620c:	72696568 	rsbvc	r6, r9, #436207616	; 0x1a000000
   16210:	65656620 	strbvs	r6, [r5, #-1568]!	; 0x620
   16214:	65772074 	ldrbvs	r2, [r7, #-116]!	; 0x74
   16218:	620a6572 	andvs	r6, sl, #478150656	; 0x1c800000
   1621c:	69676e61 	stmdbvs	r7!, {r0, r5, r6, r9, sl, fp, sp, lr}^
   16220:	6120676e 	teqvs	r0, lr, ror #14
   16224:	6e696167 	powvsez	f6, f1, f7
   16228:	74207473 	strtvc	r7, [r0], #-1139	; 0x473
   1622c:	72206568 	eorvc	r6, r0, #436207616	; 0x1a000000
   16230:	736b636f 	cmnvc	fp, #-1140850687	; 0xbc000001
   16234:	6874202c 	ldmdavs	r4!, {r2, r3, r5, sp}^
   16238:	6f642065 	svcvs	0x00642065
   1623c:	79656b6e 	stmdbvc	r5!, {r1, r2, r3, r5, r6, r8, r9, fp, sp, lr}^
   16240:	65772073 	ldrbvs	r2, [r7, #-115]!	; 0x73
   16244:	63206572 	teqvs	r0, #478150656	; 0x1c800000
   16248:	72657061 	rsbvc	r7, r5, #97	; 0x61
   1624c:	20676e69 	rsbcs	r6, r7, r9, ror #28
   16250:	65206e69 	strvs	r6, [r0, #-3689]!	; 0xe69
   16254:	79726576 	ldmdbvc	r2!, {r1, r2, r4, r5, r6, r8, sl, sp, lr}^
   16258:	72696420 	rsbvc	r6, r9, #536870912	; 0x20000000
   1625c:	69746365 	ldmdbvs	r4!, {r0, r2, r5, r6, r8, r9, sp, lr}^
   16260:	620a6e6f 	andvs	r6, sl, #1776	; 0x6f0
   16264:	74207475 	strtvc	r7, [r0], #-1141	; 0x475
   16268:	72206568 	eorvc	r6, r0, #436207616	; 0x1a000000
   1626c:	74686769 	strbtvc	r6, [r8], #-1897	; 0x769
   16270:	656e6f20 	strbvs	r6, [lr, #-3872]!	; 0xf20
   16274:	646e6120 	strbtvs	r6, [lr], #-288	; 0x120
   16278:	69656220 	stmdbvs	r5!, {r5, r9, sp, lr}^
   1627c:	6220676e 	eorvs	r6, r0, #28835840	; 0x1b80000
   16280:	62616c65 	rsbvs	r6, r1, #25856	; 0x6500
   16284:	6465726f 	strbtvs	r7, [r5], #-623	; 0x26f
   16288:	74697720 	strbtvc	r7, [r9], #-1824	; 0x720
   1628c:	6c632068 	stclvs	0, cr2, [r3], #-416	; 0xfffffe60
   16290:	20736275 	rsbscs	r6, r3, r5, ror r2
   16294:	20726f66 	rsbscs	r6, r2, r6, ror #30
   16298:	202c7469 	eorcs	r7, ip, r9, ror #8
   1629c:	20646e61 	rsbcs	r6, r4, r1, ror #28
   162a0:	72657665 	rsbvc	r7, r5, #105906176	; 0x6500000
   162a4:	6f6e2079 	svcvs	0x006e2079
   162a8:	6e610a77 	mcrvs	10, 3, r0, cr1, cr7, {3}
   162ac:	68742064 	ldmdavs	r4!, {r2, r5, r6, sp}^
   162b0:	61206e65 	teqvs	r0, r5, ror #28
   162b4:	6f726220 	svcvs	0x00726220
   162b8:	75206461 	strvc	r6, [r0, #-1121]!	; 0x461
   162bc:	6572626d 	ldrbvs	r6, [r2, #-621]!	; 0x26d
   162c0:	20616c6c 	rsbcs	r6, r1, ip, ror #24
   162c4:	6c756f77 	ldclvs	15, cr6, [r5], #-476	; 0xfffffe24
   162c8:	75732064 	ldrbvc	r2, [r3, #-100]!	; 0x64
   162cc:	6e656464 	cdpvs	4, 6, cr6, cr5, cr4, {3}
   162d0:	6720796c 	strvs	r7, [r0, -ip, ror #18]!
   162d4:	6f64206f 	svcvs	0x0064206f
   162d8:	6f206e77 	svcvs	0x00206e77
   162dc:	6f207475 	svcvs	0x00207475
   162e0:	68742066 	ldmdavs	r4!, {r1, r2, r5, r6, sp}^
   162e4:	61632065 	cmnvs	r3, r5, rrx
   162e8:	636c6176 	cmnvs	ip, #-2147483619	; 0x8000001d
   162ec:	2c656461 	cfstrdcs	mvd6, [r5], #-388	; 0xfffffe7c
   162f0:	6e6e610a 	powvse	f6, f6, #2.0
   162f4:	636e756f 	cmnvs	lr, #465567744	; 0x1bc00000
   162f8:	20676e69 	rsbcs	r6, r7, r9, ror #28
   162fc:	61206f74 	teqvs	r0, r4, ror pc
   16300:	74206c6c 	strtvc	r6, [r0], #-3180	; 0xc6c
   16304:	20746168 	rsbscs	r6, r4, r8, ror #2
   16308:	20656e6f 	rsbcs	r6, r5, pc, ror #28
   1630c:	65726f6d 	ldrbvs	r6, [r2, #-3949]!	; 0xf6d
   16310:	6c697020 	stclvs	0, cr7, [r9], #-128	; 0xffffff80
   16314:	6d697267 	sfmvs	f7, 2, [r9, #-412]!	; 0xfffffe64
   16318:	64616820 	strbtvs	r6, [r1], #-2080	; 0x820
   1631c:	74696220 	strbtvc	r6, [r9], #-544	; 0x220
   16320:	206e6574 	rsbcs	r6, lr, r4, ror r5
   16324:	20656874 	rsbcs	r6, r5, r4, ror r8
   16328:	74737564 	ldrbtvc	r7, [r3], #-1380	; 0x564
   1632c:	4920202e 	stmdbmi	r0!, {r1, r2, r3, r5, sp}
   16330:	61772074 	cmnvs	r7, r4, ror r0
   16334:	0a612073 	beq	185e508 <malloc_base+0x1842abc>
   16338:	646c6977 	strbtvs	r6, [ip], #-2423	; 0x977
   1633c:	70207265 	eorvc	r7, r0, r5, ror #4
   16340:	75746369 	ldrbvc	r6, [r4, #-873]!	; 0x369
   16344:	74206572 	strtvc	r6, [r0], #-1394	; 0x572
   16348:	206e6168 	rsbcs	r6, lr, r8, ror #2
   1634c:	736f6874 	cmnvc	pc, #7602176	; 0x740000
   16350:	6f732065 	svcvs	0x00732065
   16354:	7574696c 	ldrbvc	r6, [r4, #-2412]!	; 0x96c
   16358:	20736564 	rsbscs	r6, r3, r4, ror #10
   1635c:	20646168 	rsbcs	r6, r4, r8, ror #2
   16360:	6e656573 	mcrvs	5, 3, r6, cr5, cr3, {3}
   16364:	726f6620 	rsbvc	r6, pc, #33554432	; 0x2000000
   16368:	6e616d20 	cdpvs	13, 6, cr6, cr1, cr0, {1}
   1636c:	20612079 	rsbcs	r2, r1, r9, ror r0
   16370:	2e796164 	rpwcsez	f6, f1, f4
   16374:	6f4e2020 	svcvs	0x004e2020
   16378:	6e6f6420 	cdpvs	4, 6, cr6, cr15, cr0, {1}
   1637c:	7379656b 	cmnvc	r9, #448790528	; 0x1ac00000
   16380:	6576650a 	ldrbvs	r6, [r6, #-1290]!	; 0x50a
   16384:	78652072 	stmdavc	r5!, {r1, r4, r5, r6, sp}^
   16388:	65747369 	ldrbvs	r7, [r4, #-873]!	; 0x369
   1638c:	68742064 	ldmdavs	r4!, {r2, r5, r6, sp}^
   16390:	77207461 	strvc	r7, [r0, -r1, ror #8]!
   16394:	20657265 	rsbcs	r7, r5, r5, ror #4
   16398:	68207361 	stmdavs	r0!, {r0, r5, r6, r8, r9, ip, sp, lr}
   1639c:	20647261 	rsbcs	r7, r4, r1, ror #4
   163a0:	6e206f74 	mcrvs	15, 1, r6, cr0, cr4, {3}
   163a4:	67697661 	strbvs	r7, [r9, -r1, ror #12]!
   163a8:	20657461 	rsbcs	r7, r5, r1, ror #8
   163ac:	74207361 	strtvc	r7, [r0], #-865	; 0x361
   163b0:	65736568 	ldrbvs	r6, [r3, #-1384]!	; 0x568
   163b4:	2049202c 	subcs	r2, r9, ip, lsr #32
   163b8:	6e696874 	mcrvs	8, 3, r6, cr9, cr4, {3}
   163bc:	6f202c6b 	svcvs	0x00202c6b
   163c0:	68742072 	ldmdavs	r4!, {r1, r4, r5, r6, sp}^
   163c4:	68207461 	stmdavs	r0!, {r0, r5, r6, sl, ip, sp, lr}
   163c8:	730a6461 	movwvc	r6, #42081	; 0xa461
   163cc:	616d206f 	cmnvs	sp, pc, rrx
   163d0:	7620796e 	strtvc	r7, [r0], -lr, ror #18
   163d4:	2c656c69 	stclcs	12, cr6, [r5], #-420	; 0xfffffe5c
   163d8:	61786520 	cmnvs	r8, r0, lsr #10
   163dc:	72657073 	rsbvc	r7, r5, #115	; 0x73
   163e0:	6e697461 	cdpvs	4, 6, cr7, cr9, cr1, {3}
   163e4:	6e692067 	cdpvs	0, 6, cr2, cr9, cr7, {3}
   163e8:	6e697473 	mcrvs	4, 3, r7, cr9, cr3, {3}
   163ec:	2e737463 	cdpcs	4, 7, cr7, cr3, cr3, {3}
   163f0:	634f2020 	movtvs	r2, #61472	; 0xf020
   163f4:	69736163 	ldmdbvs	r3!, {r0, r1, r5, r6, r8, sp, lr}^
   163f8:	6c616e6f 	stclvs	14, cr6, [r1], #-444	; 0xfffffe44
   163fc:	7720796c 	strvc	r7, [r0, -ip, ror #18]!
   16400:	72672065 	rsbvc	r2, r7, #101	; 0x65
   16404:	73207765 	teqvc	r0, #26476544	; 0x1940000
   16408:	6974206f 	ldmdbvs	r4!, {r0, r1, r2, r3, r5, r6, sp}^
   1640c:	20646572 	rsbcs	r6, r4, r2, ror r5
   16410:	0a646e61 	beq	1931d9c <malloc_base+0x1916350>
   16414:	61657262 	cmnvs	r5, r2, ror #4
   16418:	656c6874 	strbvs	r6, [ip, #-2164]!	; 0x874
   1641c:	77207373 			; <UNDEFINED> instruction: 0x77207373
   16420:	20687469 	rsbcs	r7, r8, r9, ror #8
   16424:	68676966 	stmdavs	r7!, {r1, r2, r5, r6, r8, fp, sp, lr}^
   16428:	676e6974 			; <UNDEFINED> instruction: 0x676e6974
   1642c:	65687420 	strbvs	r7, [r8, #-1056]!	; 0x420
   16430:	6874206d 	ldmdavs	r4!, {r0, r2, r3, r5, r6, sp}^
   16434:	77207461 	strvc	r7, [r0, -r1, ror #8]!
   16438:	61682065 	cmnvs	r8, r5, rrx
   1643c:	6f742064 	svcvs	0x00742064
   16440:	73656420 	cmnvc	r5, #536870912	; 0x20000000
   16444:	2c747369 	ldclcs	3, cr7, [r4], #-420	; 0xfffffe5c
   16448:	6e612d2d 	cdpvs	13, 6, cr2, cr1, cr13, {1}
   1644c:	6d692064 	stclvs	0, cr2, [r9, #-400]!	; 0xfffffe70
   16450:	6964656d 	stmdbvs	r4!, {r0, r2, r3, r5, r6, r8, sl, sp, lr}^
   16454:	6c657461 	cfstrdvs	mvd7, [r5], #-388	; 0xfffffe7c
   16458:	68742079 	ldmdavs	r4!, {r0, r3, r4, r5, r6, sp}^
   1645c:	6f640a65 	svcvs	0x00640a65
   16460:	79656b6e 	stmdbvc	r5!, {r1, r2, r3, r5, r6, r8, r9, fp, sp, lr}^
   16464:	756f7720 	strbvc	r7, [pc, #-1824]!	; 15d4c <twain+0x340>
   16468:	6320646c 	teqvs	r0, #1811939328	; 0x6c000000
   1646c:	20656d6f 	rsbcs	r6, r5, pc, ror #26
   16470:	6e776f64 	cdpvs	15, 7, cr6, cr7, cr4, {3}
   16474:	206f7420 	rsbcs	r7, pc, r0, lsr #8
   16478:	65642061 	strbvs	r2, [r4, #-97]!	; 0x61
   1647c:	6562696c 	strbvs	r6, [r2, #-2412]!	; 0x96c
   16480:	65746172 	ldrbvs	r6, [r4, #-370]!	; 0x172
   16484:	6c617720 	stclvs	7, cr7, [r1], #-128	; 0xffffff80
   16488:	20202e6b 	eorcs	r2, r0, fp, ror #28
   1648c:	73696854 	cmnvc	r9, #5505024	; 0x540000
   16490:	6977202c 	ldmdbvs	r7!, {r2, r3, r5, sp}^
   16494:	74206874 	strtvc	r6, [r0], #-2164	; 0x874
   16498:	66206568 	strtvs	r6, [r0], -r8, ror #10
   1649c:	67697461 	strbvs	r7, [r9, -r1, ror #8]!
   164a0:	202c6575 	eorcs	r6, ip, r5, ror r5
   164a4:	0a646e61 	beq	1931e30 <malloc_base+0x19163e4>
   164a8:	20656874 	rsbcs	r6, r5, r4, ror r8
   164ac:	2c6e7573 	cfstr64cs	mvdx7, [lr], #-460	; 0xfffffe34
   164b0:	756f7720 	strbvc	r7, [pc, #-1824]!	; 15d98 <twain+0x38c>
   164b4:	7020646c 	eorvc	r6, r0, ip, ror #8
   164b8:	61207475 	teqvs	r0, r5, ror r4
   164bc:	6e616d20 	cdpvs	13, 6, cr6, cr1, cr0, {1}
   164c0:	6c736120 	ldfvse	f6, [r3], #-128	; 0xffffff80
   164c4:	3b706565 	blcc	1c2fa60 <malloc_base+0x1c14014>
   164c8:	646e6120 	strbtvs	r6, [lr], #-288	; 0x120
   164cc:	6f6f7320 	svcvs	0x006f7320
   164d0:	7361206e 	cmnvc	r1, #110	; 0x6e
   164d4:	65687420 	strbvs	r7, [r8, #-1056]!	; 0x420
   164d8:	6e616d20 	cdpvs	13, 6, cr6, cr1, cr0, {1}
   164dc:	73617720 	cmnvc	r1, #8388608	; 0x800000
   164e0:	6c736120 	ldfvse	f6, [r3], #-128	; 0xffffff80
   164e4:	2c706565 	cfldr64cs	mvdx6, [r0], #-404	; 0xfffffe6c
   164e8:	65687420 	strbvs	r7, [r8, #-1056]!	; 0x420
   164ec:	6e6f640a 	cdpvs	4, 6, cr6, cr15, cr10, {0}
   164f0:	2079656b 	rsbscs	r6, r9, fp, ror #10
   164f4:	6c756f77 	ldclvs	15, cr6, [r5], #-476	; 0xfffffe24
   164f8:	696c2064 	stmdbvs	ip!, {r2, r5, r6, sp}^
   164fc:	6f642065 	svcvs	0x00642065
   16500:	202e6e77 	eorcs	r6, lr, r7, ror lr
   16504:	20794d20 	rsbscs	r4, r9, r0, lsr #26
   16508:	6b6e6f64 	blvs	1bb22a0 <malloc_base+0x1b96854>
   1650c:	73207965 	teqvc	r0, #1654784	; 0x194000
   16510:	6c6c6168 	stfvse	f6, [ip], #-416	; 0xfffffe60
   16514:	76656e20 	strbtvc	r6, [r5], -r0, lsr #28
   16518:	73207265 	teqvc	r0, #1342177286	; 0x50000006
   1651c:	68206565 	stmdavs	r0!, {r0, r2, r5, r6, r8, sl, sp, lr}
   16520:	62207369 	eorvs	r7, r0, #-1543503871	; 0xa4000001
   16524:	6f68796f 	svcvs	0x0068796f
   16528:	7327646f 	teqvc	r7, #1862270976	; 0x6f000000
   1652c:	6d6f6820 	stclvs	8, cr6, [pc, #-128]!	; 164b4 <twain+0xaa8>
   16530:	67610a65 	strbvs	r0, [r1, -r5, ror #20]!
   16534:	2e6e6961 	cdpcs	9, 6, cr6, cr14, cr1, {3}
   16538:	65482020 	strbvs	r2, [r8, #-32]
   1653c:	73616820 	cmnvc	r1, #2097152	; 0x200000
   16540:	69616c20 	stmdbvs	r1!, {r5, sl, fp, sp, lr}^
   16544:	6f64206e 	svcvs	0x0064206e
   16548:	6f206e77 	svcvs	0x00206e77
   1654c:	2065636e 	rsbcs	r6, r5, lr, ror #6
   16550:	206f6f74 	rsbcs	r6, pc, r4, ror pc	; <UNPREDICTABLE>
   16554:	6574666f 	ldrbvs	r6, [r4, #-1647]!	; 0x66f
   16558:	48202e6e 	stmdami	r0!, {r1, r2, r3, r5, r6, r9, sl, fp, sp}
   1655c:	756d2065 	strbvc	r2, [sp, #-101]!	; 0x65
   16560:	64207473 	strtvs	r7, [r0], #-1139	; 0x473
   16564:	0a2e6569 	beq	bafb10 <malloc_base+0xb940c4>
   16568:	2065570a 	rsbcs	r5, r5, sl, lsl #14
   1656c:	206c6c61 	rsbcs	r6, ip, r1, ror #24
   16570:	6f6f7473 	svcvs	0x006f7473
   16574:	6e692064 	cdpvs	0, 6, cr2, cr9, cr4, {3}
   16578:	65687420 	strbvs	r7, [r8, #-1056]!	; 0x420
   1657c:	73617620 	cmnvc	r1, #33554432	; 0x2000000
   16580:	68742074 	ldmdavs	r4!, {r2, r4, r5, r6, sp}^
   16584:	72746165 	rsbsvc	r6, r4, #1073741849	; 0x40000019
   16588:	666f2065 	strbtvs	r2, [pc], -r5, rrx
   1658c:	636e6120 	cmnvs	lr, #8
   16590:	746e6569 	strbtvc	r6, [lr], #-1385	; 0x569
   16594:	68704520 	ldmdavs	r0!, {r5, r8, sl, lr}^
   16598:	73757365 	cmnvc	r5, #-1811939327	; 0x94000001
   1659c:	742d2d2c 	strtvc	r2, [sp], #-3372	; 0xd2c
   165a0:	73206568 	teqvc	r0, #436207616	; 0x1a000000
   165a4:	656e6f74 	strbvs	r6, [lr, #-3956]!	; 0xf74
   165a8:	6e65622d 	cdpvs	2, 6, cr6, cr5, cr13, {1}
   165ac:	64656863 	strbtvs	r6, [r5], #-2147	; 0x863
   165b0:	706d610a 	rsbvc	r6, sp, sl, lsl #2
   165b4:	68746968 	ldmdavs	r4!, {r3, r5, r6, r8, fp, sp, lr}^
   165b8:	72746165 	rsbsvc	r6, r4, #1073741849	; 0x40000019
   165bc:	20492065 	subcs	r2, r9, r5, rrx
   165c0:	6e61656d 	cdpvs	5, 6, cr6, cr1, cr13, {3}
   165c4:	6e612d2d 	cdpvs	13, 6, cr2, cr1, cr13, {1}
   165c8:	61682064 	cmnvs	r8, r4, rrx
   165cc:	756f2064 	strbvc	r2, [pc, #-100]!	; 16570 <twain+0xb64>
   165d0:	69702072 	ldmdbvs	r0!, {r1, r4, r5, r6, sp}^
   165d4:	72757463 	rsbsvc	r7, r5, #1660944384	; 0x63000000
   165d8:	61742065 	cmnvs	r4, r5, rrx
   165dc:	2e6e656b 	cdpcs	5, 6, cr6, cr14, cr11, {3}
   165e0:	65572020 	ldrbvs	r2, [r7, #-32]
   165e4:	6f6f6c20 	svcvs	0x006f6c20
   165e8:	2064656b 	rsbcs	r6, r4, fp, ror #10
   165ec:	70207361 	eorvc	r7, r0, r1, ror #6
   165f0:	65706f72 	ldrbvs	r6, [r0, #-3954]!	; 0xf72
   165f4:	68740a72 	ldmdavs	r4!, {r1, r4, r5, r6, r9, fp}^
   165f8:	20657265 	rsbcs	r7, r5, r5, ror #4
   165fc:	77207361 	strvc	r7, [r0, -r1, ror #6]!
   16600:	6f772065 	svcvs	0x00772065
   16604:	20646c75 	rsbcs	r6, r4, r5, ror ip
   16608:	6b6f6f6c 	blvs	1bf23c0 <malloc_base+0x1bd6974>
   1660c:	796e6120 	stmdbvc	lr!, {r5, r8, sp, lr}^
   16610:	65687720 	strbvs	r7, [r8, #-1824]!	; 0x720
   16614:	202c6572 	eorcs	r6, ip, r2, ror r5
   16618:	75732049 	ldrbvc	r2, [r3, #-73]!	; 0x49
   1661c:	736f7070 	cmnvc	pc, #112	; 0x70
   16620:	20202e65 	eorcs	r2, r0, r5, ror #28
   16624:	64206557 	strtvs	r6, [r0], #-1367	; 0x557
   16628:	6f6e206f 	svcvs	0x006e206f
   1662c:	6d652074 	stclvs	0, cr2, [r5, #-464]!	; 0xfffffe30
   16630:	6c6c6562 	cfstr64vs	mvdx6, [ip], #-392	; 0xfffffe78
   16634:	20687369 	rsbcs	r7, r8, r9, ror #6
   16638:	0a656874 	beq	1970810 <malloc_base+0x1954dc4>
   1663c:	656e6567 	strbvs	r6, [lr, #-1383]!	; 0x567
   16640:	206c6172 	rsbcs	r6, ip, r2, ror r1
   16644:	6f736564 	svcvs	0x00736564
   16648:	6974616c 	ldmdbvs	r4!, {r2, r3, r5, r6, r8, sp, lr}^
   1664c:	6f206e6f 	svcvs	0x00206e6f
   16650:	20612066 	rsbcs	r2, r1, r6, rrx
   16654:	65736564 	ldrbvs	r6, [r3, #-1380]!	; 0x564
   16658:	6d207472 	cfstrsvs	mvf7, [r0, #-456]!	; 0xfffffe38
   1665c:	2e686375 	mcrcs	3, 3, r6, cr8, cr5, {3}
   16660:	65572020 	ldrbvs	r2, [r7, #-32]
   16664:	64646120 	strbtvs	r6, [r4], #-288	; 0x120
   16668:	61687720 	cmnvs	r8, r0, lsr #14
   1666c:	69642074 	stmdbvs	r4!, {r2, r4, r5, r6, sp}^
   16670:	74696e67 	strbtvc	r6, [r9], #-3687	; 0xe67
   16674:	65772079 	ldrbvs	r2, [r7, #-121]!	; 0x79
   16678:	6e616320 	cdpvs	3, 6, cr6, cr1, cr0, {1}
   1667c:	206f7420 	rsbcs	r7, pc, r0, lsr #8
   16680:	74730a61 	ldrbtvc	r0, [r3], #-2657	; 0xa61
   16684:	6c657461 	cfstrdvs	mvd7, [r5], #-388	; 0xfffffe7c
   16688:	75722079 	ldrbvc	r2, [r2, #-121]!	; 0x79
   1668c:	77206e69 	strvc	r6, [r0, -r9, ror #28]!
   16690:	20687469 	rsbcs	r7, r8, r9, ror #8
   16694:	2072756f 	rsbscs	r7, r2, pc, ror #10
   16698:	65657267 	strbvs	r7, [r5, #-615]!	; 0x267
   1669c:	6d75206e 	ldclvs	0, cr2, [r5, #-440]!	; 0xfffffe48
   166a0:	6c657262 	sfmvs	f7, 2, [r5], #-392	; 0xfffffe78
   166a4:	2073616c 	rsbscs	r6, r3, ip, ror #2
   166a8:	20646e61 	rsbcs	r6, r4, r1, ror #28
   166ac:	6b63616a 	blvs	18eec5c <malloc_base+0x18d3210>
   166b0:	65737361 	ldrbvs	r7, [r3, #-865]!	; 0x361
   166b4:	62202c73 	eorvs	r2, r0, #29440	; 0x7300
   166b8:	69207475 	stmdbvs	r0!, {r0, r2, r4, r5, r6, sl, ip, sp, lr}
   166bc:	73692074 	cmnvc	r9, #116	; 0x74
   166c0:	74696c20 	strbtvc	r6, [r9], #-3104	; 0xc20
   166c4:	2e656c74 	mcrcs	12, 3, r6, cr5, cr4, {3}
   166c8:	776f480a 	strbvc	r4, [pc, -sl, lsl #16]!
   166cc:	72657665 	rsbvc	r7, r5, #105906176	; 0x6500000
   166d0:	6577202c 	ldrbvs	r2, [r7, #-44]!	; 0x2c
   166d4:	61656d20 	cmnvs	r5, r0, lsr #26
   166d8:	6577206e 	ldrbvs	r2, [r7, #-110]!	; 0x6e
   166dc:	0a2e6c6c 	beq	bb1894 <malloc_base+0xb95e48>
   166e0:	7720490a 	strvc	r4, [r0, -sl, lsl #18]!
   166e4:	20687369 	rsbcs	r7, r8, r9, ror #6
   166e8:	73206f74 	teqvc	r0, #464	; 0x1d0
   166ec:	61207961 	teqvs	r0, r1, ror #18
   166f0:	69726220 	ldmdbvs	r2!, {r5, r9, sp, lr}^
   166f4:	77206665 	strvc	r6, [r0, -r5, ror #12]!
   166f8:	2064726f 	rsbcs	r7, r4, pc, ror #4
   166fc:	7420666f 	strtvc	r6, [r0], #-1647	; 0x66f
   16700:	61206568 	teqvs	r0, r8, ror #10
   16704:	63657073 	cmnvs	r5, #115	; 0x73
   16708:	666f2074 			; <UNDEFINED> instruction: 0x666f2074
   1670c:	68704520 	ldmdavs	r0!, {r5, r8, sl, lr}^
   16710:	73757365 	cmnvc	r5, #-1811939327	; 0x94000001
   16714:	4f0a0a2e 	svcmi	0x000a0a2e
   16718:	2061206e 	rsbcs	r2, r1, lr, rrx
   1671c:	68676968 	stmdavs	r7!, {r3, r5, r6, r8, fp, sp, lr}^
   16720:	7473202c 	ldrbtvc	r2, [r3], #-44	; 0x2c
   16724:	20706565 	rsbscs	r6, r0, r5, ror #10
   16728:	6c6c6968 	stclvs	9, cr6, [ip], #-416	; 0xfffffe60
   1672c:	6f74202c 	svcvs	0x0074202c
   16730:	64726177 	ldrbtvs	r6, [r2], #-375	; 0x177
   16734:	65687420 	strbvs	r7, [r8, #-1056]!	; 0x420
   16738:	61657320 	cmnvs	r5, r0, lsr #6
   1673c:	7369202c 	cmnvc	r9, #44	; 0x2c
   16740:	67206120 	strvs	r6, [r0, -r0, lsr #2]!
   16744:	20796172 	rsbscs	r6, r9, r2, ror r1
   16748:	6e697572 	mcrvs	5, 3, r7, cr9, cr2, {3}
   1674c:	20666f20 	rsbcs	r6, r6, r0, lsr #30
   16750:	646e6f70 	strbtvs	r6, [lr], #-3952	; 0xf70
   16754:	756f7265 	strbvc	r7, [pc, #-613]!	; 164f7 <twain+0xaeb>
   16758:	6c622073 	stclvs	0, cr2, [r2], #-460	; 0xfffffe34
   1675c:	736b636f 	cmnvc	fp, #-1140850687	; 0xbc000001
   16760:	20666f0a 	rsbcs	r6, r6, sl, lsl #30
   16764:	6272616d 	rsbsvs	r6, r2, #1073741851	; 0x4000001b
   16768:	202c656c 	eorcs	r6, ip, ip, ror #10
   1676c:	72656877 	rsbvc	r6, r5, #7798784	; 0x770000
   16770:	2c6e6965 	stclcs	9, cr6, [lr], #-404	; 0xfffffe6c
   16774:	61727420 	cmnvs	r2, r0, lsr #8
   16778:	69746964 	ldmdbvs	r4!, {r2, r5, r6, r8, fp, sp, lr}^
   1677c:	73206e6f 	teqvc	r0, #1776	; 0x6f0
   16780:	2c737961 	ldclcs	9, cr7, [r3], #-388	; 0xfffffe7c
   16784:	2e745320 	cdpcs	3, 7, cr5, cr4, cr0, {1}
   16788:	75615020 	strbvc	r5, [r1, #-32]!
   1678c:	6177206c 	cmnvs	r7, ip, rrx
   16790:	6d692073 	stclvs	0, cr2, [r9, #-460]!	; 0xfffffe34
   16794:	73697270 	cmnvc	r9, #7
   16798:	64656e6f 	strbtvs	r6, [r5], #-3695	; 0xe6f
   1679c:	67696520 	strbvs	r6, [r9, -r0, lsr #10]!
   167a0:	65657468 	strbvs	r7, [r5, #-1128]!	; 0x468
   167a4:	65630a6e 	strbvs	r0, [r3, #-2670]!	; 0xa6e
   167a8:	7275746e 	rsbsvc	r7, r5, #1845493760	; 0x6e000000
   167ac:	20736569 	rsbscs	r6, r3, r9, ror #10
   167b0:	2e6f6761 	cdpcs	7, 6, cr6, cr15, cr1, {3}
   167b4:	72462020 	subvc	r2, r6, #32
   167b8:	74206d6f 	strtvc	r6, [r0], #-3439	; 0xd6f
   167bc:	65736568 	ldrbvs	r6, [r3, #-1384]!	; 0x568
   167c0:	646c6f20 	strbtvs	r6, [ip], #-3872	; 0xf20
   167c4:	6c617720 	stclvs	7, cr7, [r1], #-128	; 0xffffff80
   167c8:	7920736c 	stmdbvc	r0!, {r2, r3, r5, r6, r8, r9, ip, sp, lr}
   167cc:	6820756f 	stmdavs	r0!, {r0, r1, r2, r3, r5, r6, r8, sl, ip, sp, lr}
   167d0:	20657661 	rsbcs	r7, r5, r1, ror #12
   167d4:	20656874 	rsbcs	r6, r5, r4, ror r8
   167d8:	656e6966 	strbvs	r6, [lr, #-2406]!	; 0x966
   167dc:	76207473 			; <UNDEFINED> instruction: 0x76207473
   167e0:	20776569 	rsbscs	r6, r7, r9, ror #10
   167e4:	7420666f 	strtvc	r6, [r0], #-1647	; 0x66f
   167e8:	640a6568 	strvs	r6, [sl], #-1384	; 0x568
   167ec:	6c6f7365 	stclvs	3, cr7, [pc], #-404	; 16660 <twain+0xc54>
   167f0:	20657461 	rsbcs	r7, r5, r1, ror #8
   167f4:	6e656373 	mcrvs	3, 3, r6, cr5, cr3, {3}
   167f8:	68772065 	ldmdavs	r7!, {r0, r2, r5, r6, sp}^
   167fc:	20657265 	rsbcs	r7, r5, r5, ror #4
   16800:	65636e6f 	strbvs	r6, [r3, #-3695]!	; 0xe6f
   16804:	6f747320 	svcvs	0x00747320
   16808:	4520646f 	strmi	r6, [r0, #-1135]!	; 0x46f
   1680c:	73656870 	cmnvc	r5, #7340032	; 0x700000
   16810:	202c7375 	eorcs	r7, ip, r5, ror r3
   16814:	20656874 	rsbcs	r6, r5, r4, ror r8
   16818:	756f7270 	strbvc	r7, [pc, #-624]!	; 165b0 <twain+0xba4>
   1681c:	74736564 	ldrbtvc	r6, [r3], #-1380	; 0x564
   16820:	74696320 	strbtvc	r6, [r9], #-800	; 0x320
   16824:	666f2079 			; <UNDEFINED> instruction: 0x666f2079
   16828:	636e6120 	cmnvs	lr, #8
   1682c:	746e6569 	strbtvc	r6, [lr], #-1385	; 0x569
   16830:	6d69740a 	cfstrdvs	mvd7, [r9, #-40]!	; 0xffffffd8
   16834:	202c7365 	eorcs	r7, ip, r5, ror #6
   16838:	20646e61 	rsbcs	r6, r4, r1, ror #28
   1683c:	736f6877 	cmnvc	pc, #7798784	; 0x770000
   16840:	65542065 	ldrbvs	r2, [r4, #-101]	; 0x65
   16844:	656c706d 	strbvs	r7, [ip, #-109]!	; 0x6d
   16848:	20666f20 	rsbcs	r6, r6, r0, lsr #30
   1684c:	6e616944 	cdpvs	9, 6, cr6, cr1, cr4, {2}
   16850:	61772061 	cmnvs	r7, r1, rrx
   16854:	6f732073 	svcvs	0x00732073
   16858:	626f6e20 	rsbvs	r6, pc, #512	; 0x200
   1685c:	6920656c 	stmdbvs	r0!, {r2, r3, r5, r6, r8, sl, sp, lr}
   16860:	6564206e 	strbvs	r2, [r4, #-110]!	; 0x6e
   16864:	6e676973 	mcrvs	9, 3, r6, cr7, cr3, {3}
   16868:	6e61202c 	cdpvs	0, 6, cr2, cr1, cr12, {1}
   1686c:	6f732064 	svcvs	0x00732064
   16870:	71786520 	cmnvc	r8, r0, lsr #10
   16874:	69736975 	ldmdbvs	r3!, {r0, r2, r4, r5, r6, r8, fp, sp, lr}^
   16878:	6f0a6574 	svcvs	0x000a6574
   1687c:	6f772066 	svcvs	0x00772066
   16880:	616d6b72 	smcvs	54962	; 0xd6b2
   16884:	6968736e 	stmdbvs	r8!, {r1, r2, r3, r5, r6, r8, r9, ip, sp, lr}^
   16888:	74202c70 	strtvc	r2, [r0], #-3184	; 0xc70
   1688c:	20746168 	rsbscs	r6, r4, r8, ror #2
   16890:	72207469 	eorvc	r7, r0, #1761607680	; 0x69000000
   16894:	656b6e61 	strbvs	r6, [fp, #-3681]!	; 0xe61
   16898:	69682064 	stmdbvs	r8!, {r2, r5, r6, sp}^
   1689c:	69206867 	stmdbvs	r0!, {r0, r1, r2, r5, r6, fp, sp, lr}
   168a0:	6874206e 	ldmdavs	r4!, {r1, r2, r3, r5, r6, sp}^
   168a4:	696c2065 	stmdbvs	ip!, {r0, r2, r5, r6, sp}^
   168a8:	6f207473 	svcvs	0x00207473
   168ac:	68742066 	ldmdavs	r4!, {r1, r2, r5, r6, sp}^
   168b0:	65532065 	ldrbvs	r2, [r3, #-101]	; 0x65
   168b4:	206e6576 	rsbcs	r6, lr, r6, ror r5
   168b8:	646e6f57 	strbtvs	r6, [lr], #-3927	; 0xf57
   168bc:	20737265 	rsbscs	r7, r3, r5, ror #4
   168c0:	740a666f 	strvc	r6, [sl], #-1647	; 0x66f
   168c4:	57206568 	strpl	r6, [r0, -r8, ror #10]!
   168c8:	646c726f 	strbtvs	r7, [ip], #-623	; 0x26f
   168cc:	420a0a2e 	andmi	r0, sl, #188416	; 0x2e000
   168d0:	6e696865 	cdpvs	8, 6, cr6, cr9, cr5, {3}
   168d4:	6f792064 	svcvs	0x00792064
   168d8:	73692075 	cmnvc	r9, #117	; 0x75
   168dc:	65687420 	strbvs	r7, [r8, #-1056]!	; 0x420
   168e0:	61657320 	cmnvs	r5, r0, lsr #6
   168e4:	6e69203b 	mcrvs	0, 3, r2, cr9, cr11, {1}
   168e8:	6f726620 	svcvs	0x00726620
   168ec:	6920746e 	stmdbvs	r0!, {r1, r2, r3, r5, r6, sl, ip, sp, lr}
   168f0:	20612073 	rsbcs	r2, r1, r3, ror r0
   168f4:	6576656c 	ldrbvs	r6, [r6, #-1388]!	; 0x56c
   168f8:	7267206c 	rsbvc	r2, r7, #108	; 0x6c
   168fc:	206e6565 	rsbcs	r6, lr, r5, ror #10
   16900:	6c6c6176 	stfvse	f6, [ip], #-472	; 0xfffffe28
   16904:	202c7965 	eorcs	r7, ip, r5, ror #18
   16908:	6d206128 	stfvss	f6, [r0, #-160]!	; 0xffffff60
   1690c:	68737261 	ldmdavs	r3!, {r0, r5, r6, r9, ip, sp, lr}^
   16910:	6e69202c 	cdpvs	0, 6, cr2, cr9, cr12, {1}
   16914:	6361660a 	cmnvs	r1, #10485760	; 0xa00000
   16918:	20292c74 	eorcs	r2, r9, r4, ror ip
   1691c:	65747865 	ldrbvs	r7, [r4, #-2149]!	; 0x865
   16920:	6e69646e 	cdpvs	4, 6, cr6, cr9, cr14, {3}
   16924:	61662067 	cmnvs	r6, r7, rrx
   16928:	77612072 			; <UNDEFINED> instruction: 0x77612072
   1692c:	61207961 	teqvs	r0, r1, ror #18
   16930:	676e6f6d 	strbvs	r6, [lr, -sp, ror #30]!
   16934:	65687420 	strbvs	r7, [r8, #-1056]!	; 0x420
   16938:	756f6d20 	strbvc	r6, [pc, #-3360]!	; 15c20 <twain+0x214>
   1693c:	6961746e 	stmdbvs	r1!, {r1, r2, r3, r5, r6, sl, ip, sp, lr}^
   16940:	203b736e 	eorscs	r7, fp, lr, ror #6
   16944:	74206f74 	strtvc	r6, [r0], #-3956	; 0xf74
   16948:	72206568 	eorvc	r6, r0, #436207616	; 0x1a000000
   1694c:	74686769 	strbtvc	r6, [r8], #-1897	; 0x769
   16950:	20666f20 	rsbcs	r6, r6, r0, lsr #30
   16954:	20656874 	rsbcs	r6, r5, r4, ror r8
   16958:	6e6f7266 	cdpvs	2, 6, cr7, cr15, cr6, {3}
   1695c:	69760a74 	ldmdbvs	r6!, {r2, r4, r5, r6, r9, fp}^
   16960:	69207765 	stmdbvs	r0!, {r0, r2, r5, r6, r8, r9, sl, ip, sp, lr}
   16964:	68742073 	ldmdavs	r4!, {r0, r1, r4, r5, r6, sp}^
   16968:	6c6f2065 	stclvs	0, cr2, [pc], #-404	; 167dc <twain+0xdd0>
   1696c:	69632064 	stmdbvs	r3!, {r2, r5, r6, sp}^
   16970:	65646174 	strbvs	r6, [r4, #-372]!	; 0x174
   16974:	666f206c 	strbtvs	r2, [pc], -ip, rrx
   16978:	61794120 	cmnvs	r9, r0, lsr #2
   1697c:	6c617373 	stclvs	3, cr7, [r1], #-460	; 0xfffffe34
   16980:	2c6b6f6f 	stclcs	15, cr6, [fp], #-444	; 0xfffffe44
   16984:	206e6f20 	rsbcs	r6, lr, r0, lsr #30
   16988:	69682061 	stmdbvs	r8!, {r0, r5, r6, sp}^
   1698c:	68206867 	stmdavs	r0!, {r0, r1, r2, r5, r6, fp, sp, lr}
   16990:	3b6c6c69 	blcc	1b31b3c <malloc_base+0x1b160f0>
   16994:	65687420 	strbvs	r7, [r8, #-1056]!	; 0x420
   16998:	69757220 	ldmdbvs	r5!, {r5, r9, ip, sp, lr}^
   1699c:	2064656e 	rsbcs	r6, r4, lr, ror #10
   169a0:	71736f4d 	cmnvc	r3, sp, asr #30
   169a4:	6f0a6575 	svcvs	0x000a6575
   169a8:	68742066 	ldmdavs	r4!, {r1, r2, r5, r6, sp}^
   169ac:	75532065 	ldrbvc	r2, [r3, #-101]	; 0x65
   169b0:	6e61746c 	cdpvs	4, 6, cr7, cr1, cr12, {3}
   169b4:	6c655320 	stclvs	3, cr5, [r5], #-128	; 0xffffff80
   169b8:	73206d69 	teqvc	r0, #6720	; 0x1a40
   169bc:	646e6174 	strbtvs	r6, [lr], #-372	; 0x174
   169c0:	656e2073 	strbvs	r2, [lr, #-115]!	; 0x73
   169c4:	69207261 	stmdbvs	r0!, {r0, r5, r6, r9, ip, sp, lr}
   169c8:	6e692074 	mcrvs	0, 3, r2, cr9, cr4, {3}
   169cc:	65687420 	strbvs	r7, [r8, #-1056]!	; 0x420
   169d0:	616c7020 	cmnvs	ip, r0, lsr #32
   169d4:	202c6e69 	eorcs	r6, ip, r9, ror #28
   169d8:	69687428 	stmdbvs	r8!, {r3, r5, sl, ip, sp, lr}^
   169dc:	73692073 	cmnvc	r9, #115	; 0x73
   169e0:	69756220 	ldmdbvs	r5!, {r5, r9, sp, lr}^
   169e4:	6f20746c 	svcvs	0x0020746c
   169e8:	20726576 	rsbscs	r6, r2, r6, ror r5
   169ec:	0a656874 	beq	1970bc4 <malloc_base+0x1955178>
   169f0:	76617267 	strbtvc	r7, [r1], -r7, ror #4
   169f4:	666f2065 	strbtvs	r2, [pc], -r5, rrx
   169f8:	2e745320 	cdpcs	3, 7, cr5, cr4, cr0, {1}
   169fc:	686f4a20 	stmdavs	pc!, {r5, r9, fp, lr}^	; <UNPREDICTABLE>
   16a00:	61202c6e 	teqvs	r0, lr, ror #24
   16a04:	7720646e 	strvc	r6, [r0, -lr, ror #8]!
   16a08:	66207361 	strtvs	r7, [r0], -r1, ror #6
   16a0c:	656d726f 	strbvs	r7, [sp, #-623]!	; 0x26f
   16a10:	20796c72 	rsbscs	r6, r9, r2, ror ip
   16a14:	69726843 	ldmdbvs	r2!, {r0, r1, r6, fp, sp, lr}^
   16a18:	61697473 	smcvs	38723	; 0x9743
   16a1c:	6843206e 	stmdavs	r3, {r1, r2, r3, r5, r6, sp}^
   16a20:	68637275 	stmdavs	r3!, {r0, r2, r4, r5, r6, r9, ip, sp, lr}^
   16a24:	66203b29 	strtvs	r3, [r0], -r9, lsr #22
   16a28:	68747275 	ldmdavs	r4!, {r0, r2, r4, r5, r6, r9, ip, sp, lr}^
   16a2c:	74207265 	strtvc	r7, [r0], #-613	; 0x265
   16a30:	7261776f 	rsbvc	r7, r1, #29097984	; 0x1bc0000
   16a34:	6f790a64 	svcvs	0x00790a64
   16a38:	73692075 	cmnvc	r9, #117	; 0x75
   16a3c:	65687420 	strbvs	r7, [r8, #-1056]!	; 0x420
   16a40:	6c696820 	stclvs	8, cr6, [r9], #-128	; 0xffffff80
   16a44:	666f206c 	strbtvs	r2, [pc], -ip, rrx
   16a48:	6f695020 	svcvs	0x00695020
   16a4c:	61202c6e 	teqvs	r0, lr, ror #24
   16a50:	6e756f72 	mrcvs	15, 3, r6, cr5, cr2, {3}
   16a54:	68772064 	ldmdavs	r7!, {r2, r5, r6, sp}^
   16a58:	2065736f 	rsbcs	r7, r5, pc, ror #6
   16a5c:	6e6f7266 	cdpvs	2, 6, cr7, cr15, cr6, {3}
   16a60:	73692074 	cmnvc	r9, #116	; 0x74
   16a64:	756c6320 	strbvc	r6, [ip, #-800]!	; 0x320
   16a68:	72657473 	rsbvc	r7, r5, #1929379840	; 0x73000000
   16a6c:	61206465 	teqvs	r0, r5, ror #8
   16a70:	74206c6c 	strtvc	r6, [r0], #-3180	; 0xc6c
   16a74:	20746168 	rsbscs	r6, r4, r8, ror #2
   16a78:	616d6572 	smcvs	54866	; 0xd652
   16a7c:	0a736e69 	beq	1cf2428 <malloc_base+0x1cd69dc>
   16a80:	7420666f 	strtvc	r6, [r0], #-1647	; 0x66f
   16a84:	72206568 	eorvc	r6, r0, #436207616	; 0x1a000000
   16a88:	736e6975 	cmnvc	lr, #1916928	; 0x1d4000
   16a8c:	20666f20 	rsbcs	r6, r6, r0, lsr #30
   16a90:	65687045 	strbvs	r7, [r8, #-69]!	; 0x45
   16a94:	20737573 	rsbscs	r7, r3, r3, ror r5
   16a98:	74616874 	strbtvc	r6, [r1], #-2164	; 0x874
   16a9c:	69747320 	ldmdbvs	r4!, {r5, r8, r9, ip, sp, lr}^
   16aa0:	73206c6c 	teqvc	r0, #27648	; 0x6c00
   16aa4:	646e6174 	strbtvs	r6, [lr], #-372	; 0x174
   16aa8:	6964203b 	stmdbvs	r4!, {r0, r1, r3, r4, r5, sp}^
   16aac:	65646976 	strbvs	r6, [r4, #-2422]!	; 0x976
   16ab0:	72662064 	rsbvc	r2, r6, #100	; 0x64
   16ab4:	69206d6f 	stmdbvs	r0!, {r0, r1, r2, r3, r5, r6, r8, sl, fp, sp, lr}
   16ab8:	79622074 	stmdbvc	r2!, {r2, r4, r5, r6, sp}^
   16abc:	6e206120 	sufvssp	f6, f0, f0
   16ac0:	6f727261 	svcvs	0x00727261
   16ac4:	61760a77 	cmnvs	r6, r7, ror sl
   16ac8:	79656c6c 	stmdbvc	r5!, {r2, r3, r5, r6, sl, fp, sp, lr}^
   16acc:	20736920 	rsbscs	r6, r3, r0, lsr #18
   16ad0:	20656874 	rsbcs	r6, r5, r4, ror r8
   16ad4:	676e6f6c 	strbvs	r6, [lr, -ip, ror #30]!
   16ad8:	6f72202c 	svcvs	0x0072202c
   16adc:	2c796b63 	ldclcs	11, cr6, [r9], #-396	; 0xfffffe74
   16ae0:	67757220 	ldrbvs	r7, [r5, -r0, lsr #4]!
   16ae4:	20646567 	rsbcs	r6, r4, r7, ror #10
   16ae8:	6e756f6d 	cdpvs	15, 7, cr6, cr5, cr13, {3}
   16aec:	6e696174 	mcrvs	1, 3, r6, cr9, cr4, {3}
   16af0:	20666f20 	rsbcs	r6, r6, r0, lsr #30
   16af4:	65726f43 	ldrbvs	r6, [r2, #-3907]!	; 0xf43
   16af8:	73757373 	cmnvc	r5, #-872415231	; 0xcc000001
   16afc:	5420202e 	strtpl	r2, [r0], #-46	; 0x2e
   16b00:	73206568 	teqvc	r0, #436207616	; 0x1a000000
   16b04:	656e6563 	strbvs	r6, [lr, #-1379]!	; 0x563
   16b08:	20736920 	rsbscs	r6, r3, r0, lsr #18
   16b0c:	72700a61 	rsbsvc	r0, r0, #397312	; 0x61000
   16b10:	79747465 	ldmdbvc	r4!, {r0, r2, r5, r6, sl, ip, sp, lr}^
   16b14:	656e6f20 	strbvs	r6, [lr, #-3872]!	; 0xf20
   16b18:	6e61202c 	cdpvs	0, 6, cr2, cr1, cr12, {1}
   16b1c:	65792064 	ldrbvs	r2, [r9, #-100]!	; 0x64
   16b20:	65642074 	strbvs	r2, [r4, #-116]!	; 0x74
   16b24:	616c6f73 	smcvs	50931	; 0xc6f3
   16b28:	2d2d6574 	cfstr32cs	mvfx6, [sp, #-464]!	; 0xfffffe30
   16b2c:	20726f66 	rsbscs	r6, r2, r6, ror #30
   16b30:	74206e69 	strtvc	r6, [r0], #-3689	; 0xe69
   16b34:	20746168 	rsbscs	r6, r4, r8, ror #2
   16b38:	65646977 	strbvs	r6, [r4, #-2423]!	; 0x977
   16b3c:	616c7020 	cmnvs	ip, r0, lsr #32
   16b40:	6e206e69 	cdpvs	14, 2, cr6, cr0, cr9, {3}
   16b44:	616d206f 	cmnvs	sp, pc, rrx
   16b48:	6163206e 	cmnvs	r3, lr, rrx
   16b4c:	696c206e 	stmdbvs	ip!, {r1, r2, r3, r5, r6, sp}^
   16b50:	202c6576 	eorcs	r6, ip, r6, ror r5
   16b54:	0a646e61 	beq	19324e0 <malloc_base+0x1916a94>
   16b58:	69206e69 	stmdbvs	r0!, {r0, r3, r5, r6, r9, sl, fp, sp, lr}
   16b5c:	73692074 	cmnvc	r9, #116	; 0x74
   16b60:	206f6e20 	rsbcs	r6, pc, r0, lsr #28
   16b64:	616d7568 	cmnvs	sp, r8, ror #10
   16b68:	6168206e 	cmnvs	r8, lr, rrx
   16b6c:	61746962 	cmnvs	r4, r2, ror #18
   16b70:	6e6f6974 	mcrvs	9, 3, r6, cr15, cr4, {3}
   16b74:	4220202e 	eormi	r2, r0, #46	; 0x2e
   16b78:	66207475 			; <UNDEFINED> instruction: 0x66207475
   16b7c:	7420726f 	strtvc	r7, [r0], #-623	; 0x26f
   16b80:	63206568 	teqvs	r0, #436207616	; 0x1a000000
   16b84:	626d7572 	rsbvs	r7, sp, #478150656	; 0x1c800000
   16b88:	676e696c 	strbvs	r6, [lr, -ip, ror #18]!
   16b8c:	63726120 	cmnvs	r2, #8
   16b90:	20736568 	rsbscs	r6, r3, r8, ror #10
   16b94:	20646e61 	rsbcs	r6, r4, r1, ror #28
   16b98:	736e6f6d 	cmnvc	lr, #436	; 0x1b4
   16b9c:	756f7274 	strbvc	r7, [pc, #-628]!	; 16930 <twain+0xf24>
   16ba0:	69700a73 	ldmdbvs	r0!, {r0, r1, r4, r5, r6, r9, fp}^
   16ba4:	20737265 	rsbscs	r7, r3, r5, ror #4
   16ba8:	20646e61 	rsbcs	r6, r4, r1, ror #28
   16bac:	6b6f7262 	blvs	1bf353c <malloc_base+0x1bd7af0>
   16bb0:	77206e65 	strvc	r6, [r0, -r5, ror #28]!
   16bb4:	736c6c61 	cmnvc	ip, #24832	; 0x6100
   16bb8:	61687420 	cmnvs	r8, r0, lsr #8
   16bbc:	69722074 	ldmdbvs	r2!, {r2, r4, r5, r6, sp}^
   16bc0:	66206573 			; <UNDEFINED> instruction: 0x66206573
   16bc4:	206d6f72 	rsbcs	r6, sp, r2, ror pc
   16bc8:	20656874 	rsbcs	r6, r5, r4, ror r8
   16bcc:	746f6f66 	strbtvc	r6, [pc], #-3942	; 16bd4 <twain+0x11c8>
   16bd0:	20666f20 	rsbcs	r6, r6, r0, lsr #30
   16bd4:	20656874 	rsbcs	r6, r5, r4, ror r8
   16bd8:	6c6c6968 	stclvs	9, cr6, [ip], #-416	; 0xfffffe60
   16bdc:	20666f20 	rsbcs	r6, r6, r0, lsr #30
   16be0:	6e6f6950 	mcrvs	9, 3, r6, cr15, cr0, {2}
   16be4:	6e6f202c 	cdpvs	0, 6, cr2, cr15, cr12, {1}
   16be8:	6f630a65 	svcvs	0x00630a65
   16bec:	20646c75 	rsbcs	r6, r4, r5, ror ip
   16bf0:	20746f6e 	rsbscs	r6, r4, lr, ror #30
   16bf4:	696c6562 	stmdbvs	ip!, {r1, r5, r6, r8, sl, sp, lr}^
   16bf8:	20657665 	rsbcs	r7, r5, r5, ror #12
   16bfc:	74616874 	strbtvc	r6, [r1], #-2164	; 0x874
   16c00:	206e6920 	rsbcs	r6, lr, r0, lsr #18
   16c04:	73696874 	cmnvc	r9, #7602176	; 0x740000
   16c08:	616c7020 	cmnvs	ip, r0, lsr #32
   16c0c:	6f206563 	svcvs	0x00206563
   16c10:	2065636e 	rsbcs	r6, r5, lr, ror #6
   16c14:	6f6f7473 	svcvs	0x006f7473
   16c18:	20612064 	rsbcs	r2, r1, r4, rrx
   16c1c:	79746963 	ldmdbvc	r4!, {r0, r1, r5, r6, r8, fp, sp, lr}^
   16c20:	6f687720 	svcvs	0x00687720
   16c24:	72206573 	eorvc	r6, r0, #482344960	; 0x1cc00000
   16c28:	776f6e65 	strbvc	r6, [pc, -r5, ror #28]!
   16c2c:	7369206e 	cmnvc	r9, #110	; 0x6e
   16c30:	646c6f0a 	strbtvs	r6, [ip], #-3850	; 0xf0a
   16c34:	74207265 	strtvc	r7, [r0], #-613	; 0x265
   16c38:	206e6168 	rsbcs	r6, lr, r8, ror #2
   16c3c:	64617274 	strbtvs	r7, [r1], #-628	; 0x274
   16c40:	6f697469 	svcvs	0x00697469
   16c44:	7469206e 	strbtvc	r2, [r9], #-110	; 0x6e
   16c48:	666c6573 			; <UNDEFINED> instruction: 0x666c6573
   16c4c:	4920202e 	stmdbmi	r0!, {r1, r2, r3, r5, sp}
   16c50:	73692074 	cmnvc	r9, #116	; 0x74
   16c54:	636e6920 	cmnvs	lr, #524288	; 0x80000
   16c58:	69646572 	stmdbvs	r4!, {r1, r4, r5, r6, r8, sl, sp, lr}^
   16c5c:	20656c62 	rsbcs	r6, r5, r2, ror #24
   16c60:	72206f74 	eorvc	r6, r0, #464	; 0x1d0
   16c64:	656c6665 	strbvs	r6, [ip, #-1637]!	; 0x665
   16c68:	74207463 	strtvc	r7, [r0], #-1123	; 0x463
   16c6c:	20746168 	rsbscs	r6, r4, r8, ror #2
   16c70:	6e696874 	mcrvs	8, 3, r6, cr9, cr4, {3}
   16c74:	61207367 	teqvs	r0, r7, ror #6
   16c78:	61660a73 	smcvs	24739	; 0x60a3
   16c7c:	696c696d 	stmdbvs	ip!, {r0, r2, r3, r5, r6, r8, fp, sp, lr}^
   16c80:	61207261 	teqvs	r0, r1, ror #4
   16c84:	6f206c6c 	svcvs	0x00206c6c
   16c88:	20726576 	rsbscs	r6, r2, r6, ror r5
   16c8c:	20656874 	rsbcs	r6, r5, r4, ror r8
   16c90:	6c726f77 	ldclvs	15, cr6, [r2], #-476	; 0xfffffe24
   16c94:	6f742064 	svcvs	0x00742064
   16c98:	7961642d 	stmdbvc	r1!, {r0, r2, r3, r5, sl, sp, lr}^
   16c9c:	20736120 	rsbscs	r6, r3, r0, lsr #2
   16ca0:	73756f68 	cmnvc	r5, #416	; 0x1a0
   16ca4:	6c6f6865 	stclvs	8, cr6, [pc], #-404	; 16b18 <twain+0x110c>
   16ca8:	6f772064 	svcvs	0x00772064
   16cac:	2c736472 	cfldrdcs	mvd6, [r3], #-456	; 0xfffffe38
   16cb0:	6c656220 	sfmvs	f6, 2, [r5], #-128	; 0xffffff80
   16cb4:	20676e6f 	rsbcs	r6, r7, pc, ror #28
   16cb8:	74206e69 	strtvc	r6, [r0], #-3689	; 0xe69
   16cbc:	680a6568 	stmdavs	sl, {r3, r5, r6, r8, sl, sp, lr}
   16cc0:	6f747369 	svcvs	0x00747369
   16cc4:	61207972 	teqvs	r0, r2, ror r9
   16cc8:	6920646e 	stmdbvs	r0!, {r1, r2, r3, r5, r6, sl, sp, lr}
   16ccc:	6874206e 	ldmdavs	r4!, {r1, r2, r3, r5, r6, sp}^
   16cd0:	68732065 	ldmdavs	r3!, {r0, r2, r5, r6, sp}^
   16cd4:	776f6461 	strbvc	r6, [pc, -r1, ror #8]!
   16cd8:	656c2079 	strbvs	r2, [ip, #-121]!	; 0x79
   16cdc:	646e6567 	strbtvs	r6, [lr], #-1383	; 0x567
   16ce0:	666f2073 			; <UNDEFINED> instruction: 0x666f2073
   16ce4:	69687420 	stmdbvs	r8!, {r5, sl, ip, sp, lr}^
   16ce8:	69732073 	ldmdbvs	r3!, {r0, r1, r4, r5, r6, sp}^
   16cec:	746e656c 	strbtvc	r6, [lr], #-1388	; 0x56c
   16cf0:	6f6d202c 	svcvs	0x006d202c
   16cf4:	666e7275 			; <UNDEFINED> instruction: 0x666e7275
   16cf8:	73206c75 	teqvc	r0, #29952	; 0x7500
   16cfc:	74696c6f 	strbtvc	r6, [r9], #-3183	; 0xc6f
   16d00:	2e656475 	mcrcs	4, 3, r6, cr5, cr5, {3}
   16d04:	2065570a 	rsbcs	r5, r5, sl, lsl #14
   16d08:	61657073 	smcvs	22275	; 0x5703
   16d0c:	666f206b 	strbtvs	r2, [pc], -fp, rrx
   16d10:	6f704120 	svcvs	0x00704120
   16d14:	206f6c6c 	rsbcs	r6, pc, ip, ror #24
   16d18:	20646e61 	rsbcs	r6, r4, r1, ror #28
   16d1c:	4420666f 	strtmi	r6, [r0], #-1647	; 0x66f
   16d20:	616e6169 	cmnvs	lr, r9, ror #2
   16d24:	68742d2d 	ldmdavs	r4!, {r0, r2, r3, r5, r8, sl, fp, sp}^
   16d28:	77207965 	strvc	r7, [r0, -r5, ror #18]!
   16d2c:	20657265 	rsbcs	r7, r5, r5, ror #4
   16d30:	6e726f62 	cdpvs	15, 7, cr6, cr2, cr2, {3}
   16d34:	72656820 	rsbvc	r6, r5, #2097152	; 0x200000
   16d38:	6f203b65 	svcvs	0x00203b65
   16d3c:	68742066 	ldmdavs	r4!, {r1, r2, r5, r6, sp}^
   16d40:	656d0a65 	strbvs	r0, [sp, #-2661]!	; 0xa65
   16d44:	6f6d6174 	svcvs	0x006d6174
   16d48:	6f687072 	svcvs	0x00687072
   16d4c:	20736973 	rsbscs	r6, r3, r3, ror r9
   16d50:	5320666f 	teqpl	r0, #116391936	; 0x6f00000
   16d54:	6e697279 	mcrvs	2, 3, r7, cr9, cr9, {3}
   16d58:	6e692078 	mcrvs	0, 3, r2, cr9, cr8, {3}
   16d5c:	61206f74 	teqvs	r0, r4, ror pc
   16d60:	65657220 	strbvs	r7, [r5, #-544]!	; 0x220
   16d64:	692d2d64 	pushvs	{r2, r5, r6, r8, sl, fp, sp}
   16d68:	61772074 	cmnvs	r7, r4, ror r0
   16d6c:	6f642073 	svcvs	0x00642073
   16d70:	6820656e 	stmdavs	r0!, {r1, r2, r3, r5, r6, r8, sl, sp, lr}
   16d74:	3b657265 	blcc	1973710 <malloc_base+0x1957cc4>
   16d78:	20666f20 	rsbcs	r6, r6, r0, lsr #30
   16d7c:	20656874 	rsbcs	r6, r5, r4, ror r8
   16d80:	61657267 	cmnvs	r5, r7, ror #4
   16d84:	6f672074 	svcvs	0x00672074
   16d88:	61500a64 	cmpvs	r0, r4, ror #20
   16d8c:	682d2d6e 	stmdavs	sp!, {r1, r2, r3, r5, r6, r8, sl, fp, sp}
   16d90:	77642065 	strbvc	r2, [r4, -r5, rrx]!
   16d94:	20746c65 	rsbscs	r6, r4, r5, ror #24
   16d98:	74206e69 	strtvc	r6, [r0], #-3689	; 0xe69
   16d9c:	63206568 	teqvs	r0, #436207616	; 0x1a000000
   16da0:	73657661 	cmnvc	r5, #101711872	; 0x6100000
   16da4:	20666f20 	rsbcs	r6, r6, r0, lsr #30
   16da8:	73696874 	cmnvc	r9, #7602176	; 0x740000
   16dac:	6c696820 	stclvs	8, cr6, [r9], #-128	; 0xffffff80
   16db0:	666f206c 	strbtvs	r2, [pc], -ip, rrx
   16db4:	726f4320 	rsbvc	r4, pc, #-2147483648	; 0x80000000
   16db8:	75737365 	ldrbvc	r7, [r3, #-869]!	; 0x365
   16dbc:	6f203b73 	svcvs	0x00203b73
   16dc0:	68742066 	ldmdavs	r4!, {r1, r2, r5, r6, sp}^
   16dc4:	6d412065 	stclvs	0, cr2, [r1, #-404]	; 0xfffffe6c
   16dc8:	6e6f7a61 	vnmulvs.f32	s15, s30, s3
   16dcc:	742d2d73 	strtvc	r2, [sp], #-3443	; 0xd73
   16dd0:	0a736968 	beq	1cf1378 <malloc_base+0x1cd592c>
   16dd4:	20736177 	rsbscs	r6, r3, r7, ror r1
   16dd8:	69656874 	stmdbvs	r5!, {r2, r4, r5, r6, fp, sp, lr}^
   16ddc:	65622072 	strbvs	r2, [r2, #-114]!	; 0x72
   16de0:	70207473 	eorvc	r7, r0, r3, ror r4
   16de4:	657a6972 	ldrbvs	r6, [sl, #-2418]!	; 0x972
   16de8:	6f682064 	svcvs	0x00682064
   16dec:	203b656d 	eorscs	r6, fp, sp, ror #10
   16df0:	4220666f 	eormi	r6, r0, #116391936	; 0x6f00000
   16df4:	68636361 	stmdavs	r3!, {r0, r5, r6, r8, r9, sp, lr}^
   16df8:	61207375 	teqvs	r0, r5, ror r3
   16dfc:	4820646e 	stmdami	r0!, {r1, r2, r3, r5, r6, sl, sp, lr}
   16e00:	75637265 	strbvc	r7, [r3, #-613]!	; 0x265
   16e04:	2073656c 	rsbscs	r6, r3, ip, ror #10
   16e08:	68746f62 	ldmdavs	r4!, {r1, r5, r6, r8, r9, sl, fp, sp, lr}^
   16e0c:	756f6620 	strbvc	r6, [pc, #-1568]!	; 167f4 <twain+0xde8>
   16e10:	20746867 	rsbscs	r6, r4, r7, ror #16
   16e14:	0a656874 	beq	1970fec <malloc_base+0x19555a0>
   16e18:	6c726177 	ldfvse	f6, [r2], #-476	; 0xfffffe24
   16e1c:	20656b69 	rsbcs	r6, r5, r9, ror #22
   16e20:	656d6f77 	strbvs	r6, [sp, #-3959]!	; 0xf77
   16e24:	6568206e 	strbvs	r2, [r8, #-110]!	; 0x6e
   16e28:	203b6572 	eorscs	r6, fp, r2, ror r5
   16e2c:	7420666f 	strtvc	r6, [r0], #-1647	; 0x66f
   16e30:	43206568 	teqmi	r0, #436207616	; 0x1a000000
   16e34:	6f6c6379 	svcvs	0x006c6379
   16e38:	2d2d7370 	stccs	3, cr7, [sp, #-448]!	; 0xfffffe40
   16e3c:	79656874 	stmdbvc	r5!, {r2, r4, r5, r6, fp, sp, lr}^
   16e40:	69616c20 	stmdbvs	r1!, {r5, sl, fp, sp, lr}^
   16e44:	68742064 	ldmdavs	r4!, {r2, r5, r6, sp}^
   16e48:	6f702065 	svcvs	0x00702065
   16e4c:	7265646e 	rsbvc	r6, r5, #1845493760	; 0x6e000000
   16e50:	2073756f 	rsbscs	r7, r3, pc, ror #10
   16e54:	6272616d 	rsbsvs	r6, r2, #1073741851	; 0x4000001b
   16e58:	6220656c 	eorvs	r6, r0, #452984832	; 0x1b000000
   16e5c:	6b636f6c 	blvs	18f2c14 <malloc_base+0x18d71c8>
   16e60:	666f0a73 			; <UNDEFINED> instruction: 0x666f0a73
   16e64:	6d6f7320 	stclvs	3, cr7, [pc, #-128]!	; 16dec <twain+0x13e0>
   16e68:	666f2065 	strbtvs	r2, [pc], -r5, rrx
   16e6c:	65687420 	strbvs	r7, [r8, #-1056]!	; 0x420
   16e70:	69757220 	ldmdbvs	r5!, {r5, r9, ip, sp, lr}^
   16e74:	7920736e 	stmdbvc	r0!, {r1, r2, r3, r5, r6, r8, r9, ip, sp, lr}
   16e78:	65646e6f 	strbvs	r6, [r4, #-3695]!	; 0xe6f
   16e7c:	6f203b72 	svcvs	0x00203b72
   16e80:	6f482066 	svcvs	0x00482066
   16e84:	2d72656d 	cfldr64cs	mvdx6, [r2, #-436]!	; 0xfffffe4c
   16e88:	6968742d 	stmdbvs	r8!, {r0, r2, r3, r5, sl, ip, sp, lr}^
   16e8c:	61772073 	cmnvs	r7, r3, ror r0
   16e90:	6e6f2073 	mcrvs	0, 3, r2, cr15, cr3, {3}
   16e94:	666f2065 	strbtvs	r2, [pc], -r5, rrx
   16e98:	73696820 	cmnvc	r9, #2097152	; 0x200000
   16e9c:	6e616d20 	cdpvs	13, 6, cr6, cr1, cr0, {1}
   16ea0:	69620a79 	stmdbvs	r2!, {r0, r3, r4, r5, r6, r9, fp}^
   16ea4:	70687472 	rsbvc	r7, r8, r2, ror r4
   16ea8:	6563616c 	strbvs	r6, [r3, #-364]!	; 0x16c
   16eac:	6f203b73 	svcvs	0x00203b73
   16eb0:	69432066 	stmdbvs	r3, {r1, r2, r5, r6, sp}^
   16eb4:	6e6f6d72 	mcrvs	13, 3, r6, cr15, cr2, {3}
   16eb8:	20666f20 	rsbcs	r6, r6, r0, lsr #30
   16ebc:	65687441 	strbvs	r7, [r8, #-1089]!	; 0x441
   16ec0:	203b736e 	eorscs	r7, fp, lr, ror #6
   16ec4:	4120666f 	teqmi	r0, pc, ror #12
   16ec8:	6269636c 	rsbvs	r6, r9, #-1342177279	; 0xb0000001
   16ecc:	65646169 	strbvs	r6, [r4, #-361]!	; 0x169
   16ed0:	4c202c73 	stcmi	12, cr2, [r0], #-460	; 0xfffffe34
   16ed4:	6e617379 	mcrvs	3, 3, r7, cr1, cr9, {3}
   16ed8:	2c726564 	cfldr64cs	mvdx6, [r2], #-400	; 0xfffffe70
   16edc:	65674120 	strbvs	r4, [r7, #-288]!	; 0x120
   16ee0:	616c6973 	smcvs	50835	; 0xc693
   16ee4:	2d0a7375 	stccs	3, cr7, [sl, #-468]	; 0xfffffe2c
   16ee8:	6568742d 	strbvs	r7, [r8, #-1069]!	; 0x42d
   16eec:	69762079 	ldmdbvs	r6!, {r0, r3, r4, r5, r6, sp}^
   16ef0:	65746973 	ldrbvs	r6, [r4, #-2419]!	; 0x973
   16ef4:	65682064 	strbvs	r2, [r8, #-100]!	; 0x64
   16ef8:	203b6572 	eorscs	r6, fp, r2, ror r5
   16efc:	64206f73 	strtvs	r6, [r0], #-3955	; 0xf73
   16f00:	41206469 	teqmi	r0, r9, ror #8
   16f04:	6178656c 	cmnvs	r8, ip, ror #10
   16f08:	7265646e 	rsbvc	r6, r5, #1845493760	; 0x6e000000
   16f0c:	65687420 	strbvs	r7, [r8, #-1056]!	; 0x420
   16f10:	65724720 	ldrbvs	r4, [r2, #-1824]!	; 0x720
   16f14:	203b7461 	eorscs	r7, fp, r1, ror #8
   16f18:	64206f73 	strtvs	r6, [r0], #-3955	; 0xf73
   16f1c:	48206469 	stmdami	r0!, {r0, r3, r5, r6, sl, sp, lr}
   16f20:	696e6e61 	stmdbvs	lr!, {r0, r5, r6, r9, sl, fp, sp, lr}^
   16f24:	206c6162 	rsbcs	r6, ip, r2, ror #2
   16f28:	0a646e61 	beq	19328b4 <malloc_base+0x1916e68>
   16f2c:	69746e41 	ldmdbvs	r4!, {r0, r6, r9, sl, fp, sp, lr}^
   16f30:	7568636f 	strbvc	r6, [r8, #-879]!	; 0x36f
   16f34:	53202c73 	teqpl	r0, #29440	; 0x7300
   16f38:	69706963 	ldmdbvs	r0!, {r0, r1, r5, r6, r8, fp, sp, lr}^
   16f3c:	4c202c6f 	stcmi	12, cr2, [r0], #-444	; 0xfffffe44
   16f40:	6c756375 	ldclvs	3, cr6, [r5], #-468	; 0xfffffe2c
   16f44:	2073756c 	rsbscs	r7, r3, ip, ror #10
   16f48:	20646e61 	rsbcs	r6, r4, r1, ror #28
   16f4c:	6c6c7953 	stclvs	9, cr7, [ip], #-332	; 0xfffffeb4
   16f50:	42203b61 	eormi	r3, r0, #99328	; 0x18400
   16f54:	75747572 	ldrbvc	r7, [r4, #-1394]!	; 0x572
   16f58:	43202c73 	teqmi	r0, #29440	; 0x7300
   16f5c:	69737361 	ldmdbvs	r3!, {r0, r5, r6, r8, r9, ip, sp, lr}^
   16f60:	202c7375 	eorcs	r7, ip, r5, ror r3
   16f64:	706d6f50 	rsbvc	r6, sp, r0, asr pc
   16f68:	202c7965 	eorcs	r7, ip, r5, ror #18
   16f6c:	65636943 	strbvs	r6, [r3, #-2371]!	; 0x943
   16f70:	0a2c6f72 	beq	b32d40 <malloc_base+0xb172f4>
   16f74:	20646e61 	rsbcs	r6, r4, r1, ror #28
   16f78:	75677541 	strbvc	r7, [r7, #-1345]!	; 0x541
   16f7c:	73757473 	cmnvc	r5, #1929379840	; 0x73000000
   16f80:	6e41203b 	mcrvs	0, 2, r2, cr1, cr11, {1}
   16f84:	796e6f74 	stmdbvc	lr!, {r2, r4, r5, r6, r8, r9, sl, fp, sp, lr}^
   16f88:	73617720 	cmnvc	r1, #8388608	; 0x800000
   16f8c:	6a206120 	bvs	82f414 <malloc_base+0x8139c8>
   16f90:	65676475 	strbvs	r6, [r7, #-1141]!	; 0x475
   16f94:	206e6920 	rsbcs	r6, lr, r0, lsr #18
   16f98:	73696874 	cmnvc	r9, #7602176	; 0x740000
   16f9c:	616c7020 	cmnvs	ip, r0, lsr #32
   16fa0:	202c6563 	eorcs	r6, ip, r3, ror #10
   16fa4:	20646e61 	rsbcs	r6, r4, r1, ror #28
   16fa8:	7466656c 	strbtvc	r6, [r6], #-1388	; 0x56c
   16fac:	73696820 	cmnvc	r9, #2097152	; 0x200000
   16fb0:	61657320 	cmnvs	r5, r0, lsr #6
   16fb4:	6e692074 	mcrvs	0, 3, r2, cr9, cr4, {3}
   16fb8:	65687420 	strbvs	r7, [r8, #-1056]!	; 0x420
   16fbc:	65706f0a 	ldrbvs	r6, [r0, #-3850]!	; 0xf0a
   16fc0:	6f63206e 	svcvs	0x0063206e
   16fc4:	2c747275 	lfmcs	f7, 2, [r4], #-468	; 0xfffffe2c
   16fc8:	69687720 	stmdbvs	r8!, {r5, r8, r9, sl, ip, sp, lr}^
   16fcc:	7420656c 	strtvc	r6, [r0], #-1388	; 0x56c
   16fd0:	61206568 	teqvs	r0, r8, ror #10
   16fd4:	636f7664 	cmnvs	pc, #104857600	; 0x6400000
   16fd8:	73657461 	cmnvc	r5, #1627389952	; 0x61000000
   16fdc:	72657720 	rsbvc	r7, r5, #8388608	; 0x800000
   16fe0:	70732065 	rsbsvc	r2, r3, r5, rrx
   16fe4:	696b6165 	stmdbvs	fp!, {r0, r2, r5, r6, r8, sp, lr}^
   16fe8:	202c676e 	eorcs	r6, ip, lr, ror #14
   16fec:	72206f74 	eorvc	r6, r0, #464	; 0x1d0
   16ff0:	61206e75 	teqvs	r0, r5, ror lr
   16ff4:	72657466 	rsbvc	r7, r5, #1711276032	; 0x66000000
   16ff8:	656c4320 	strbvs	r4, [ip, #-800]!	; 0x320
   16ffc:	7461706f 	strbtvc	r7, [r1], #-111	; 0x6f
   17000:	0a2c6172 	beq	b2f5d0 <malloc_base+0xb13b84>
   17004:	206f6877 	rsbcs	r6, pc, r7, ror r8	; <UNPREDICTABLE>
   17008:	73736170 	cmnvc	r3, #28
   1700c:	74206465 	strtvc	r6, [r0], #-1125	; 0x465
   17010:	64206568 	strtvs	r6, [r0], #-1384	; 0x568
   17014:	3b726f6f 	blcc	1cb2dd8 <malloc_base+0x1c9738c>
   17018:	6f726620 	svcvs	0x00726620
   1701c:	6874206d 	ldmdavs	r4!, {r0, r2, r3, r5, r6, sp}^
   17020:	63207369 	teqvs	r0, #-1543503871	; 0xa4000001
   17024:	20797469 	rsbscs	r7, r9, r9, ror #8
   17028:	73656874 	cmnvc	r5, #7602176	; 0x740000
   1702c:	77742065 	ldrbvc	r2, [r4, -r5, rrx]!
   17030:	6173206f 	cmnvs	r3, pc, rrx
   17034:	64656c69 	strbtvs	r6, [r5], #-3177	; 0xc69
   17038:	206e6f20 	rsbcs	r6, lr, r0, lsr #30
   1703c:	61656c70 	smcvs	22208	; 0x56c0
   17040:	65727573 	ldrbvs	r7, [r2, #-1395]!	; 0x573
   17044:	6378650a 	cmnvs	r8, #41943040	; 0x2800000
   17048:	69737275 	ldmdbvs	r3!, {r0, r2, r4, r5, r6, r9, ip, sp, lr}^
   1704c:	2c736e6f 	ldclcs	14, cr6, [r3], #-444	; 0xfffffe44
   17050:	206e6920 	rsbcs	r6, lr, r0, lsr #18
   17054:	6c6c6167 	stfvse	f6, [ip], #-412	; 0xfffffe64
   17058:	20737965 	rsbscs	r7, r3, r5, ror #18
   1705c:	68746977 	ldmdavs	r4!, {r0, r1, r2, r4, r5, r6, r8, fp, sp, lr}^
   17060:	6c697320 	stclvs	3, cr7, [r9], #-128	; 0xffffff80
   17064:	20726576 	rsbscs	r6, r2, r6, ror r5
   17068:	7372616f 	cmnvc	r2, #-1073741797	; 0xc000001b
   1706c:	646e6120 	strbtvs	r6, [lr], #-288	; 0x120
   17070:	72657020 	rsbvc	r7, r5, #32
   17074:	656d7566 	strbvs	r7, [sp, #-1382]!	; 0x566
   17078:	61732064 	cmnvs	r3, r4, rrx
   1707c:	2c736c69 	ldclcs	12, cr6, [r3], #-420	; 0xfffffe5c
   17080:	646e6120 	strbtvs	r6, [lr], #-288	; 0x120
   17084:	74697720 	strbtvc	r7, [r9], #-1824	; 0x720
   17088:	6f630a68 	svcvs	0x00630a68
   1708c:	6e61706d 	cdpvs	0, 6, cr7, cr1, cr13, {3}
   17090:	20736569 	rsbscs	r6, r3, r9, ror #10
   17094:	6220666f 	eorvs	r6, r0, #116391936	; 0x6f00000
   17098:	74756165 	ldrbtvc	r6, [r5], #-357	; 0x165
   1709c:	6c756669 	ldclvs	6, cr6, [r5], #-420	; 0xfffffe5c
   170a0:	72696720 	rsbvc	r6, r9, #8388608	; 0x800000
   170a4:	7420736c 	strtvc	r7, [r0], #-876	; 0x36c
   170a8:	6573206f 	ldrbvs	r2, [r3, #-111]!	; 0x6f
   170ac:	20657672 	rsbcs	r7, r5, r2, ror r6
   170b0:	6d656874 	stclvs	8, cr6, [r5, #-464]!	; 0xfffffe30
   170b4:	6e61202c 	cdpvs	0, 6, cr2, cr1, cr12, {1}
   170b8:	63612064 	cmnvs	r1, #100	; 0x64
   170bc:	73726f74 	cmnvc	r2, #464	; 0x1d0
   170c0:	646e6120 	strbtvs	r6, [lr], #-288	; 0x120
   170c4:	73756d20 	cmnvc	r5, #2048	; 0x800
   170c8:	61696369 	cmnvs	r9, r9, ror #6
   170cc:	7420736e 	strtvc	r7, [r0], #-878	; 0x36e
   170d0:	6d610a6f 	vstmdbvs	r1!, {s1-s111}
   170d4:	20657375 	rsbcs	r7, r5, r5, ror r3
   170d8:	6d656874 	stclvs	8, cr6, [r5, #-464]!	; 0xfffffe30
   170dc:	6e69203b 	mcrvs	0, 3, r2, cr9, cr11, {1}
   170e0:	79616420 	stmdbvc	r1!, {r5, sl, sp, lr}^
   170e4:	68742073 	ldmdavs	r4!, {r0, r1, r4, r5, r6, sp}^
   170e8:	73207461 	teqvc	r0, #1627389952	; 0x61000000
   170ec:	206d6565 	rsbcs	r6, sp, r5, ror #10
   170f0:	6f6d6c61 	svcvs	0x006d6c61
   170f4:	6d207473 	cfstrsvs	mvf7, [r0, #-460]!	; 0xfffffe34
   170f8:	7265646f 	rsbvc	r6, r5, #1862270976	; 0x6f000000
   170fc:	73202c6e 	teqvc	r0, #28160	; 0x6e00
   17100:	6572206f 	ldrbvs	r2, [r2, #-111]!	; 0x6f
   17104:	65746f6d 	ldrbvs	r6, [r4, #-3949]!	; 0xf6d
   17108:	65726120 	ldrbvs	r6, [r2, #-288]!	; 0x120
   1710c:	65687420 	strbvs	r7, [r8, #-1056]!	; 0x420
   17110:	72662079 	rsbvc	r2, r6, #121	; 0x79
   17114:	74206d6f 	strtvc	r6, [r0], #-3439	; 0xd6f
   17118:	650a6568 	strvs	r6, [sl, #-1384]	; 0x568
   1711c:	796c7261 	stmdbvc	ip!, {r0, r5, r6, r9, ip, sp, lr}^
   17120:	73696820 	cmnvc	r9, #2097152	; 0x200000
   17124:	79726f74 	ldmdbvc	r2!, {r2, r4, r5, r6, r8, r9, sl, fp, sp, lr}^
   17128:	20666f20 	rsbcs	r6, r6, r0, lsr #30
   1712c:	73696874 	cmnvc	r9, #7602176	; 0x740000
   17130:	74696320 	strbtvc	r6, [r9], #-800	; 0x320
   17134:	50202c79 	eorpl	r2, r0, r9, ror ip
   17138:	206c7561 	rsbcs	r7, ip, r1, ror #10
   1713c:	20656874 	rsbcs	r6, r5, r4, ror r8
   17140:	736f7041 	cmnvc	pc, #65	; 0x41
   17144:	20656c74 	rsbcs	r6, r5, r4, ror ip
   17148:	61657270 	smcvs	22304	; 0x5720
   1714c:	64656863 	strbtvs	r6, [r5], #-2147	; 0x863
   17150:	65687420 	strbvs	r7, [r8, #-1056]!	; 0x420
   17154:	77656e20 	strbvc	r6, [r5, -r0, lsr #28]!
   17158:	6c657220 	sfmvs	f7, 2, [r5], #-128	; 0xffffff80
   1715c:	6f696769 	svcvs	0x00696769
   17160:	65680a6e 	strbvs	r0, [r8, #-2670]!	; 0xa6e
   17164:	202c6572 	eorcs	r6, ip, r2, ror r5
   17168:	20646e61 	rsbcs	r6, r4, r1, ror #28
   1716c:	64206f73 	strtvs	r6, [r0], #-3955	; 0xf73
   17170:	4a206469 	bmi	83031c <malloc_base+0x8148d0>
   17174:	2c6e686f 	stclcs	8, cr6, [lr], #-444	; 0xfffffe44
   17178:	646e6120 	strbtvs	r6, [lr], #-288	; 0x120
   1717c:	72656820 	rsbvc	r6, r5, #2097152	; 0x200000
   17180:	74692065 	strbtvc	r2, [r9], #-101	; 0x65
   17184:	20736920 	rsbscs	r6, r3, r0, lsr #18
   17188:	70707573 	rsbsvc	r7, r0, r3, ror r5
   1718c:	6465736f 	strbtvs	r7, [r5], #-879	; 0x36f
   17190:	65687420 	strbvs	r7, [r8, #-1056]!	; 0x420
   17194:	726f6620 	rsbvc	r6, pc, #33554432	; 0x2000000
   17198:	2072656d 	rsbscs	r6, r2, sp, ror #10
   1719c:	20736177 	rsbscs	r6, r3, r7, ror r1
   171a0:	74746970 	ldrbtvc	r6, [r4], #-2416	; 0x970
   171a4:	610a6465 	tstvs	sl, r5, ror #8
   171a8:	6e696167 	powvsez	f6, f1, f7
   171ac:	77207473 			; <UNDEFINED> instruction: 0x77207473
   171b0:	20646c69 	rsbcs	r6, r4, r9, ror #24
   171b4:	73616562 	cmnvc	r1, #411041792	; 0x18800000
   171b8:	202c7374 	eorcs	r7, ip, r4, ror r3
   171bc:	20726f66 	rsbscs	r6, r2, r6, ror #30
   171c0:	31206e69 	teqcc	r0, r9, ror #28
   171c4:	726f4320 	rsbvc	r4, pc, #-2147483648	; 0x80000000
   171c8:	68746e69 	ldmdavs	r4!, {r0, r3, r5, r6, r9, sl, fp, sp, lr}^
   171cc:	736e6169 	cmnvc	lr, #1073741850	; 0x4000001a
   171d0:	7678202c 	ldrbtvc	r2, [r8], -ip, lsr #32
   171d4:	3233202e 	eorscc	r2, r3, #46	; 0x2e
   171d8:	20656820 	rsbcs	r6, r5, r0, lsr #16
   171dc:	73796173 	cmnvc	r9, #-1073741796	; 0xc000001c
   171e0:	200a0a3a 	andcs	r0, sl, sl, lsr sl
   171e4:	20202020 	eorcs	r2, r0, r0, lsr #32
   171e8:	20664922 	rsbcs	r4, r6, r2, lsr #18
   171ec:	65746661 	ldrbvs	r6, [r4, #-1633]!	; 0x661
   171f0:	68742072 	ldmdavs	r4!, {r1, r4, r5, r6, sp}^
   171f4:	616d2065 	cmnvs	sp, r5, rrx
   171f8:	72656e6e 	rsbvc	r6, r5, #1760	; 0x6e0
   171fc:	20666f20 	rsbcs	r6, r6, r0, lsr #30
   17200:	206e656d 	rsbcs	r6, lr, sp, ror #10
   17204:	61682049 	cmnvs	r8, r9, asr #32
   17208:	66206576 			; <UNDEFINED> instruction: 0x66206576
   1720c:	6867756f 	stmdavs	r7!, {r0, r1, r2, r3, r5, r6, r8, sl, ip, sp, lr}^
   17210:	69772074 	ldmdbvs	r7!, {r2, r4, r5, r6, sp}^
   17214:	62206874 	eorvs	r6, r0, #7602176	; 0x740000
   17218:	74736165 	ldrbtvc	r6, [r3], #-357	; 0x165
   1721c:	74612073 	strbtvc	r2, [r1], #-115	; 0x73
   17220:	68704520 	ldmdavs	r0!, {r5, r8, sl, lr}^
   17224:	73757365 	cmnvc	r5, #-1811939327	; 0x94000001
   17228:	200a222c 	andcs	r2, sl, ip, lsr #4
   1722c:	20202020 	eorcs	r2, r0, r0, lsr #32
   17230:	2c2e6326 	stccs	3, cr6, [lr], #-152	; 0xffffff68
   17234:	68770a0a 	ldmdavs	r7!, {r1, r3, r9, fp}^
   17238:	6d206e65 	stcvs	14, cr6, [r0, #-404]!	; 0xfffffe6c
   1723c:	20796e61 	rsbscs	r6, r9, r1, ror #28
   17240:	206e656d 	rsbcs	r6, lr, sp, ror #10
   17244:	6c697473 	cfstrdvs	mvd7, [r9], #-460	; 0xfffffe34
   17248:	696c206c 	stmdbvs	ip!, {r2, r3, r5, r6, sp}^
   1724c:	20646576 	rsbcs	r6, r4, r6, ror r5
   17250:	206f6877 	rsbcs	r6, pc, r7, ror r8	; <UNPREDICTABLE>
   17254:	20646168 	rsbcs	r6, r4, r8, ror #2
   17258:	6e656573 	mcrvs	5, 3, r6, cr5, cr3, {3}
   1725c:	65687420 	strbvs	r7, [r8, #-1056]!	; 0x420
   17260:	72684320 	rsbvc	r4, r8, #-2147483648	; 0x80000000
   17264:	3b747369 	blcc	1d34010 <malloc_base+0x1d185c4>
   17268:	72656820 	rsbvc	r6, r5, #2097152	; 0x200000
   1726c:	614d2065 	cmpvs	sp, r5, rrx
   17270:	4d207972 	stcmi	9, cr7, [r0, #-456]!	; 0xfffffe38
   17274:	61646761 	cmnvs	r4, r1, ror #14
   17278:	0a6e656c 	beq	1bb0830 <malloc_base+0x1b94de4>
   1727c:	64656964 	strbtvs	r6, [r5], #-2404	; 0x964
   17280:	6e61202c 	cdpvs	0, 6, cr2, cr1, cr12, {1}
   17284:	65682064 	strbvs	r2, [r8, #-100]!	; 0x64
   17288:	74206572 	strtvc	r6, [r0], #-1394	; 0x572
   1728c:	56206568 	strtpl	r6, [r0], -r8, ror #10
   17290:	69677269 	stmdbvs	r7!, {r0, r3, r5, r6, r9, ip, sp, lr}^
   17294:	614d206e 	cmpvs	sp, lr, rrx
   17298:	65207972 	strvs	r7, [r0, #-2418]!	; 0x972
   1729c:	6465646e 	strbtvs	r6, [r5], #-1134	; 0x46e
   172a0:	72656820 	rsbvc	r6, r5, #2097152	; 0x200000
   172a4:	79616420 	stmdbvc	r1!, {r5, sl, sp, lr}^
   172a8:	69772073 	ldmdbvs	r7!, {r0, r1, r4, r5, r6, sp}^
   172ac:	4a206874 	bmi	831484 <malloc_base+0x815a38>
   172b0:	2c6e686f 	stclcs	8, cr6, [lr], #-444	; 0xfffffe44
   172b4:	626c6120 	rsbvs	r6, ip, #8
   172b8:	20746965 	rsbscs	r6, r4, r5, ror #18
   172bc:	656d6f52 	strbvs	r6, [sp, #-3922]!	; 0xf52
   172c0:	73616820 	cmnvc	r1, #2097152	; 0x200000
   172c4:	6e69730a 	cdpvs	3, 6, cr7, cr9, cr10, {0}
   172c8:	6a206563 	bvs	83085c <malloc_base+0x814e10>
   172cc:	65676475 	strbvs	r6, [r7, #-1141]!	; 0x475
   172d0:	74692064 	strbtvc	r2, [r9], #-100	; 0x64
   172d4:	73656220 	cmnvc	r5, #2
   172d8:	6f742074 	svcvs	0x00742074
   172dc:	636f6c20 	cmnvs	pc, #8192	; 0x2000
   172e0:	20657461 	rsbcs	r7, r5, r1, ror #8
   172e4:	20726568 	rsbscs	r6, r2, r8, ror #10
   172e8:	76617267 	strbtvc	r7, [r1], -r7, ror #4
   172ec:	6c652065 	stclvs	0, cr2, [r5], #-404	; 0xfffffe6c
   172f0:	68776573 	ldmdavs	r7!, {r0, r1, r4, r5, r6, r8, sl, sp, lr}^
   172f4:	3b657265 	blcc	1973c90 <malloc_base+0x1958244>
   172f8:	78697320 	stmdavc	r9!, {r5, r8, r9, ip, sp, lr}^
   172fc:	20726f20 	rsbscs	r6, r2, r0, lsr #30
   17300:	65766573 	ldrbvs	r6, [r6, #-1395]!	; 0x573
   17304:	7568206e 	strbvc	r2, [r8, #-110]!	; 0x6e
   17308:	6572646e 	ldrbvs	r6, [r2, #-1134]!	; 0x46e
   1730c:	65790a64 	ldrbvs	r0, [r9, #-2660]!	; 0xa64
   17310:	20737261 	rsbscs	r7, r3, r1, ror #4
   17314:	2d6f6761 	stclcs	7, cr6, [pc, #-388]!	; 17198 <twain+0x178c>
   17318:	6d6c612d 	stfvse	f6, [ip, #-180]!	; 0xffffff4c
   1731c:	2074736f 	rsbscs	r7, r4, pc, ror #6
   17320:	74736579 	ldrbtvc	r6, [r3], #-1401	; 0x579
   17324:	61647265 	cmnvs	r4, r5, ror #4
   17328:	61202c79 	teqvs	r0, r9, ror ip
   1732c:	74692073 	strbtvc	r2, [r9], #-115	; 0x73
   17330:	72657720 	rsbvc	r7, r5, #8388608	; 0x800000
   17334:	742d2d65 	strtvc	r2, [sp], #-3429	; 0xd65
   17338:	706f6f72 	rsbvc	r6, pc, r2, ror pc	; <UNPREDICTABLE>
   1733c:	666f2073 			; <UNDEFINED> instruction: 0x666f2073
   17340:	69616d20 	stmdbvs	r1!, {r5, r8, sl, fp, sp, lr}^
   17344:	6c632d6c 	stclvs	13, cr2, [r3], #-432	; 0xfffffe50
   17348:	43206461 	teqmi	r0, #1627389952	; 0x61000000
   1734c:	61737572 	cmnvs	r3, r2, ror r5
   17350:	73726564 	cmnvc	r2, #419430400	; 0x19000000
   17354:	7268740a 	rsbvc	r7, r8, #167772160	; 0xa000000
   17358:	65676e6f 	strbvs	r6, [r7, #-3695]!	; 0xe6f
   1735c:	68742064 	ldmdavs	r4!, {r2, r5, r6, sp}^
   17360:	74732065 	ldrbtvc	r2, [r3], #-101	; 0x65
   17364:	74656572 	strbtvc	r6, [r5], #-1394	; 0x572
   17368:	61203b73 	teqvs	r0, r3, ror fp
   1736c:	7420646e 	strtvc	r6, [r0], #-1134	; 0x46e
   17370:	6f63206f 	svcvs	0x0063206f
   17374:	6420656d 	strtvs	r6, [r0], #-1389	; 0x56d
   17378:	206e776f 	rsbcs	r7, lr, pc, ror #14
   1737c:	74206f74 	strtvc	r6, [r0], #-3956	; 0xf74
   17380:	6c666972 	stclvs	9, cr6, [r6], #-456	; 0xfffffe38
   17384:	202c7365 	eorcs	r7, ip, r5, ror #6
   17388:	73206577 	teqvc	r0, #499122176	; 0x1dc00000
   1738c:	6b616570 	blvs	1870954 <malloc_base+0x1854f08>
   17390:	20666f20 	rsbcs	r6, r6, r0, lsr #30
   17394:	6e61656d 	cdpvs	5, 6, cr6, cr1, cr13, {3}
   17398:	69726564 	ldmdbvs	r2!, {r2, r5, r6, r8, sl, sp, lr}^
   1739c:	730a676e 	movwvc	r6, #42862	; 0xa76e
   173a0:	61657274 	smcvs	22308	; 0x5724
   173a4:	202c736d 	eorcs	r7, ip, sp, ror #6
   173a8:	20646e61 	rsbcs	r6, r4, r1, ror #28
   173ac:	646e6966 	strbtvs	r6, [lr], #-2406	; 0x966
   173b0:	6e206120 	sufvssp	f6, f0, f0
   173b4:	69207765 	stmdbvs	r0!, {r0, r2, r5, r6, r8, r9, sl, ip, sp, lr}
   173b8:	7265746e 	rsbvc	r7, r5, #1845493760	; 0x6e000000
   173bc:	20747365 	rsbscs	r7, r4, r5, ror #6
   173c0:	61206e69 	teqvs	r0, r9, ror #28
   173c4:	6d6f6320 	stclvs	3, cr6, [pc, #-128]!	; 1734c <twain+0x1940>
   173c8:	206e6f6d 	rsbcs	r6, lr, sp, ror #30
   173cc:	64726f77 	ldrbtvs	r6, [r2], #-3959	; 0xf77
   173d0:	65687720 	strbvs	r7, [r8, #-1824]!	; 0x720
   173d4:	6577206e 	ldrbvs	r2, [r7, #-110]!	; 0x6e
   173d8:	73696420 	cmnvc	r9, #536870912	; 0x20000000
   173dc:	65766f63 	ldrbvs	r6, [r6, #-3939]!	; 0xf63
   173e0:	68742072 	ldmdavs	r4!, {r1, r4, r5, r6, sp}^
   173e4:	740a7461 	strvc	r7, [sl], #-1121	; 0x461
   173e8:	63206568 	teqvs	r0, #436207616	; 0x1a000000
   173ec:	6b6f6f72 	blvs	1bf31bc <malloc_base+0x1bd7770>
   173f0:	72206465 	eorvc	r6, r0, #1694498816	; 0x65000000
   173f4:	72657669 	rsbvc	r7, r5, #110100480	; 0x6900000
   173f8:	61654d20 	cmnvs	r5, r0, lsr #26
   173fc:	7265646e 	rsbvc	r6, r5, #1845493760	; 0x6e000000
   17400:	6e69202c 	cdpvs	0, 6, cr2, cr9, cr12, {1}
   17404:	6e6f7920 	cdpvs	9, 6, cr7, cr15, cr0, {1}
   17408:	20726564 	rsbscs	r6, r2, r4, ror #10
   1740c:	6c6c6176 	stfvse	f6, [ip], #-472	; 0xfffffe28
   17410:	202c7965 	eorcs	r7, ip, r5, ror #18
   17414:	65766167 	ldrbvs	r6, [r6, #-359]!	; 0x167
   17418:	20746920 	rsbscs	r6, r4, r0, lsr #18
   1741c:	6f206f74 	svcvs	0x00206f74
   17420:	64207275 	strtvs	r7, [r0], #-629	; 0x275
   17424:	69746369 	ldmdbvs	r4!, {r0, r3, r5, r6, r8, r9, sp, lr}^
   17428:	72616e6f 	rsbvc	r6, r1, #1776	; 0x6f0
   1742c:	490a2e79 	stmdbmi	sl, {r0, r3, r4, r5, r6, r9, sl, fp, sp}
   17430:	616d2074 	smcvs	53764	; 0xd204
   17434:	2073656b 	rsbscs	r6, r3, fp, ror #10
   17438:	6620656d 	strtvs	r6, [r0], -sp, ror #10
   1743c:	206c6565 	rsbcs	r6, ip, r5, ror #10
   17440:	6f207361 	svcvs	0x00207361
   17444:	6120646c 	teqvs	r0, ip, ror #8
   17448:	68742073 	ldmdavs	r4!, {r0, r1, r4, r5, r6, sp}^
   1744c:	20657365 	rsbcs	r7, r5, r5, ror #6
   17450:	61657264 	cmnvs	r5, r4, ror #4
   17454:	68207972 	stmdavs	r0!, {r1, r4, r5, r6, r8, fp, ip, sp, lr}
   17458:	736c6c69 	cmnvc	ip, #26880	; 0x6900
   1745c:	206f7420 	rsbcs	r7, pc, r0, lsr #8
   17460:	6b6f6f6c 	blvs	1bf3218 <malloc_base+0x1bd77cc>
   17464:	776f6420 	strbvc	r6, [pc, -r0, lsr #8]!
   17468:	7075206e 	rsbsvc	r2, r5, lr, rrx
   1746c:	74206e6f 	strtvc	r6, [r0], #-3695	; 0xe6f
   17470:	65736568 	ldrbvs	r6, [r3, #-1384]!	; 0x568
   17474:	736f6d0a 	cmnvc	pc, #640	; 0x280
   17478:	75682d73 	strbvc	r2, [r8, #-3443]!	; 0xd73
   1747c:	7220676e 	eorvc	r6, r0, #28835840	; 0x1b80000
   17480:	736e6975 	cmnvc	lr, #1916928	; 0x1d4000
   17484:	6874202c 	ldmdavs	r4!, {r2, r3, r5, sp}^
   17488:	68207369 	stmdavs	r0!, {r0, r3, r5, r6, r8, r9, ip, sp, lr}
   1748c:	6f747369 	svcvs	0x00747369
   17490:	20636972 	rsbcs	r6, r3, r2, ror r9
   17494:	6f736564 	svcvs	0x00736564
   17498:	6974616c 	ldmdbvs	r4!, {r2, r3, r5, r6, r8, sp, lr}^
   1749c:	202e6e6f 	eorcs	r6, lr, pc, ror #28
   174a0:	656e4f20 	strbvs	r4, [lr, #-3872]!	; 0xf20
   174a4:	79616d20 	stmdbvc	r1!, {r5, r8, sl, fp, sp, lr}^
   174a8:	61657220 	cmnvs	r5, r0, lsr #4
   174ac:	68742064 	ldmdavs	r4!, {r2, r5, r6, sp}^
   174b0:	63532065 	cmpvs	r3, #101	; 0x65
   174b4:	74706972 	ldrbtvc	r6, [r0], #-2418	; 0x972
   174b8:	73657275 	cmnvc	r5, #1342177287	; 0x50000007
   174bc:	646e610a 	strbtvs	r6, [lr], #-266	; 0x10a
   174c0:	6c656220 	sfmvs	f6, 2, [r5], #-128	; 0xffffff80
   174c4:	65766569 	ldrbvs	r6, [r6, #-1385]!	; 0x569
   174c8:	7562202c 	strbvc	r2, [r2, #-44]!	; 0x2c
   174cc:	65682074 	strbvs	r2, [r8, #-116]!	; 0x74
   174d0:	6e616320 	cdpvs	3, 6, cr6, cr1, cr0, {1}
   174d4:	746f6e20 	strbtvc	r6, [pc], #-3616	; 174dc <twain+0x1ad0>
   174d8:	206f6720 	rsbcs	r6, pc, r0, lsr #14
   174dc:	20646e61 	rsbcs	r6, r4, r1, ror #28
   174e0:	6e617473 	mcrvs	4, 3, r7, cr1, cr3, {3}
   174e4:	6f792064 	svcvs	0x00792064
   174e8:	7265646e 	rsbvc	r6, r5, #1845493760	; 0x6e000000
   174ec:	206e6920 	rsbcs	r6, lr, r0, lsr #18
   174f0:	20656874 	rsbcs	r6, r5, r4, ror r8
   174f4:	6e697572 	mcrvs	5, 3, r7, cr9, cr2, {3}
   174f8:	74206465 	strtvc	r6, [r0], #-1125	; 0x465
   174fc:	74616568 	strbtvc	r6, [r1], #-1384	; 0x568
   17500:	61206572 	teqvs	r0, r2, ror r5
   17504:	690a646e 	stmdbvs	sl, {r1, r2, r3, r5, r6, sl, sp, lr}
   17508:	6d69206e 	stclvs	0, cr2, [r9, #-440]!	; 0xfffffe48
   1750c:	6e696761 	cdpvs	7, 6, cr6, cr9, cr1, {3}
   17510:	6f697461 	svcvs	0x00697461
   17514:	6570206e 	ldrbvs	r2, [r0, #-110]!	; 0x6e
   17518:	656c706f 	strbvs	r7, [ip, #-111]!	; 0x6f
   1751c:	20746920 	rsbscs	r6, r4, r0, lsr #18
   17520:	69616761 	stmdbvs	r1!, {r0, r5, r6, r8, r9, sl, sp, lr}^
   17524:	6977206e 	ldmdbvs	r7!, {r1, r2, r3, r5, r6, sp}^
   17528:	74206874 	strtvc	r6, [r0], #-2164	; 0x874
   1752c:	76206568 	strtvc	r6, [r0], -r8, ror #10
   17530:	73696e61 	cmnvc	r9, #1552	; 0x610
   17534:	20646568 	rsbcs	r6, r4, r8, ror #10
   17538:	746c756d 	strbtvc	r7, [ip], #-1389	; 0x56d
   1753c:	64757469 	ldrbtvs	r7, [r5], #-1129	; 0x469
   17540:	77207365 	strvc	r7, [r0, -r5, ror #6]!
   17544:	6d206f68 	stcvs	15, cr6, [r0, #-416]!	; 0xfffffe60
   17548:	6562626f 	strbvs	r6, [r2, #-623]!	; 0x26f
   1754c:	61500a64 	cmpvs	r0, r4, ror #20
   17550:	73276c75 	teqvc	r7, #29952	; 0x7500
   17554:	6d6f6320 	stclvs	3, cr6, [pc, #-128]!	; 174dc <twain+0x1ad0>
   17558:	65646172 	strbvs	r6, [r4, #-370]!	; 0x172
   1755c:	68742073 	ldmdavs	r4!, {r0, r1, r4, r5, r6, sp}^
   17560:	20657265 	rsbcs	r7, r5, r5, ror #4
   17564:	20646e61 	rsbcs	r6, r4, r1, ror #28
   17568:	756f6873 	strbvc	r6, [pc, #-2163]!	; 16cfd <twain+0x12f1>
   1756c:	2c646574 	cfstr64cs	mvdx6, [r4], #-464	; 0xfffffe30
   17570:	74697720 	strbtvc	r7, [r9], #-1824	; 0x720
   17574:	6e6f2068 	cdpvs	0, 6, cr2, cr15, cr8, {3}
   17578:	6f762065 	svcvs	0x00762065
   1757c:	2c656369 	stclcs	3, cr6, [r5], #-420	; 0xfffffe5c
   17580:	72472220 	subvc	r2, r7, #2
   17584:	20746165 	rsbscs	r6, r4, r5, ror #2
   17588:	44207369 	strtmi	r7, [r0], #-873	; 0x369
   1758c:	616e6169 	cmnvs	lr, r9, ror #2
   17590:	20666f20 	rsbcs	r6, r6, r0, lsr #30
   17594:	0a656874 	beq	197176c <malloc_base+0x1955d20>
   17598:	65687045 	strbvs	r7, [r8, #-69]!	; 0x45
   1759c:	6e616973 	mcrvs	9, 3, r6, cr1, cr3, {3}
   175a0:	20222173 	eorcs	r2, r2, r3, ror r1
   175a4:	65685420 	strbvs	r5, [r8, #-1056]!	; 0x420
   175a8:	65646920 	strbvs	r6, [r4, #-2336]!	; 0x920
   175ac:	666f2061 	strbtvs	r2, [pc], -r1, rrx
   175b0:	73206120 	teqvc	r0, #8
   175b4:	74756f68 	ldrbtvc	r6, [r5], #-3944	; 0xf68
   175b8:	206e6920 	rsbcs	r6, lr, r0, lsr #18
   175bc:	68637573 	stmdavs	r3!, {r0, r1, r4, r5, r6, r8, sl, ip, sp, lr}^
   175c0:	73206120 	teqvc	r0, #8
   175c4:	74696c6f 	strbtvc	r6, [r9], #-3183	; 0xc6f
   175c8:	20656475 	rsbcs	r6, r5, r5, ror r4
   175cc:	74207361 	strtvc	r7, [r0], #-865	; 0x361
   175d0:	20736968 	rsbscs	r6, r3, r8, ror #18
   175d4:	6f6d6c61 	svcvs	0x006d6c61
   175d8:	6d207473 	cfstrsvs	mvf7, [r0, #-460]!	; 0xfffffe34
   175dc:	73656b61 	cmnvc	r5, #99328	; 0x18400
   175e0:	656e6f0a 	strbvs	r6, [lr, #-3850]!	; 0xf0a
   175e4:	75687320 	strbvc	r7, [r8, #-800]!	; 0x320
   175e8:	72656464 	rsbvc	r6, r5, #1677721600	; 0x64000000
   175ec:	490a0a2e 	stmdbmi	sl, {r1, r2, r3, r5, r9, fp}
   175f0:	61772074 	cmnvs	r7, r4, ror r0
   175f4:	20612073 	rsbcs	r2, r1, r3, ror r0
   175f8:	646e6f77 	strbtvs	r6, [lr], #-3959	; 0xf77
   175fc:	75667265 	strbvc	r7, [r6, #-613]!	; 0x265
   17600:	6963206c 	stmdbvs	r3!, {r2, r3, r5, r6, sp}^
   17604:	202c7974 	eorcs	r7, ip, r4, ror r9
   17608:	73696874 	cmnvc	r9, #7602176	; 0x740000
   1760c:	68704520 	ldmdavs	r0!, {r5, r8, sl, lr}^
   17610:	73757365 	cmnvc	r5, #-1811939327	; 0x94000001
   17614:	4720202e 	strmi	r2, [r0, -lr, lsr #32]!
   17618:	6877206f 	ldmdavs	r7!, {r0, r1, r2, r3, r5, r6, sp}^
   1761c:	20657265 	rsbcs	r7, r5, r5, ror #4
   17620:	20756f79 	rsbscs	r6, r5, r9, ror pc
   17624:	6c6c6977 	stclvs	9, cr6, [ip], #-476	; 0xfffffe24
   17628:	6f626120 	svcvs	0x00626120
   1762c:	74207475 	strtvc	r7, [r0], #-1141	; 0x475
   17630:	65736568 	ldrbvs	r6, [r3, #-1384]!	; 0x568
   17634:	6f72620a 	svcvs	0x0072620a
   17638:	70206461 	eorvc	r6, r0, r1, ror #8
   1763c:	6e69616c 	powvsez	f6, f1, #4.0
   17640:	79202c73 	stmdbvc	r0!, {r0, r1, r4, r5, r6, sl, fp, sp}
   17644:	6620756f 	strtvs	r7, [r0], -pc, ror #10
   17648:	20646e69 	rsbcs	r6, r4, r9, ror #28
   1764c:	20656874 	rsbcs	r6, r5, r4, ror r8
   17650:	74736f6d 	ldrbtvc	r6, [r3], #-3949	; 0xf6d
   17654:	71786520 	cmnvc	r8, r0, lsr #10
   17658:	69736975 	ldmdbvs	r3!, {r0, r2, r4, r5, r6, r8, fp, sp, lr}^
   1765c:	796c6574 	stmdbvc	ip!, {r2, r4, r5, r6, r8, sl, sp, lr}^
   17660:	75637320 	strbvc	r7, [r3, #-800]!	; 0x320
   17664:	7574706c 	ldrbvc	r7, [r4, #-108]!	; 0x6c
   17668:	20646572 	rsbcs	r6, r4, r2, ror r5
   1766c:	6272616d 	rsbsvs	r6, r2, #1073741851	; 0x4000001b
   17670:	6620656c 	strtvs	r6, [r0], -ip, ror #10
   17674:	6d676172 	stfvse	f6, [r7, #-456]!	; 0xfffffe38
   17678:	73746e65 	cmnvc	r4, #1616	; 0x650
   1767c:	6163730a 	cmnvs	r3, sl, lsl #6
   17680:	72657474 	rsbvc	r7, r5, #1946157056	; 0x74000000
   17684:	74206465 	strtvc	r6, [r0], #-1125	; 0x465
   17688:	6b636968 	blvs	18f1c30 <malloc_base+0x18d61e4>
   1768c:	6f6d6120 	svcvs	0x006d6120
   17690:	7420676e 	strtvc	r6, [r0], #-1902	; 0x76e
   17694:	64206568 	strtvs	r6, [r0], #-1384	; 0x568
   17698:	20747375 	rsbscs	r7, r4, r5, ror r3
   1769c:	20646e61 	rsbcs	r6, r4, r1, ror #28
   176a0:	64656577 	strbtvs	r6, [r5], #-1399	; 0x577
   176a4:	61203b73 	teqvs	r0, r3, ror fp
   176a8:	7020646e 	eorvc	r6, r0, lr, ror #8
   176ac:	72746f72 	rsbsvc	r6, r4, #456	; 0x1c8
   176b0:	6e696475 	mcrvs	4, 3, r6, cr9, cr5, {3}
   176b4:	72662067 	rsbvc	r2, r6, #103	; 0x67
   176b8:	74206d6f 	strtvc	r6, [r0], #-3439	; 0xd6f
   176bc:	67206568 	strvs	r6, [r0, -r8, ror #10]!
   176c0:	6e756f72 	mrcvs	15, 3, r6, cr5, cr2, {3}
   176c4:	6f0a2c64 	svcvs	0x000a2c64
   176c8:	796c2072 	stmdbvc	ip!, {r1, r4, r5, r6, sp}^
   176cc:	20676e69 	rsbcs	r6, r7, r9, ror #28
   176d0:	6e6f7270 	mcrvs	2, 3, r7, cr15, cr0, {3}
   176d4:	70752065 	rsbsvc	r2, r5, r5, rrx
   176d8:	69206e6f 	stmdbvs	r0!, {r0, r1, r2, r3, r5, r6, r9, sl, fp, sp, lr}
   176dc:	61202c74 	teqvs	r0, r4, ror ip
   176e0:	62206572 	eorvs	r6, r0, #478150656	; 0x1c800000
   176e4:	74756165 	ldrbtvc	r6, [r5], #-357	; 0x165
   176e8:	6c756669 	ldclvs	6, cr6, [r5], #-420	; 0xfffffe5c
   176ec:	756c6620 	strbvc	r6, [ip, #-1568]!	; 0x620
   176f0:	20646574 	rsbcs	r6, r4, r4, ror r5
   176f4:	756c6f63 	strbvc	r6, [ip, #-3939]!	; 0xf63
   176f8:	20736e6d 	rsbscs	r6, r3, sp, ror #28
   176fc:	7020666f 	eorvc	r6, r0, pc, ror #12
   17700:	6870726f 	ldmdavs	r0!, {r0, r1, r2, r3, r5, r6, r9, ip, sp, lr}^
   17704:	20797279 	rsbscs	r7, r9, r9, ror r2
   17708:	20646e61 	rsbcs	r6, r4, r1, ror #28
   1770c:	0a6c6c61 	beq	1b32898 <malloc_base+0x1b16e4c>
   17710:	63657270 	cmnvs	r5, #7
   17714:	73756f69 	cmnvc	r5, #420	; 0x1a4
   17718:	72616d20 	rsbvc	r6, r1, #2048	; 0x800
   1771c:	73656c62 	cmnvc	r5, #25088	; 0x6200
   17720:	6e61203b 	mcrvs	0, 3, r2, cr1, cr11, {1}
   17724:	74612064 	strbtvc	r2, [r1], #-100	; 0x64
   17728:	65766520 	ldrbvs	r6, [r6, #-1312]!	; 0x520
   1772c:	73207972 	teqvc	r0, #1867776	; 0x1c8000
   17730:	20706574 	rsbscs	r6, r0, r4, ror r5
   17734:	20756f79 	rsbscs	r6, r5, r9, ror pc
   17738:	646e6966 	strbtvs	r6, [lr], #-2406	; 0x966
   1773c:	656c6520 	strbvs	r6, [ip, #-1312]!	; 0x520
   17740:	746e6167 	strbtvc	r6, [lr], #-359	; 0x167
   17744:	6320796c 	teqvs	r0, #1769472	; 0x1b0000
   17748:	65767261 	ldrbvs	r7, [r6, #-609]!	; 0x261
   1774c:	61632064 	cmnvs	r3, r4, rrx
   17750:	61746970 	cmnvs	r4, r0, ror r9
   17754:	610a736c 	tstvs	sl, ip, ror #6
   17758:	6d20646e 	cfstrsvs	mvf6, [r0, #-440]!	; 0xfffffe48
   1775c:	69737361 	ldmdbvs	r3!, {r0, r5, r6, r8, r9, ip, sp, lr}^
   17760:	62206576 	eorvs	r6, r0, #494927872	; 0x1d800000
   17764:	73657361 	cmnvc	r5, #-2080374783	; 0x84000001
   17768:	6e61202c 	cdpvs	0, 6, cr2, cr1, cr12, {1}
   1776c:	6f702064 	svcvs	0x00702064
   17770:	6873696c 	ldmdavs	r3!, {r2, r3, r5, r6, r8, fp, sp, lr}^
   17774:	74206465 	strtvc	r6, [r0], #-1125	; 0x465
   17778:	656c6261 	strbvs	r6, [ip, #-609]!	; 0x261
   1777c:	65207374 	strvs	r7, [r0, #-884]!	; 0x374
   17780:	6172676e 	cmnvs	r2, lr, ror #14
   17784:	20646576 	rsbcs	r6, r4, r6, ror r5
   17788:	68746977 	ldmdavs	r4!, {r0, r1, r2, r4, r5, r6, r8, fp, sp, lr}^
   1778c:	65724720 	ldrbvs	r4, [r2, #-1824]!	; 0x720
   17790:	69206b65 	stmdbvs	r0!, {r0, r2, r5, r6, r8, r9, fp, sp, lr}
   17794:	7263736e 	rsbvc	r7, r3, #-1207959551	; 0xb8000001
   17798:	69747069 	ldmdbvs	r4!, {r0, r3, r5, r6, ip, sp, lr}^
   1779c:	2e736e6f 	cdpcs	14, 7, cr6, cr3, cr15, {3}
   177a0:	2074490a 	rsbscs	r4, r4, sl, lsl #18
   177a4:	61207369 	teqvs	r0, r9, ror #6
   177a8:	726f7720 	rsbvc	r7, pc, #8388608	; 0x800000
   177ac:	6f20646c 	svcvs	0x0020646c
   177b0:	72702066 	rsbsvc	r2, r0, #102	; 0x66
   177b4:	6f696365 	svcvs	0x00696365
   177b8:	72207375 	eorvc	r7, r0, #-738197503	; 0xd4000001
   177bc:	63696c65 	cmnvs	r9, #25856	; 0x6500
   177c0:	61202c73 	teqvs	r0, r3, ror ip
   177c4:	6c697720 	stclvs	7, cr7, [r9], #-128	; 0xffffff80
   177c8:	6e726564 	cdpvs	5, 7, cr6, cr2, cr4, {3}
   177cc:	20737365 	rsbscs	r7, r3, r5, ror #6
   177d0:	6d20666f 	stcvs	6, cr6, [r0, #-444]!	; 0xfffffe44
   177d4:	65727261 	ldrbvs	r7, [r2, #-609]!	; 0x261
   177d8:	6e612064 	cdpvs	0, 6, cr2, cr1, cr4, {3}
   177dc:	756d2064 	strbvc	r2, [sp, #-100]!	; 0x64
   177e0:	616c6974 	smcvs	50836	; 0xc694
   177e4:	0a646574 	beq	1930dbc <malloc_base+0x1915370>
   177e8:	736d6567 	cmnvc	sp, #432013312	; 0x19c00000
   177ec:	4120202e 	teqmi	r0, lr, lsr #32
   177f0:	7920646e 	stmdbvc	r0!, {r1, r2, r3, r5, r6, sl, sp, lr}
   177f4:	77207465 	strvc	r7, [r0, -r5, ror #8]!
   177f8:	20746168 	rsbscs	r6, r4, r8, ror #2
   177fc:	20657261 	rsbcs	r7, r5, r1, ror #4
   17800:	73656874 	cmnvc	r5, #7602176	; 0x740000
   17804:	68742065 	ldmdavs	r4!, {r0, r2, r5, r6, sp}^
   17808:	73676e69 	cmnvc	r7, #1680	; 0x690
   1780c:	206f7420 	rsbcs	r7, pc, r0, lsr #8
   17810:	20656874 	rsbcs	r6, r5, r4, ror r8
   17814:	646e6f77 	strbtvs	r6, [lr], #-3959	; 0xf77
   17818:	20737265 	rsbscs	r7, r3, r5, ror #4
   1781c:	74616874 	strbtvc	r6, [r1], #-2164	; 0x874
   17820:	65696c20 	strbvs	r6, [r9, #-3104]!	; 0xc20
   17824:	72756220 	rsbsvc	r6, r5, #2
   17828:	20646569 	rsbcs	r6, r4, r9, ror #10
   1782c:	65726568 	ldrbvs	r6, [r2, #-1384]!	; 0x568
   17830:	646e750a 	strbtvs	r7, [lr], #-1290	; 0x50a
   17834:	74207265 	strtvc	r7, [r0], #-613	; 0x265
   17838:	67206568 	strvs	r6, [r0, -r8, ror #10]!
   1783c:	6e756f72 	mrcvs	15, 3, r6, cr5, cr2, {3}
   17840:	20203f64 	eorcs	r3, r0, r4, ror #30
   17844:	43207441 	teqmi	r0, #1090519040	; 0x41000000
   17848:	74736e6f 	ldrbtvc	r6, [r3], #-3695	; 0xe6f
   1784c:	69746e61 	ldmdbvs	r4!, {r0, r5, r6, r9, sl, fp, sp, lr}^
   17850:	6c706f6e 	ldclvs	15, cr6, [r0], #-440	; 0xfffffe48
   17854:	61202c65 	teqvs	r0, r5, ror #24
   17858:	69502074 	ldmdbvs	r0, {r2, r4, r5, r6, sp}^
   1785c:	202c6173 	eorcs	r6, ip, r3, ror r1
   17860:	74206e69 	strtvc	r6, [r0], #-3689	; 0xe69
   17864:	63206568 	teqvs	r0, #436207616	; 0x1a000000
   17868:	65697469 	strbvs	r7, [r9, #-1129]!	; 0x469
   1786c:	666f2073 			; <UNDEFINED> instruction: 0x666f2073
   17870:	61705320 	cmnvs	r0, r0, lsr #6
   17874:	0a2c6e69 	beq	b33220 <malloc_base+0xb177d4>
   17878:	20657261 	rsbcs	r7, r5, r1, ror #4
   1787c:	61657267 	cmnvs	r5, r7, ror #4
   17880:	6f6d2074 	svcvs	0x006d2074
   17884:	65757173 	ldrbvs	r7, [r5, #-371]!	; 0x173
   17888:	6e612073 	mcrvs	0, 3, r2, cr1, cr3, {3}
   1788c:	61632064 	cmnvs	r3, r4, rrx
   17890:	64656874 	strbtvs	r6, [r5], #-2164	; 0x874
   17894:	736c6172 	cmnvc	ip, #-2147483620	; 0x8000001c
   17898:	6877202c 	ldmdavs	r7!, {r2, r3, r5, sp}^
   1789c:	2065736f 	rsbcs	r7, r5, pc, ror #6
   178a0:	6e617267 	cdpvs	2, 6, cr7, cr1, cr7, {3}
   178a4:	74736564 	ldrbtvc	r6, [r3], #-1380	; 0x564
   178a8:	6c6f6320 	stclvs	3, cr6, [pc], #-128	; 17830 <twain+0x1e24>
   178ac:	736e6d75 	cmnvc	lr, #7488	; 0x1d40
   178b0:	6d616320 	stclvs	3, cr6, [r1, #-128]!	; 0xffffff80
   178b4:	72662065 	rsbvc	r2, r6, #101	; 0x65
   178b8:	74206d6f 	strtvc	r6, [r0], #-3439	; 0xd6f
   178bc:	740a6568 	strvc	r6, [sl], #-1384	; 0x568
   178c0:	6c706d65 	ldclvs	13, cr6, [r0], #-404	; 0xfffffe6c
   178c4:	61207365 	teqvs	r0, r5, ror #6
   178c8:	7020646e 	eorvc	r6, r0, lr, ror #8
   178cc:	63616c61 	cmnvs	r1, #24832	; 0x6100
   178d0:	6f207365 	svcvs	0x00207365
   178d4:	70452066 	subvc	r2, r5, r6, rrx
   178d8:	75736568 	ldrbvc	r6, [r3, #-1384]!	; 0x568
   178dc:	61202c73 	teqvs	r0, r3, ror ip
   178e0:	7920646e 	stmdbvc	r0!, {r1, r2, r3, r5, r6, sl, sp, lr}
   178e4:	6f207465 	svcvs	0x00207465
   178e8:	6820656e 	stmdavs	r0!, {r1, r2, r3, r5, r6, r8, sl, sp, lr}
   178ec:	6f207361 	svcvs	0x00207361
   178f0:	20796c6e 	rsbscs	r6, r9, lr, ror #24
   178f4:	73206f74 	teqvc	r0, #464	; 0x1d0
   178f8:	74617263 	strbtvc	r7, [r1], #-611	; 0x263
   178fc:	74206863 	strtvc	r6, [r0], #-2147	; 0x863
   17900:	670a6568 	strvs	r6, [sl, -r8, ror #10]
   17904:	6e756f72 	mrcvs	15, 3, r6, cr5, cr2, {3}
   17908:	65682064 	strbvs	r2, [r8, #-100]!	; 0x64
   1790c:	74206572 	strtvc	r6, [r0], #-1394	; 0x572
   17910:	616d206f 	cmnvs	sp, pc, rrx
   17914:	20686374 	rsbcs	r6, r8, r4, ror r3
   17918:	6d656874 	stclvs	8, cr6, [r5, #-464]!	; 0xfffffe30
   1791c:	5720202e 	strpl	r2, [r0, -lr, lsr #32]!
   17920:	68732065 	ldmdavs	r3!, {r0, r2, r5, r6, sp}^
   17924:	206c6c61 	rsbcs	r6, ip, r1, ror #24
   17928:	6576656e 	ldrbvs	r6, [r6, #-1390]!	; 0x56e
   1792c:	6e6b2072 	mcrvs	0, 3, r2, cr11, cr2, {3}
   17930:	7720776f 	strvc	r7, [r0, -pc, ror #14]!
   17934:	20746168 	rsbscs	r6, r4, r8, ror #2
   17938:	6e67616d 	powvssz	f6, f7, #5.0
   1793c:	63696669 	cmnvs	r9, #110100480	; 0x6900000
   17940:	65636e65 	strbvs	r6, [r3, #-3685]!	; 0xe65
   17944:	2c736920 	ldclcs	9, cr6, [r3], #-128	; 0xffffff80
   17948:	746e750a 	strbtvc	r7, [lr], #-1290	; 0x50a
   1794c:	74206c69 	strtvc	r6, [r0], #-3177	; 0xc69
   17950:	20736968 	rsbscs	r6, r3, r8, ror #18
   17954:	65706d69 	ldrbvs	r6, [r0, #-3433]!	; 0xd69
   17958:	6c616972 	stclvs	9, cr6, [r1], #-456	; 0xfffffe38
   1795c:	74696320 	strbtvc	r6, [r9], #-800	; 0x320
   17960:	73692079 	cmnvc	r9, #121	; 0x79
   17964:	69616c20 	stmdbvs	r1!, {r5, sl, fp, sp, lr}^
   17968:	61622064 	cmnvs	r2, r4, rrx
   1796c:	74206572 	strtvc	r6, [r0], #-1394	; 0x572
   17970:	6874206f 	ldmdavs	r4!, {r0, r1, r2, r3, r5, r6, sp}^
   17974:	75732065 	ldrbvc	r2, [r3, #-101]!	; 0x65
   17978:	0a0a2e6e 	beq	2a3338 <malloc_base+0x2878ec>
   1797c:	20656854 	rsbcs	r6, r5, r4, asr r8
   17980:	656e6966 	strbvs	r6, [lr, #-2406]!	; 0x966
   17984:	70207473 	eorvc	r7, r0, r3, ror r4
   17988:	65636569 	strbvs	r6, [r3, #-1385]!	; 0x569
   1798c:	20666f20 	rsbcs	r6, r6, r0, lsr #30
   17990:	6c756373 	ldclvs	3, cr6, [r5], #-460	; 0xfffffe34
   17994:	72757470 	rsbsvc	r7, r5, #1879048192	; 0x70000000
   17998:	65772065 	ldrbvs	r2, [r7, #-101]!	; 0x65
   1799c:	76616820 	strbtvc	r6, [r1], -r0, lsr #16
   179a0:	65792065 	ldrbvs	r2, [r9, #-101]!	; 0x65
   179a4:	65732074 	ldrbvs	r2, [r3, #-116]!	; 0x74
   179a8:	61206e65 	teqvs	r0, r5, ror #28
   179ac:	7420646e 	strtvc	r6, [r0], #-1134	; 0x46e
   179b0:	6f206568 	svcvs	0x00206568
   179b4:	7420656e 	strtvc	r6, [r0], #-1390	; 0x56e
   179b8:	20746168 	rsbscs	r6, r4, r8, ror #2
   179bc:	72706d69 	rsbsvc	r6, r0, #6720	; 0x1a40
   179c0:	65737365 	ldrbvs	r7, [r3, #-869]!	; 0x365
   179c4:	73750a64 	cmnvc	r5, #409600	; 0x64000
   179c8:	736f6d20 	cmnvc	pc, #2048	; 0x800
   179cc:	28202c74 	stmdacs	r0!, {r2, r4, r5, r6, sl, fp, sp}
   179d0:	20726f66 	rsbscs	r6, r2, r6, ror #30
   179d4:	64206577 	strtvs	r6, [r0], #-1399	; 0x577
   179d8:	6f6e206f 	svcvs	0x006e206f
   179dc:	6e6b2074 	mcrvs	0, 3, r2, cr11, cr4, {3}
   179e0:	6d20776f 	stcvs	7, cr7, [r0, #-444]!	; 0xfffffe44
   179e4:	20686375 	rsbcs	r6, r8, r5, ror r3
   179e8:	756f6261 	strbvc	r6, [pc, #-609]!	; 1778f <twain+0x1d83>
   179ec:	72612074 	rsbvc	r2, r1, #116	; 0x74
   179f0:	6e612074 	mcrvs	0, 3, r2, cr1, cr4, {3}
   179f4:	61632064 	cmnvs	r3, r4, rrx
   179f8:	6f6e206e 	svcvs	0x006e206e
   179fc:	61652074 	smcvs	20996	; 0x5204
   17a00:	796c6973 	stmdbvc	ip!, {r0, r1, r4, r5, r6, r8, fp, sp, lr}^
   17a04:	726f7720 	rsbvc	r7, pc, #8388608	; 0x800000
   17a08:	7075206b 	rsbsvc	r2, r5, fp, rrx

00017a0c <static_l_desc>:
   17a0c:	00014530 	andeq	r4, r1, r0, lsr r5
   17a10:	00014158 	andeq	r4, r1, r8, asr r1
   17a14:	00000101 	andeq	r0, r0, r1, lsl #2
   17a18:	0000011e 	andeq	r0, r0, lr, lsl r1
   17a1c:	0000000f 	andeq	r0, r0, pc

00017a20 <static_d_desc>:
   17a20:	000149b0 			; <UNDEFINED> instruction: 0x000149b0
   17a24:	00014440 	andeq	r4, r1, r0, asr #8
   17a28:	00000000 	andeq	r0, r0, r0
   17a2c:	0000001e 	andeq	r0, r0, lr, lsl r0
   17a30:	0000000f 	andeq	r0, r0, pc

00017a34 <static_bl_desc>:
   17a34:	00000000 	andeq	r0, r0, r0
   17a38:	00014a3c 	andeq	r4, r1, ip, lsr sl
   17a3c:	00000000 	andeq	r0, r0, r0
   17a40:	00000013 	andeq	r0, r0, r3, lsl r0
   17a44:	00000007 	andeq	r0, r0, r7

Disassembly of section .bss:

00017a48 <cdata>:
	...

00019a48 <nextfree>:
   19a48:	00000000 	andeq	r0, r0, r0

00019a4c <udata>:
	...

0001ba4c <malloc_base>:
   1ba4c:	00000000 	andeq	r0, r0, r0

Disassembly of section .ARM.attributes:

00000000 <.ARM.attributes>:
   0:	00003041 	andeq	r3, r0, r1, asr #32
   4:	61656100 	cmnvs	r5, r0, lsl #2
   8:	01006962 	tsteq	r0, r2, ror #18
   c:	00000026 	andeq	r0, r0, r6, lsr #32
  10:	06003605 	streq	r3, [r0], -r5, lsl #12
  14:	09010807 	stmdbeq	r1, {r0, r1, r2, fp}
  18:	12020a01 	andne	r0, r2, #4096	; 0x1000
  1c:	15011404 	strne	r1, [r1, #-1028]	; 0x404
  20:	18031701 	stmdane	r3, {r0, r8, r9, sl, ip}
  24:	1b021a01 	blne	86830 <malloc_base+0x6ade4>
  28:	22011c03 	andcs	r1, r1, #768	; 0x300
  2c:	44012c01 	strmi	r2, [r1], #-3073	; 0xc01
  30:	Address 0x00000030 is out of bounds.


Disassembly of section .comment:

00000000 <.comment>:
   0:	3a434347 	bcc	10d0d24 <malloc_base+0x10b52d8>
   4:	72632820 	rsbvc	r2, r3, #2097152	; 0x200000
   8:	7473736f 	ldrbtvc	r7, [r3], #-879	; 0x36f
   c:	2d6c6f6f 	stclcs	15, cr6, [ip, #-444]!	; 0xfffffe44
  10:	6c20474e 	stcvs	7, cr4, [r0], #-312	; 0xfffffec8
  14:	72616e69 	rsbvc	r6, r1, #1680	; 0x690
  18:	2e312d6f 	cdpcs	13, 3, cr2, cr1, cr15, {3}
  1c:	312e3331 	teqcc	lr, r1, lsr r3
  20:	727a622b 	rsbsvc	r6, sl, #-1342177278	; 0xb0000002
  24:	38353432 	ldmdacc	r5!, {r1, r4, r5, sl, ip, sp}
  28:	4c202d20 	stcmi	13, cr2, [r0], #-128	; 0xffffff80
  2c:	72616e69 	rsbvc	r6, r1, #1680	; 0x690
  30:	4347206f 	movtmi	r2, #28783	; 0x706f
  34:	30322043 	eorscc	r2, r2, r3, asr #32
  38:	302e3231 	eorcc	r3, lr, r1, lsr r2
  3c:	34202938 	strtcc	r2, [r0], #-2360	; 0x938
  40:	322e372e 	eorcc	r3, lr, #12058624	; 0xb80000
  44:	31303220 	teqcc	r0, r0, lsr #4
  48:	33373032 	teqcc	r7, #50	; 0x32
  4c:	70282031 	eorvc	r2, r8, r1, lsr r0
  50:	65726572 	ldrbvs	r6, [r2, #-1394]!	; 0x572
  54:	7361656c 	cmnvc	r1, #452984832	; 0x1b000000
  58:	Address 0x00000058 is out of bounds.

