
blinker07.elf:     file format elf32-littlearm


Disassembly of section .text:

00008000 <_start>:
    8000:	e59ff018 	ldr	pc, [pc, #24]	; 8020 <reset_handler>
    8004:	e59ff018 	ldr	pc, [pc, #24]	; 8024 <undefined_handler>
    8008:	e59ff018 	ldr	pc, [pc, #24]	; 8028 <swi_handler>
    800c:	e59ff018 	ldr	pc, [pc, #24]	; 802c <prefetch_handler>
    8010:	e59ff018 	ldr	pc, [pc, #24]	; 8030 <data_handler>
    8014:	e59ff018 	ldr	pc, [pc, #24]	; 8034 <unused_handler>
    8018:	e59ff018 	ldr	pc, [pc, #24]	; 8038 <irq_handler>
    801c:	e59ff018 	ldr	pc, [pc, #24]	; 803c <fiq_handler>

00008020 <reset_handler>:
    8020:	00008040 	andeq	r8, r0, r0, asr #32

00008024 <undefined_handler>:
    8024:	00008080 	andeq	r8, r0, r0, lsl #1

00008028 <swi_handler>:
    8028:	00008080 	andeq	r8, r0, r0, lsl #1

0000802c <prefetch_handler>:
    802c:	00008080 	andeq	r8, r0, r0, lsl #1

00008030 <data_handler>:
    8030:	00008080 	andeq	r8, r0, r0, lsl #1

00008034 <unused_handler>:
    8034:	00008080 	andeq	r8, r0, r0, lsl #1

00008038 <irq_handler>:
    8038:	000080c4 	andeq	r8, r0, r4, asr #1

0000803c <fiq_handler>:
    803c:	00008080 	andeq	r8, r0, r0, lsl #1

00008040 <reset>:
    8040:	e3a00902 	mov	r0, #32768	; 0x8000
    8044:	e3a01000 	mov	r1, #0
    8048:	e8b003fc 	ldm	r0!, {r2, r3, r4, r5, r6, r7, r8, r9}
    804c:	e8a103fc 	stmia	r1!, {r2, r3, r4, r5, r6, r7, r8, r9}
    8050:	e8b003fc 	ldm	r0!, {r2, r3, r4, r5, r6, r7, r8, r9}
    8054:	e8a103fc 	stmia	r1!, {r2, r3, r4, r5, r6, r7, r8, r9}
    8058:	e3a000d2 	mov	r0, #210	; 0xd2
    805c:	e121f000 	msr	CPSR_c, r0
    8060:	e3a0d902 	mov	sp, #32768	; 0x8000
    8064:	e3a000d1 	mov	r0, #209	; 0xd1
    8068:	e121f000 	msr	CPSR_c, r0
    806c:	e3a0d901 	mov	sp, #16384	; 0x4000
    8070:	e3a000d3 	mov	r0, #211	; 0xd3
    8074:	e121f000 	msr	CPSR_c, r0
    8078:	e3a0d302 	mov	sp, #134217728	; 0x8000000
    807c:	eb00001d 	bl	80f8 <notmain>

00008080 <hang>:
    8080:	eafffffe 	b	8080 <hang>

00008084 <PUT32>:
    8084:	e5801000 	str	r1, [r0]
    8088:	e12fff1e 	bx	lr

0000808c <PUT16>:
    808c:	e1c010b0 	strh	r1, [r0]
    8090:	e12fff1e 	bx	lr

00008094 <PUT8>:
    8094:	e5c01000 	strb	r1, [r0]
    8098:	e12fff1e 	bx	lr

0000809c <GET32>:
    809c:	e5900000 	ldr	r0, [r0]
    80a0:	e12fff1e 	bx	lr

000080a4 <GETPC>:
    80a4:	e1a0000e 	mov	r0, lr
    80a8:	e12fff1e 	bx	lr

000080ac <BRANCHTO>:
    80ac:	e12fff10 	bx	r0

000080b0 <dummy>:
    80b0:	e12fff1e 	bx	lr

000080b4 <enable_irq>:
    80b4:	e10f0000 	mrs	r0, CPSR
    80b8:	e3c00080 	bic	r0, r0, #128	; 0x80
    80bc:	e121f000 	msr	CPSR_c, r0
    80c0:	e12fff1e 	bx	lr

000080c4 <irq>:
    80c4:	e92d5fff 	push	{r0, r1, r2, r3, r4, r5, r6, r7, r8, r9, sl, fp, ip, lr}
    80c8:	eb000001 	bl	80d4 <c_irq_handler>
    80cc:	e8bd5fff 	pop	{r0, r1, r2, r3, r4, r5, r6, r7, r8, r9, sl, fp, ip, lr}
    80d0:	e25ef004 	subs	pc, lr, #4

000080d4 <c_irq_handler>:
    80d4:	e59f3014 	ldr	r3, [pc, #20]	; 80f0 <c_irq_handler+0x1c>
    80d8:	e59f0014 	ldr	r0, [pc, #20]	; 80f4 <c_irq_handler+0x20>
    80dc:	e5932000 	ldr	r2, [r3]
    80e0:	e3a01002 	mov	r1, #2
    80e4:	e2822001 	add	r2, r2, #1
    80e8:	e5832000 	str	r2, [r3]
    80ec:	eaffffe4 	b	8084 <PUT32>
    80f0:	000083bc 			; <UNDEFINED> instruction: 0x000083bc
    80f4:	20003000 	andcs	r3, r0, r0

000080f8 <notmain>:
    80f8:	e92d41f0 	push	{r4, r5, r6, r7, r8, lr}
    80fc:	e59f0290 	ldr	r0, [pc, #656]	; 8394 <notmain+0x29c>
    8100:	ebffffe5 	bl	809c <GET32>
    8104:	e3c01707 	bic	r1, r0, #1835008	; 0x1c0000
    8108:	e3811701 	orr	r1, r1, #262144	; 0x40000
    810c:	e59f0280 	ldr	r0, [pc, #640]	; 8394 <notmain+0x29c>
    8110:	ebffffdb 	bl	8084 <PUT32>
    8114:	e59f027c 	ldr	r0, [pc, #636]	; 8398 <notmain+0x2a0>
    8118:	e3a01801 	mov	r1, #65536	; 0x10000
    811c:	ebffffd8 	bl	8084 <PUT32>
    8120:	e59f0274 	ldr	r0, [pc, #628]	; 839c <notmain+0x2a4>
    8124:	ebffffdc 	bl	809c <GET32>
    8128:	e59f5270 	ldr	r5, [pc, #624]	; 83a0 <notmain+0x2a8>
    812c:	e1a04000 	mov	r4, r0
    8130:	e2807503 	add	r7, r0, #12582912	; 0xc00000
    8134:	e59f0260 	ldr	r0, [pc, #608]	; 839c <notmain+0x2a4>
    8138:	ebffffd7 	bl	809c <GET32>
    813c:	e0640000 	rsb	r0, r4, r0
    8140:	e1500005 	cmp	r0, r5
    8144:	9afffffa 	bls	8134 <notmain+0x3c>
    8148:	e59f0254 	ldr	r0, [pc, #596]	; 83a4 <notmain+0x2ac>
    814c:	e3a01801 	mov	r1, #65536	; 0x10000
    8150:	e2846602 	add	r6, r4, #2097152	; 0x200000
    8154:	ebffffca 	bl	8084 <PUT32>
    8158:	e59f023c 	ldr	r0, [pc, #572]	; 839c <notmain+0x2a4>
    815c:	ebffffce 	bl	809c <GET32>
    8160:	e0660000 	rsb	r0, r6, r0
    8164:	e1500005 	cmp	r0, r5
    8168:	9afffffa 	bls	8158 <notmain+0x60>
    816c:	e2844501 	add	r4, r4, #4194304	; 0x400000
    8170:	e59f0220 	ldr	r0, [pc, #544]	; 8398 <notmain+0x2a0>
    8174:	e3a01801 	mov	r1, #65536	; 0x10000
    8178:	ebffffc1 	bl	8084 <PUT32>
    817c:	e1540007 	cmp	r4, r7
    8180:	1affffeb 	bne	8134 <notmain+0x3c>
    8184:	e59f0210 	ldr	r0, [pc, #528]	; 839c <notmain+0x2a4>
    8188:	ebffffc3 	bl	809c <GET32>
    818c:	e2804601 	add	r4, r0, #1048576	; 0x100000
    8190:	e1a05000 	mov	r5, r0
    8194:	e1a01004 	mov	r1, r4
    8198:	e59f0208 	ldr	r0, [pc, #520]	; 83a8 <notmain+0x2b0>
    819c:	ebffffb8 	bl	8084 <PUT32>
    81a0:	e59f0204 	ldr	r0, [pc, #516]	; 83ac <notmain+0x2b4>
    81a4:	e3a01002 	mov	r1, #2
    81a8:	ebffffb5 	bl	8084 <PUT32>
    81ac:	e2855609 	add	r5, r5, #9437184	; 0x900000
    81b0:	e59f01f4 	ldr	r0, [pc, #500]	; 83ac <notmain+0x2b4>
    81b4:	ebffffb8 	bl	809c <GET32>
    81b8:	e3100002 	tst	r0, #2
    81bc:	0afffffb 	beq	81b0 <notmain+0xb8>
    81c0:	e59f01e0 	ldr	r0, [pc, #480]	; 83a8 <notmain+0x2b0>
    81c4:	e2841601 	add	r1, r4, #1048576	; 0x100000
    81c8:	ebffffad 	bl	8084 <PUT32>
    81cc:	e59f01d8 	ldr	r0, [pc, #472]	; 83ac <notmain+0x2b4>
    81d0:	e3a01002 	mov	r1, #2
    81d4:	ebffffaa 	bl	8084 <PUT32>
    81d8:	e59f01c4 	ldr	r0, [pc, #452]	; 83a4 <notmain+0x2ac>
    81dc:	e3a01801 	mov	r1, #65536	; 0x10000
    81e0:	ebffffa7 	bl	8084 <PUT32>
    81e4:	e59f01c0 	ldr	r0, [pc, #448]	; 83ac <notmain+0x2b4>
    81e8:	ebffffab 	bl	809c <GET32>
    81ec:	e3100002 	tst	r0, #2
    81f0:	0afffffb 	beq	81e4 <notmain+0xec>
    81f4:	e2844602 	add	r4, r4, #2097152	; 0x200000
    81f8:	e1a01004 	mov	r1, r4
    81fc:	e59f01a4 	ldr	r0, [pc, #420]	; 83a8 <notmain+0x2b0>
    8200:	ebffff9f 	bl	8084 <PUT32>
    8204:	e59f01a0 	ldr	r0, [pc, #416]	; 83ac <notmain+0x2b4>
    8208:	e3a01002 	mov	r1, #2
    820c:	ebffff9c 	bl	8084 <PUT32>
    8210:	e59f0180 	ldr	r0, [pc, #384]	; 8398 <notmain+0x2a0>
    8214:	e3a01801 	mov	r1, #65536	; 0x10000
    8218:	ebffff99 	bl	8084 <PUT32>
    821c:	e1540005 	cmp	r4, r5
    8220:	1affffe2 	bne	81b0 <notmain+0xb8>
    8224:	e59f0170 	ldr	r0, [pc, #368]	; 839c <notmain+0x2a4>
    8228:	ebffff9b 	bl	809c <GET32>
    822c:	e2804602 	add	r4, r0, #2097152	; 0x200000
    8230:	e1a05000 	mov	r5, r0
    8234:	e1a01004 	mov	r1, r4
    8238:	e59f0168 	ldr	r0, [pc, #360]	; 83a8 <notmain+0x2b0>
    823c:	ebffff90 	bl	8084 <PUT32>
    8240:	e59f0164 	ldr	r0, [pc, #356]	; 83ac <notmain+0x2b4>
    8244:	e3a01002 	mov	r1, #2
    8248:	ebffff8d 	bl	8084 <PUT32>
    824c:	e59f015c 	ldr	r0, [pc, #348]	; 83b0 <notmain+0x2b8>
    8250:	e3a01002 	mov	r1, #2
    8254:	ebffff8a 	bl	8084 <PUT32>
    8258:	e285560e 	add	r5, r5, #14680064	; 0xe00000
    825c:	e59f0150 	ldr	r0, [pc, #336]	; 83b4 <notmain+0x2bc>
    8260:	ebffff8d 	bl	809c <GET32>
    8264:	e3100002 	tst	r0, #2
    8268:	0afffffb 	beq	825c <notmain+0x164>
    826c:	e59f0134 	ldr	r0, [pc, #308]	; 83a8 <notmain+0x2b0>
    8270:	e2841602 	add	r1, r4, #2097152	; 0x200000
    8274:	ebffff82 	bl	8084 <PUT32>
    8278:	e59f012c 	ldr	r0, [pc, #300]	; 83ac <notmain+0x2b4>
    827c:	e3a01002 	mov	r1, #2
    8280:	ebffff7f 	bl	8084 <PUT32>
    8284:	e59f0118 	ldr	r0, [pc, #280]	; 83a4 <notmain+0x2ac>
    8288:	e3a01801 	mov	r1, #65536	; 0x10000
    828c:	ebffff7c 	bl	8084 <PUT32>
    8290:	e59f011c 	ldr	r0, [pc, #284]	; 83b4 <notmain+0x2bc>
    8294:	ebffff80 	bl	809c <GET32>
    8298:	e3100002 	tst	r0, #2
    829c:	0afffffb 	beq	8290 <notmain+0x198>
    82a0:	e2844501 	add	r4, r4, #4194304	; 0x400000
    82a4:	e1a01004 	mov	r1, r4
    82a8:	e59f00f8 	ldr	r0, [pc, #248]	; 83a8 <notmain+0x2b0>
    82ac:	ebffff74 	bl	8084 <PUT32>
    82b0:	e59f00f4 	ldr	r0, [pc, #244]	; 83ac <notmain+0x2b4>
    82b4:	e3a01002 	mov	r1, #2
    82b8:	ebffff71 	bl	8084 <PUT32>
    82bc:	e59f00d4 	ldr	r0, [pc, #212]	; 8398 <notmain+0x2a0>
    82c0:	e3a01801 	mov	r1, #65536	; 0x10000
    82c4:	ebffff6e 	bl	8084 <PUT32>
    82c8:	e1540005 	cmp	r4, r5
    82cc:	1affffe2 	bne	825c <notmain+0x164>
    82d0:	e59f60e0 	ldr	r6, [pc, #224]	; 83b8 <notmain+0x2c0>
    82d4:	e3a03000 	mov	r3, #0
    82d8:	e5863000 	str	r3, [r6]
    82dc:	e59f00b8 	ldr	r0, [pc, #184]	; 839c <notmain+0x2a4>
    82e0:	e5967000 	ldr	r7, [r6]
    82e4:	ebffff6c 	bl	809c <GET32>
    82e8:	e2805702 	add	r5, r0, #524288	; 0x80000
    82ec:	e1a01005 	mov	r1, r5
    82f0:	e59f00b0 	ldr	r0, [pc, #176]	; 83a8 <notmain+0x2b0>
    82f4:	ebffff62 	bl	8084 <PUT32>
    82f8:	e59f00ac 	ldr	r0, [pc, #172]	; 83ac <notmain+0x2b4>
    82fc:	e3a01002 	mov	r1, #2
    8300:	ebffff5f 	bl	8084 <PUT32>
    8304:	e59f00a4 	ldr	r0, [pc, #164]	; 83b0 <notmain+0x2b8>
    8308:	e3a01002 	mov	r1, #2
    830c:	ebffff5c 	bl	8084 <PUT32>
    8310:	ebffff67 	bl	80b4 <enable_irq>
    8314:	e1a08006 	mov	r8, r6
    8318:	e3a04702 	mov	r4, #524288	; 0x80000
    831c:	e5963000 	ldr	r3, [r6]
    8320:	e1570003 	cmp	r7, r3
    8324:	0afffffc 	beq	831c <notmain+0x224>
    8328:	e0845005 	add	r5, r4, r5
    832c:	e1a01005 	mov	r1, r5
    8330:	e59f0070 	ldr	r0, [pc, #112]	; 83a8 <notmain+0x2b0>
    8334:	e5987000 	ldr	r7, [r8]
    8338:	ebffff51 	bl	8084 <PUT32>
    833c:	e59f0060 	ldr	r0, [pc, #96]	; 83a4 <notmain+0x2ac>
    8340:	e3a01801 	mov	r1, #65536	; 0x10000
    8344:	ebffff4e 	bl	8084 <PUT32>
    8348:	e5963000 	ldr	r3, [r6]
    834c:	e59f2064 	ldr	r2, [pc, #100]	; 83b8 <notmain+0x2c0>
    8350:	e1530007 	cmp	r3, r7
    8354:	0afffffb 	beq	8348 <notmain+0x250>
    8358:	e0855004 	add	r5, r5, r4
    835c:	e1a01005 	mov	r1, r5
    8360:	e59f0040 	ldr	r0, [pc, #64]	; 83a8 <notmain+0x2b0>
    8364:	e5927000 	ldr	r7, [r2]
    8368:	ebffff45 	bl	8084 <PUT32>
    836c:	e3740801 	cmn	r4, #65536	; 0x10000
    8370:	e3a01801 	mov	r1, #65536	; 0x10000
    8374:	e59f001c 	ldr	r0, [pc, #28]	; 8398 <notmain+0x2a0>
    8378:	10844001 	addne	r4, r4, r1
    837c:	03a04702 	moveq	r4, #524288	; 0x80000
    8380:	ebffff3f 	bl	8084 <PUT32>
    8384:	e5963000 	ldr	r3, [r6]
    8388:	e1570003 	cmp	r7, r3
    838c:	1affffe5 	bne	8328 <notmain+0x230>
    8390:	eaffffe1 	b	831c <notmain+0x224>
    8394:	20200004 	eorcs	r0, r0, r4
    8398:	2020001c 	eorcs	r0, r0, ip, lsl r0
    839c:	20003004 	andcs	r3, r0, r4
    83a0:	001fffff 			; <UNDEFINED> instruction: 0x001fffff
    83a4:	20200028 	eorcs	r0, r0, r8, lsr #32
    83a8:	20003010 	andcs	r3, r0, r0, lsl r0
    83ac:	20003000 	andcs	r3, r0, r0
    83b0:	2000b210 	andcs	fp, r0, r0, lsl r2
    83b4:	2000b204 	andcs	fp, r0, r4, lsl #4
    83b8:	000083bc 			; <UNDEFINED> instruction: 0x000083bc

Disassembly of section .bss:

000083bc <irq_counter>:
    83bc:	00000000 	andeq	r0, r0, r0

Disassembly of section .ARM.attributes:

00000000 <.ARM.attributes>:
   0:	00002e41 	andeq	r2, r0, r1, asr #28
   4:	61656100 	cmnvs	r5, r0, lsl #2
   8:	01006962 	tsteq	r0, r2, ror #18
   c:	00000024 	andeq	r0, r0, r4, lsr #32
  10:	06003605 	streq	r3, [r0], -r5, lsl #12
  14:	09010806 	stmdbeq	r1, {r1, r2, fp}
  18:	12020a01 	andne	r0, r2, #4096	; 0x1000
  1c:	15011404 	strne	r1, [r1, #-1028]	; 0x404
  20:	18031701 	stmdane	r3, {r0, r8, r9, sl, ip}
  24:	1b021a01 	blne	86830 <irq_counter+0x7e474>
  28:	22011c03 	andcs	r1, r1, #768	; 0x300
  2c:	Address 0x0000002c is out of bounds.


Disassembly of section .comment:

00000000 <.comment>:
   0:	3a434347 	bcc	10d0d24 <irq_counter+0x10c8968>
   4:	72632820 	rsbvc	r2, r3, #2097152	; 0x200000
   8:	7473736f 	ldrbtvc	r7, [r3], #-879	; 0x36f
   c:	2d6c6f6f 	stclcs	15, cr6, [ip, #-444]!	; 0xfffffe44
  10:	6c20474e 	stcvs	7, cr4, [r0], #-312	; 0xfffffec8
  14:	72616e69 	rsbvc	r6, r1, #1680	; 0x690
  18:	2e312d6f 	cdpcs	13, 3, cr2, cr1, cr15, {3}
  1c:	312e3331 	teqcc	lr, r1, lsr r3
  20:	727a622b 	rsbsvc	r6, sl, #-1342177278	; 0xb0000002
  24:	38353432 	ldmdacc	r5!, {r1, r4, r5, sl, ip, sp}
  28:	4c202d20 	stcmi	13, cr2, [r0], #-128	; 0xffffff80
  2c:	72616e69 	rsbvc	r6, r1, #1680	; 0x690
  30:	4347206f 	movtmi	r2, #28783	; 0x706f
  34:	30322043 	eorscc	r2, r2, r3, asr #32
  38:	302e3231 	eorcc	r3, lr, r1, lsr r2
  3c:	34202938 	strtcc	r2, [r0], #-2360	; 0x938
  40:	322e372e 	eorcc	r3, lr, #12058624	; 0xb80000
  44:	31303220 	teqcc	r0, r0, lsr #4
  48:	33373032 	teqcc	r7, #50	; 0x32
  4c:	70282031 	eorvc	r2, r8, r1, lsr r0
  50:	65726572 	ldrbvs	r6, [r2, #-1394]!	; 0x572
  54:	7361656c 	cmnvc	r1, #452984832	; 0x1b000000
  58:	Address 0x00000058 is out of bounds.

