
zlibtest.elf:     file format elf32-littlearm


Disassembly of section .text:

00000000 <_start>:
       0:	ea000006 	b	20 <reset>
       4:	ea000007 	b	28 <hang>
       8:	ea000006 	b	28 <hang>
       c:	ea000005 	b	28 <hang>
      10:	ea000004 	b	28 <hang>
      14:	ea000003 	b	28 <hang>
      18:	ea000002 	b	28 <hang>
      1c:	ea000001 	b	28 <hang>

00000020 <reset>:
      20:	e3a0d602 	mov	sp, #2097152	; 0x200000
      24:	eb000033 	bl	f8 <notmain>

00000028 <hang>:
      28:	eafffffe 	b	28 <hang>

0000002c <PUT32>:
      2c:	e5801000 	str	r1, [r0]
      30:	e12fff1e 	bx	lr

00000034 <GET32>:
      34:	e5900000 	ldr	r0, [r0]
      38:	e12fff1e 	bx	lr

0000003c <dummy>:
      3c:	e12fff1e 	bx	lr

00000040 <memset>:
      40:	ea000008 	b	68 <ZMEMSET>

00000044 <ZMEMCPY>:
      44:	e3520000 	cmp	r2, #0
      48:	012fff1e 	bxeq	lr
      4c:	e3a03000 	mov	r3, #0
      50:	e7d1c003 	ldrb	ip, [r1, r3]
      54:	e7c0c003 	strb	ip, [r0, r3]
      58:	e2833001 	add	r3, r3, #1
      5c:	e1530002 	cmp	r3, r2
      60:	1afffffa 	bne	50 <ZMEMCPY+0xc>
      64:	e12fff1e 	bx	lr

00000068 <ZMEMSET>:
      68:	e3520000 	cmp	r2, #0
      6c:	012fff1e 	bxeq	lr
      70:	e6ef1071 	uxtb	r1, r1
      74:	e0822000 	add	r2, r2, r0
      78:	e1a03000 	mov	r3, r0
      7c:	e4c31001 	strb	r1, [r3], #1
      80:	e1530002 	cmp	r3, r2
      84:	1afffffc 	bne	7c <ZMEMSET+0x14>
      88:	e12fff1e 	bx	lr

0000008c <ZMALLOC>:
      8c:	e59f2018 	ldr	r2, [pc, #24]	; ac <ZMALLOC+0x20>
      90:	e5923000 	ldr	r3, [r2]
      94:	e2831003 	add	r1, r3, #3
      98:	e0810000 	add	r0, r1, r0
      9c:	e3c01003 	bic	r1, r0, #3
      a0:	e5821000 	str	r1, [r2]
      a4:	e1a00003 	mov	r0, r3
      a8:	e12fff1e 	bx	lr
      ac:	0000f3e4 	andeq	pc, r0, r4, ror #7

000000b0 <ZCALLOC>:
      b0:	e59f2038 	ldr	r2, [pc, #56]	; f0 <ZCALLOC+0x40>
      b4:	e0010190 	mul	r1, r0, r1
      b8:	e5923000 	ldr	r3, [r2]
      bc:	e3510000 	cmp	r1, #0
      c0:	e2830003 	add	r0, r3, #3
      c4:	e0800001 	add	r0, r0, r1
      c8:	e3c00003 	bic	r0, r0, #3
      cc:	e5820000 	str	r0, [r2]
      d0:	e1a00003 	mov	r0, r3
      d4:	012fff1e 	bxeq	lr
      d8:	e0811003 	add	r1, r1, r3
      dc:	e3a02000 	mov	r2, #0
      e0:	e4c32001 	strb	r2, [r3], #1
      e4:	e1530001 	cmp	r3, r1
      e8:	1afffffc 	bne	e0 <ZCALLOC+0x30>
      ec:	e12fff1e 	bx	lr
      f0:	0000f3e4 	andeq	pc, r0, r4, ror #7

000000f4 <free>:
      f4:	e12fff1e 	bx	lr

000000f8 <notmain>:
      f8:	e59f310c 	ldr	r3, [pc, #268]	; 20c <notmain+0x114>
      fc:	e92d47f0 	push	{r4, r5, r6, r7, r8, r9, sl, lr}
     100:	e3a02601 	mov	r2, #1048576	; 0x100000
     104:	e5832000 	str	r2, [r3]
     108:	eb00006c 	bl	2c0 <uart_init>
     10c:	e59f00fc 	ldr	r0, [pc, #252]	; 210 <notmain+0x118>
     110:	e3a018f9 	mov	r1, #16318464	; 0xf90000
     114:	ebffffc4 	bl	2c <PUT32>
     118:	e59f00f0 	ldr	r0, [pc, #240]	; 210 <notmain+0x118>
     11c:	e59f10f0 	ldr	r1, [pc, #240]	; 214 <notmain+0x11c>
     120:	ebffffc1 	bl	2c <PUT32>
     124:	e3a04000 	mov	r4, #0
     128:	e1a00004 	mov	r0, r4
     12c:	e2844001 	add	r4, r4, #1
     130:	eb00005b 	bl	2a4 <hexstring>
     134:	e3540c01 	cmp	r4, #256	; 0x100
     138:	1afffffa 	bne	128 <notmain+0x30>
     13c:	e59f50d4 	ldr	r5, [pc, #212]	; 218 <notmain+0x120>
     140:	e59f40d4 	ldr	r4, [pc, #212]	; 21c <notmain+0x124>
     144:	e1a00005 	mov	r0, r5
     148:	eb000055 	bl	2a4 <hexstring>
     14c:	e59f00cc 	ldr	r0, [pc, #204]	; 220 <notmain+0x128>
     150:	ebffffb7 	bl	34 <GET32>
     154:	e1a03005 	mov	r3, r5
     158:	e1a06000 	mov	r6, r0
     15c:	e1a01004 	mov	r1, r4
     160:	e59f20bc 	ldr	r2, [pc, #188]	; 224 <notmain+0x12c>
     164:	e59f00bc 	ldr	r0, [pc, #188]	; 228 <notmain+0x130>
     168:	e5845000 	str	r5, [r4]
     16c:	eb0000bd 	bl	468 <compress>
     170:	e1a0a000 	mov	sl, r0
     174:	e59f00a4 	ldr	r0, [pc, #164]	; 220 <notmain+0x128>
     178:	ebffffad 	bl	34 <GET32>
     17c:	e59f80a8 	ldr	r8, [pc, #168]	; 22c <notmain+0x134>
     180:	e5943000 	ldr	r3, [r4]
     184:	e1a01008 	mov	r1, r8
     188:	e59f2098 	ldr	r2, [pc, #152]	; 228 <notmain+0x130>
     18c:	e1a07000 	mov	r7, r0
     190:	e59f0098 	ldr	r0, [pc, #152]	; 230 <notmain+0x138>
     194:	e5885000 	str	r5, [r8]
     198:	eb001f29 	bl	7e44 <uncompress>
     19c:	e1a09000 	mov	r9, r0
     1a0:	e59f0078 	ldr	r0, [pc, #120]	; 220 <notmain+0x128>
     1a4:	ebffffa2 	bl	34 <GET32>
     1a8:	e1a05000 	mov	r5, r0
     1ac:	e1a0000a 	mov	r0, sl
     1b0:	eb00003b 	bl	2a4 <hexstring>
     1b4:	e5940000 	ldr	r0, [r4]
     1b8:	eb000039 	bl	2a4 <hexstring>
     1bc:	e1a00009 	mov	r0, r9
     1c0:	eb000037 	bl	2a4 <hexstring>
     1c4:	e5980000 	ldr	r0, [r8]
     1c8:	eb000035 	bl	2a4 <hexstring>
     1cc:	e59f0060 	ldr	r0, [pc, #96]	; 234 <notmain+0x13c>
     1d0:	eb000033 	bl	2a4 <hexstring>
     1d4:	e1a00006 	mov	r0, r6
     1d8:	eb000031 	bl	2a4 <hexstring>
     1dc:	e1a00007 	mov	r0, r7
     1e0:	eb00002f 	bl	2a4 <hexstring>
     1e4:	e1a00005 	mov	r0, r5
     1e8:	eb00002d 	bl	2a4 <hexstring>
     1ec:	e0660007 	rsb	r0, r6, r7
     1f0:	eb00002b 	bl	2a4 <hexstring>
     1f4:	e0670005 	rsb	r0, r7, r5
     1f8:	eb000029 	bl	2a4 <hexstring>
     1fc:	e0660005 	rsb	r0, r6, r5
     200:	eb000027 	bl	2a4 <hexstring>
     204:	e3a00000 	mov	r0, #0
     208:	e8bd87f0 	pop	{r4, r5, r6, r7, r8, r9, sl, pc}
     20c:	0000f3e4 	andeq	pc, r0, r4, ror #7
     210:	2000b408 	andcs	fp, r0, r8, lsl #8
     214:	00f90200 	rscseq	r0, r9, r0, lsl #4
     218:	00002710 	andeq	r2, r0, r0, lsl r7
     21c:	00011af8 	strdeq	r1, [r1], -r8
     220:	2000b420 	andcs	fp, r0, r0, lsr #8
     224:	00008a28 	andeq	r8, r0, r8, lsr #20
     228:	0000f3e8 	andeq	pc, r0, r8, ror #7
     22c:	0000ccd0 	ldrdeq	ip, [r0], -r0
     230:	0000ccd4 	ldrdeq	ip, [r0], -r4
     234:	11111111 	tstne	r1, r1, lsl r1

00000238 <uart_putc>:
     238:	e92d4010 	push	{r4, lr}
     23c:	e1a04000 	mov	r4, r0
     240:	e59f0018 	ldr	r0, [pc, #24]	; 260 <uart_putc+0x28>
     244:	ebffff7a 	bl	34 <GET32>
     248:	e3100020 	tst	r0, #32
     24c:	0afffffb 	beq	240 <uart_putc+0x8>
     250:	e59f000c 	ldr	r0, [pc, #12]	; 264 <uart_putc+0x2c>
     254:	e1a01004 	mov	r1, r4
     258:	e8bd4010 	pop	{r4, lr}
     25c:	eaffff72 	b	2c <PUT32>
     260:	20215054 	eorcs	r5, r1, r4, asr r0
     264:	20215040 	eorcs	r5, r1, r0, asr #32

00000268 <hexstrings>:
     268:	e92d4038 	push	{r3, r4, r5, lr}
     26c:	e1a05000 	mov	r5, r0
     270:	e3a04020 	mov	r4, #32
     274:	e2444004 	sub	r4, r4, #4
     278:	e1a03435 	lsr	r3, r5, r4
     27c:	e203300f 	and	r3, r3, #15
     280:	e3530009 	cmp	r3, #9
     284:	82830037 	addhi	r0, r3, #55	; 0x37
     288:	92830030 	addls	r0, r3, #48	; 0x30
     28c:	ebffffe9 	bl	238 <uart_putc>
     290:	e3540000 	cmp	r4, #0
     294:	1afffff6 	bne	274 <hexstrings+0xc>
     298:	e3a00020 	mov	r0, #32
     29c:	e8bd4038 	pop	{r3, r4, r5, lr}
     2a0:	eaffffe4 	b	238 <uart_putc>

000002a4 <hexstring>:
     2a4:	e92d4008 	push	{r3, lr}
     2a8:	ebffffee 	bl	268 <hexstrings>
     2ac:	e3a0000d 	mov	r0, #13
     2b0:	ebffffe0 	bl	238 <uart_putc>
     2b4:	e3a0000a 	mov	r0, #10
     2b8:	e8bd4008 	pop	{r3, lr}
     2bc:	eaffffdd 	b	238 <uart_putc>

000002c0 <uart_init>:
     2c0:	e92d4010 	push	{r4, lr}
     2c4:	e59f00d4 	ldr	r0, [pc, #212]	; 3a0 <uart_init+0xe0>
     2c8:	e3a01001 	mov	r1, #1
     2cc:	ebffff56 	bl	2c <PUT32>
     2d0:	e59f00cc 	ldr	r0, [pc, #204]	; 3a4 <uart_init+0xe4>
     2d4:	e3a01000 	mov	r1, #0
     2d8:	ebffff53 	bl	2c <PUT32>
     2dc:	e59f00c4 	ldr	r0, [pc, #196]	; 3a8 <uart_init+0xe8>
     2e0:	e3a01000 	mov	r1, #0
     2e4:	ebffff50 	bl	2c <PUT32>
     2e8:	e59f00bc 	ldr	r0, [pc, #188]	; 3ac <uart_init+0xec>
     2ec:	e3a01003 	mov	r1, #3
     2f0:	ebffff4d 	bl	2c <PUT32>
     2f4:	e59f00b4 	ldr	r0, [pc, #180]	; 3b0 <uart_init+0xf0>
     2f8:	e3a01000 	mov	r1, #0
     2fc:	ebffff4a 	bl	2c <PUT32>
     300:	e59f009c 	ldr	r0, [pc, #156]	; 3a4 <uart_init+0xe4>
     304:	e3a01000 	mov	r1, #0
     308:	ebffff47 	bl	2c <PUT32>
     30c:	e59f00a0 	ldr	r0, [pc, #160]	; 3b4 <uart_init+0xf4>
     310:	e3a010c6 	mov	r1, #198	; 0xc6
     314:	ebffff44 	bl	2c <PUT32>
     318:	e59f1098 	ldr	r1, [pc, #152]	; 3b8 <uart_init+0xf8>
     31c:	e59f0098 	ldr	r0, [pc, #152]	; 3bc <uart_init+0xfc>
     320:	ebffff41 	bl	2c <PUT32>
     324:	e59f0094 	ldr	r0, [pc, #148]	; 3c0 <uart_init+0x100>
     328:	ebffff41 	bl	34 <GET32>
     32c:	e3c01a3f 	bic	r1, r0, #258048	; 0x3f000
     330:	e3811a12 	orr	r1, r1, #73728	; 0x12000
     334:	e59f0084 	ldr	r0, [pc, #132]	; 3c0 <uart_init+0x100>
     338:	ebffff3b 	bl	2c <PUT32>
     33c:	e59f0080 	ldr	r0, [pc, #128]	; 3c4 <uart_init+0x104>
     340:	e3a01000 	mov	r1, #0
     344:	ebffff38 	bl	2c <PUT32>
     348:	e3a04000 	mov	r4, #0
     34c:	e1a00004 	mov	r0, r4
     350:	e2844001 	add	r4, r4, #1
     354:	ebffff38 	bl	3c <dummy>
     358:	e3540096 	cmp	r4, #150	; 0x96
     35c:	1afffffa 	bne	34c <uart_init+0x8c>
     360:	e59f0060 	ldr	r0, [pc, #96]	; 3c8 <uart_init+0x108>
     364:	e3a01903 	mov	r1, #49152	; 0xc000
     368:	ebffff2f 	bl	2c <PUT32>
     36c:	e3a04000 	mov	r4, #0
     370:	e1a00004 	mov	r0, r4
     374:	e2844001 	add	r4, r4, #1
     378:	ebffff2f 	bl	3c <dummy>
     37c:	e3540096 	cmp	r4, #150	; 0x96
     380:	1afffffa 	bne	370 <uart_init+0xb0>
     384:	e59f003c 	ldr	r0, [pc, #60]	; 3c8 <uart_init+0x108>
     388:	e3a01000 	mov	r1, #0
     38c:	ebffff26 	bl	2c <PUT32>
     390:	e59f0010 	ldr	r0, [pc, #16]	; 3a8 <uart_init+0xe8>
     394:	e3a01003 	mov	r1, #3
     398:	e8bd4010 	pop	{r4, lr}
     39c:	eaffff22 	b	2c <PUT32>
     3a0:	20215004 	eorcs	r5, r1, r4
     3a4:	20215044 	eorcs	r5, r1, r4, asr #32
     3a8:	20215060 	eorcs	r5, r1, r0, rrx
     3ac:	2021504c 	eorcs	r5, r1, ip, asr #32
     3b0:	20215050 	eorcs	r5, r1, r0, asr r0
     3b4:	20215048 	eorcs	r5, r1, r8, asr #32
     3b8:	0000010e 	andeq	r0, r0, lr, lsl #2
     3bc:	20215068 	eorcs	r5, r1, r8, rrx
     3c0:	20200004 	eorcs	r0, r0, r4
     3c4:	20200094 	mlacs	r0, r4, r0, r0
     3c8:	20200098 	mlacs	r0, r8, r0, r0

000003cc <compress2>:
     3cc:	e92d4030 	push	{r4, r5, lr}
     3d0:	e591e000 	ldr	lr, [r1]
     3d4:	e24dd03c 	sub	sp, sp, #60	; 0x3c
     3d8:	e3a0c000 	mov	ip, #0
     3dc:	e88d000c 	stm	sp, {r2, r3}
     3e0:	e58d000c 	str	r0, [sp, #12]
     3e4:	e1a05001 	mov	r5, r1
     3e8:	e1a0000d 	mov	r0, sp
     3ec:	e59d1048 	ldr	r1, [sp, #72]	; 0x48
     3f0:	e59f206c 	ldr	r2, [pc, #108]	; 464 <compress2+0x98>
     3f4:	e3a03038 	mov	r3, #56	; 0x38
     3f8:	e58de010 	str	lr, [sp, #16]
     3fc:	e58dc020 	str	ip, [sp, #32]
     400:	e58dc024 	str	ip, [sp, #36]	; 0x24
     404:	e58dc028 	str	ip, [sp, #40]	; 0x28
     408:	eb000bdc 	bl	3380 <deflateInit_>
     40c:	e2504000 	subs	r4, r0, #0
     410:	0a000002 	beq	420 <compress2+0x54>
     414:	e1a00004 	mov	r0, r4
     418:	e28dd03c 	add	sp, sp, #60	; 0x3c
     41c:	e8bd8030 	pop	{r4, r5, pc}
     420:	e1a0000d 	mov	r0, sp
     424:	e3a01004 	mov	r1, #4
     428:	eb000650 	bl	1d70 <deflate>
     42c:	e3500001 	cmp	r0, #1
     430:	e1a04000 	mov	r4, r0
     434:	0a000004 	beq	44c <compress2+0x80>
     438:	e1a0000d 	mov	r0, sp
     43c:	eb000ae4 	bl	2fd4 <deflateEnd>
     440:	e3540000 	cmp	r4, #0
     444:	03e04004 	mvneq	r4, #4
     448:	eafffff1 	b	414 <compress2+0x48>
     44c:	e59d3014 	ldr	r3, [sp, #20]
     450:	e1a0000d 	mov	r0, sp
     454:	e5853000 	str	r3, [r5]
     458:	eb000add 	bl	2fd4 <deflateEnd>
     45c:	e1a04000 	mov	r4, r0
     460:	eaffffeb 	b	414 <compress2+0x48>
     464:	0000ca24 	andeq	ip, r0, r4, lsr #20

00000468 <compress>:
     468:	e52de004 	push	{lr}		; (str lr, [sp, #-4]!)
     46c:	e3e0c000 	mvn	ip, #0
     470:	e24dd00c 	sub	sp, sp, #12
     474:	e58dc000 	str	ip, [sp]
     478:	ebffffd3 	bl	3cc <compress2>
     47c:	e28dd00c 	add	sp, sp, #12
     480:	e8bd8000 	pop	{pc}

00000484 <compressBound>:
     484:	e280300d 	add	r3, r0, #13
     488:	e0833620 	add	r3, r3, r0, lsr #12
     48c:	e0833720 	add	r3, r3, r0, lsr #14
     490:	e0830ca0 	add	r0, r3, r0, lsr #25
     494:	e12fff1e 	bx	lr

00000498 <longest_match>:
     498:	e92d0ff0 	push	{r4, r5, r6, r7, r8, r9, sl, fp}
     49c:	e590602c 	ldr	r6, [r0, #44]	; 0x2c
     4a0:	e590406c 	ldr	r4, [r0, #108]	; 0x6c
     4a4:	e2463f41 	sub	r3, r6, #260	; 0x104
     4a8:	e2433002 	sub	r3, r3, #2
     4ac:	e5905038 	ldr	r5, [r0, #56]	; 0x38
     4b0:	e1530004 	cmp	r3, r4
     4b4:	e24dd028 	sub	sp, sp, #40	; 0x28
     4b8:	32848f41 	addcc	r8, r4, #260	; 0x104
     4bc:	e0852004 	add	r2, r5, r4
     4c0:	32888002 	addcc	r8, r8, #2
     4c4:	e58d2008 	str	r2, [sp, #8]
     4c8:	e590c078 	ldr	ip, [r0, #120]	; 0x78
     4cc:	3066b008 	rsbcc	fp, r6, r8
     4d0:	e59d8008 	ldr	r8, [sp, #8]
     4d4:	e590608c 	ldr	r6, [r0, #140]	; 0x8c
     4d8:	23a0b000 	movcs	fp, #0
     4dc:	e2844c01 	add	r4, r4, #256	; 0x100
     4e0:	e15c0006 	cmp	ip, r6
     4e4:	e088600c 	add	r6, r8, ip
     4e8:	e5566001 	ldrb	r6, [r6, #-1]
     4ec:	e2844002 	add	r4, r4, #2
     4f0:	e0854004 	add	r4, r5, r4
     4f4:	e5907090 	ldr	r7, [r0, #144]	; 0x90
     4f8:	e1a0200c 	mov	r2, ip
     4fc:	e58d4018 	str	r4, [sp, #24]
     500:	e58d6014 	str	r6, [sp, #20]
     504:	e7d8600c 	ldrb	r6, [r8, ip]
     508:	e590c074 	ldr	ip, [r0, #116]	; 0x74
     50c:	e59d4018 	ldr	r4, [sp, #24]
     510:	e58d700c 	str	r7, [sp, #12]
     514:	e58dc010 	str	ip, [sp, #16]
     518:	e59d800c 	ldr	r8, [sp, #12]
     51c:	e244cc01 	sub	ip, r4, #256	; 0x100
     520:	e590307c 	ldr	r3, [r0, #124]	; 0x7c
     524:	e59d4010 	ldr	r4, [sp, #16]
     528:	21a03123 	lsrcs	r3, r3, #2
     52c:	e24cc002 	sub	ip, ip, #2
     530:	e1580004 	cmp	r8, r4
     534:	21a08004 	movcs	r8, r4
     538:	e590a040 	ldr	sl, [r0, #64]	; 0x40
     53c:	e5907034 	ldr	r7, [r0, #52]	; 0x34
     540:	e58d800c 	str	r8, [sp, #12]
     544:	e58dc020 	str	ip, [sp, #32]
     548:	e58d0024 	str	r0, [sp, #36]	; 0x24
     54c:	ea000006 	b	56c <longest_match+0xd4>
     550:	e0011007 	and	r1, r1, r7
     554:	e1a01081 	lsl	r1, r1, #1
     558:	e19a10b1 	ldrh	r1, [sl, r1]
     55c:	e15b0001 	cmp	fp, r1
     560:	2a00005b 	bcs	6d4 <longest_match+0x23c>
     564:	e2533001 	subs	r3, r3, #1
     568:	0a000059 	beq	6d4 <longest_match+0x23c>
     56c:	e0850001 	add	r0, r5, r1
     570:	e7d04002 	ldrb	r4, [r0, r2]
     574:	e1a09002 	mov	r9, r2
     578:	e1540006 	cmp	r4, r6
     57c:	1afffff3 	bne	550 <longest_match+0xb8>
     580:	e080c002 	add	ip, r0, r2
     584:	e55cc001 	ldrb	ip, [ip, #-1]
     588:	e59d8014 	ldr	r8, [sp, #20]
     58c:	e58dc000 	str	ip, [sp]
     590:	e15c0008 	cmp	ip, r8
     594:	1affffed 	bne	550 <longest_match+0xb8>
     598:	e59d8008 	ldr	r8, [sp, #8]
     59c:	e5d0c000 	ldrb	ip, [r0]
     5a0:	e5d88000 	ldrb	r8, [r8]
     5a4:	e15c0008 	cmp	ip, r8
     5a8:	1affffe8 	bne	550 <longest_match+0xb8>
     5ac:	e59d8008 	ldr	r8, [sp, #8]
     5b0:	e5d0c001 	ldrb	ip, [r0, #1]
     5b4:	e5d88001 	ldrb	r8, [r8, #1]
     5b8:	e15c0008 	cmp	ip, r8
     5bc:	1affffe3 	bne	550 <longest_match+0xb8>
     5c0:	e59dc008 	ldr	ip, [sp, #8]
     5c4:	e2800002 	add	r0, r0, #2
     5c8:	e59d8000 	ldr	r8, [sp]
     5cc:	e58d3008 	str	r3, [sp, #8]
     5d0:	e28c6002 	add	r6, ip, #2
     5d4:	e58d2014 	str	r2, [sp, #20]
     5d8:	e1a03000 	mov	r3, r0
     5dc:	e5d60001 	ldrb	r0, [r6, #1]
     5e0:	e5d32001 	ldrb	r2, [r3, #1]
     5e4:	e1500002 	cmp	r0, r2
     5e8:	1a000043 	bne	6fc <longest_match+0x264>
     5ec:	e5d60002 	ldrb	r0, [r6, #2]
     5f0:	e5d32002 	ldrb	r2, [r3, #2]
     5f4:	e1500002 	cmp	r0, r2
     5f8:	1a000053 	bne	74c <longest_match+0x2b4>
     5fc:	e5d60003 	ldrb	r0, [r6, #3]
     600:	e5d32003 	ldrb	r2, [r3, #3]
     604:	e1500002 	cmp	r0, r2
     608:	1a000059 	bne	774 <longest_match+0x2dc>
     60c:	e5d60004 	ldrb	r0, [r6, #4]
     610:	e5d32004 	ldrb	r2, [r3, #4]
     614:	e1500002 	cmp	r0, r2
     618:	1a000050 	bne	760 <longest_match+0x2c8>
     61c:	e5d60005 	ldrb	r0, [r6, #5]
     620:	e5d32005 	ldrb	r2, [r3, #5]
     624:	e1500002 	cmp	r0, r2
     628:	1a00003d 	bne	724 <longest_match+0x28c>
     62c:	e5d60006 	ldrb	r0, [r6, #6]
     630:	e5d32006 	ldrb	r2, [r3, #6]
     634:	e1500002 	cmp	r0, r2
     638:	1a000034 	bne	710 <longest_match+0x278>
     63c:	e5d60007 	ldrb	r0, [r6, #7]
     640:	e5d32007 	ldrb	r2, [r3, #7]
     644:	e1500002 	cmp	r0, r2
     648:	1a00003a 	bne	738 <longest_match+0x2a0>
     64c:	e5d60008 	ldrb	r0, [r6, #8]
     650:	e5d32008 	ldrb	r2, [r3, #8]
     654:	e2866008 	add	r6, r6, #8
     658:	e1500002 	cmp	r0, r2
     65c:	e1a00006 	mov	r0, r6
     660:	1a000003 	bne	674 <longest_match+0x1dc>
     664:	e59d2018 	ldr	r2, [sp, #24]
     668:	e2833008 	add	r3, r3, #8
     66c:	e1520006 	cmp	r2, r6
     670:	8affffd9 	bhi	5dc <longest_match+0x144>
     674:	e59d3008 	ldr	r3, [sp, #8]
     678:	e59d2014 	ldr	r2, [sp, #20]
     67c:	e58d8000 	str	r8, [sp]
     680:	e59d8018 	ldr	r8, [sp, #24]
     684:	e0680000 	rsb	r0, r8, r0
     688:	e280cc01 	add	ip, r0, #256	; 0x100
     68c:	e28cc002 	add	ip, ip, #2
     690:	e59d0020 	ldr	r0, [sp, #32]
     694:	e152000c 	cmp	r2, ip
     698:	e58d0008 	str	r0, [sp, #8]
     69c:	aa000012 	bge	6ec <longest_match+0x254>
     6a0:	e59d200c 	ldr	r2, [sp, #12]
     6a4:	e59d4024 	ldr	r4, [sp, #36]	; 0x24
     6a8:	e152000c 	cmp	r2, ip
     6ac:	e1a0900c 	mov	r9, ip
     6b0:	e5841070 	str	r1, [r4, #112]	; 0x70
     6b4:	da000006 	ble	6d4 <longest_match+0x23c>
     6b8:	e59d8020 	ldr	r8, [sp, #32]
     6bc:	e088200c 	add	r2, r8, ip
     6c0:	e5522001 	ldrb	r2, [r2, #-1]
     6c4:	e7d8600c 	ldrb	r6, [r8, ip]
     6c8:	e58d2014 	str	r2, [sp, #20]
     6cc:	e1a0200c 	mov	r2, ip
     6d0:	eaffff9e 	b	550 <longest_match+0xb8>
     6d4:	e59d0010 	ldr	r0, [sp, #16]
     6d8:	e1590000 	cmp	r9, r0
     6dc:	31a00009 	movcc	r0, r9
     6e0:	e28dd028 	add	sp, sp, #40	; 0x28
     6e4:	e8bd0ff0 	pop	{r4, r5, r6, r7, r8, r9, sl, fp}
     6e8:	e12fff1e 	bx	lr
     6ec:	e59dc000 	ldr	ip, [sp]
     6f0:	e1a06004 	mov	r6, r4
     6f4:	e58dc014 	str	ip, [sp, #20]
     6f8:	eaffff94 	b	550 <longest_match+0xb8>
     6fc:	e59d3008 	ldr	r3, [sp, #8]
     700:	e59d2014 	ldr	r2, [sp, #20]
     704:	e58d8000 	str	r8, [sp]
     708:	e2860001 	add	r0, r6, #1
     70c:	eaffffdb 	b	680 <longest_match+0x1e8>
     710:	e59d3008 	ldr	r3, [sp, #8]
     714:	e59d2014 	ldr	r2, [sp, #20]
     718:	e58d8000 	str	r8, [sp]
     71c:	e2860006 	add	r0, r6, #6
     720:	eaffffd6 	b	680 <longest_match+0x1e8>
     724:	e59d3008 	ldr	r3, [sp, #8]
     728:	e59d2014 	ldr	r2, [sp, #20]
     72c:	e58d8000 	str	r8, [sp]
     730:	e2860005 	add	r0, r6, #5
     734:	eaffffd1 	b	680 <longest_match+0x1e8>
     738:	e59d3008 	ldr	r3, [sp, #8]
     73c:	e59d2014 	ldr	r2, [sp, #20]
     740:	e58d8000 	str	r8, [sp]
     744:	e2860007 	add	r0, r6, #7
     748:	eaffffcc 	b	680 <longest_match+0x1e8>
     74c:	e59d3008 	ldr	r3, [sp, #8]
     750:	e59d2014 	ldr	r2, [sp, #20]
     754:	e58d8000 	str	r8, [sp]
     758:	e2860002 	add	r0, r6, #2
     75c:	eaffffc7 	b	680 <longest_match+0x1e8>
     760:	e59d3008 	ldr	r3, [sp, #8]
     764:	e59d2014 	ldr	r2, [sp, #20]
     768:	e58d8000 	str	r8, [sp]
     76c:	e2860004 	add	r0, r6, #4
     770:	eaffffc2 	b	680 <longest_match+0x1e8>
     774:	e59d3008 	ldr	r3, [sp, #8]
     778:	e59d2014 	ldr	r2, [sp, #20]
     77c:	e58d8000 	str	r8, [sp]
     780:	e2860003 	add	r0, r6, #3
     784:	eaffffbd 	b	680 <longest_match+0x1e8>

00000788 <fill_window>:
     788:	e92d4ff0 	push	{r4, r5, r6, r7, r8, r9, sl, fp, lr}
     78c:	e590502c 	ldr	r5, [r0, #44]	; 0x2c
     790:	e24dd014 	sub	sp, sp, #20
     794:	e2453f41 	sub	r3, r5, #260	; 0x104
     798:	e2433002 	sub	r3, r3, #2
     79c:	e1a06085 	lsl	r6, r5, #1
     7a0:	e590b074 	ldr	fp, [r0, #116]	; 0x74
     7a4:	e59f9314 	ldr	r9, [pc, #788]	; ac0 <fill_window+0x338>
     7a8:	e58d3004 	str	r3, [sp, #4]
     7ac:	e1a04000 	mov	r4, r0
     7b0:	e58d600c 	str	r6, [sp, #12]
     7b4:	e1a03005 	mov	r3, r5
     7b8:	e59d8004 	ldr	r8, [sp, #4]
     7bc:	e594c06c 	ldr	ip, [r4, #108]	; 0x6c
     7c0:	e594203c 	ldr	r2, [r4, #60]	; 0x3c
     7c4:	e0883003 	add	r3, r8, r3
     7c8:	e06bb002 	rsb	fp, fp, r2
     7cc:	e15c0003 	cmp	ip, r3
     7d0:	e06cb00b 	rsb	fp, ip, fp
     7d4:	2a000056 	bcs	934 <fill_window+0x1ac>
     7d8:	e5946000 	ldr	r6, [r4]
     7dc:	e5967004 	ldr	r7, [r6, #4]
     7e0:	e3570000 	cmp	r7, #0
     7e4:	0a00007b 	beq	9d8 <fill_window+0x250>
     7e8:	e15b0007 	cmp	fp, r7
     7ec:	e5943038 	ldr	r3, [r4, #56]	; 0x38
     7f0:	e5942074 	ldr	r2, [r4, #116]	; 0x74
     7f4:	2a000037 	bcs	8d8 <fill_window+0x150>
     7f8:	e35b0000 	cmp	fp, #0
     7fc:	1a0000ac 	bne	ab4 <fill_window+0x32c>
     800:	e7943009 	ldr	r3, [r4, r9]
     804:	e08bb002 	add	fp, fp, r2
     808:	e08b2003 	add	r2, fp, r3
     80c:	e3520002 	cmp	r2, #2
     810:	e584b074 	str	fp, [r4, #116]	; 0x74
     814:	9a000026 	bls	8b4 <fill_window+0x12c>
     818:	e594106c 	ldr	r1, [r4, #108]	; 0x6c
     81c:	e5940038 	ldr	r0, [r4, #56]	; 0x38
     820:	e0631001 	rsb	r1, r3, r1
     824:	e7d02001 	ldrb	r2, [r0, r1]
     828:	e0800001 	add	r0, r0, r1
     82c:	e5842048 	str	r2, [r4, #72]	; 0x48
     830:	e5d0c001 	ldrb	ip, [r0, #1]
     834:	e5946058 	ldr	r6, [r4, #88]	; 0x58
     838:	e58d5008 	str	r5, [sp, #8]
     83c:	e02c2612 	eor	r2, ip, r2, lsl r6
     840:	e594c054 	ldr	ip, [r4, #84]	; 0x54
     844:	e58d6000 	str	r6, [sp]
     848:	e002200c 	and	r2, r2, ip
     84c:	e5842048 	str	r2, [r4, #72]	; 0x48
     850:	e3530000 	cmp	r3, #0
     854:	e2433001 	sub	r3, r3, #1
     858:	e083700b 	add	r7, r3, fp
     85c:	0a000013 	beq	8b0 <fill_window+0x128>
     860:	e5d02002 	ldrb	r2, [r0, #2]
     864:	e5946048 	ldr	r6, [r4, #72]	; 0x48
     868:	e59d8000 	ldr	r8, [sp]
     86c:	e5945044 	ldr	r5, [r4, #68]	; 0x44
     870:	e0226816 	eor	r6, r2, r6, lsl r8
     874:	e594a034 	ldr	sl, [r4, #52]	; 0x34
     878:	e006600c 	and	r6, r6, ip
     87c:	e1a02086 	lsl	r2, r6, #1
     880:	e19580b2 	ldrh	r8, [r5, r2]
     884:	e001a00a 	and	sl, r1, sl
     888:	e3570002 	cmp	r7, #2
     88c:	e5947040 	ldr	r7, [r4, #64]	; 0x40
     890:	e1a0a08a 	lsl	sl, sl, #1
     894:	e5846048 	str	r6, [r4, #72]	; 0x48
     898:	e2800001 	add	r0, r0, #1
     89c:	e18780ba 	strh	r8, [r7, sl]
     8a0:	e18510b2 	strh	r1, [r5, r2]
     8a4:	e2811001 	add	r1, r1, #1
     8a8:	e7843009 	str	r3, [r4, r9]
     8ac:	8affffe7 	bhi	850 <fill_window+0xc8>
     8b0:	e59d5008 	ldr	r5, [sp, #8]
     8b4:	e59f8208 	ldr	r8, [pc, #520]	; ac4 <fill_window+0x33c>
     8b8:	e15b0008 	cmp	fp, r8
     8bc:	8a000045 	bhi	9d8 <fill_window+0x250>
     8c0:	e5943000 	ldr	r3, [r4]
     8c4:	e5933004 	ldr	r3, [r3, #4]
     8c8:	e3530000 	cmp	r3, #0
     8cc:	0a000041 	beq	9d8 <fill_window+0x250>
     8d0:	e594302c 	ldr	r3, [r4, #44]	; 0x2c
     8d4:	eaffffb7 	b	7b8 <fill_window+0x30>
     8d8:	e3a0e000 	mov	lr, #0
     8dc:	e082b00c 	add	fp, r2, ip
     8e0:	e083b00b 	add	fp, r3, fp
     8e4:	e586e004 	str	lr, [r6, #4]
     8e8:	e1a0000b 	mov	r0, fp
     8ec:	e5961000 	ldr	r1, [r6]
     8f0:	e1a02007 	mov	r2, r7
     8f4:	ebfffdd2 	bl	44 <ZMEMCPY>
     8f8:	e596301c 	ldr	r3, [r6, #28]
     8fc:	e5938018 	ldr	r8, [r3, #24]
     900:	e3580001 	cmp	r8, #1
     904:	0a00005e 	beq	a84 <fill_window+0x2fc>
     908:	e3580002 	cmp	r8, #2
     90c:	0a000062 	beq	a9c <fill_window+0x314>
     910:	e5961000 	ldr	r1, [r6]
     914:	e5963008 	ldr	r3, [r6, #8]
     918:	e0811007 	add	r1, r1, r7
     91c:	e0833007 	add	r3, r3, r7
     920:	e5942074 	ldr	r2, [r4, #116]	; 0x74
     924:	e1a0b007 	mov	fp, r7
     928:	e5861000 	str	r1, [r6]
     92c:	e5863008 	str	r3, [r6, #8]
     930:	eaffffb2 	b	800 <fill_window+0x78>
     934:	e5940038 	ldr	r0, [r4, #56]	; 0x38
     938:	e1a02005 	mov	r2, r5
     93c:	e0801005 	add	r1, r0, r5
     940:	ebfffdbf 	bl	44 <ZMEMCPY>
     944:	e5940070 	ldr	r0, [r4, #112]	; 0x70
     948:	e594c06c 	ldr	ip, [r4, #108]	; 0x6c
     94c:	e594105c 	ldr	r1, [r4, #92]	; 0x5c
     950:	e594304c 	ldr	r3, [r4, #76]	; 0x4c
     954:	e5942044 	ldr	r2, [r4, #68]	; 0x44
     958:	e0650000 	rsb	r0, r5, r0
     95c:	e065c00c 	rsb	ip, r5, ip
     960:	e0651001 	rsb	r1, r5, r1
     964:	e5840070 	str	r0, [r4, #112]	; 0x70
     968:	e584c06c 	str	ip, [r4, #108]	; 0x6c
     96c:	e584105c 	str	r1, [r4, #92]	; 0x5c
     970:	e0822083 	add	r2, r2, r3, lsl #1
     974:	e15200b2 	ldrh	r0, [r2, #-2]
     978:	e3a01000 	mov	r1, #0
     97c:	e1550000 	cmp	r5, r0
     980:	90651000 	rsbls	r1, r5, r0
     984:	96ff1071 	uxthls	r1, r1
     988:	e2533001 	subs	r3, r3, #1
     98c:	e16210b2 	strh	r1, [r2, #-2]!
     990:	1afffff7 	bne	974 <fill_window+0x1ec>
     994:	e5943040 	ldr	r3, [r4, #64]	; 0x40
     998:	e59d600c 	ldr	r6, [sp, #12]
     99c:	e1a02005 	mov	r2, r5
     9a0:	e0833006 	add	r3, r3, r6
     9a4:	e15300b2 	ldrh	r0, [r3, #-2]
     9a8:	e3a01000 	mov	r1, #0
     9ac:	e1550000 	cmp	r5, r0
     9b0:	90651000 	rsbls	r1, r5, r0
     9b4:	96ff1071 	uxthls	r1, r1
     9b8:	e2522001 	subs	r2, r2, #1
     9bc:	e16310b2 	strh	r1, [r3, #-2]!
     9c0:	1afffff7 	bne	9a4 <fill_window+0x21c>
     9c4:	e5946000 	ldr	r6, [r4]
     9c8:	e08bb005 	add	fp, fp, r5
     9cc:	e5967004 	ldr	r7, [r6, #4]
     9d0:	e3570000 	cmp	r7, #0
     9d4:	1affff83 	bne	7e8 <fill_window+0x60>
     9d8:	e3a05d5b 	mov	r5, #5824	; 0x16c0
     9dc:	e7943005 	ldr	r3, [r4, r5]
     9e0:	e594203c 	ldr	r2, [r4, #60]	; 0x3c
     9e4:	e1530002 	cmp	r3, r2
     9e8:	2a000010 	bcs	a30 <fill_window+0x2a8>
     9ec:	e5946074 	ldr	r6, [r4, #116]	; 0x74
     9f0:	e594106c 	ldr	r1, [r4, #108]	; 0x6c
     9f4:	e0866001 	add	r6, r6, r1
     9f8:	e1530006 	cmp	r3, r6
     9fc:	2a00000d 	bcs	a38 <fill_window+0x2b0>
     a00:	e59f30c0 	ldr	r3, [pc, #192]	; ac8 <fill_window+0x340>
     a04:	e0662002 	rsb	r2, r6, r2
     a08:	e5940038 	ldr	r0, [r4, #56]	; 0x38
     a0c:	e1520003 	cmp	r2, r3
     a10:	31a07002 	movcc	r7, r2
     a14:	21a07003 	movcs	r7, r3
     a18:	e0800006 	add	r0, r0, r6
     a1c:	e1a02007 	mov	r2, r7
     a20:	e3a01000 	mov	r1, #0
     a24:	e0876006 	add	r6, r7, r6
     a28:	ebfffd8e 	bl	68 <ZMEMSET>
     a2c:	e7846005 	str	r6, [r4, r5]
     a30:	e28dd014 	add	sp, sp, #20
     a34:	e8bd8ff0 	pop	{r4, r5, r6, r7, r8, r9, sl, fp, pc}
     a38:	e2861c01 	add	r1, r6, #256	; 0x100
     a3c:	e2811002 	add	r1, r1, #2
     a40:	e1510003 	cmp	r1, r3
     a44:	9afffff9 	bls	a30 <fill_window+0x2a8>
     a48:	e0636006 	rsb	r6, r3, r6
     a4c:	e2866c01 	add	r6, r6, #256	; 0x100
     a50:	e0632002 	rsb	r2, r3, r2
     a54:	e5940038 	ldr	r0, [r4, #56]	; 0x38
     a58:	e2866002 	add	r6, r6, #2
     a5c:	e1560002 	cmp	r6, r2
     a60:	21a06002 	movcs	r6, r2
     a64:	e1a02006 	mov	r2, r6
     a68:	e0800003 	add	r0, r0, r3
     a6c:	e3a01000 	mov	r1, #0
     a70:	ebfffd7c 	bl	68 <ZMEMSET>
     a74:	e7943005 	ldr	r3, [r4, r5]
     a78:	e0866003 	add	r6, r6, r3
     a7c:	e7846005 	str	r6, [r4, r5]
     a80:	eaffffea 	b	a30 <fill_window+0x2a8>
     a84:	e1a0100b 	mov	r1, fp
     a88:	e5960030 	ldr	r0, [r6, #48]	; 0x30
     a8c:	e1a02007 	mov	r2, r7
     a90:	eb000af6 	bl	3670 <adler32>
     a94:	e5860030 	str	r0, [r6, #48]	; 0x30
     a98:	eaffff9c 	b	910 <fill_window+0x188>
     a9c:	e1a0100b 	mov	r1, fp
     aa0:	e5960030 	ldr	r0, [r6, #48]	; 0x30
     aa4:	e1a02007 	mov	r2, r7
     aa8:	eb000c28 	bl	3b50 <crc32>
     aac:	e5860030 	str	r0, [r6, #48]	; 0x30
     ab0:	eaffff96 	b	910 <fill_window+0x188>
     ab4:	e06be007 	rsb	lr, fp, r7
     ab8:	e1a0700b 	mov	r7, fp
     abc:	eaffff86 	b	8dc <fill_window+0x154>
     ac0:	000016b4 			; <UNDEFINED> instruction: 0x000016b4
     ac4:	00000105 	andeq	r0, r0, r5, lsl #2
     ac8:	00000102 	andeq	r0, r0, r2, lsl #2

00000acc <flush_pending>:
     acc:	e92d4070 	push	{r4, r5, r6, lr}
     ad0:	e590501c 	ldr	r5, [r0, #28]
     ad4:	e1a04000 	mov	r4, r0
     ad8:	e1a00005 	mov	r0, r5
     adc:	eb0011d7 	bl	5240 <_tr_flush_bits>
     ae0:	e5953014 	ldr	r3, [r5, #20]
     ae4:	e5946010 	ldr	r6, [r4, #16]
     ae8:	e1560003 	cmp	r6, r3
     aec:	21a06003 	movcs	r6, r3
     af0:	e3560000 	cmp	r6, #0
     af4:	08bd8070 	popeq	{r4, r5, r6, pc}
     af8:	e1a02006 	mov	r2, r6
     afc:	e5951010 	ldr	r1, [r5, #16]
     b00:	e594000c 	ldr	r0, [r4, #12]
     b04:	ebfffd4e 	bl	44 <ZMEMCPY>
     b08:	e5953014 	ldr	r3, [r5, #20]
     b0c:	e5951010 	ldr	r1, [r5, #16]
     b10:	e594000c 	ldr	r0, [r4, #12]
     b14:	e5942014 	ldr	r2, [r4, #20]
     b18:	e594c010 	ldr	ip, [r4, #16]
     b1c:	e0663003 	rsb	r3, r6, r3
     b20:	e0800006 	add	r0, r0, r6
     b24:	e0811006 	add	r1, r1, r6
     b28:	e0822006 	add	r2, r2, r6
     b2c:	e3530000 	cmp	r3, #0
     b30:	e066600c 	rsb	r6, r6, ip
     b34:	e584000c 	str	r0, [r4, #12]
     b38:	e5851010 	str	r1, [r5, #16]
     b3c:	e5842014 	str	r2, [r4, #20]
     b40:	e5846010 	str	r6, [r4, #16]
     b44:	e5853014 	str	r3, [r5, #20]
     b48:	05953008 	ldreq	r3, [r5, #8]
     b4c:	05853010 	streq	r3, [r5, #16]
     b50:	e8bd8070 	pop	{r4, r5, r6, pc}

00000b54 <deflate_slow>:
     b54:	e92d4ff0 	push	{r4, r5, r6, r7, r8, r9, sl, fp, lr}
     b58:	e1a04000 	mov	r4, r0
     b5c:	e24dd014 	sub	sp, sp, #20
     b60:	e5900074 	ldr	r0, [r0, #116]	; 0x74
     b64:	e59fb54c 	ldr	fp, [pc, #1356]	; 10b8 <deflate_slow+0x564>
     b68:	e59f954c 	ldr	r9, [pc, #1356]	; 10bc <deflate_slow+0x568>
     b6c:	e58d100c 	str	r1, [sp, #12]
     b70:	e150000b 	cmp	r0, fp
     b74:	9a000097 	bls	dd8 <deflate_slow+0x284>
     b78:	e594206c 	ldr	r2, [r4, #108]	; 0x6c
     b7c:	e5943038 	ldr	r3, [r4, #56]	; 0x38
     b80:	e594c048 	ldr	ip, [r4, #72]	; 0x48
     b84:	e0833002 	add	r3, r3, r2
     b88:	e5d30002 	ldrb	r0, [r3, #2]
     b8c:	e5943058 	ldr	r3, [r4, #88]	; 0x58
     b90:	e5941054 	ldr	r1, [r4, #84]	; 0x54
     b94:	e020331c 	eor	r3, r0, ip, lsl r3
     b98:	e5945034 	ldr	r5, [r4, #52]	; 0x34
     b9c:	e0033001 	and	r3, r3, r1
     ba0:	e594c044 	ldr	ip, [r4, #68]	; 0x44
     ba4:	e1a00083 	lsl	r0, r3, #1
     ba8:	e19c10b0 	ldrh	r1, [ip, r0]
     bac:	e5946040 	ldr	r6, [r4, #64]	; 0x40
     bb0:	e0025005 	and	r5, r2, r5
     bb4:	e1a05085 	lsl	r5, r5, #1
     bb8:	e5843048 	str	r3, [r4, #72]	; 0x48
     bbc:	e5943060 	ldr	r3, [r4, #96]	; 0x60
     bc0:	e18610b5 	strh	r1, [r6, r5]
     bc4:	e5946070 	ldr	r6, [r4, #112]	; 0x70
     bc8:	e3a05002 	mov	r5, #2
     bcc:	e3510000 	cmp	r1, #0
     bd0:	e18c20b0 	strh	r2, [ip, r0]
     bd4:	e5843078 	str	r3, [r4, #120]	; 0x78
     bd8:	e5846064 	str	r6, [r4, #100]	; 0x64
     bdc:	e5845060 	str	r5, [r4, #96]	; 0x60
     be0:	0a000008 	beq	c08 <deflate_slow+0xb4>
     be4:	e5940080 	ldr	r0, [r4, #128]	; 0x80
     be8:	e1530000 	cmp	r3, r0
     bec:	2a000005 	bcs	c08 <deflate_slow+0xb4>
     bf0:	e594002c 	ldr	r0, [r4, #44]	; 0x2c
     bf4:	e061c002 	rsb	ip, r1, r2
     bf8:	e2400f41 	sub	r0, r0, #260	; 0x104
     bfc:	e2400002 	sub	r0, r0, #2
     c00:	e150000c 	cmp	r0, ip
     c04:	2a0000c6 	bcs	f24 <deflate_slow+0x3d0>
     c08:	e3530002 	cmp	r3, #2
     c0c:	9a000086 	bls	e2c <deflate_slow+0x2d8>
     c10:	e5941060 	ldr	r1, [r4, #96]	; 0x60
     c14:	e1510003 	cmp	r1, r3
     c18:	8a000083 	bhi	e2c <deflate_slow+0x2d8>
     c1c:	e2433003 	sub	r3, r3, #3
     c20:	e6efc073 	uxtb	ip, r3
     c24:	e59f6494 	ldr	r6, [pc, #1172]	; 10c0 <deflate_slow+0x56c>
     c28:	e5943064 	ldr	r3, [r4, #100]	; 0x64
     c2c:	e59f7490 	ldr	r7, [pc, #1168]	; 10c4 <deflate_slow+0x570>
     c30:	e7941009 	ldr	r1, [r4, r9]
     c34:	e7d6000c 	ldrb	r0, [r6, ip]
     c38:	e0633002 	rsb	r3, r3, r2
     c3c:	e7948007 	ldr	r8, [r4, r7]
     c40:	e6ff3073 	uxth	r3, r3
     c44:	e247700c 	sub	r7, r7, #12
     c48:	e7945007 	ldr	r5, [r4, r7]
     c4c:	e1a06081 	lsl	r6, r1, #1
     c50:	e243a001 	sub	sl, r3, #1
     c54:	e2800c01 	add	r0, r0, #256	; 0x100
     c58:	e5947074 	ldr	r7, [r4, #116]	; 0x74
     c5c:	e2800025 	add	r0, r0, #37	; 0x25
     c60:	e188a0b6 	strh	sl, [r8, r6]
     c64:	e2816001 	add	r6, r1, #1
     c68:	e7c5c001 	strb	ip, [r5, r1]
     c6c:	e0840100 	add	r0, r4, r0, lsl #2
     c70:	e7846009 	str	r6, [r4, r9]
     c74:	e1d010b4 	ldrh	r1, [r0, #4]
     c78:	e2433002 	sub	r3, r3, #2
     c7c:	e6ff3073 	uxth	r3, r3
     c80:	e35300ff 	cmp	r3, #255	; 0xff
     c84:	e2811001 	add	r1, r1, #1
     c88:	e1c010b4 	strh	r1, [r0, #4]
     c8c:	859f0434 	ldrhi	r0, [pc, #1076]	; 10c8 <deflate_slow+0x574>
     c90:	959fc430 	ldrls	ip, [pc, #1072]	; 10c8 <deflate_slow+0x574>
     c94:	808033a3 	addhi	r3, r0, r3, lsr #7
     c98:	97dc3003 	ldrbls	r3, [ip, r3]
     c9c:	85d33100 	ldrbhi	r3, [r3, #256]	; 0x100
     ca0:	e0827007 	add	r7, r2, r7
     ca4:	e2833e26 	add	r3, r3, #608	; 0x260
     ca8:	e2833002 	add	r3, r3, #2
     cac:	e1a03103 	lsl	r3, r3, #2
     cb0:	e19410b3 	ldrh	r1, [r4, r3]
     cb4:	e59f2410 	ldr	r2, [pc, #1040]	; 10cc <deflate_slow+0x578>
     cb8:	e2811001 	add	r1, r1, #1
     cbc:	e18410b3 	strh	r1, [r4, r3]
     cc0:	e5940074 	ldr	r0, [r4, #116]	; 0x74
     cc4:	e5941078 	ldr	r1, [r4, #120]	; 0x78
     cc8:	e7943002 	ldr	r3, [r4, r2]
     ccc:	e2800001 	add	r0, r0, #1
     cd0:	e0610000 	rsb	r0, r1, r0
     cd4:	e2433001 	sub	r3, r3, #1
     cd8:	e2411002 	sub	r1, r1, #2
     cdc:	e58d6004 	str	r6, [sp, #4]
     ce0:	e2477003 	sub	r7, r7, #3
     ce4:	e5840074 	str	r0, [r4, #116]	; 0x74
     ce8:	e5841078 	str	r1, [r4, #120]	; 0x78
     cec:	e58d3008 	str	r3, [sp, #8]
     cf0:	e594206c 	ldr	r2, [r4, #108]	; 0x6c
     cf4:	e58d0000 	str	r0, [sp]
     cf8:	ea000000 	b	d00 <deflate_slow+0x1ac>
     cfc:	e1a02003 	mov	r2, r3
     d00:	e2823001 	add	r3, r2, #1
     d04:	e1570003 	cmp	r7, r3
     d08:	e2411001 	sub	r1, r1, #1
     d0c:	e584306c 	str	r3, [r4, #108]	; 0x6c
     d10:	3a000011 	bcc	d5c <deflate_slow+0x208>
     d14:	e594c038 	ldr	ip, [r4, #56]	; 0x38
     d18:	e5948048 	ldr	r8, [r4, #72]	; 0x48
     d1c:	e08cc002 	add	ip, ip, r2
     d20:	e5dc5003 	ldrb	r5, [ip, #3]
     d24:	e5946058 	ldr	r6, [r4, #88]	; 0x58
     d28:	e594c054 	ldr	ip, [r4, #84]	; 0x54
     d2c:	e0256618 	eor	r6, r5, r8, lsl r6
     d30:	e5945044 	ldr	r5, [r4, #68]	; 0x44
     d34:	e006600c 	and	r6, r6, ip
     d38:	e5948034 	ldr	r8, [r4, #52]	; 0x34
     d3c:	e1a0c086 	lsl	ip, r6, #1
     d40:	e195a0bc 	ldrh	sl, [r5, ip]
     d44:	e0038008 	and	r8, r3, r8
     d48:	e5846048 	str	r6, [r4, #72]	; 0x48
     d4c:	e5946040 	ldr	r6, [r4, #64]	; 0x40
     d50:	e1a08088 	lsl	r8, r8, #1
     d54:	e186a0b8 	strh	sl, [r6, r8]
     d58:	e18530bc 	strh	r3, [r5, ip]
     d5c:	e3510000 	cmp	r1, #0
     d60:	e5841078 	str	r1, [r4, #120]	; 0x78
     d64:	1affffe4 	bne	cfc <deflate_slow+0x1a8>
     d68:	e2822002 	add	r2, r2, #2
     d6c:	e99d1080 	ldmib	sp, {r7, ip}
     d70:	e3a03002 	mov	r3, #2
     d74:	e157000c 	cmp	r7, ip
     d78:	e59d0000 	ldr	r0, [sp]
     d7c:	e584206c 	str	r2, [r4, #108]	; 0x6c
     d80:	e5841068 	str	r1, [r4, #104]	; 0x68
     d84:	e5843060 	str	r3, [r4, #96]	; 0x60
     d88:	1affff78 	bne	b70 <deflate_slow+0x1c>
     d8c:	e594305c 	ldr	r3, [r4, #92]	; 0x5c
     d90:	e1a00004 	mov	r0, r4
     d94:	e3530000 	cmp	r3, #0
     d98:	a5941038 	ldrge	r1, [r4, #56]	; 0x38
     d9c:	e0632002 	rsb	r2, r3, r2
     da0:	a0811003 	addge	r1, r1, r3
     da4:	e3a03000 	mov	r3, #0
     da8:	eb001163 	bl	533c <_tr_flush_block>
     dac:	e594306c 	ldr	r3, [r4, #108]	; 0x6c
     db0:	e5940000 	ldr	r0, [r4]
     db4:	e584305c 	str	r3, [r4, #92]	; 0x5c
     db8:	ebffff43 	bl	acc <flush_pending>
     dbc:	e5943000 	ldr	r3, [r4]
     dc0:	e5933010 	ldr	r3, [r3, #16]
     dc4:	e3530000 	cmp	r3, #0
     dc8:	0a00003c 	beq	ec0 <deflate_slow+0x36c>
     dcc:	e5940074 	ldr	r0, [r4, #116]	; 0x74
     dd0:	e150000b 	cmp	r0, fp
     dd4:	8affff67 	bhi	b78 <deflate_slow+0x24>
     dd8:	e1a00004 	mov	r0, r4
     ddc:	ebfffe69 	bl	788 <fill_window>
     de0:	e5943074 	ldr	r3, [r4, #116]	; 0x74
     de4:	e153000b 	cmp	r3, fp
     de8:	8affff62 	bhi	b78 <deflate_slow+0x24>
     dec:	e59d500c 	ldr	r5, [sp, #12]
     df0:	e3550000 	cmp	r5, #0
     df4:	0a000031 	beq	ec0 <deflate_slow+0x36c>
     df8:	e3530000 	cmp	r3, #0
     dfc:	0a00005f 	beq	f80 <deflate_slow+0x42c>
     e00:	e3530002 	cmp	r3, #2
     e04:	8affff5b 	bhi	b78 <deflate_slow+0x24>
     e08:	e5943060 	ldr	r3, [r4, #96]	; 0x60
     e0c:	e5941070 	ldr	r1, [r4, #112]	; 0x70
     e10:	e3a02002 	mov	r2, #2
     e14:	e3530002 	cmp	r3, #2
     e18:	e5842060 	str	r2, [r4, #96]	; 0x60
     e1c:	e5843078 	str	r3, [r4, #120]	; 0x78
     e20:	e5841064 	str	r1, [r4, #100]	; 0x64
     e24:	e594206c 	ldr	r2, [r4, #108]	; 0x6c
     e28:	8affff78 	bhi	c10 <deflate_slow+0xbc>
     e2c:	e5943068 	ldr	r3, [r4, #104]	; 0x68
     e30:	e3530000 	cmp	r3, #0
     e34:	0a000024 	beq	ecc <deflate_slow+0x378>
     e38:	e5941038 	ldr	r1, [r4, #56]	; 0x38
     e3c:	e7943009 	ldr	r3, [r4, r9]
     e40:	e0812002 	add	r2, r1, r2
     e44:	e59f1278 	ldr	r1, [pc, #632]	; 10c4 <deflate_slow+0x570>
     e48:	e5520001 	ldrb	r0, [r2, #-1]
     e4c:	e59f227c 	ldr	r2, [pc, #636]	; 10d0 <deflate_slow+0x57c>
     e50:	e794c001 	ldr	ip, [r4, r1]
     e54:	e7945002 	ldr	r5, [r4, r2]
     e58:	e3a01000 	mov	r1, #0
     e5c:	e1a02083 	lsl	r2, r3, #1
     e60:	e18c10b2 	strh	r1, [ip, r2]
     e64:	e280c024 	add	ip, r0, #36	; 0x24
     e68:	e2832001 	add	r2, r3, #1
     e6c:	e7c50003 	strb	r0, [r5, r3]
     e70:	e084310c 	add	r3, r4, ip, lsl #2
     e74:	e7842009 	str	r2, [r4, r9]
     e78:	e1d3c0b4 	ldrh	ip, [r3, #4]
     e7c:	e59f0248 	ldr	r0, [pc, #584]	; 10cc <deflate_slow+0x578>
     e80:	e28cc001 	add	ip, ip, #1
     e84:	e1c3c0b4 	strh	ip, [r3, #4]
     e88:	e7943000 	ldr	r3, [r4, r0]
     e8c:	e2433001 	sub	r3, r3, #1
     e90:	e1520003 	cmp	r2, r3
     e94:	0a000014 	beq	eec <deflate_slow+0x398>
     e98:	e5942000 	ldr	r2, [r4]
     e9c:	e594306c 	ldr	r3, [r4, #108]	; 0x6c
     ea0:	e5922010 	ldr	r2, [r2, #16]
     ea4:	e5940074 	ldr	r0, [r4, #116]	; 0x74
     ea8:	e2833001 	add	r3, r3, #1
     eac:	e2400001 	sub	r0, r0, #1
     eb0:	e3520000 	cmp	r2, #0
     eb4:	e584306c 	str	r3, [r4, #108]	; 0x6c
     eb8:	e5840074 	str	r0, [r4, #116]	; 0x74
     ebc:	1affff2b 	bne	b70 <deflate_slow+0x1c>
     ec0:	e3a00000 	mov	r0, #0
     ec4:	e28dd014 	add	sp, sp, #20
     ec8:	e8bd8ff0 	pop	{r4, r5, r6, r7, r8, r9, sl, fp, pc}
     ecc:	e5940074 	ldr	r0, [r4, #116]	; 0x74
     ed0:	e2822001 	add	r2, r2, #1
     ed4:	e2400001 	sub	r0, r0, #1
     ed8:	e3a03001 	mov	r3, #1
     edc:	e584206c 	str	r2, [r4, #108]	; 0x6c
     ee0:	e5840074 	str	r0, [r4, #116]	; 0x74
     ee4:	e5843068 	str	r3, [r4, #104]	; 0x68
     ee8:	eaffff20 	b	b70 <deflate_slow+0x1c>
     eec:	e594305c 	ldr	r3, [r4, #92]	; 0x5c
     ef0:	e594206c 	ldr	r2, [r4, #108]	; 0x6c
     ef4:	e1530001 	cmp	r3, r1
     ef8:	a5941038 	ldrge	r1, [r4, #56]	; 0x38
     efc:	e0632002 	rsb	r2, r3, r2
     f00:	a0811003 	addge	r1, r1, r3
     f04:	e1a00004 	mov	r0, r4
     f08:	e3a03000 	mov	r3, #0
     f0c:	eb00110a 	bl	533c <_tr_flush_block>
     f10:	e594306c 	ldr	r3, [r4, #108]	; 0x6c
     f14:	e5940000 	ldr	r0, [r4]
     f18:	e584305c 	str	r3, [r4, #92]	; 0x5c
     f1c:	ebfffeea 	bl	acc <flush_pending>
     f20:	eaffffdc 	b	e98 <deflate_slow+0x344>
     f24:	e1a00004 	mov	r0, r4
     f28:	ebfffd5a 	bl	498 <longest_match>
     f2c:	e3500005 	cmp	r0, #5
     f30:	e5840060 	str	r0, [r4, #96]	; 0x60
     f34:	8a000005 	bhi	f50 <deflate_slow+0x3fc>
     f38:	e5943088 	ldr	r3, [r4, #136]	; 0x88
     f3c:	e3530001 	cmp	r3, #1
     f40:	0594206c 	ldreq	r2, [r4, #108]	; 0x6c
     f44:	0a000009 	beq	f70 <deflate_slow+0x41c>
     f48:	e3500003 	cmp	r0, #3
     f4c:	0a000002 	beq	f5c <deflate_slow+0x408>
     f50:	e5943078 	ldr	r3, [r4, #120]	; 0x78
     f54:	e594206c 	ldr	r2, [r4, #108]	; 0x6c
     f58:	eaffff2a 	b	c08 <deflate_slow+0xb4>
     f5c:	e594206c 	ldr	r2, [r4, #108]	; 0x6c
     f60:	e5943070 	ldr	r3, [r4, #112]	; 0x70
     f64:	e0633002 	rsb	r3, r3, r2
     f68:	e3530a01 	cmp	r3, #4096	; 0x1000
     f6c:	9a000026 	bls	100c <deflate_slow+0x4b8>
     f70:	e3a01002 	mov	r1, #2
     f74:	e5943078 	ldr	r3, [r4, #120]	; 0x78
     f78:	e5841060 	str	r1, [r4, #96]	; 0x60
     f7c:	eaffff21 	b	c08 <deflate_slow+0xb4>
     f80:	e5942068 	ldr	r2, [r4, #104]	; 0x68
     f84:	e3520000 	cmp	r2, #0
     f88:	1a000021 	bne	1014 <deflate_slow+0x4c0>
     f8c:	e594306c 	ldr	r3, [r4, #108]	; 0x6c
     f90:	e59d500c 	ldr	r5, [sp, #12]
     f94:	e59f2138 	ldr	r2, [pc, #312]	; 10d4 <deflate_slow+0x580>
     f98:	e3530002 	cmp	r3, #2
     f9c:	31a01003 	movcc	r1, r3
     fa0:	23a01002 	movcs	r1, #2
     fa4:	e3550004 	cmp	r5, #4
     fa8:	e7841002 	str	r1, [r4, r2]
     fac:	0a00002e 	beq	106c <deflate_slow+0x518>
     fb0:	e59f2104 	ldr	r2, [pc, #260]	; 10bc <deflate_slow+0x568>
     fb4:	e7942002 	ldr	r2, [r4, r2]
     fb8:	e3520000 	cmp	r2, #0
     fbc:	03a00001 	moveq	r0, #1
     fc0:	0affffbf 	beq	ec4 <deflate_slow+0x370>
     fc4:	e594205c 	ldr	r2, [r4, #92]	; 0x5c
     fc8:	e1a00004 	mov	r0, r4
     fcc:	e3520000 	cmp	r2, #0
     fd0:	a5941038 	ldrge	r1, [r4, #56]	; 0x38
     fd4:	b3a01000 	movlt	r1, #0
     fd8:	a0811002 	addge	r1, r1, r2
     fdc:	e0622003 	rsb	r2, r2, r3
     fe0:	e3a03000 	mov	r3, #0
     fe4:	eb0010d4 	bl	533c <_tr_flush_block>
     fe8:	e594306c 	ldr	r3, [r4, #108]	; 0x6c
     fec:	e5940000 	ldr	r0, [r4]
     ff0:	e584305c 	str	r3, [r4, #92]	; 0x5c
     ff4:	ebfffeb4 	bl	acc <flush_pending>
     ff8:	e5943000 	ldr	r3, [r4]
     ffc:	e5930010 	ldr	r0, [r3, #16]
    1000:	e2900000 	adds	r0, r0, #0
    1004:	13a00001 	movne	r0, #1
    1008:	eaffffad 	b	ec4 <deflate_slow+0x370>
    100c:	e5943078 	ldr	r3, [r4, #120]	; 0x78
    1010:	eafffefc 	b	c08 <deflate_slow+0xb4>
    1014:	e5941038 	ldr	r1, [r4, #56]	; 0x38
    1018:	e594206c 	ldr	r2, [r4, #108]	; 0x6c
    101c:	e59f0098 	ldr	r0, [pc, #152]	; 10bc <deflate_slow+0x568>
    1020:	e0812002 	add	r2, r1, r2
    1024:	e59f5098 	ldr	r5, [pc, #152]	; 10c4 <deflate_slow+0x570>
    1028:	e59f10a0 	ldr	r1, [pc, #160]	; 10d0 <deflate_slow+0x57c>
    102c:	e552c001 	ldrb	ip, [r2, #-1]
    1030:	e7942000 	ldr	r2, [r4, r0]
    1034:	e7948005 	ldr	r8, [r4, r5]
    1038:	e7946001 	ldr	r6, [r4, r1]
    103c:	e1a07082 	lsl	r7, r2, #1
    1040:	e2825001 	add	r5, r2, #1
    1044:	e28c1024 	add	r1, ip, #36	; 0x24
    1048:	e18830b7 	strh	r3, [r8, r7]
    104c:	e0841101 	add	r1, r4, r1, lsl #2
    1050:	e7c6c002 	strb	ip, [r6, r2]
    1054:	e7845000 	str	r5, [r4, r0]
    1058:	e1d120b4 	ldrh	r2, [r1, #4]
    105c:	e2822001 	add	r2, r2, #1
    1060:	e1c120b4 	strh	r2, [r1, #4]
    1064:	e5843068 	str	r3, [r4, #104]	; 0x68
    1068:	eaffffc7 	b	f8c <deflate_slow+0x438>
    106c:	e594205c 	ldr	r2, [r4, #92]	; 0x5c
    1070:	e1a00004 	mov	r0, r4
    1074:	e3520000 	cmp	r2, #0
    1078:	a5941038 	ldrge	r1, [r4, #56]	; 0x38
    107c:	b3a01000 	movlt	r1, #0
    1080:	a0811002 	addge	r1, r1, r2
    1084:	e0622003 	rsb	r2, r2, r3
    1088:	e3a03001 	mov	r3, #1
    108c:	eb0010aa 	bl	533c <_tr_flush_block>
    1090:	e594306c 	ldr	r3, [r4, #108]	; 0x6c
    1094:	e5940000 	ldr	r0, [r4]
    1098:	e584305c 	str	r3, [r4, #92]	; 0x5c
    109c:	ebfffe8a 	bl	acc <flush_pending>
    10a0:	e5943000 	ldr	r3, [r4]
    10a4:	e5930010 	ldr	r0, [r3, #16]
    10a8:	e3500000 	cmp	r0, #0
    10ac:	13a00003 	movne	r0, #3
    10b0:	03a00002 	moveq	r0, #2
    10b4:	eaffff82 	b	ec4 <deflate_slow+0x370>
    10b8:	00000105 	andeq	r0, r0, r5, lsl #2
    10bc:	000016a0 	andeq	r1, r0, r0, lsr #13
    10c0:	0000b61c 	andeq	fp, r0, ip, lsl r6
    10c4:	000016a4 	andeq	r1, r0, r4, lsr #13
    10c8:	0000b804 	andeq	fp, r0, r4, lsl #16
    10cc:	0000169c 	muleq	r0, ip, r6
    10d0:	00001698 	muleq	r0, r8, r6
    10d4:	000016b4 			; <UNDEFINED> instruction: 0x000016b4

000010d8 <deflate_fast>:
    10d8:	e92d4ff0 	push	{r4, r5, r6, r7, r8, r9, sl, fp, lr}
    10dc:	e590a074 	ldr	sl, [r0, #116]	; 0x74
    10e0:	e24dd024 	sub	sp, sp, #36	; 0x24
    10e4:	e59fb464 	ldr	fp, [pc, #1124]	; 1550 <deflate_fast+0x478>
    10e8:	e59f9464 	ldr	r9, [pc, #1124]	; 1554 <deflate_fast+0x47c>
    10ec:	e1a08000 	mov	r8, r0
    10f0:	e58d101c 	str	r1, [sp, #28]
    10f4:	e59f045c 	ldr	r0, [pc, #1116]	; 1558 <deflate_fast+0x480>
    10f8:	e15a0000 	cmp	sl, r0
    10fc:	9a000098 	bls	1364 <deflate_fast+0x28c>
    1100:	e598306c 	ldr	r3, [r8, #108]	; 0x6c
    1104:	e5982038 	ldr	r2, [r8, #56]	; 0x38
    1108:	e598c048 	ldr	ip, [r8, #72]	; 0x48
    110c:	e0822003 	add	r2, r2, r3
    1110:	e5d21002 	ldrb	r1, [r2, #2]
    1114:	e5980058 	ldr	r0, [r8, #88]	; 0x58
    1118:	e5982054 	ldr	r2, [r8, #84]	; 0x54
    111c:	e021c01c 	eor	ip, r1, ip, lsl r0
    1120:	e5980044 	ldr	r0, [r8, #68]	; 0x44
    1124:	e00cc002 	and	ip, ip, r2
    1128:	e598e034 	ldr	lr, [r8, #52]	; 0x34
    112c:	e1a0208c 	lsl	r2, ip, #1
    1130:	e19010b2 	ldrh	r1, [r0, r2]
    1134:	e5984040 	ldr	r4, [r8, #64]	; 0x40
    1138:	e003e00e 	and	lr, r3, lr
    113c:	e1a0e08e 	lsl	lr, lr, #1
    1140:	e3510000 	cmp	r1, #0
    1144:	e588c048 	str	ip, [r8, #72]	; 0x48
    1148:	e18410be 	strh	r1, [r4, lr]
    114c:	e18030b2 	strh	r3, [r0, r2]
    1150:	0a000005 	beq	116c <deflate_fast+0x94>
    1154:	e598202c 	ldr	r2, [r8, #44]	; 0x2c
    1158:	e0610003 	rsb	r0, r1, r3
    115c:	e2422f41 	sub	r2, r2, #260	; 0x104
    1160:	e2422002 	sub	r2, r2, #2
    1164:	e1520000 	cmp	r2, r0
    1168:	2a0000bb 	bcs	145c <deflate_fast+0x384>
    116c:	e5980060 	ldr	r0, [r8, #96]	; 0x60
    1170:	e3500002 	cmp	r0, #2
    1174:	9a00008b 	bls	13a8 <deflate_fast+0x2d0>
    1178:	e5981070 	ldr	r1, [r8, #112]	; 0x70
    117c:	e798200b 	ldr	r2, [r8, fp]
    1180:	e798e009 	ldr	lr, [r8, r9]
    1184:	e59f63d0 	ldr	r6, [pc, #976]	; 155c <deflate_fast+0x484>
    1188:	e0613003 	rsb	r3, r1, r3
    118c:	e2400003 	sub	r0, r0, #3
    1190:	e6ef0070 	uxtb	r0, r0
    1194:	e1a01082 	lsl	r1, r2, #1
    1198:	e6ff3073 	uxth	r3, r3
    119c:	e18e30b1 	strh	r3, [lr, r1]
    11a0:	e7d6c000 	ldrb	ip, [r6, r0]
    11a4:	e59f13b4 	ldr	r1, [pc, #948]	; 1560 <deflate_fast+0x488>
    11a8:	e28ccc01 	add	ip, ip, #256	; 0x100
    11ac:	e798e001 	ldr	lr, [r8, r1]
    11b0:	e28cc025 	add	ip, ip, #37	; 0x25
    11b4:	e2821001 	add	r1, r2, #1
    11b8:	e7ce0002 	strb	r0, [lr, r2]
    11bc:	e2433001 	sub	r3, r3, #1
    11c0:	e088210c 	add	r2, r8, ip, lsl #2
    11c4:	e788100b 	str	r1, [r8, fp]
    11c8:	e1d200b4 	ldrh	r0, [r2, #4]
    11cc:	e6ff3073 	uxth	r3, r3
    11d0:	e35300ff 	cmp	r3, #255	; 0xff
    11d4:	e2800001 	add	r0, r0, #1
    11d8:	859f5384 	ldrhi	r5, [pc, #900]	; 1564 <deflate_fast+0x48c>
    11dc:	e1c200b4 	strh	r0, [r2, #4]
    11e0:	959f237c 	ldrls	r2, [pc, #892]	; 1564 <deflate_fast+0x48c>
    11e4:	808533a3 	addhi	r3, r5, r3, lsr #7
    11e8:	97d23003 	ldrbls	r3, [r2, r3]
    11ec:	85d33100 	ldrbhi	r3, [r3, #256]	; 0x100
    11f0:	e59f2370 	ldr	r2, [pc, #880]	; 1568 <deflate_fast+0x490>
    11f4:	e2833e26 	add	r3, r3, #608	; 0x260
    11f8:	e2833002 	add	r3, r3, #2
    11fc:	e1a03103 	lsl	r3, r3, #2
    1200:	e19800b3 	ldrh	r0, [r8, r3]
    1204:	e2800001 	add	r0, r0, #1
    1208:	e18800b3 	strh	r0, [r8, r3]
    120c:	e7987002 	ldr	r7, [r8, r2]
    1210:	e5986060 	ldr	r6, [r8, #96]	; 0x60
    1214:	e2477001 	sub	r7, r7, #1
    1218:	e598a074 	ldr	sl, [r8, #116]	; 0x74
    121c:	e0512007 	subs	r2, r1, r7
    1220:	e5983080 	ldr	r3, [r8, #128]	; 0x80
    1224:	e2727000 	rsbs	r7, r2, #0
    1228:	e0b77002 	adcs	r7, r7, r2
    122c:	e066a00a 	rsb	sl, r6, sl
    1230:	e1560003 	cmp	r6, r3
    1234:	e588a074 	str	sl, [r8, #116]	; 0x74
    1238:	8a000078 	bhi	1420 <deflate_fast+0x348>
    123c:	e35a0002 	cmp	sl, #2
    1240:	9a000076 	bls	1420 <deflate_fast+0x348>
    1244:	e598c06c 	ldr	ip, [r8, #108]	; 0x6c
    1248:	e5981040 	ldr	r1, [r8, #64]	; 0x40
    124c:	e58dc00c 	str	ip, [sp, #12]
    1250:	e5980048 	ldr	r0, [r8, #72]	; 0x48
    1254:	e5983034 	ldr	r3, [r8, #52]	; 0x34
    1258:	e59d500c 	ldr	r5, [sp, #12]
    125c:	e58d1008 	str	r1, [sp, #8]
    1260:	e5984058 	ldr	r4, [r8, #88]	; 0x58
    1264:	e5981038 	ldr	r1, [r8, #56]	; 0x38
    1268:	e598c054 	ldr	ip, [r8, #84]	; 0x54
    126c:	e58d0018 	str	r0, [sp, #24]
    1270:	e2462001 	sub	r2, r6, #1
    1274:	e598e044 	ldr	lr, [r8, #68]	; 0x44
    1278:	e58d3004 	str	r3, [sp, #4]
    127c:	e0810005 	add	r0, r1, r5
    1280:	e58d7010 	str	r7, [sp, #16]
    1284:	e59d1018 	ldr	r1, [sp, #24]
    1288:	e2853001 	add	r3, r5, #1
    128c:	e58da018 	str	sl, [sp, #24]
    1290:	e5882060 	str	r2, [r8, #96]	; 0x60
    1294:	e58d6014 	str	r6, [sp, #20]
    1298:	e1a07004 	mov	r7, r4
    129c:	e1a0a00c 	mov	sl, ip
    12a0:	e588306c 	str	r3, [r8, #108]	; 0x6c
    12a4:	e5d0c003 	ldrb	ip, [r0, #3]
    12a8:	e59d6004 	ldr	r6, [sp, #4]
    12ac:	e02c1711 	eor	r1, ip, r1, lsl r7
    12b0:	e001100a 	and	r1, r1, sl
    12b4:	e1a0c081 	lsl	ip, r1, #1
    12b8:	e19e50bc 	ldrh	r5, [lr, ip]
    12bc:	e0034006 	and	r4, r3, r6
    12c0:	e2422001 	sub	r2, r2, #1
    12c4:	e59d6008 	ldr	r6, [sp, #8]
    12c8:	e1a04084 	lsl	r4, r4, #1
    12cc:	e3520000 	cmp	r2, #0
    12d0:	e5881048 	str	r1, [r8, #72]	; 0x48
    12d4:	e2800001 	add	r0, r0, #1
    12d8:	e18650b4 	strh	r5, [r6, r4]
    12dc:	e18e30bc 	strh	r3, [lr, ip]
    12e0:	e5882060 	str	r2, [r8, #96]	; 0x60
    12e4:	e2833001 	add	r3, r3, #1
    12e8:	1affffec 	bne	12a0 <deflate_fast+0x1c8>
    12ec:	e59d6014 	ldr	r6, [sp, #20]
    12f0:	e59dc00c 	ldr	ip, [sp, #12]
    12f4:	e59d7010 	ldr	r7, [sp, #16]
    12f8:	e08c6006 	add	r6, ip, r6
    12fc:	e59da018 	ldr	sl, [sp, #24]
    1300:	e588606c 	str	r6, [r8, #108]	; 0x6c
    1304:	e3570000 	cmp	r7, #0
    1308:	0affff79 	beq	10f4 <deflate_fast+0x1c>
    130c:	e598305c 	ldr	r3, [r8, #92]	; 0x5c
    1310:	e598206c 	ldr	r2, [r8, #108]	; 0x6c
    1314:	e3530000 	cmp	r3, #0
    1318:	a5981038 	ldrge	r1, [r8, #56]	; 0x38
    131c:	b3a01000 	movlt	r1, #0
    1320:	a0811003 	addge	r1, r1, r3
    1324:	e0632002 	rsb	r2, r3, r2
    1328:	e1a00008 	mov	r0, r8
    132c:	e3a03000 	mov	r3, #0
    1330:	eb001001 	bl	533c <_tr_flush_block>
    1334:	e598306c 	ldr	r3, [r8, #108]	; 0x6c
    1338:	e5980000 	ldr	r0, [r8]
    133c:	e588305c 	str	r3, [r8, #92]	; 0x5c
    1340:	ebfffde1 	bl	acc <flush_pending>
    1344:	e5983000 	ldr	r3, [r8]
    1348:	e5933010 	ldr	r3, [r3, #16]
    134c:	e3530000 	cmp	r3, #0
    1350:	0a00007c 	beq	1548 <deflate_fast+0x470>
    1354:	e598a074 	ldr	sl, [r8, #116]	; 0x74
    1358:	e59f01f8 	ldr	r0, [pc, #504]	; 1558 <deflate_fast+0x480>
    135c:	e15a0000 	cmp	sl, r0
    1360:	8affff66 	bhi	1100 <deflate_fast+0x28>
    1364:	e1a00008 	mov	r0, r8
    1368:	ebfffd06 	bl	788 <fill_window>
    136c:	e5983074 	ldr	r3, [r8, #116]	; 0x74
    1370:	e59f11e0 	ldr	r1, [pc, #480]	; 1558 <deflate_fast+0x480>
    1374:	e1530001 	cmp	r3, r1
    1378:	8affff60 	bhi	1100 <deflate_fast+0x28>
    137c:	e59d501c 	ldr	r5, [sp, #28]
    1380:	e3550000 	cmp	r5, #0
    1384:	0a00005a 	beq	14f4 <deflate_fast+0x41c>
    1388:	e3530000 	cmp	r3, #0
    138c:	0a000037 	beq	1470 <deflate_fast+0x398>
    1390:	e3530002 	cmp	r3, #2
    1394:	8affff59 	bhi	1100 <deflate_fast+0x28>
    1398:	e5980060 	ldr	r0, [r8, #96]	; 0x60
    139c:	e598306c 	ldr	r3, [r8, #108]	; 0x6c
    13a0:	e3500002 	cmp	r0, #2
    13a4:	8affff73 	bhi	1178 <deflate_fast+0xa0>
    13a8:	e5981038 	ldr	r1, [r8, #56]	; 0x38
    13ac:	e798200b 	ldr	r2, [r8, fp]
    13b0:	e7d11003 	ldrb	r1, [r1, r3]
    13b4:	e59f31a4 	ldr	r3, [pc, #420]	; 1560 <deflate_fast+0x488>
    13b8:	e7980009 	ldr	r0, [r8, r9]
    13bc:	e798c003 	ldr	ip, [r8, r3]
    13c0:	e3a0e000 	mov	lr, #0
    13c4:	e1a03082 	lsl	r3, r2, #1
    13c8:	e180e0b3 	strh	lr, [r0, r3]
    13cc:	e2810024 	add	r0, r1, #36	; 0x24
    13d0:	e2823001 	add	r3, r2, #1
    13d4:	e7cc1002 	strb	r1, [ip, r2]
    13d8:	e0882100 	add	r2, r8, r0, lsl #2
    13dc:	e788300b 	str	r3, [r8, fp]
    13e0:	e1d200b4 	ldrh	r0, [r2, #4]
    13e4:	e59f117c 	ldr	r1, [pc, #380]	; 1568 <deflate_fast+0x490>
    13e8:	e2800001 	add	r0, r0, #1
    13ec:	e1c200b4 	strh	r0, [r2, #4]
    13f0:	e7987001 	ldr	r7, [r8, r1]
    13f4:	e598a074 	ldr	sl, [r8, #116]	; 0x74
    13f8:	e598206c 	ldr	r2, [r8, #108]	; 0x6c
    13fc:	e2477001 	sub	r7, r7, #1
    1400:	e0533007 	subs	r3, r3, r7
    1404:	e24aa001 	sub	sl, sl, #1
    1408:	e2822001 	add	r2, r2, #1
    140c:	e2737000 	rsbs	r7, r3, #0
    1410:	e0b77003 	adcs	r7, r7, r3
    1414:	e588a074 	str	sl, [r8, #116]	; 0x74
    1418:	e588206c 	str	r2, [r8, #108]	; 0x6c
    141c:	eaffffb8 	b	1304 <deflate_fast+0x22c>
    1420:	e598306c 	ldr	r3, [r8, #108]	; 0x6c
    1424:	e3a02000 	mov	r2, #0
    1428:	e0866003 	add	r6, r6, r3
    142c:	e5983038 	ldr	r3, [r8, #56]	; 0x38
    1430:	e588606c 	str	r6, [r8, #108]	; 0x6c
    1434:	e5882060 	str	r2, [r8, #96]	; 0x60
    1438:	e7f32006 	ldrb	r2, [r3, r6]!
    143c:	e5980058 	ldr	r0, [r8, #88]	; 0x58
    1440:	e5882048 	str	r2, [r8, #72]	; 0x48
    1444:	e5d31001 	ldrb	r1, [r3, #1]
    1448:	e5983054 	ldr	r3, [r8, #84]	; 0x54
    144c:	e0212012 	eor	r2, r1, r2, lsl r0
    1450:	e0022003 	and	r2, r2, r3
    1454:	e5882048 	str	r2, [r8, #72]	; 0x48
    1458:	eaffffa9 	b	1304 <deflate_fast+0x22c>
    145c:	e1a00008 	mov	r0, r8
    1460:	ebfffc0c 	bl	498 <longest_match>
    1464:	e598306c 	ldr	r3, [r8, #108]	; 0x6c
    1468:	e5880060 	str	r0, [r8, #96]	; 0x60
    146c:	eaffff3f 	b	1170 <deflate_fast+0x98>
    1470:	e598206c 	ldr	r2, [r8, #108]	; 0x6c
    1474:	e59d501c 	ldr	r5, [sp, #28]
    1478:	e59f10ec 	ldr	r1, [pc, #236]	; 156c <deflate_fast+0x494>
    147c:	e3520002 	cmp	r2, #2
    1480:	31a00002 	movcc	r0, r2
    1484:	23a00002 	movcs	r0, #2
    1488:	e3550004 	cmp	r5, #4
    148c:	e7880001 	str	r0, [r8, r1]
    1490:	0a000019 	beq	14fc <deflate_fast+0x424>
    1494:	e59f10b4 	ldr	r1, [pc, #180]	; 1550 <deflate_fast+0x478>
    1498:	e7981001 	ldr	r1, [r8, r1]
    149c:	e3510000 	cmp	r1, #0
    14a0:	03a00001 	moveq	r0, #1
    14a4:	0a000010 	beq	14ec <deflate_fast+0x414>
    14a8:	e598005c 	ldr	r0, [r8, #92]	; 0x5c
    14ac:	e3500000 	cmp	r0, #0
    14b0:	a5981038 	ldrge	r1, [r8, #56]	; 0x38
    14b4:	b1a01003 	movlt	r1, r3
    14b8:	a0811000 	addge	r1, r1, r0
    14bc:	e0602002 	rsb	r2, r0, r2
    14c0:	e3a03000 	mov	r3, #0
    14c4:	e1a00008 	mov	r0, r8
    14c8:	eb000f9b 	bl	533c <_tr_flush_block>
    14cc:	e598306c 	ldr	r3, [r8, #108]	; 0x6c
    14d0:	e5980000 	ldr	r0, [r8]
    14d4:	e588305c 	str	r3, [r8, #92]	; 0x5c
    14d8:	ebfffd7b 	bl	acc <flush_pending>
    14dc:	e5983000 	ldr	r3, [r8]
    14e0:	e5930010 	ldr	r0, [r3, #16]
    14e4:	e2900000 	adds	r0, r0, #0
    14e8:	13a00001 	movne	r0, #1
    14ec:	e28dd024 	add	sp, sp, #36	; 0x24
    14f0:	e8bd8ff0 	pop	{r4, r5, r6, r7, r8, r9, sl, fp, pc}
    14f4:	e59d001c 	ldr	r0, [sp, #28]
    14f8:	eafffffb 	b	14ec <deflate_fast+0x414>
    14fc:	e598005c 	ldr	r0, [r8, #92]	; 0x5c
    1500:	e3500000 	cmp	r0, #0
    1504:	a5981038 	ldrge	r1, [r8, #56]	; 0x38
    1508:	b1a01003 	movlt	r1, r3
    150c:	a0811000 	addge	r1, r1, r0
    1510:	e0602002 	rsb	r2, r0, r2
    1514:	e3a03001 	mov	r3, #1
    1518:	e1a00008 	mov	r0, r8
    151c:	eb000f86 	bl	533c <_tr_flush_block>
    1520:	e598306c 	ldr	r3, [r8, #108]	; 0x6c
    1524:	e5980000 	ldr	r0, [r8]
    1528:	e588305c 	str	r3, [r8, #92]	; 0x5c
    152c:	ebfffd66 	bl	acc <flush_pending>
    1530:	e5983000 	ldr	r3, [r8]
    1534:	e5930010 	ldr	r0, [r3, #16]
    1538:	e3500000 	cmp	r0, #0
    153c:	13a00003 	movne	r0, #3
    1540:	03a00002 	moveq	r0, #2
    1544:	eaffffe8 	b	14ec <deflate_fast+0x414>
    1548:	e1a00003 	mov	r0, r3
    154c:	eaffffe6 	b	14ec <deflate_fast+0x414>
    1550:	000016a0 	andeq	r1, r0, r0, lsr #13
    1554:	000016a4 	andeq	r1, r0, r4, lsr #13
    1558:	00000105 	andeq	r0, r0, r5, lsl #2
    155c:	0000b61c 	andeq	fp, r0, ip, lsl r6
    1560:	00001698 	muleq	r0, r8, r6
    1564:	0000b804 	andeq	fp, r0, r4, lsl #16
    1568:	0000169c 	muleq	r0, ip, r6
    156c:	000016b4 			; <UNDEFINED> instruction: 0x000016b4

00001570 <deflate_stored>:
    1570:	e92d40f8 	push	{r3, r4, r5, r6, r7, lr}
    1574:	e590500c 	ldr	r5, [r0, #12]
    1578:	e59f21cc 	ldr	r2, [pc, #460]	; 174c <deflate_stored+0x1dc>
    157c:	e2455005 	sub	r5, r5, #5
    1580:	e59f31c8 	ldr	r3, [pc, #456]	; 1750 <deflate_stored+0x1e0>
    1584:	e1550002 	cmp	r5, r2
    1588:	e1a04000 	mov	r4, r0
    158c:	e1a07001 	mov	r7, r1
    1590:	81a05003 	movhi	r5, r3
    1594:	e3a06000 	mov	r6, #0
    1598:	e5941074 	ldr	r1, [r4, #116]	; 0x74
    159c:	e3510001 	cmp	r1, #1
    15a0:	9a000035 	bls	167c <deflate_stored+0x10c>
    15a4:	e594006c 	ldr	r0, [r4, #108]	; 0x6c
    15a8:	e594305c 	ldr	r3, [r4, #92]	; 0x5c
    15ac:	e0810000 	add	r0, r1, r0
    15b0:	e3500000 	cmp	r0, #0
    15b4:	e5846074 	str	r6, [r4, #116]	; 0x74
    15b8:	e584006c 	str	r0, [r4, #108]	; 0x6c
    15bc:	e0852003 	add	r2, r5, r3
    15c0:	0a000001 	beq	15cc <deflate_stored+0x5c>
    15c4:	e1500002 	cmp	r0, r2
    15c8:	3a000014 	bcc	1620 <deflate_stored+0xb0>
    15cc:	e3530000 	cmp	r3, #0
    15d0:	a5941038 	ldrge	r1, [r4, #56]	; 0x38
    15d4:	e0620000 	rsb	r0, r2, r0
    15d8:	a0811003 	addge	r1, r1, r3
    15dc:	b3a01000 	movlt	r1, #0
    15e0:	e5840074 	str	r0, [r4, #116]	; 0x74
    15e4:	e584206c 	str	r2, [r4, #108]	; 0x6c
    15e8:	e1a00004 	mov	r0, r4
    15ec:	e0632002 	rsb	r2, r3, r2
    15f0:	e3a03000 	mov	r3, #0
    15f4:	eb000f50 	bl	533c <_tr_flush_block>
    15f8:	e594306c 	ldr	r3, [r4, #108]	; 0x6c
    15fc:	e5940000 	ldr	r0, [r4]
    1600:	e584305c 	str	r3, [r4, #92]	; 0x5c
    1604:	ebfffd30 	bl	acc <flush_pending>
    1608:	e5943000 	ldr	r3, [r4]
    160c:	e5933010 	ldr	r3, [r3, #16]
    1610:	e3530000 	cmp	r3, #0
    1614:	0a000016 	beq	1674 <deflate_stored+0x104>
    1618:	e594006c 	ldr	r0, [r4, #108]	; 0x6c
    161c:	e594305c 	ldr	r3, [r4, #92]	; 0x5c
    1620:	e594c02c 	ldr	ip, [r4, #44]	; 0x2c
    1624:	e0632000 	rsb	r2, r3, r0
    1628:	e24ccf41 	sub	ip, ip, #260	; 0x104
    162c:	e24cc002 	sub	ip, ip, #2
    1630:	e15c0002 	cmp	ip, r2
    1634:	8affffd7 	bhi	1598 <deflate_stored+0x28>
    1638:	e3530000 	cmp	r3, #0
    163c:	a5941038 	ldrge	r1, [r4, #56]	; 0x38
    1640:	b3a01000 	movlt	r1, #0
    1644:	a0811003 	addge	r1, r1, r3
    1648:	e1a00004 	mov	r0, r4
    164c:	e3a03000 	mov	r3, #0
    1650:	eb000f39 	bl	533c <_tr_flush_block>
    1654:	e594306c 	ldr	r3, [r4, #108]	; 0x6c
    1658:	e5940000 	ldr	r0, [r4]
    165c:	e584305c 	str	r3, [r4, #92]	; 0x5c
    1660:	ebfffd19 	bl	acc <flush_pending>
    1664:	e5943000 	ldr	r3, [r4]
    1668:	e5933010 	ldr	r3, [r3, #16]
    166c:	e3530000 	cmp	r3, #0
    1670:	1affffc8 	bne	1598 <deflate_stored+0x28>
    1674:	e3a00000 	mov	r0, #0
    1678:	e8bd80f8 	pop	{r3, r4, r5, r6, r7, pc}
    167c:	e1a00004 	mov	r0, r4
    1680:	ebfffc40 	bl	788 <fill_window>
    1684:	e5941074 	ldr	r1, [r4, #116]	; 0x74
    1688:	e3510000 	cmp	r1, #0
    168c:	1affffc4 	bne	15a4 <deflate_stored+0x34>
    1690:	e3570000 	cmp	r7, #0
    1694:	0afffff6 	beq	1674 <deflate_stored+0x104>
    1698:	e59f30b4 	ldr	r3, [pc, #180]	; 1754 <deflate_stored+0x1e4>
    169c:	e3570004 	cmp	r7, #4
    16a0:	e7841003 	str	r1, [r4, r3]
    16a4:	0a000013 	beq	16f8 <deflate_stored+0x188>
    16a8:	e594206c 	ldr	r2, [r4, #108]	; 0x6c
    16ac:	e594305c 	ldr	r3, [r4, #92]	; 0x5c
    16b0:	e1520003 	cmp	r2, r3
    16b4:	da000022 	ble	1744 <deflate_stored+0x1d4>
    16b8:	e3530000 	cmp	r3, #0
    16bc:	a5941038 	ldrge	r1, [r4, #56]	; 0x38
    16c0:	e0632002 	rsb	r2, r3, r2
    16c4:	a0811003 	addge	r1, r1, r3
    16c8:	e1a00004 	mov	r0, r4
    16cc:	e3a03000 	mov	r3, #0
    16d0:	eb000f19 	bl	533c <_tr_flush_block>
    16d4:	e594306c 	ldr	r3, [r4, #108]	; 0x6c
    16d8:	e5940000 	ldr	r0, [r4]
    16dc:	e584305c 	str	r3, [r4, #92]	; 0x5c
    16e0:	ebfffcf9 	bl	acc <flush_pending>
    16e4:	e5943000 	ldr	r3, [r4]
    16e8:	e5930010 	ldr	r0, [r3, #16]
    16ec:	e2900000 	adds	r0, r0, #0
    16f0:	13a00001 	movne	r0, #1
    16f4:	e8bd80f8 	pop	{r3, r4, r5, r6, r7, pc}
    16f8:	e594305c 	ldr	r3, [r4, #92]	; 0x5c
    16fc:	e594206c 	ldr	r2, [r4, #108]	; 0x6c
    1700:	e3530000 	cmp	r3, #0
    1704:	a5941038 	ldrge	r1, [r4, #56]	; 0x38
    1708:	e0632002 	rsb	r2, r3, r2
    170c:	a0811003 	addge	r1, r1, r3
    1710:	e1a00004 	mov	r0, r4
    1714:	e3a03001 	mov	r3, #1
    1718:	eb000f07 	bl	533c <_tr_flush_block>
    171c:	e594306c 	ldr	r3, [r4, #108]	; 0x6c
    1720:	e5940000 	ldr	r0, [r4]
    1724:	e584305c 	str	r3, [r4, #92]	; 0x5c
    1728:	ebfffce7 	bl	acc <flush_pending>
    172c:	e5943000 	ldr	r3, [r4]
    1730:	e5930010 	ldr	r0, [r3, #16]
    1734:	e3500000 	cmp	r0, #0
    1738:	13a00003 	movne	r0, #3
    173c:	03a00002 	moveq	r0, #2
    1740:	e8bd80f8 	pop	{r3, r4, r5, r6, r7, pc}
    1744:	e3a00001 	mov	r0, #1
    1748:	e8bd80f8 	pop	{r3, r4, r5, r6, r7, pc}
    174c:	0000fffe 	strdeq	pc, [r0], -lr
    1750:	0000ffff 	strdeq	pc, [r0], -pc	; <UNPREDICTABLE>
    1754:	000016b4 			; <UNDEFINED> instruction: 0x000016b4

00001758 <deflateSetDictionary>:
    1758:	e92d4ff0 	push	{r4, r5, r6, r7, r8, r9, sl, fp, lr}
    175c:	e3500000 	cmp	r0, #0
    1760:	e24dd014 	sub	sp, sp, #20
    1764:	e58d0000 	str	r0, [sp]
    1768:	e1a05001 	mov	r5, r1
    176c:	e1a06002 	mov	r6, r2
    1770:	0a00007b 	beq	1964 <deflateSetDictionary+0x20c>
    1774:	e590401c 	ldr	r4, [r0, #28]
    1778:	e3540000 	cmp	r4, #0
    177c:	0a000078 	beq	1964 <deflateSetDictionary+0x20c>
    1780:	e3510000 	cmp	r1, #0
    1784:	0a000076 	beq	1964 <deflateSetDictionary+0x20c>
    1788:	e5943018 	ldr	r3, [r4, #24]
    178c:	e3530002 	cmp	r3, #2
    1790:	e58d3004 	str	r3, [sp, #4]
    1794:	0a000072 	beq	1964 <deflateSetDictionary+0x20c>
    1798:	e3530001 	cmp	r3, #1
    179c:	0a000050 	beq	18e4 <deflateSetDictionary+0x18c>
    17a0:	e5942074 	ldr	r2, [r4, #116]	; 0x74
    17a4:	e3520000 	cmp	r2, #0
    17a8:	1a00006d 	bne	1964 <deflateSetDictionary+0x20c>
    17ac:	e594302c 	ldr	r3, [r4, #44]	; 0x2c
    17b0:	e5842018 	str	r2, [r4, #24]
    17b4:	e1560003 	cmp	r6, r3
    17b8:	2a000042 	bcs	18c8 <deflateSetDictionary+0x170>
    17bc:	e59d3000 	ldr	r3, [sp]
    17c0:	e59d2000 	ldr	r2, [sp]
    17c4:	e5933000 	ldr	r3, [r3]
    17c8:	e5922004 	ldr	r2, [r2, #4]
    17cc:	e58d300c 	str	r3, [sp, #12]
    17d0:	e59d3000 	ldr	r3, [sp]
    17d4:	e1a00004 	mov	r0, r4
    17d8:	e8830060 	stm	r3, {r5, r6}
    17dc:	e58d2008 	str	r2, [sp, #8]
    17e0:	ebfffbe8 	bl	788 <fill_window>
    17e4:	e5941074 	ldr	r1, [r4, #116]	; 0x74
    17e8:	e3510002 	cmp	r1, #2
    17ec:	9a000020 	bls	1874 <deflateSetDictionary+0x11c>
    17f0:	e3a05002 	mov	r5, #2
    17f4:	e594306c 	ldr	r3, [r4, #108]	; 0x6c
    17f8:	e594c038 	ldr	ip, [r4, #56]	; 0x38
    17fc:	e2437002 	sub	r7, r3, #2
    1800:	e5942048 	ldr	r2, [r4, #72]	; 0x48
    1804:	e594b058 	ldr	fp, [r4, #88]	; 0x58
    1808:	e5949054 	ldr	r9, [r4, #84]	; 0x54
    180c:	e594a040 	ldr	sl, [r4, #64]	; 0x40
    1810:	e5948034 	ldr	r8, [r4, #52]	; 0x34
    1814:	e5940044 	ldr	r0, [r4, #68]	; 0x44
    1818:	e0877001 	add	r7, r7, r1
    181c:	e08c1003 	add	r1, ip, r3
    1820:	e5d1c002 	ldrb	ip, [r1, #2]
    1824:	e003e008 	and	lr, r3, r8
    1828:	e02c2b12 	eor	r2, ip, r2, lsl fp
    182c:	e0022009 	and	r2, r2, r9
    1830:	e1a0c082 	lsl	ip, r2, #1
    1834:	e19060bc 	ldrh	r6, [r0, ip]
    1838:	e1a0e08e 	lsl	lr, lr, #1
    183c:	e5842048 	str	r2, [r4, #72]	; 0x48
    1840:	e18a60be 	strh	r6, [sl, lr]
    1844:	e18030bc 	strh	r3, [r0, ip]
    1848:	e2833001 	add	r3, r3, #1
    184c:	e1530007 	cmp	r3, r7
    1850:	e2811001 	add	r1, r1, #1
    1854:	1afffff1 	bne	1820 <deflateSetDictionary+0xc8>
    1858:	e584306c 	str	r3, [r4, #108]	; 0x6c
    185c:	e5845074 	str	r5, [r4, #116]	; 0x74
    1860:	e1a00004 	mov	r0, r4
    1864:	ebfffbc7 	bl	788 <fill_window>
    1868:	e5941074 	ldr	r1, [r4, #116]	; 0x74
    186c:	e3510002 	cmp	r1, #2
    1870:	8affffdf 	bhi	17f4 <deflateSetDictionary+0x9c>
    1874:	e594206c 	ldr	r2, [r4, #108]	; 0x6c
    1878:	e59fc0ec 	ldr	ip, [pc, #236]	; 196c <deflateSetDictionary+0x214>
    187c:	e3a03002 	mov	r3, #2
    1880:	e0812002 	add	r2, r1, r2
    1884:	e784100c 	str	r1, [r4, ip]
    1888:	e5843078 	str	r3, [r4, #120]	; 0x78
    188c:	e5843060 	str	r3, [r4, #96]	; 0x60
    1890:	e59d100c 	ldr	r1, [sp, #12]
    1894:	e59d3000 	ldr	r3, [sp]
    1898:	e3a00000 	mov	r0, #0
    189c:	e584206c 	str	r2, [r4, #108]	; 0x6c
    18a0:	e584205c 	str	r2, [r4, #92]	; 0x5c
    18a4:	e5840074 	str	r0, [r4, #116]	; 0x74
    18a8:	e5840068 	str	r0, [r4, #104]	; 0x68
    18ac:	e5831000 	str	r1, [r3]
    18b0:	e59d1008 	ldr	r1, [sp, #8]
    18b4:	e5831004 	str	r1, [r3, #4]
    18b8:	e59d3004 	ldr	r3, [sp, #4]
    18bc:	e5843018 	str	r3, [r4, #24]
    18c0:	e28dd014 	add	sp, sp, #20
    18c4:	e8bd8ff0 	pop	{r4, r5, r6, r7, r8, r9, sl, fp, pc}
    18c8:	e59d2004 	ldr	r2, [sp, #4]
    18cc:	e3520000 	cmp	r2, #0
    18d0:	0a000013 	beq	1924 <deflateSetDictionary+0x1cc>
    18d4:	e0636006 	rsb	r6, r3, r6
    18d8:	e0855006 	add	r5, r5, r6
    18dc:	e1a06003 	mov	r6, r3
    18e0:	eaffffb5 	b	17bc <deflateSetDictionary+0x64>
    18e4:	e5943004 	ldr	r3, [r4, #4]
    18e8:	e353002a 	cmp	r3, #42	; 0x2a
    18ec:	1a00001c 	bne	1964 <deflateSetDictionary+0x20c>
    18f0:	e5947074 	ldr	r7, [r4, #116]	; 0x74
    18f4:	e3570000 	cmp	r7, #0
    18f8:	1a000019 	bne	1964 <deflateSetDictionary+0x20c>
    18fc:	e59d3000 	ldr	r3, [sp]
    1900:	e5930030 	ldr	r0, [r3, #48]	; 0x30
    1904:	eb000759 	bl	3670 <adler32>
    1908:	e594302c 	ldr	r3, [r4, #44]	; 0x2c
    190c:	e59d1000 	ldr	r1, [sp]
    1910:	e1560003 	cmp	r6, r3
    1914:	e5810030 	str	r0, [r1, #48]	; 0x30
    1918:	e5847018 	str	r7, [r4, #24]
    191c:	2affffec 	bcs	18d4 <deflateSetDictionary+0x17c>
    1920:	eaffffa5 	b	17bc <deflateSetDictionary+0x64>
    1924:	e5942044 	ldr	r2, [r4, #68]	; 0x44
    1928:	e594304c 	ldr	r3, [r4, #76]	; 0x4c
    192c:	e59d1004 	ldr	r1, [sp, #4]
    1930:	e1a00002 	mov	r0, r2
    1934:	e0822083 	add	r2, r2, r3, lsl #1
    1938:	e2433106 	sub	r3, r3, #-2147483647	; 0x80000001
    193c:	e14210b2 	strh	r1, [r2, #-2]
    1940:	e1a02083 	lsl	r2, r3, #1
    1944:	ebfff9c7 	bl	68 <ZMEMSET>
    1948:	e59d1004 	ldr	r1, [sp, #4]
    194c:	e59f2018 	ldr	r2, [pc, #24]	; 196c <deflateSetDictionary+0x214>
    1950:	e594302c 	ldr	r3, [r4, #44]	; 0x2c
    1954:	e584106c 	str	r1, [r4, #108]	; 0x6c
    1958:	e584105c 	str	r1, [r4, #92]	; 0x5c
    195c:	e7841002 	str	r1, [r4, r2]
    1960:	eaffffdb 	b	18d4 <deflateSetDictionary+0x17c>
    1964:	e3e00001 	mvn	r0, #1
    1968:	eaffffd4 	b	18c0 <deflateSetDictionary+0x168>
    196c:	000016b4 			; <UNDEFINED> instruction: 0x000016b4

00001970 <deflateResetKeep>:
    1970:	e92d4070 	push	{r4, r5, r6, lr}
    1974:	e2505000 	subs	r5, r0, #0
    1978:	0a00002d 	beq	1a34 <deflateResetKeep+0xc4>
    197c:	e595401c 	ldr	r4, [r5, #28]
    1980:	e3540000 	cmp	r4, #0
    1984:	0a00002a 	beq	1a34 <deflateResetKeep+0xc4>
    1988:	e5953020 	ldr	r3, [r5, #32]
    198c:	e3530000 	cmp	r3, #0
    1990:	0a000027 	beq	1a34 <deflateResetKeep+0xc4>
    1994:	e5953024 	ldr	r3, [r5, #36]	; 0x24
    1998:	e3530000 	cmp	r3, #0
    199c:	0a000024 	beq	1a34 <deflateResetKeep+0xc4>
    19a0:	e5942018 	ldr	r2, [r4, #24]
    19a4:	e5941008 	ldr	r1, [r4, #8]
    19a8:	e3a03000 	mov	r3, #0
    19ac:	e3a00002 	mov	r0, #2
    19b0:	e1520003 	cmp	r2, r3
    19b4:	e5853014 	str	r3, [r5, #20]
    19b8:	e5853008 	str	r3, [r5, #8]
    19bc:	e5853018 	str	r3, [r5, #24]
    19c0:	e585002c 	str	r0, [r5, #44]	; 0x2c
    19c4:	e5843014 	str	r3, [r4, #20]
    19c8:	e5841010 	str	r1, [r4, #16]
    19cc:	ba00000d 	blt	1a08 <deflateResetKeep+0x98>
    19d0:	03a03071 	moveq	r3, #113	; 0x71
    19d4:	05843004 	streq	r3, [r4, #4]
    19d8:	1a00000c 	bne	1a10 <deflateResetKeep+0xa0>
    19dc:	e3a00000 	mov	r0, #0
    19e0:	e1a01000 	mov	r1, r0
    19e4:	e1a02000 	mov	r2, r0
    19e8:	eb000720 	bl	3670 <adler32>
    19ec:	e3a06000 	mov	r6, #0
    19f0:	e5850030 	str	r0, [r5, #48]	; 0x30
    19f4:	e1a00004 	mov	r0, r4
    19f8:	e5846028 	str	r6, [r4, #40]	; 0x28
    19fc:	eb000d88 	bl	5024 <_tr_init>
    1a00:	e1a00006 	mov	r0, r6
    1a04:	e8bd8070 	pop	{r4, r5, r6, pc}
    1a08:	e2622000 	rsb	r2, r2, #0
    1a0c:	e5842018 	str	r2, [r4, #24]
    1a10:	e3a0302a 	mov	r3, #42	; 0x2a
    1a14:	e3520002 	cmp	r2, #2
    1a18:	e5843004 	str	r3, [r4, #4]
    1a1c:	1affffee 	bne	19dc <deflateResetKeep+0x6c>
    1a20:	e3a00000 	mov	r0, #0
    1a24:	e1a01000 	mov	r1, r0
    1a28:	e1a02000 	mov	r2, r0
    1a2c:	eb000847 	bl	3b50 <crc32>
    1a30:	eaffffed 	b	19ec <deflateResetKeep+0x7c>
    1a34:	e3e00001 	mvn	r0, #1
    1a38:	e8bd8070 	pop	{r4, r5, r6, pc}

00001a3c <deflateReset>:
    1a3c:	e92d4070 	push	{r4, r5, r6, lr}
    1a40:	e1a04000 	mov	r4, r0
    1a44:	ebffffc9 	bl	1970 <deflateResetKeep>
    1a48:	e2505000 	subs	r5, r0, #0
    1a4c:	1a000022 	bne	1adc <deflateReset+0xa0>
    1a50:	e594401c 	ldr	r4, [r4, #28]
    1a54:	e1a01005 	mov	r1, r5
    1a58:	e594204c 	ldr	r2, [r4, #76]	; 0x4c
    1a5c:	e594c02c 	ldr	ip, [r4, #44]	; 0x2c
    1a60:	e5940044 	ldr	r0, [r4, #68]	; 0x44
    1a64:	e1a0c08c 	lsl	ip, ip, #1
    1a68:	e0803082 	add	r3, r0, r2, lsl #1
    1a6c:	e2422106 	sub	r2, r2, #-2147483647	; 0x80000001
    1a70:	e584c03c 	str	ip, [r4, #60]	; 0x3c
    1a74:	e1a02082 	lsl	r2, r2, #1
    1a78:	e14350b2 	strh	r5, [r3, #-2]
    1a7c:	ebfff979 	bl	68 <ZMEMSET>
    1a80:	e5942084 	ldr	r2, [r4, #132]	; 0x84
    1a84:	e59f1058 	ldr	r1, [pc, #88]	; 1ae4 <deflateReset+0xa8>
    1a88:	e0822082 	add	r2, r2, r2, lsl #1
    1a8c:	e1a02102 	lsl	r2, r2, #2
    1a90:	e0813002 	add	r3, r1, r2
    1a94:	e19160b2 	ldrh	r6, [r1, r2]
    1a98:	e1d3c0b2 	ldrh	ip, [r3, #2]
    1a9c:	e1d300b4 	ldrh	r0, [r3, #4]
    1aa0:	e1d310b6 	ldrh	r1, [r3, #6]
    1aa4:	e59f203c 	ldr	r2, [pc, #60]	; 1ae8 <deflateReset+0xac>
    1aa8:	e3a03002 	mov	r3, #2
    1aac:	e584506c 	str	r5, [r4, #108]	; 0x6c
    1ab0:	e584505c 	str	r5, [r4, #92]	; 0x5c
    1ab4:	e5845074 	str	r5, [r4, #116]	; 0x74
    1ab8:	e5845068 	str	r5, [r4, #104]	; 0x68
    1abc:	e5845048 	str	r5, [r4, #72]	; 0x48
    1ac0:	e584608c 	str	r6, [r4, #140]	; 0x8c
    1ac4:	e584c080 	str	ip, [r4, #128]	; 0x80
    1ac8:	e5840090 	str	r0, [r4, #144]	; 0x90
    1acc:	e584107c 	str	r1, [r4, #124]	; 0x7c
    1ad0:	e7845002 	str	r5, [r4, r2]
    1ad4:	e5843078 	str	r3, [r4, #120]	; 0x78
    1ad8:	e5843060 	str	r3, [r4, #96]	; 0x60
    1adc:	e1a00005 	mov	r0, r5
    1ae0:	e8bd8070 	pop	{r4, r5, r6, pc}
    1ae4:	0000b138 	andeq	fp, r0, r8, lsr r1
    1ae8:	000016b4 			; <UNDEFINED> instruction: 0x000016b4

00001aec <deflateSetHeader>:
    1aec:	e3500000 	cmp	r0, #0
    1af0:	0a000008 	beq	1b18 <deflateSetHeader+0x2c>
    1af4:	e590301c 	ldr	r3, [r0, #28]
    1af8:	e3530000 	cmp	r3, #0
    1afc:	0a000005 	beq	1b18 <deflateSetHeader+0x2c>
    1b00:	e5932018 	ldr	r2, [r3, #24]
    1b04:	e3520002 	cmp	r2, #2
    1b08:	1a000002 	bne	1b18 <deflateSetHeader+0x2c>
    1b0c:	e583101c 	str	r1, [r3, #28]
    1b10:	e3a00000 	mov	r0, #0
    1b14:	e12fff1e 	bx	lr
    1b18:	e3e00001 	mvn	r0, #1
    1b1c:	e12fff1e 	bx	lr

00001b20 <deflatePending>:
    1b20:	e3500000 	cmp	r0, #0
    1b24:	0a00000e 	beq	1b64 <deflatePending+0x44>
    1b28:	e590301c 	ldr	r3, [r0, #28]
    1b2c:	e3530000 	cmp	r3, #0
    1b30:	0a00000b 	beq	1b64 <deflatePending+0x44>
    1b34:	e3510000 	cmp	r1, #0
    1b38:	15930014 	ldrne	r0, [r3, #20]
    1b3c:	15810000 	strne	r0, [r1]
    1b40:	e3520000 	cmp	r2, #0
    1b44:	0a000004 	beq	1b5c <deflatePending+0x3c>
    1b48:	e59f101c 	ldr	r1, [pc, #28]	; 1b6c <deflatePending+0x4c>
    1b4c:	e3a00000 	mov	r0, #0
    1b50:	e7933001 	ldr	r3, [r3, r1]
    1b54:	e5823000 	str	r3, [r2]
    1b58:	e12fff1e 	bx	lr
    1b5c:	e1a00002 	mov	r0, r2
    1b60:	e12fff1e 	bx	lr
    1b64:	e3e00001 	mvn	r0, #1
    1b68:	e12fff1e 	bx	lr
    1b6c:	000016bc 			; <UNDEFINED> instruction: 0x000016bc

00001b70 <deflatePrime>:
    1b70:	e3500000 	cmp	r0, #0
    1b74:	e92d47f0 	push	{r4, r5, r6, r7, r8, r9, sl, lr}
    1b78:	e1a06001 	mov	r6, r1
    1b7c:	e1a07002 	mov	r7, r2
    1b80:	0a000021 	beq	1c0c <deflatePrime+0x9c>
    1b84:	e590501c 	ldr	r5, [r0, #28]
    1b88:	e3550000 	cmp	r5, #0
    1b8c:	0a00001e 	beq	1c0c <deflatePrime+0x9c>
    1b90:	e59f207c 	ldr	r2, [pc, #124]	; 1c14 <deflatePrime+0xa4>
    1b94:	e5953010 	ldr	r3, [r5, #16]
    1b98:	e7952002 	ldr	r2, [r5, r2]
    1b9c:	e2833002 	add	r3, r3, #2
    1ba0:	e1520003 	cmp	r2, r3
    1ba4:	3a000016 	bcc	1c04 <deflatePrime+0x94>
    1ba8:	e59fa068 	ldr	sl, [pc, #104]	; 1c18 <deflatePrime+0xa8>
    1bac:	e59f8068 	ldr	r8, [pc, #104]	; 1c1c <deflatePrime+0xac>
    1bb0:	e3a09001 	mov	r9, #1
    1bb4:	e795300a 	ldr	r3, [r5, sl]
    1bb8:	e19510b8 	ldrh	r1, [r5, r8]
    1bbc:	e2634010 	rsb	r4, r3, #16
    1bc0:	e1560004 	cmp	r6, r4
    1bc4:	b1a04006 	movlt	r4, r6
    1bc8:	a1a04004 	movge	r4, r4
    1bcc:	e1a02419 	lsl	r2, r9, r4
    1bd0:	e2422001 	sub	r2, r2, #1
    1bd4:	e0022007 	and	r2, r2, r7
    1bd8:	e1812312 	orr	r2, r1, r2, lsl r3
    1bdc:	e0833004 	add	r3, r3, r4
    1be0:	e18520b8 	strh	r2, [r5, r8]
    1be4:	e785300a 	str	r3, [r5, sl]
    1be8:	e1a00005 	mov	r0, r5
    1bec:	eb000d93 	bl	5240 <_tr_flush_bits>
    1bf0:	e0566004 	subs	r6, r6, r4
    1bf4:	e1a07457 	asr	r7, r7, r4
    1bf8:	1affffed 	bne	1bb4 <deflatePrime+0x44>
    1bfc:	e1a00006 	mov	r0, r6
    1c00:	e8bd87f0 	pop	{r4, r5, r6, r7, r8, r9, sl, pc}
    1c04:	e3e00004 	mvn	r0, #4
    1c08:	e8bd87f0 	pop	{r4, r5, r6, r7, r8, r9, sl, pc}
    1c0c:	e3e00001 	mvn	r0, #1
    1c10:	e8bd87f0 	pop	{r4, r5, r6, r7, r8, r9, sl, pc}
    1c14:	000016a4 	andeq	r1, r0, r4, lsr #13
    1c18:	000016bc 			; <UNDEFINED> instruction: 0x000016bc
    1c1c:	000016b8 			; <UNDEFINED> instruction: 0x000016b8

00001c20 <deflateTune>:
    1c20:	e3500000 	cmp	r0, #0
    1c24:	0a000009 	beq	1c50 <deflateTune+0x30>
    1c28:	e590001c 	ldr	r0, [r0, #28]
    1c2c:	e3500000 	cmp	r0, #0
    1c30:	0a000006 	beq	1c50 <deflateTune+0x30>
    1c34:	e5803090 	str	r3, [r0, #144]	; 0x90
    1c38:	e59d3000 	ldr	r3, [sp]
    1c3c:	e580108c 	str	r1, [r0, #140]	; 0x8c
    1c40:	e5802080 	str	r2, [r0, #128]	; 0x80
    1c44:	e580307c 	str	r3, [r0, #124]	; 0x7c
    1c48:	e3a00000 	mov	r0, #0
    1c4c:	e12fff1e 	bx	lr
    1c50:	e3e00001 	mvn	r0, #1
    1c54:	e12fff1e 	bx	lr

00001c58 <deflateBound>:
    1c58:	e281303f 	add	r3, r1, #63	; 0x3f
    1c5c:	e92d0070 	push	{r4, r5, r6}
    1c60:	e1a03323 	lsr	r3, r3, #6
    1c64:	e2814007 	add	r4, r1, #7
    1c68:	e08331a4 	add	r3, r3, r4, lsr #3
    1c6c:	e3500000 	cmp	r0, #0
    1c70:	e0836001 	add	r6, r3, r1
    1c74:	0a00003b 	beq	1d68 <deflateBound+0x110>
    1c78:	e590201c 	ldr	r2, [r0, #28]
    1c7c:	e3520000 	cmp	r2, #0
    1c80:	0a000038 	beq	1d68 <deflateBound+0x110>
    1c84:	e5923018 	ldr	r3, [r2, #24]
    1c88:	e3530001 	cmp	r3, #1
    1c8c:	0a000030 	beq	1d54 <deflateBound+0xfc>
    1c90:	e3530002 	cmp	r3, #2
    1c94:	0a000009 	beq	1cc0 <deflateBound+0x68>
    1c98:	e3530000 	cmp	r3, #0
    1c9c:	13a03006 	movne	r3, #6
    1ca0:	03a03000 	moveq	r3, #0
    1ca4:	e5920030 	ldr	r0, [r2, #48]	; 0x30
    1ca8:	e350000f 	cmp	r0, #15
    1cac:	0a000020 	beq	1d34 <deflateBound+0xdc>
    1cb0:	e2860005 	add	r0, r6, #5
    1cb4:	e0800003 	add	r0, r0, r3
    1cb8:	e8bd0070 	pop	{r4, r5, r6}
    1cbc:	e12fff1e 	bx	lr
    1cc0:	e592001c 	ldr	r0, [r2, #28]
    1cc4:	e3500000 	cmp	r0, #0
    1cc8:	03a03012 	moveq	r3, #18
    1ccc:	0afffff4 	beq	1ca4 <deflateBound+0x4c>
    1cd0:	e5903010 	ldr	r3, [r0, #16]
    1cd4:	e590c01c 	ldr	ip, [r0, #28]
    1cd8:	e3530000 	cmp	r3, #0
    1cdc:	15903014 	ldrne	r3, [r0, #20]
    1ce0:	03a03012 	moveq	r3, #18
    1ce4:	12833014 	addne	r3, r3, #20
    1ce8:	e35c0000 	cmp	ip, #0
    1cec:	0a000003 	beq	1d00 <deflateBound+0xa8>
    1cf0:	e4dc5001 	ldrb	r5, [ip], #1
    1cf4:	e2833001 	add	r3, r3, #1
    1cf8:	e3550000 	cmp	r5, #0
    1cfc:	1afffffb 	bne	1cf0 <deflateBound+0x98>
    1d00:	e590c024 	ldr	ip, [r0, #36]	; 0x24
    1d04:	e35c0000 	cmp	ip, #0
    1d08:	0a000003 	beq	1d1c <deflateBound+0xc4>
    1d0c:	e4dc5001 	ldrb	r5, [ip], #1
    1d10:	e2833001 	add	r3, r3, #1
    1d14:	e3550000 	cmp	r5, #0
    1d18:	1afffffb 	bne	1d0c <deflateBound+0xb4>
    1d1c:	e590002c 	ldr	r0, [r0, #44]	; 0x2c
    1d20:	e3500000 	cmp	r0, #0
    1d24:	e5920030 	ldr	r0, [r2, #48]	; 0x30
    1d28:	12833002 	addne	r3, r3, #2
    1d2c:	e350000f 	cmp	r0, #15
    1d30:	1affffde 	bne	1cb0 <deflateBound+0x58>
    1d34:	e5922050 	ldr	r2, [r2, #80]	; 0x50
    1d38:	e352000f 	cmp	r2, #15
    1d3c:	1affffdb 	bne	1cb0 <deflateBound+0x58>
    1d40:	e0840621 	add	r0, r4, r1, lsr #12
    1d44:	e0800721 	add	r0, r0, r1, lsr #14
    1d48:	e0801ca1 	add	r1, r0, r1, lsr #25
    1d4c:	e0810003 	add	r0, r1, r3
    1d50:	eaffffd8 	b	1cb8 <deflateBound+0x60>
    1d54:	e592306c 	ldr	r3, [r2, #108]	; 0x6c
    1d58:	e3530000 	cmp	r3, #0
    1d5c:	03a03006 	moveq	r3, #6
    1d60:	13a0300a 	movne	r3, #10
    1d64:	eaffffce 	b	1ca4 <deflateBound+0x4c>
    1d68:	e286000b 	add	r0, r6, #11
    1d6c:	eaffffd1 	b	1cb8 <deflateBound+0x60>

00001d70 <deflate>:
    1d70:	e92d4ff0 	push	{r4, r5, r6, r7, r8, r9, sl, fp, lr}
    1d74:	e2508000 	subs	r8, r0, #0
    1d78:	e24dd014 	sub	sp, sp, #20
    1d7c:	e58d1000 	str	r1, [sp]
    1d80:	0a00032c 	beq	2a38 <deflate+0xcc8>
    1d84:	e598401c 	ldr	r4, [r8, #28]
    1d88:	e3540000 	cmp	r4, #0
    1d8c:	0a000329 	beq	2a38 <deflate+0xcc8>
    1d90:	e3510005 	cmp	r1, #5
    1d94:	8a000327 	bhi	2a38 <deflate+0xcc8>
    1d98:	e598300c 	ldr	r3, [r8, #12]
    1d9c:	e3530000 	cmp	r3, #0
    1da0:	0a00005f 	beq	1f24 <deflate+0x1b4>
    1da4:	e5983000 	ldr	r3, [r8]
    1da8:	e3530000 	cmp	r3, #0
    1dac:	0a000248 	beq	26d4 <deflate+0x964>
    1db0:	e5943004 	ldr	r3, [r4, #4]
    1db4:	e59f2fc0 	ldr	r2, [pc, #4032]	; 2d7c <deflate+0x100c>
    1db8:	e1530002 	cmp	r3, r2
    1dbc:	0a000055 	beq	1f18 <deflate+0x1a8>
    1dc0:	e5982010 	ldr	r2, [r8, #16]
    1dc4:	e3520000 	cmp	r2, #0
    1dc8:	0a00015b 	beq	233c <deflate+0x5cc>
    1dcc:	e59d1000 	ldr	r1, [sp]
    1dd0:	e353002a 	cmp	r3, #42	; 0x2a
    1dd4:	e5945028 	ldr	r5, [r4, #40]	; 0x28
    1dd8:	e5848000 	str	r8, [r4]
    1ddc:	e5841028 	str	r1, [r4, #40]	; 0x28
    1de0:	0a0000a0 	beq	2068 <deflate+0x2f8>
    1de4:	e3530045 	cmp	r3, #69	; 0x45
    1de8:	15940014 	ldrne	r0, [r4, #20]
    1dec:	0a0000dd 	beq	2168 <deflate+0x3f8>
    1df0:	e3530049 	cmp	r3, #73	; 0x49
    1df4:	0a000116 	beq	2254 <deflate+0x4e4>
    1df8:	e353005b 	cmp	r3, #91	; 0x5b
    1dfc:	0a000160 	beq	2384 <deflate+0x614>
    1e00:	e3530067 	cmp	r3, #103	; 0x67
    1e04:	0a000272 	beq	27d4 <deflate+0xa64>
    1e08:	e3500000 	cmp	r0, #0
    1e0c:	1a000049 	bne	1f38 <deflate+0x1c8>
    1e10:	e5983004 	ldr	r3, [r8, #4]
    1e14:	e3530000 	cmp	r3, #0
    1e18:	1a000141 	bne	2324 <deflate+0x5b4>
    1e1c:	e59d0000 	ldr	r0, [sp]
    1e20:	e3500005 	cmp	r0, #5
    1e24:	03a03009 	moveq	r3, #9
    1e28:	13a03000 	movne	r3, #0
    1e2c:	e3550004 	cmp	r5, #4
    1e30:	c3a02009 	movgt	r2, #9
    1e34:	d3a02000 	movle	r2, #0
    1e38:	e0633080 	rsb	r3, r3, r0, lsl #1
    1e3c:	e0625085 	rsb	r5, r2, r5, lsl #1
    1e40:	e1530005 	cmp	r3, r5
    1e44:	ca000001 	bgt	1e50 <deflate+0xe0>
    1e48:	e3500004 	cmp	r0, #4
    1e4c:	1a00013a 	bne	233c <deflate+0x5cc>
    1e50:	e5942004 	ldr	r2, [r4, #4]
    1e54:	e5941074 	ldr	r1, [r4, #116]	; 0x74
    1e58:	e3510000 	cmp	r1, #0
    1e5c:	1a000041 	bne	1f68 <deflate+0x1f8>
    1e60:	e59d1000 	ldr	r1, [sp]
    1e64:	e3510000 	cmp	r1, #0
    1e68:	0a000054 	beq	1fc0 <deflate+0x250>
    1e6c:	e59f3f08 	ldr	r3, [pc, #3848]	; 2d7c <deflate+0x100c>
    1e70:	e1520003 	cmp	r2, r3
    1e74:	1a00003b 	bne	1f68 <deflate+0x1f8>
    1e78:	e59d0000 	ldr	r0, [sp]
    1e7c:	e3500004 	cmp	r0, #4
    1e80:	1a00004e 	bne	1fc0 <deflate+0x250>
    1e84:	e5943018 	ldr	r3, [r4, #24]
    1e88:	e3530000 	cmp	r3, #0
    1e8c:	d3a00001 	movle	r0, #1
    1e90:	da000072 	ble	2060 <deflate+0x2f0>
    1e94:	e3530002 	cmp	r3, #2
    1e98:	0a000303 	beq	2aac <deflate+0xd3c>
    1e9c:	e5982030 	ldr	r2, [r8, #48]	; 0x30
    1ea0:	e5943014 	ldr	r3, [r4, #20]
    1ea4:	e5941008 	ldr	r1, [r4, #8]
    1ea8:	e1a00c22 	lsr	r0, r2, #24
    1eac:	e7c10003 	strb	r0, [r1, r3]
    1eb0:	e5940008 	ldr	r0, [r4, #8]
    1eb4:	e2831001 	add	r1, r3, #1
    1eb8:	e1a02822 	lsr	r2, r2, #16
    1ebc:	e7c02001 	strb	r2, [r0, r1]
    1ec0:	e5982030 	ldr	r2, [r8, #48]	; 0x30
    1ec4:	e5940008 	ldr	r0, [r4, #8]
    1ec8:	e1a02802 	lsl	r2, r2, #16
    1ecc:	e2831002 	add	r1, r3, #2
    1ed0:	e1a0cc22 	lsr	ip, r2, #24
    1ed4:	e7c0c001 	strb	ip, [r0, r1]
    1ed8:	e5940008 	ldr	r0, [r4, #8]
    1edc:	e2831003 	add	r1, r3, #3
    1ee0:	e1a02822 	lsr	r2, r2, #16
    1ee4:	e2833004 	add	r3, r3, #4
    1ee8:	e7c02001 	strb	r2, [r0, r1]
    1eec:	e5843014 	str	r3, [r4, #20]
    1ef0:	e1a00008 	mov	r0, r8
    1ef4:	ebfffaf4 	bl	acc <flush_pending>
    1ef8:	e5943018 	ldr	r3, [r4, #24]
    1efc:	e5940014 	ldr	r0, [r4, #20]
    1f00:	e3530000 	cmp	r3, #0
    1f04:	c2633000 	rsbgt	r3, r3, #0
    1f08:	c5843018 	strgt	r3, [r4, #24]
    1f0c:	e2700001 	rsbs	r0, r0, #1
    1f10:	33a00000 	movcc	r0, #0
    1f14:	ea000051 	b	2060 <deflate+0x2f0>
    1f18:	e59d0000 	ldr	r0, [sp]
    1f1c:	e3500004 	cmp	r0, #4
    1f20:	0affffa6 	beq	1dc0 <deflate+0x50>
    1f24:	e59f3e54 	ldr	r3, [pc, #3668]	; 2d80 <deflate+0x1010>
    1f28:	e3e00001 	mvn	r0, #1
    1f2c:	e5933010 	ldr	r3, [r3, #16]
    1f30:	e5883018 	str	r3, [r8, #24]
    1f34:	ea000049 	b	2060 <deflate+0x2f0>
    1f38:	e1a00008 	mov	r0, r8
    1f3c:	ebfffae2 	bl	acc <flush_pending>
    1f40:	e5980010 	ldr	r0, [r8, #16]
    1f44:	e3500000 	cmp	r0, #0
    1f48:	0a000042 	beq	2058 <deflate+0x2e8>
    1f4c:	e5942004 	ldr	r2, [r4, #4]
    1f50:	e59f1e24 	ldr	r1, [pc, #3620]	; 2d7c <deflate+0x100c>
    1f54:	e5983004 	ldr	r3, [r8, #4]
    1f58:	e1520001 	cmp	r2, r1
    1f5c:	0a0000f4 	beq	2334 <deflate+0x5c4>
    1f60:	e3530000 	cmp	r3, #0
    1f64:	0affffba 	beq	1e54 <deflate+0xe4>
    1f68:	e5943088 	ldr	r3, [r4, #136]	; 0x88
    1f6c:	e3530002 	cmp	r3, #2
    1f70:	0a000245 	beq	288c <deflate+0xb1c>
    1f74:	e3530003 	cmp	r3, #3
    1f78:	0a00011b 	beq	23ec <deflate+0x67c>
    1f7c:	e5943084 	ldr	r3, [r4, #132]	; 0x84
    1f80:	e59f2dfc 	ldr	r2, [pc, #3580]	; 2d84 <deflate+0x1014>
    1f84:	e0833083 	add	r3, r3, r3, lsl #1
    1f88:	e0823103 	add	r3, r2, r3, lsl #2
    1f8c:	e5933008 	ldr	r3, [r3, #8]
    1f90:	e1a00004 	mov	r0, r4
    1f94:	e59d1000 	ldr	r1, [sp]
    1f98:	e12fff33 	blx	r3
    1f9c:	e2402002 	sub	r2, r0, #2
    1fa0:	e3c03002 	bic	r3, r0, #2
    1fa4:	e3520001 	cmp	r2, #1
    1fa8:	9a00010c 	bls	23e0 <deflate+0x670>
    1fac:	e3530000 	cmp	r3, #0
    1fb0:	1a000004 	bne	1fc8 <deflate+0x258>
    1fb4:	e5980010 	ldr	r0, [r8, #16]
    1fb8:	e3500000 	cmp	r0, #0
    1fbc:	0a000025 	beq	2058 <deflate+0x2e8>
    1fc0:	e3a00000 	mov	r0, #0
    1fc4:	ea000025 	b	2060 <deflate+0x2f0>
    1fc8:	e3500001 	cmp	r0, #1
    1fcc:	1affffa9 	bne	1e78 <deflate+0x108>
    1fd0:	e59d1000 	ldr	r1, [sp]
    1fd4:	e3510001 	cmp	r1, #1
    1fd8:	0a000364 	beq	2d70 <deflate+0x1000>
    1fdc:	e59d2000 	ldr	r2, [sp]
    1fe0:	e3520005 	cmp	r2, #5
    1fe4:	0a000016 	beq	2044 <deflate+0x2d4>
    1fe8:	e3a01000 	mov	r1, #0
    1fec:	e1a03001 	mov	r3, r1
    1ff0:	e1a02001 	mov	r2, r1
    1ff4:	e1a00004 	mov	r0, r4
    1ff8:	eb000c49 	bl	5124 <_tr_stored_block>
    1ffc:	e59d3000 	ldr	r3, [sp]
    2000:	e3530003 	cmp	r3, #3
    2004:	1a00000e 	bne	2044 <deflate+0x2d4>
    2008:	e594304c 	ldr	r3, [r4, #76]	; 0x4c
    200c:	e5940044 	ldr	r0, [r4, #68]	; 0x44
    2010:	e243c001 	sub	ip, r3, #1
    2014:	e2432106 	sub	r2, r3, #-2147483647	; 0x80000001
    2018:	e1a0c08c 	lsl	ip, ip, #1
    201c:	e3a01000 	mov	r1, #0
    2020:	e1a02082 	lsl	r2, r2, #1
    2024:	e18010bc 	strh	r1, [r0, ip]
    2028:	ebfff80e 	bl	68 <ZMEMSET>
    202c:	e5943074 	ldr	r3, [r4, #116]	; 0x74
    2030:	e3530000 	cmp	r3, #0
    2034:	059f2d4c 	ldreq	r2, [pc, #3404]	; 2d88 <deflate+0x1018>
    2038:	0584306c 	streq	r3, [r4, #108]	; 0x6c
    203c:	0584305c 	streq	r3, [r4, #92]	; 0x5c
    2040:	07843002 	streq	r3, [r4, r2]
    2044:	e1a00008 	mov	r0, r8
    2048:	ebfffa9f 	bl	acc <flush_pending>
    204c:	e5980010 	ldr	r0, [r8, #16]
    2050:	e3500000 	cmp	r0, #0
    2054:	1affff87 	bne	1e78 <deflate+0x108>
    2058:	e3e03000 	mvn	r3, #0
    205c:	e5843028 	str	r3, [r4, #40]	; 0x28
    2060:	e28dd014 	add	sp, sp, #20
    2064:	e8bd8ff0 	pop	{r4, r5, r6, r7, r8, r9, sl, fp, pc}
    2068:	e5946018 	ldr	r6, [r4, #24]
    206c:	e3560002 	cmp	r6, #2
    2070:	0a0002b2 	beq	2b40 <deflate+0xdd0>
    2074:	e5942030 	ldr	r2, [r4, #48]	; 0x30
    2078:	e5943088 	ldr	r3, [r4, #136]	; 0x88
    207c:	e1a02602 	lsl	r2, r2, #12
    2080:	e3530001 	cmp	r3, #1
    2084:	e2422b1e 	sub	r2, r2, #30720	; 0x7800
    2088:	da00009b 	ble	22fc <deflate+0x58c>
    208c:	e3a01000 	mov	r1, #0
    2090:	e594306c 	ldr	r3, [r4, #108]	; 0x6c
    2094:	e1812002 	orr	r2, r1, r2
    2098:	e3530000 	cmp	r3, #0
    209c:	e59f1ce8 	ldr	r1, [pc, #3304]	; 2d8c <deflate+0x101c>
    20a0:	13822020 	orrne	r2, r2, #32
    20a4:	e081e291 	umull	lr, r1, r1, r2
    20a8:	e0612002 	rsb	r2, r1, r2
    20ac:	e08120a2 	add	r2, r1, r2, lsr #1
    20b0:	e1a02222 	lsr	r2, r2, #4
    20b4:	e0622282 	rsb	r2, r2, r2, lsl #5
    20b8:	e5943014 	ldr	r3, [r4, #20]
    20bc:	e282201f 	add	r2, r2, #31
    20c0:	e5941008 	ldr	r1, [r4, #8]
    20c4:	e1a00422 	lsr	r0, r2, #8
    20c8:	e3a0c071 	mov	ip, #113	; 0x71
    20cc:	e584c004 	str	ip, [r4, #4]
    20d0:	e7c10003 	strb	r0, [r1, r3]
    20d4:	e5940008 	ldr	r0, [r4, #8]
    20d8:	e2831001 	add	r1, r3, #1
    20dc:	e7c02001 	strb	r2, [r0, r1]
    20e0:	e594106c 	ldr	r1, [r4, #108]	; 0x6c
    20e4:	e2832002 	add	r2, r3, #2
    20e8:	e3510000 	cmp	r1, #0
    20ec:	e5842014 	str	r2, [r4, #20]
    20f0:	0a000013 	beq	2144 <deflate+0x3d4>
    20f4:	e5981030 	ldr	r1, [r8, #48]	; 0x30
    20f8:	e5940008 	ldr	r0, [r4, #8]
    20fc:	e1a0cc21 	lsr	ip, r1, #24
    2100:	e7c0c002 	strb	ip, [r0, r2]
    2104:	e5940008 	ldr	r0, [r4, #8]
    2108:	e2832003 	add	r2, r3, #3
    210c:	e1a01821 	lsr	r1, r1, #16
    2110:	e7c01002 	strb	r1, [r0, r2]
    2114:	e5982030 	ldr	r2, [r8, #48]	; 0x30
    2118:	e5940008 	ldr	r0, [r4, #8]
    211c:	e1a02802 	lsl	r2, r2, #16
    2120:	e2831004 	add	r1, r3, #4
    2124:	e1a0cc22 	lsr	ip, r2, #24
    2128:	e7c0c001 	strb	ip, [r0, r1]
    212c:	e5940008 	ldr	r0, [r4, #8]
    2130:	e2831005 	add	r1, r3, #5
    2134:	e1a02822 	lsr	r2, r2, #16
    2138:	e2833006 	add	r3, r3, #6
    213c:	e7c02001 	strb	r2, [r0, r1]
    2140:	e5843014 	str	r3, [r4, #20]
    2144:	e3a00000 	mov	r0, #0
    2148:	e1a01000 	mov	r1, r0
    214c:	e1a02000 	mov	r2, r0
    2150:	eb000546 	bl	3670 <adler32>
    2154:	e5943004 	ldr	r3, [r4, #4]
    2158:	e5880030 	str	r0, [r8, #48]	; 0x30
    215c:	e3530045 	cmp	r3, #69	; 0x45
    2160:	15940014 	ldrne	r0, [r4, #20]
    2164:	1affff21 	bne	1df0 <deflate+0x80>
    2168:	e594601c 	ldr	r6, [r4, #28]
    216c:	e5941014 	ldr	r1, [r4, #20]
    2170:	e1a0c006 	mov	ip, r6
    2174:	e5963010 	ldr	r3, [r6, #16]
    2178:	e3530000 	cmp	r3, #0
    217c:	0a000238 	beq	2a64 <deflate+0xcf4>
    2180:	e1d621b4 	ldrh	r2, [r6, #20]
    2184:	e5943020 	ldr	r3, [r4, #32]
    2188:	e1530002 	cmp	r3, r2
    218c:	25942014 	ldrcs	r2, [r4, #20]
    2190:	2a000022 	bcs	2220 <deflate+0x4b0>
    2194:	e1a02001 	mov	r2, r1
    2198:	ea00000d 	b	21d4 <deflate+0x464>
    219c:	e596c010 	ldr	ip, [r6, #16]
    21a0:	e5940008 	ldr	r0, [r4, #8]
    21a4:	e7dc3003 	ldrb	r3, [ip, r3]
    21a8:	e7c03002 	strb	r3, [r0, r2]
    21ac:	e594c01c 	ldr	ip, [r4, #28]
    21b0:	e5943020 	ldr	r3, [r4, #32]
    21b4:	e1dc01b4 	ldrh	r0, [ip, #20]
    21b8:	e2833001 	add	r3, r3, #1
    21bc:	e2822001 	add	r2, r2, #1
    21c0:	e1500003 	cmp	r0, r3
    21c4:	e5842014 	str	r2, [r4, #20]
    21c8:	e5843020 	str	r3, [r4, #32]
    21cc:	e1a0600c 	mov	r6, ip
    21d0:	9a000012 	bls	2220 <deflate+0x4b0>
    21d4:	e594c00c 	ldr	ip, [r4, #12]
    21d8:	e15c0002 	cmp	ip, r2
    21dc:	1affffee 	bne	219c <deflate+0x42c>
    21e0:	e596302c 	ldr	r3, [r6, #44]	; 0x2c
    21e4:	e3530000 	cmp	r3, #0
    21e8:	0a000001 	beq	21f4 <deflate+0x484>
    21ec:	e1520001 	cmp	r2, r1
    21f0:	8a00013b 	bhi	26e4 <deflate+0x974>
    21f4:	e1a00008 	mov	r0, r8
    21f8:	ebfffa33 	bl	acc <flush_pending>
    21fc:	e5941014 	ldr	r1, [r4, #20]
    2200:	e594300c 	ldr	r3, [r4, #12]
    2204:	e1a02001 	mov	r2, r1
    2208:	e1510003 	cmp	r1, r3
    220c:	1594601c 	ldrne	r6, [r4, #28]
    2210:	15943020 	ldrne	r3, [r4, #32]
    2214:	11a02001 	movne	r2, r1
    2218:	1affffdf 	bne	219c <deflate+0x42c>
    221c:	e594c01c 	ldr	ip, [r4, #28]
    2220:	e59c302c 	ldr	r3, [ip, #44]	; 0x2c
    2224:	e3530000 	cmp	r3, #0
    2228:	0a000001 	beq	2234 <deflate+0x4c4>
    222c:	e1510002 	cmp	r1, r2
    2230:	3a000202 	bcc	2a40 <deflate+0xcd0>
    2234:	e5941020 	ldr	r1, [r4, #32]
    2238:	e59c3014 	ldr	r3, [ip, #20]
    223c:	e1510003 	cmp	r1, r3
    2240:	0a000005 	beq	225c <deflate+0x4ec>
    2244:	e5943004 	ldr	r3, [r4, #4]
    2248:	e1a00002 	mov	r0, r2
    224c:	e3530049 	cmp	r3, #73	; 0x49
    2250:	1afffee8 	bne	1df8 <deflate+0x88>
    2254:	e594c01c 	ldr	ip, [r4, #28]
    2258:	ea000004 	b	2270 <deflate+0x500>
    225c:	e3a01000 	mov	r1, #0
    2260:	e3a03049 	mov	r3, #73	; 0x49
    2264:	e1a00002 	mov	r0, r2
    2268:	e5841020 	str	r1, [r4, #32]
    226c:	e5843004 	str	r3, [r4, #4]
    2270:	e59c301c 	ldr	r3, [ip, #28]
    2274:	e3530000 	cmp	r3, #0
    2278:	0a0001fd 	beq	2a74 <deflate+0xd04>
    227c:	e1a01000 	mov	r1, r0
    2280:	e1a02000 	mov	r2, r0
    2284:	ea00000b 	b	22b8 <deflate+0x548>
    2288:	e59c301c 	ldr	r3, [ip, #28]
    228c:	e594c020 	ldr	ip, [r4, #32]
    2290:	e5946008 	ldr	r6, [r4, #8]
    2294:	e7d3300c 	ldrb	r3, [r3, ip]
    2298:	e28cc001 	add	ip, ip, #1
    229c:	e584c020 	str	ip, [r4, #32]
    22a0:	e3530000 	cmp	r3, #0
    22a4:	e7c63002 	strb	r3, [r6, r2]
    22a8:	e2822001 	add	r2, r2, #1
    22ac:	e5842014 	str	r2, [r4, #20]
    22b0:	0a000026 	beq	2350 <deflate+0x5e0>
    22b4:	e594c01c 	ldr	ip, [r4, #28]
    22b8:	e594300c 	ldr	r3, [r4, #12]
    22bc:	e1530002 	cmp	r3, r2
    22c0:	1afffff0 	bne	2288 <deflate+0x518>
    22c4:	e59c302c 	ldr	r3, [ip, #44]	; 0x2c
    22c8:	e3530000 	cmp	r3, #0
    22cc:	0a000001 	beq	22d8 <deflate+0x568>
    22d0:	e1510002 	cmp	r1, r2
    22d4:	3a0001c9 	bcc	2a00 <deflate+0xc90>
    22d8:	e1a00008 	mov	r0, r8
    22dc:	ebfff9fa 	bl	acc <flush_pending>
    22e0:	e5941014 	ldr	r1, [r4, #20]
    22e4:	e594300c 	ldr	r3, [r4, #12]
    22e8:	e1a02001 	mov	r2, r1
    22ec:	e1510003 	cmp	r1, r3
    22f0:	0a000292 	beq	2d40 <deflate+0xfd0>
    22f4:	e594c01c 	ldr	ip, [r4, #28]
    22f8:	eaffffe2 	b	2288 <deflate+0x518>
    22fc:	e5941084 	ldr	r1, [r4, #132]	; 0x84
    2300:	e3510001 	cmp	r1, #1
    2304:	daffff60 	ble	208c <deflate+0x31c>
    2308:	e3510005 	cmp	r1, #5
    230c:	d3a01040 	movle	r1, #64	; 0x40
    2310:	daffff5e 	ble	2090 <deflate+0x320>
    2314:	e3510006 	cmp	r1, #6
    2318:	13a010c0 	movne	r1, #192	; 0xc0
    231c:	03a01080 	moveq	r1, #128	; 0x80
    2320:	eaffff5a 	b	2090 <deflate+0x320>
    2324:	e5942004 	ldr	r2, [r4, #4]
    2328:	e59f1a4c 	ldr	r1, [pc, #2636]	; 2d7c <deflate+0x100c>
    232c:	e1520001 	cmp	r2, r1
    2330:	1affff0c 	bne	1f68 <deflate+0x1f8>
    2334:	e3530000 	cmp	r3, #0
    2338:	0afffec5 	beq	1e54 <deflate+0xe4>
    233c:	e59f3a3c 	ldr	r3, [pc, #2620]	; 2d80 <deflate+0x1010>
    2340:	e3e00004 	mvn	r0, #4
    2344:	e593301c 	ldr	r3, [r3, #28]
    2348:	e5883018 	str	r3, [r8, #24]
    234c:	eaffff43 	b	2060 <deflate+0x2f0>
    2350:	e1a06003 	mov	r6, r3
    2354:	e594301c 	ldr	r3, [r4, #28]
    2358:	e593302c 	ldr	r3, [r3, #44]	; 0x2c
    235c:	e3530000 	cmp	r3, #0
    2360:	0a000001 	beq	236c <deflate+0x5fc>
    2364:	e1510002 	cmp	r1, r2
    2368:	3a00026c 	bcc	2d20 <deflate+0xfb0>
    236c:	e3560000 	cmp	r6, #0
    2370:	0a0000e2 	beq	2700 <deflate+0x990>
    2374:	e5943004 	ldr	r3, [r4, #4]
    2378:	e1a00002 	mov	r0, r2
    237c:	e353005b 	cmp	r3, #91	; 0x5b
    2380:	1afffe9e 	bne	1e00 <deflate+0x90>
    2384:	e594c01c 	ldr	ip, [r4, #28]
    2388:	ea0000e1 	b	2714 <deflate+0x9a4>
    238c:	e594305c 	ldr	r3, [r4, #92]	; 0x5c
    2390:	e3530000 	cmp	r3, #0
    2394:	ba000001 	blt	23a0 <deflate+0x630>
    2398:	e5941038 	ldr	r1, [r4, #56]	; 0x38
    239c:	e0811003 	add	r1, r1, r3
    23a0:	e594206c 	ldr	r2, [r4, #108]	; 0x6c
    23a4:	e1a00004 	mov	r0, r4
    23a8:	e0632002 	rsb	r2, r3, r2
    23ac:	e3a03001 	mov	r3, #1
    23b0:	eb000be1 	bl	533c <_tr_flush_block>
    23b4:	e594306c 	ldr	r3, [r4, #108]	; 0x6c
    23b8:	e5940000 	ldr	r0, [r4]
    23bc:	e584305c 	str	r3, [r4, #92]	; 0x5c
    23c0:	ebfff9c1 	bl	acc <flush_pending>
    23c4:	e5943000 	ldr	r3, [r4]
    23c8:	e5933010 	ldr	r3, [r3, #16]
    23cc:	e3530000 	cmp	r3, #0
    23d0:	03a03000 	moveq	r3, #0
    23d4:	13a03001 	movne	r3, #1
    23d8:	13a00003 	movne	r0, #3
    23dc:	03a00002 	moveq	r0, #2
    23e0:	e59f2994 	ldr	r2, [pc, #2452]	; 2d7c <deflate+0x100c>
    23e4:	e5842004 	str	r2, [r4, #4]
    23e8:	eafffeef 	b	1fac <deflate+0x23c>
    23ec:	e5941074 	ldr	r1, [r4, #116]	; 0x74
    23f0:	e59fa998 	ldr	sl, [pc, #2456]	; 2d90 <deflate+0x1020>
    23f4:	e59f5998 	ldr	r5, [pc, #2456]	; 2d94 <deflate+0x1024>
    23f8:	e59f7998 	ldr	r7, [pc, #2456]	; 2d98 <deflate+0x1028>
    23fc:	e59f6998 	ldr	r6, [pc, #2456]	; 2d9c <deflate+0x102c>
    2400:	e59f9998 	ldr	r9, [pc, #2456]	; 2da0 <deflate+0x1030>
    2404:	e59fb998 	ldr	fp, [pc, #2456]	; 2da4 <deflate+0x1034>
    2408:	ea000028 	b	24b0 <deflate+0x740>
    240c:	e3a03000 	mov	r3, #0
    2410:	e5843060 	str	r3, [r4, #96]	; 0x60
    2414:	e594306c 	ldr	r3, [r4, #108]	; 0x6c
    2418:	e5942038 	ldr	r2, [r4, #56]	; 0x38
    241c:	e3530000 	cmp	r3, #0
    2420:	0a000005 	beq	243c <deflate+0x6cc>
    2424:	e2430001 	sub	r0, r3, #1
    2428:	e082e000 	add	lr, r2, r0
    242c:	e5dec001 	ldrb	ip, [lr, #1]
    2430:	e7d20000 	ldrb	r0, [r2, r0]
    2434:	e150000c 	cmp	r0, ip
    2438:	0a00002f 	beq	24fc <deflate+0x78c>
    243c:	e7d21003 	ldrb	r1, [r2, r3]
    2440:	e7943005 	ldr	r3, [r4, r5]
    2444:	e7940007 	ldr	r0, [r4, r7]
    2448:	e794c006 	ldr	ip, [r4, r6]
    244c:	e1a02083 	lsl	r2, r3, #1
    2450:	e3a0e000 	mov	lr, #0
    2454:	e180e0b2 	strh	lr, [r0, r2]
    2458:	e2832001 	add	r2, r3, #1
    245c:	e2810024 	add	r0, r1, #36	; 0x24
    2460:	e7cc1003 	strb	r1, [ip, r3]
    2464:	e0843100 	add	r3, r4, r0, lsl #2
    2468:	e7842005 	str	r2, [r4, r5]
    246c:	e1d300b4 	ldrh	r0, [r3, #4]
    2470:	e59f1930 	ldr	r1, [pc, #2352]	; 2da8 <deflate+0x1038>
    2474:	e2800001 	add	r0, r0, #1
    2478:	e1c300b4 	strh	r0, [r3, #4]
    247c:	e7940001 	ldr	r0, [r4, r1]
    2480:	e594306c 	ldr	r3, [r4, #108]	; 0x6c
    2484:	e2400001 	sub	r0, r0, #1
    2488:	e0520000 	subs	r0, r2, r0
    248c:	e5941074 	ldr	r1, [r4, #116]	; 0x74
    2490:	e2702000 	rsbs	r2, r0, #0
    2494:	e0b22000 	adcs	r2, r2, r0
    2498:	e2411001 	sub	r1, r1, #1
    249c:	e2833001 	add	r3, r3, #1
    24a0:	e3520000 	cmp	r2, #0
    24a4:	e5841074 	str	r1, [r4, #116]	; 0x74
    24a8:	e584306c 	str	r3, [r4, #108]	; 0x6c
    24ac:	1a000075 	bne	2688 <deflate+0x918>
    24b0:	e151000a 	cmp	r1, sl
    24b4:	8affffd4 	bhi	240c <deflate+0x69c>
    24b8:	e1a00004 	mov	r0, r4
    24bc:	ebfff8b1 	bl	788 <fill_window>
    24c0:	e5941074 	ldr	r1, [r4, #116]	; 0x74
    24c4:	e151000a 	cmp	r1, sl
    24c8:	8affffcf 	bhi	240c <deflate+0x69c>
    24cc:	e59d0000 	ldr	r0, [sp]
    24d0:	e3500000 	cmp	r0, #0
    24d4:	0afffeb6 	beq	1fb4 <deflate+0x244>
    24d8:	e3510000 	cmp	r1, #0
    24dc:	0a0000dd 	beq	2858 <deflate+0xae8>
    24e0:	e3a03000 	mov	r3, #0
    24e4:	e3510002 	cmp	r1, #2
    24e8:	e5843060 	str	r3, [r4, #96]	; 0x60
    24ec:	8affffc8 	bhi	2414 <deflate+0x6a4>
    24f0:	e594306c 	ldr	r3, [r4, #108]	; 0x6c
    24f4:	e5942038 	ldr	r2, [r4, #56]	; 0x38
    24f8:	eaffffcf 	b	243c <deflate+0x6cc>
    24fc:	e5dec002 	ldrb	ip, [lr, #2]
    2500:	e150000c 	cmp	r0, ip
    2504:	1affffcc 	bne	243c <deflate+0x6cc>
    2508:	e5dec003 	ldrb	ip, [lr, #3]
    250c:	e150000c 	cmp	r0, ip
    2510:	1affffc9 	bne	243c <deflate+0x6cc>
    2514:	e283cc01 	add	ip, r3, #256	; 0x100
    2518:	e28cc002 	add	ip, ip, #2
    251c:	e082c00c 	add	ip, r2, ip
    2520:	e58d300c 	str	r3, [sp, #12]
    2524:	e28ee003 	add	lr, lr, #3
    2528:	e58dc004 	str	ip, [sp, #4]
    252c:	e58d4008 	str	r4, [sp, #8]
    2530:	e1a0300c 	mov	r3, ip
    2534:	ea000018 	b	259c <deflate+0x82c>
    2538:	e5dec002 	ldrb	ip, [lr, #2]
    253c:	e150000c 	cmp	r0, ip
    2540:	1a000222 	bne	2dd0 <deflate+0x1060>
    2544:	e5dec003 	ldrb	ip, [lr, #3]
    2548:	e150000c 	cmp	r0, ip
    254c:	1a000233 	bne	2e20 <deflate+0x10b0>
    2550:	e5dec004 	ldrb	ip, [lr, #4]
    2554:	e150000c 	cmp	r0, ip
    2558:	1a00022c 	bne	2e10 <deflate+0x10a0>
    255c:	e5dec005 	ldrb	ip, [lr, #5]
    2560:	e150000c 	cmp	r0, ip
    2564:	1a000225 	bne	2e00 <deflate+0x1090>
    2568:	e5dec006 	ldrb	ip, [lr, #6]
    256c:	e150000c 	cmp	r0, ip
    2570:	1a00021e 	bne	2df0 <deflate+0x1080>
    2574:	e5dec007 	ldrb	ip, [lr, #7]
    2578:	e150000c 	cmp	r0, ip
    257c:	1a000217 	bne	2de0 <deflate+0x1070>
    2580:	e5dec008 	ldrb	ip, [lr, #8]
    2584:	e28ee008 	add	lr, lr, #8
    2588:	e150000c 	cmp	r0, ip
    258c:	e1a0c00e 	mov	ip, lr
    2590:	1a0001f3 	bne	2d64 <deflate+0xff4>
    2594:	e15e0003 	cmp	lr, r3
    2598:	2a0001f1 	bcs	2d64 <deflate+0xff4>
    259c:	e5dec001 	ldrb	ip, [lr, #1]
    25a0:	e150000c 	cmp	r0, ip
    25a4:	0affffe3 	beq	2538 <deflate+0x7c8>
    25a8:	e59d4008 	ldr	r4, [sp, #8]
    25ac:	e59d300c 	ldr	r3, [sp, #12]
    25b0:	e28ec001 	add	ip, lr, #1
    25b4:	e59de004 	ldr	lr, [sp, #4]
    25b8:	e06e000c 	rsb	r0, lr, ip
    25bc:	e2800c01 	add	r0, r0, #256	; 0x100
    25c0:	e2800002 	add	r0, r0, #2
    25c4:	e1500001 	cmp	r0, r1
    25c8:	e5840060 	str	r0, [r4, #96]	; 0x60
    25cc:	85841060 	strhi	r1, [r4, #96]	; 0x60
    25d0:	81a00001 	movhi	r0, r1
    25d4:	8a000001 	bhi	25e0 <deflate+0x870>
    25d8:	e3500002 	cmp	r0, #2
    25dc:	9affff96 	bls	243c <deflate+0x6cc>
    25e0:	e2401003 	sub	r1, r0, #3
    25e4:	e7943005 	ldr	r3, [r4, r5]
    25e8:	e6ef1071 	uxtb	r1, r1
    25ec:	e794c007 	ldr	ip, [r4, r7]
    25f0:	e7d92001 	ldrb	r2, [r9, r1]
    25f4:	e3a0e001 	mov	lr, #1
    25f8:	e1a00083 	lsl	r0, r3, #1
    25fc:	e18ce0b0 	strh	lr, [ip, r0]
    2600:	e2822c01 	add	r2, r2, #256	; 0x100
    2604:	e794c006 	ldr	ip, [r4, r6]
    2608:	e083000e 	add	r0, r3, lr
    260c:	e2822025 	add	r2, r2, #37	; 0x25
    2610:	e7cc1003 	strb	r1, [ip, r3]
    2614:	e0842102 	add	r2, r4, r2, lsl #2
    2618:	e7840005 	str	r0, [r4, r5]
    261c:	e5db3000 	ldrb	r3, [fp]
    2620:	e1d210b4 	ldrh	r1, [r2, #4]
    2624:	e2833e26 	add	r3, r3, #608	; 0x260
    2628:	e081100e 	add	r1, r1, lr
    262c:	e2833002 	add	r3, r3, #2
    2630:	e1c210b4 	strh	r1, [r2, #4]
    2634:	e1a03103 	lsl	r3, r3, #2
    2638:	e19410b3 	ldrh	r1, [r4, r3]
    263c:	e59f2764 	ldr	r2, [pc, #1892]	; 2da8 <deflate+0x1038>
    2640:	e081100e 	add	r1, r1, lr
    2644:	e18410b3 	strh	r1, [r4, r3]
    2648:	e7942002 	ldr	r2, [r4, r2]
    264c:	e594c060 	ldr	ip, [r4, #96]	; 0x60
    2650:	e2422001 	sub	r2, r2, #1
    2654:	e050e002 	subs	lr, r0, r2
    2658:	e5941074 	ldr	r1, [r4, #116]	; 0x74
    265c:	e594306c 	ldr	r3, [r4, #108]	; 0x6c
    2660:	e27e2000 	rsbs	r2, lr, #0
    2664:	e0b2200e 	adcs	r2, r2, lr
    2668:	e06c1001 	rsb	r1, ip, r1
    266c:	e083300c 	add	r3, r3, ip
    2670:	e3520000 	cmp	r2, #0
    2674:	e3a0c000 	mov	ip, #0
    2678:	e5841074 	str	r1, [r4, #116]	; 0x74
    267c:	e584306c 	str	r3, [r4, #108]	; 0x6c
    2680:	e584c060 	str	ip, [r4, #96]	; 0x60
    2684:	0affff89 	beq	24b0 <deflate+0x740>
    2688:	e594205c 	ldr	r2, [r4, #92]	; 0x5c
    268c:	e1a00004 	mov	r0, r4
    2690:	e3520000 	cmp	r2, #0
    2694:	a5941038 	ldrge	r1, [r4, #56]	; 0x38
    2698:	b3a01000 	movlt	r1, #0
    269c:	a0811002 	addge	r1, r1, r2
    26a0:	e0622003 	rsb	r2, r2, r3
    26a4:	e3a03000 	mov	r3, #0
    26a8:	eb000b23 	bl	533c <_tr_flush_block>
    26ac:	e594306c 	ldr	r3, [r4, #108]	; 0x6c
    26b0:	e5940000 	ldr	r0, [r4]
    26b4:	e584305c 	str	r3, [r4, #92]	; 0x5c
    26b8:	ebfff903 	bl	acc <flush_pending>
    26bc:	e5943000 	ldr	r3, [r4]
    26c0:	e5933010 	ldr	r3, [r3, #16]
    26c4:	e3530000 	cmp	r3, #0
    26c8:	0afffe39 	beq	1fb4 <deflate+0x244>
    26cc:	e5941074 	ldr	r1, [r4, #116]	; 0x74
    26d0:	eaffff76 	b	24b0 <deflate+0x740>
    26d4:	e5983004 	ldr	r3, [r8, #4]
    26d8:	e3530000 	cmp	r3, #0
    26dc:	0afffdb3 	beq	1db0 <deflate+0x40>
    26e0:	eafffe0f 	b	1f24 <deflate+0x1b4>
    26e4:	e5943008 	ldr	r3, [r4, #8]
    26e8:	e0612002 	rsb	r2, r1, r2
    26ec:	e5980030 	ldr	r0, [r8, #48]	; 0x30
    26f0:	e0831001 	add	r1, r3, r1
    26f4:	eb000515 	bl	3b50 <crc32>
    26f8:	e5880030 	str	r0, [r8, #48]	; 0x30
    26fc:	eafffebc 	b	21f4 <deflate+0x484>
    2700:	e3a0305b 	mov	r3, #91	; 0x5b
    2704:	e594c01c 	ldr	ip, [r4, #28]
    2708:	e5846020 	str	r6, [r4, #32]
    270c:	e1a00002 	mov	r0, r2
    2710:	e5843004 	str	r3, [r4, #4]
    2714:	e59c3024 	ldr	r3, [ip, #36]	; 0x24
    2718:	e3530000 	cmp	r3, #0
    271c:	0a0000d7 	beq	2a80 <deflate+0xd10>
    2720:	e1a01000 	mov	r1, r0
    2724:	e1a02000 	mov	r2, r0
    2728:	ea00000b 	b	275c <deflate+0x9ec>
    272c:	e59c3024 	ldr	r3, [ip, #36]	; 0x24
    2730:	e594c020 	ldr	ip, [r4, #32]
    2734:	e5946008 	ldr	r6, [r4, #8]
    2738:	e7d3300c 	ldrb	r3, [r3, ip]
    273c:	e28cc001 	add	ip, ip, #1
    2740:	e584c020 	str	ip, [r4, #32]
    2744:	e3530000 	cmp	r3, #0
    2748:	e7c63002 	strb	r3, [r6, r2]
    274c:	e2822001 	add	r2, r2, #1
    2750:	e5842014 	str	r2, [r4, #20]
    2754:	0a000011 	beq	27a0 <deflate+0xa30>
    2758:	e594c01c 	ldr	ip, [r4, #28]
    275c:	e594300c 	ldr	r3, [r4, #12]
    2760:	e1530002 	cmp	r3, r2
    2764:	1afffff0 	bne	272c <deflate+0x9bc>
    2768:	e59c302c 	ldr	r3, [ip, #44]	; 0x2c
    276c:	e3530000 	cmp	r3, #0
    2770:	0a000001 	beq	277c <deflate+0xa0c>
    2774:	e1510002 	cmp	r1, r2
    2778:	3a0000a7 	bcc	2a1c <deflate+0xcac>
    277c:	e1a00008 	mov	r0, r8
    2780:	ebfff8d1 	bl	acc <flush_pending>
    2784:	e5941014 	ldr	r1, [r4, #20]
    2788:	e594300c 	ldr	r3, [r4, #12]
    278c:	e1a02001 	mov	r2, r1
    2790:	e1510003 	cmp	r1, r3
    2794:	0a00016b 	beq	2d48 <deflate+0xfd8>
    2798:	e594c01c 	ldr	ip, [r4, #28]
    279c:	eaffffe2 	b	272c <deflate+0x9bc>
    27a0:	e1a06003 	mov	r6, r3
    27a4:	e594301c 	ldr	r3, [r4, #28]
    27a8:	e593302c 	ldr	r3, [r3, #44]	; 0x2c
    27ac:	e3530000 	cmp	r3, #0
    27b0:	0a000001 	beq	27bc <deflate+0xa4c>
    27b4:	e1510002 	cmp	r1, r2
    27b8:	3a000150 	bcc	2d00 <deflate+0xf90>
    27bc:	e3560000 	cmp	r6, #0
    27c0:	0a00001f 	beq	2844 <deflate+0xad4>
    27c4:	e5943004 	ldr	r3, [r4, #4]
    27c8:	e1a00002 	mov	r0, r2
    27cc:	e3530067 	cmp	r3, #103	; 0x67
    27d0:	1afffd8c 	bne	1e08 <deflate+0x98>
    27d4:	e594c01c 	ldr	ip, [r4, #28]
    27d8:	e59c302c 	ldr	r3, [ip, #44]	; 0x2c
    27dc:	e3530000 	cmp	r3, #0
    27e0:	03a03071 	moveq	r3, #113	; 0x71
    27e4:	05843004 	streq	r3, [r4, #4]
    27e8:	0afffd86 	beq	1e08 <deflate+0x98>
    27ec:	e594200c 	ldr	r2, [r4, #12]
    27f0:	e2803002 	add	r3, r0, #2
    27f4:	e1530002 	cmp	r3, r2
    27f8:	8a0000a3 	bhi	2a8c <deflate+0xd1c>
    27fc:	e598c030 	ldr	ip, [r8, #48]	; 0x30
    2800:	e5941008 	ldr	r1, [r4, #8]
    2804:	e2802001 	add	r2, r0, #1
    2808:	e7c1c000 	strb	ip, [r1, r0]
    280c:	e598c030 	ldr	ip, [r8, #48]	; 0x30
    2810:	e5941008 	ldr	r1, [r4, #8]
    2814:	e3a00000 	mov	r0, #0
    2818:	e1a0c42c 	lsr	ip, ip, #8
    281c:	e7c1c002 	strb	ip, [r1, r2]
    2820:	e5843014 	str	r3, [r4, #20]
    2824:	e1a01000 	mov	r1, r0
    2828:	e1a02000 	mov	r2, r0
    282c:	eb0004c7 	bl	3b50 <crc32>
    2830:	e3a03071 	mov	r3, #113	; 0x71
    2834:	e5880030 	str	r0, [r8, #48]	; 0x30
    2838:	e5940014 	ldr	r0, [r4, #20]
    283c:	e5843004 	str	r3, [r4, #4]
    2840:	eafffd70 	b	1e08 <deflate+0x98>
    2844:	e3a03067 	mov	r3, #103	; 0x67
    2848:	e1a00002 	mov	r0, r2
    284c:	e5843004 	str	r3, [r4, #4]
    2850:	e594c01c 	ldr	ip, [r4, #28]
    2854:	eaffffdf 	b	27d8 <deflate+0xa68>
    2858:	e59d0000 	ldr	r0, [sp]
    285c:	e59f3524 	ldr	r3, [pc, #1316]	; 2d88 <deflate+0x1018>
    2860:	e3500004 	cmp	r0, #4
    2864:	e7841003 	str	r1, [r4, r3]
    2868:	0afffec7 	beq	238c <deflate+0x61c>
    286c:	e59f3520 	ldr	r3, [pc, #1312]	; 2d94 <deflate+0x1024>
    2870:	e7943003 	ldr	r3, [r4, r3]
    2874:	e3530000 	cmp	r3, #0
    2878:	0afffdd4 	beq	1fd0 <deflate+0x260>
    287c:	e594305c 	ldr	r3, [r4, #92]	; 0x5c
    2880:	e3530000 	cmp	r3, #0
    2884:	aa000039 	bge	2970 <deflate+0xc00>
    2888:	ea00003a 	b	2978 <deflate+0xc08>
    288c:	e59f6500 	ldr	r6, [pc, #1280]	; 2d94 <deflate+0x1024>
    2890:	e59f9500 	ldr	r9, [pc, #1280]	; 2d98 <deflate+0x1028>
    2894:	e59fa500 	ldr	sl, [pc, #1280]	; 2d9c <deflate+0x102c>
    2898:	e59f7508 	ldr	r7, [pc, #1288]	; 2da8 <deflate+0x1038>
    289c:	e3a05000 	mov	r5, #0
    28a0:	e594b074 	ldr	fp, [r4, #116]	; 0x74
    28a4:	ea00001a 	b	2914 <deflate+0xba4>
    28a8:	e594306c 	ldr	r3, [r4, #108]	; 0x6c
    28ac:	e5942038 	ldr	r2, [r4, #56]	; 0x38
    28b0:	e5845060 	str	r5, [r4, #96]	; 0x60
    28b4:	e7d21003 	ldrb	r1, [r2, r3]
    28b8:	e7943006 	ldr	r3, [r4, r6]
    28bc:	e794e009 	ldr	lr, [r4, r9]
    28c0:	e794c00a 	ldr	ip, [r4, sl]
    28c4:	e1a02083 	lsl	r2, r3, #1
    28c8:	e18e50b2 	strh	r5, [lr, r2]
    28cc:	e2810024 	add	r0, r1, #36	; 0x24
    28d0:	e2832001 	add	r2, r3, #1
    28d4:	e7cc1003 	strb	r1, [ip, r3]
    28d8:	e0843100 	add	r3, r4, r0, lsl #2
    28dc:	e7842006 	str	r2, [r4, r6]
    28e0:	e1d310b4 	ldrh	r1, [r3, #4]
    28e4:	e2811001 	add	r1, r1, #1
    28e8:	e1c310b4 	strh	r1, [r3, #4]
    28ec:	e7941007 	ldr	r1, [r4, r7]
    28f0:	e594b074 	ldr	fp, [r4, #116]	; 0x74
    28f4:	e594306c 	ldr	r3, [r4, #108]	; 0x6c
    28f8:	e2411001 	sub	r1, r1, #1
    28fc:	e24bb001 	sub	fp, fp, #1
    2900:	e2833001 	add	r3, r3, #1
    2904:	e1520001 	cmp	r2, r1
    2908:	e584b074 	str	fp, [r4, #116]	; 0x74
    290c:	e584306c 	str	r3, [r4, #108]	; 0x6c
    2910:	0a000028 	beq	29b8 <deflate+0xc48>
    2914:	e35b0000 	cmp	fp, #0
    2918:	1affffe2 	bne	28a8 <deflate+0xb38>
    291c:	e1a00004 	mov	r0, r4
    2920:	ebfff798 	bl	788 <fill_window>
    2924:	e5943074 	ldr	r3, [r4, #116]	; 0x74
    2928:	e3530000 	cmp	r3, #0
    292c:	1affffdd 	bne	28a8 <deflate+0xb38>
    2930:	e59d2000 	ldr	r2, [sp]
    2934:	e3520000 	cmp	r2, #0
    2938:	0afffd9d 	beq	1fb4 <deflate+0x244>
    293c:	e59de000 	ldr	lr, [sp]
    2940:	e59f3440 	ldr	r3, [pc, #1088]	; 2d88 <deflate+0x1018>
    2944:	e35e0004 	cmp	lr, #4
    2948:	e784b003 	str	fp, [r4, r3]
    294c:	0a0000ff 	beq	2d50 <deflate+0xfe0>
    2950:	e59f343c 	ldr	r3, [pc, #1084]	; 2d94 <deflate+0x1024>
    2954:	e7943003 	ldr	r3, [r4, r3]
    2958:	e3530000 	cmp	r3, #0
    295c:	0afffd9b 	beq	1fd0 <deflate+0x260>
    2960:	e594305c 	ldr	r3, [r4, #92]	; 0x5c
    2964:	e3530000 	cmp	r3, #0
    2968:	b1a0100b 	movlt	r1, fp
    296c:	ba000001 	blt	2978 <deflate+0xc08>
    2970:	e5941038 	ldr	r1, [r4, #56]	; 0x38
    2974:	e0811003 	add	r1, r1, r3
    2978:	e594206c 	ldr	r2, [r4, #108]	; 0x6c
    297c:	e1a00004 	mov	r0, r4
    2980:	e0632002 	rsb	r2, r3, r2
    2984:	e3a03000 	mov	r3, #0
    2988:	eb000a6b 	bl	533c <_tr_flush_block>
    298c:	e594306c 	ldr	r3, [r4, #108]	; 0x6c
    2990:	e5940000 	ldr	r0, [r4]
    2994:	e584305c 	str	r3, [r4, #92]	; 0x5c
    2998:	ebfff84b 	bl	acc <flush_pending>
    299c:	e5943000 	ldr	r3, [r4]
    29a0:	e5930010 	ldr	r0, [r3, #16]
    29a4:	e2900000 	adds	r0, r0, #0
    29a8:	13a00001 	movne	r0, #1
    29ac:	e2402002 	sub	r2, r0, #2
    29b0:	e1a03000 	mov	r3, r0
    29b4:	eafffd7a 	b	1fa4 <deflate+0x234>
    29b8:	e594205c 	ldr	r2, [r4, #92]	; 0x5c
    29bc:	e1a00004 	mov	r0, r4
    29c0:	e3520000 	cmp	r2, #0
    29c4:	a5941038 	ldrge	r1, [r4, #56]	; 0x38
    29c8:	b3a01000 	movlt	r1, #0
    29cc:	a0811002 	addge	r1, r1, r2
    29d0:	e0622003 	rsb	r2, r2, r3
    29d4:	e3a03000 	mov	r3, #0
    29d8:	eb000a57 	bl	533c <_tr_flush_block>
    29dc:	e594306c 	ldr	r3, [r4, #108]	; 0x6c
    29e0:	e5940000 	ldr	r0, [r4]
    29e4:	e584305c 	str	r3, [r4, #92]	; 0x5c
    29e8:	ebfff837 	bl	acc <flush_pending>
    29ec:	e5943000 	ldr	r3, [r4]
    29f0:	e5933010 	ldr	r3, [r3, #16]
    29f4:	e3530000 	cmp	r3, #0
    29f8:	1affffa8 	bne	28a0 <deflate+0xb30>
    29fc:	eafffd6c 	b	1fb4 <deflate+0x244>
    2a00:	e5943008 	ldr	r3, [r4, #8]
    2a04:	e0612002 	rsb	r2, r1, r2
    2a08:	e5980030 	ldr	r0, [r8, #48]	; 0x30
    2a0c:	e0831001 	add	r1, r3, r1
    2a10:	eb00044e 	bl	3b50 <crc32>
    2a14:	e5880030 	str	r0, [r8, #48]	; 0x30
    2a18:	eafffe2e 	b	22d8 <deflate+0x568>
    2a1c:	e5943008 	ldr	r3, [r4, #8]
    2a20:	e0612002 	rsb	r2, r1, r2
    2a24:	e5980030 	ldr	r0, [r8, #48]	; 0x30
    2a28:	e0831001 	add	r1, r3, r1
    2a2c:	eb000447 	bl	3b50 <crc32>
    2a30:	e5880030 	str	r0, [r8, #48]	; 0x30
    2a34:	eaffff50 	b	277c <deflate+0xa0c>
    2a38:	e3e00001 	mvn	r0, #1
    2a3c:	eafffd87 	b	2060 <deflate+0x2f0>
    2a40:	e5943008 	ldr	r3, [r4, #8]
    2a44:	e0612002 	rsb	r2, r1, r2
    2a48:	e5980030 	ldr	r0, [r8, #48]	; 0x30
    2a4c:	e0831001 	add	r1, r3, r1
    2a50:	eb00043e 	bl	3b50 <crc32>
    2a54:	e594c01c 	ldr	ip, [r4, #28]
    2a58:	e5942014 	ldr	r2, [r4, #20]
    2a5c:	e5880030 	str	r0, [r8, #48]	; 0x30
    2a60:	eafffdf3 	b	2234 <deflate+0x4c4>
    2a64:	e3a03049 	mov	r3, #73	; 0x49
    2a68:	e1a00001 	mov	r0, r1
    2a6c:	e5843004 	str	r3, [r4, #4]
    2a70:	eafffdfe 	b	2270 <deflate+0x500>
    2a74:	e3a0305b 	mov	r3, #91	; 0x5b
    2a78:	e5843004 	str	r3, [r4, #4]
    2a7c:	eaffff24 	b	2714 <deflate+0x9a4>
    2a80:	e3a03067 	mov	r3, #103	; 0x67
    2a84:	e5843004 	str	r3, [r4, #4]
    2a88:	eaffff52 	b	27d8 <deflate+0xa68>
    2a8c:	e1a00008 	mov	r0, r8
    2a90:	ebfff80d 	bl	acc <flush_pending>
    2a94:	e5940014 	ldr	r0, [r4, #20]
    2a98:	e594200c 	ldr	r2, [r4, #12]
    2a9c:	e2803002 	add	r3, r0, #2
    2aa0:	e1530002 	cmp	r3, r2
    2aa4:	8afffcd7 	bhi	1e08 <deflate+0x98>
    2aa8:	eaffff53 	b	27fc <deflate+0xa8c>
    2aac:	e5943014 	ldr	r3, [r4, #20]
    2ab0:	e5980030 	ldr	r0, [r8, #48]	; 0x30
    2ab4:	e5941008 	ldr	r1, [r4, #8]
    2ab8:	e2832001 	add	r2, r3, #1
    2abc:	e7c10003 	strb	r0, [r1, r3]
    2ac0:	e5980030 	ldr	r0, [r8, #48]	; 0x30
    2ac4:	e5941008 	ldr	r1, [r4, #8]
    2ac8:	e1a00420 	lsr	r0, r0, #8
    2acc:	e7c10002 	strb	r0, [r1, r2]
    2ad0:	e1d803b2 	ldrh	r0, [r8, #50]	; 0x32
    2ad4:	e5941008 	ldr	r1, [r4, #8]
    2ad8:	e2832002 	add	r2, r3, #2
    2adc:	e7c10002 	strb	r0, [r1, r2]
    2ae0:	e5d80033 	ldrb	r0, [r8, #51]	; 0x33
    2ae4:	e5941008 	ldr	r1, [r4, #8]
    2ae8:	e2832003 	add	r2, r3, #3
    2aec:	e7c10002 	strb	r0, [r1, r2]
    2af0:	e5980008 	ldr	r0, [r8, #8]
    2af4:	e5941008 	ldr	r1, [r4, #8]
    2af8:	e2832004 	add	r2, r3, #4
    2afc:	e7c10002 	strb	r0, [r1, r2]
    2b00:	e5980008 	ldr	r0, [r8, #8]
    2b04:	e5941008 	ldr	r1, [r4, #8]
    2b08:	e2832005 	add	r2, r3, #5
    2b0c:	e1a00420 	lsr	r0, r0, #8
    2b10:	e7c10002 	strb	r0, [r1, r2]
    2b14:	e1d800ba 	ldrh	r0, [r8, #10]
    2b18:	e5941008 	ldr	r1, [r4, #8]
    2b1c:	e2832006 	add	r2, r3, #6
    2b20:	e7c10002 	strb	r0, [r1, r2]
    2b24:	e5d8000b 	ldrb	r0, [r8, #11]
    2b28:	e5941008 	ldr	r1, [r4, #8]
    2b2c:	e2832007 	add	r2, r3, #7
    2b30:	e2833008 	add	r3, r3, #8
    2b34:	e7c10002 	strb	r0, [r1, r2]
    2b38:	e5843014 	str	r3, [r4, #20]
    2b3c:	eafffceb 	b	1ef0 <deflate+0x180>
    2b40:	e3a00000 	mov	r0, #0
    2b44:	e1a01000 	mov	r1, r0
    2b48:	e1a02000 	mov	r2, r0
    2b4c:	eb0003ff 	bl	3b50 <crc32>
    2b50:	e5943014 	ldr	r3, [r4, #20]
    2b54:	e5942008 	ldr	r2, [r4, #8]
    2b58:	e3a0101f 	mov	r1, #31
    2b5c:	e5880030 	str	r0, [r8, #48]	; 0x30
    2b60:	e7c21003 	strb	r1, [r2, r3]
    2b64:	e5941008 	ldr	r1, [r4, #8]
    2b68:	e2832001 	add	r2, r3, #1
    2b6c:	e3e00074 	mvn	r0, #116	; 0x74
    2b70:	e7c10002 	strb	r0, [r1, r2]
    2b74:	e5941008 	ldr	r1, [r4, #8]
    2b78:	e2832002 	add	r2, r3, #2
    2b7c:	e3a00008 	mov	r0, #8
    2b80:	e7c10002 	strb	r0, [r1, r2]
    2b84:	e594201c 	ldr	r2, [r4, #28]
    2b88:	e2831003 	add	r1, r3, #3
    2b8c:	e3520000 	cmp	r2, #0
    2b90:	e5841014 	str	r1, [r4, #20]
    2b94:	0a0000a5 	beq	2e30 <deflate+0x10c0>
    2b98:	e592002c 	ldr	r0, [r2, #44]	; 0x2c
    2b9c:	e592c010 	ldr	ip, [r2, #16]
    2ba0:	e592a000 	ldr	sl, [r2]
    2ba4:	e3500000 	cmp	r0, #0
    2ba8:	e592701c 	ldr	r7, [r2, #28]
    2bac:	13a00002 	movne	r0, #2
    2bb0:	03a00000 	moveq	r0, #0
    2bb4:	e35a0000 	cmp	sl, #0
    2bb8:	01a0a000 	moveq	sl, r0
    2bbc:	1280a001 	addne	sl, r0, #1
    2bc0:	e5920024 	ldr	r0, [r2, #36]	; 0x24
    2bc4:	e35c0000 	cmp	ip, #0
    2bc8:	13a0c004 	movne	ip, #4
    2bcc:	03a0c000 	moveq	ip, #0
    2bd0:	e3570000 	cmp	r7, #0
    2bd4:	13a02008 	movne	r2, #8
    2bd8:	03a02000 	moveq	r2, #0
    2bdc:	e08ac00c 	add	ip, sl, ip
    2be0:	e3500000 	cmp	r0, #0
    2be4:	e08cc002 	add	ip, ip, r2
    2be8:	13a00010 	movne	r0, #16
    2bec:	e5942008 	ldr	r2, [r4, #8]
    2bf0:	03a00000 	moveq	r0, #0
    2bf4:	e08c0000 	add	r0, ip, r0
    2bf8:	e7c20001 	strb	r0, [r2, r1]
    2bfc:	e594201c 	ldr	r2, [r4, #28]
    2c00:	e5941008 	ldr	r1, [r4, #8]
    2c04:	e5920004 	ldr	r0, [r2, #4]
    2c08:	e2832004 	add	r2, r3, #4
    2c0c:	e7c10002 	strb	r0, [r1, r2]
    2c10:	e594201c 	ldr	r2, [r4, #28]
    2c14:	e5941008 	ldr	r1, [r4, #8]
    2c18:	e5920004 	ldr	r0, [r2, #4]
    2c1c:	e2832005 	add	r2, r3, #5
    2c20:	e1a00420 	lsr	r0, r0, #8
    2c24:	e7c10002 	strb	r0, [r1, r2]
    2c28:	e594201c 	ldr	r2, [r4, #28]
    2c2c:	e5941008 	ldr	r1, [r4, #8]
    2c30:	e1d200b6 	ldrh	r0, [r2, #6]
    2c34:	e2832006 	add	r2, r3, #6
    2c38:	e7c10002 	strb	r0, [r1, r2]
    2c3c:	e594201c 	ldr	r2, [r4, #28]
    2c40:	e5941008 	ldr	r1, [r4, #8]
    2c44:	e5d20007 	ldrb	r0, [r2, #7]
    2c48:	e2832007 	add	r2, r3, #7
    2c4c:	e7c10002 	strb	r0, [r1, r2]
    2c50:	e5941084 	ldr	r1, [r4, #132]	; 0x84
    2c54:	e2832008 	add	r2, r3, #8
    2c58:	e3510009 	cmp	r1, #9
    2c5c:	e5940008 	ldr	r0, [r4, #8]
    2c60:	e5842014 	str	r2, [r4, #20]
    2c64:	0a000003 	beq	2c78 <deflate+0xf08>
    2c68:	e594c088 	ldr	ip, [r4, #136]	; 0x88
    2c6c:	e35c0001 	cmp	ip, #1
    2c70:	da000091 	ble	2ebc <deflate+0x114c>
    2c74:	e3a06004 	mov	r6, #4
    2c78:	e7c06002 	strb	r6, [r0, r2]
    2c7c:	e594201c 	ldr	r2, [r4, #28]
    2c80:	e5941008 	ldr	r1, [r4, #8]
    2c84:	e592000c 	ldr	r0, [r2, #12]
    2c88:	e2832009 	add	r2, r3, #9
    2c8c:	e7c10002 	strb	r0, [r1, r2]
    2c90:	e594601c 	ldr	r6, [r4, #28]
    2c94:	e283100a 	add	r1, r3, #10
    2c98:	e5962010 	ldr	r2, [r6, #16]
    2c9c:	e1a0c006 	mov	ip, r6
    2ca0:	e3520000 	cmp	r2, #0
    2ca4:	e5841014 	str	r1, [r4, #20]
    2ca8:	0a00000c 	beq	2ce0 <deflate+0xf70>
    2cac:	e596c014 	ldr	ip, [r6, #20]
    2cb0:	e5940008 	ldr	r0, [r4, #8]
    2cb4:	e283200b 	add	r2, r3, #11
    2cb8:	e7c0c001 	strb	ip, [r0, r1]
    2cbc:	e594101c 	ldr	r1, [r4, #28]
    2cc0:	e5940008 	ldr	r0, [r4, #8]
    2cc4:	e591c014 	ldr	ip, [r1, #20]
    2cc8:	e283100c 	add	r1, r3, #12
    2ccc:	e1a0342c 	lsr	r3, ip, #8
    2cd0:	e7c03002 	strb	r3, [r0, r2]
    2cd4:	e594601c 	ldr	r6, [r4, #28]
    2cd8:	e5841014 	str	r1, [r4, #20]
    2cdc:	e1a0c006 	mov	ip, r6
    2ce0:	e596302c 	ldr	r3, [r6, #44]	; 0x2c
    2ce4:	e3530000 	cmp	r3, #0
    2ce8:	1a00002f 	bne	2dac <deflate+0x103c>
    2cec:	e3a02000 	mov	r2, #0
    2cf0:	e3a03045 	mov	r3, #69	; 0x45
    2cf4:	e5842020 	str	r2, [r4, #32]
    2cf8:	e5843004 	str	r3, [r4, #4]
    2cfc:	eafffd1c 	b	2174 <deflate+0x404>
    2d00:	e5943008 	ldr	r3, [r4, #8]
    2d04:	e0612002 	rsb	r2, r1, r2
    2d08:	e5980030 	ldr	r0, [r8, #48]	; 0x30
    2d0c:	e0831001 	add	r1, r3, r1
    2d10:	eb00038e 	bl	3b50 <crc32>
    2d14:	e5942014 	ldr	r2, [r4, #20]
    2d18:	e5880030 	str	r0, [r8, #48]	; 0x30
    2d1c:	eafffea6 	b	27bc <deflate+0xa4c>
    2d20:	e5943008 	ldr	r3, [r4, #8]
    2d24:	e0612002 	rsb	r2, r1, r2
    2d28:	e5980030 	ldr	r0, [r8, #48]	; 0x30
    2d2c:	e0831001 	add	r1, r3, r1
    2d30:	eb000386 	bl	3b50 <crc32>
    2d34:	e5942014 	ldr	r2, [r4, #20]
    2d38:	e5880030 	str	r0, [r8, #48]	; 0x30
    2d3c:	eafffd8a 	b	236c <deflate+0x5fc>
    2d40:	e3a06001 	mov	r6, #1
    2d44:	eafffd82 	b	2354 <deflate+0x5e4>
    2d48:	e3a06001 	mov	r6, #1
    2d4c:	eafffe94 	b	27a4 <deflate+0xa34>
    2d50:	e594305c 	ldr	r3, [r4, #92]	; 0x5c
    2d54:	e3530000 	cmp	r3, #0
    2d58:	b1a0100b 	movlt	r1, fp
    2d5c:	aafffd8d 	bge	2398 <deflate+0x628>
    2d60:	eafffd8e 	b	23a0 <deflate+0x630>
    2d64:	e59d4008 	ldr	r4, [sp, #8]
    2d68:	e59d300c 	ldr	r3, [sp, #12]
    2d6c:	eafffe10 	b	25b4 <deflate+0x844>
    2d70:	e1a00004 	mov	r0, r4
    2d74:	eb000932 	bl	5244 <_tr_align>
    2d78:	eafffcb1 	b	2044 <deflate+0x2d4>
    2d7c:	0000029a 	muleq	r0, sl, r2
    2d80:	0000b1f4 	strdeq	fp, [r0], -r4
    2d84:	0000b138 	andeq	fp, r0, r8, lsr r1
    2d88:	000016b4 			; <UNDEFINED> instruction: 0x000016b4
    2d8c:	08421085 	stmdaeq	r2, {r0, r2, r7, ip}^
    2d90:	00000102 	andeq	r0, r0, r2, lsl #2
    2d94:	000016a0 	andeq	r1, r0, r0, lsr #13
    2d98:	000016a4 	andeq	r1, r0, r4, lsr #13
    2d9c:	00001698 	muleq	r0, r8, r6
    2da0:	0000b61c 	andeq	fp, r0, ip, lsl r6
    2da4:	0000b804 	andeq	fp, r0, r4, lsl #16
    2da8:	0000169c 	muleq	r0, ip, r6
    2dac:	e1a02001 	mov	r2, r1
    2db0:	e5980030 	ldr	r0, [r8, #48]	; 0x30
    2db4:	e5941008 	ldr	r1, [r4, #8]
    2db8:	eb000364 	bl	3b50 <crc32>
    2dbc:	e594601c 	ldr	r6, [r4, #28]
    2dc0:	e5941014 	ldr	r1, [r4, #20]
    2dc4:	e1a0c006 	mov	ip, r6
    2dc8:	e5880030 	str	r0, [r8, #48]	; 0x30
    2dcc:	eaffffc6 	b	2cec <deflate+0xf7c>
    2dd0:	e59d4008 	ldr	r4, [sp, #8]
    2dd4:	e59d300c 	ldr	r3, [sp, #12]
    2dd8:	e28ec002 	add	ip, lr, #2
    2ddc:	eafffdf4 	b	25b4 <deflate+0x844>
    2de0:	e59d4008 	ldr	r4, [sp, #8]
    2de4:	e59d300c 	ldr	r3, [sp, #12]
    2de8:	e28ec007 	add	ip, lr, #7
    2dec:	eafffdf0 	b	25b4 <deflate+0x844>
    2df0:	e59d4008 	ldr	r4, [sp, #8]
    2df4:	e59d300c 	ldr	r3, [sp, #12]
    2df8:	e28ec006 	add	ip, lr, #6
    2dfc:	eafffdec 	b	25b4 <deflate+0x844>
    2e00:	e59d4008 	ldr	r4, [sp, #8]
    2e04:	e59d300c 	ldr	r3, [sp, #12]
    2e08:	e28ec005 	add	ip, lr, #5
    2e0c:	eafffde8 	b	25b4 <deflate+0x844>
    2e10:	e59d4008 	ldr	r4, [sp, #8]
    2e14:	e59d300c 	ldr	r3, [sp, #12]
    2e18:	e28ec004 	add	ip, lr, #4
    2e1c:	eafffde4 	b	25b4 <deflate+0x844>
    2e20:	e59d4008 	ldr	r4, [sp, #8]
    2e24:	e59d300c 	ldr	r3, [sp, #12]
    2e28:	e28ec003 	add	ip, lr, #3
    2e2c:	eafffde0 	b	25b4 <deflate+0x844>
    2e30:	e5940008 	ldr	r0, [r4, #8]
    2e34:	e283c004 	add	ip, r3, #4
    2e38:	e7c02001 	strb	r2, [r0, r1]
    2e3c:	e5941008 	ldr	r1, [r4, #8]
    2e40:	e2830005 	add	r0, r3, #5
    2e44:	e7c1200c 	strb	r2, [r1, ip]
    2e48:	e594c008 	ldr	ip, [r4, #8]
    2e4c:	e2831006 	add	r1, r3, #6
    2e50:	e7cc2000 	strb	r2, [ip, r0]
    2e54:	e594c008 	ldr	ip, [r4, #8]
    2e58:	e2830007 	add	r0, r3, #7
    2e5c:	e7cc2001 	strb	r2, [ip, r1]
    2e60:	e594c008 	ldr	ip, [r4, #8]
    2e64:	e2831008 	add	r1, r3, #8
    2e68:	e7cc2000 	strb	r2, [ip, r0]
    2e6c:	e5940084 	ldr	r0, [r4, #132]	; 0x84
    2e70:	e594c008 	ldr	ip, [r4, #8]
    2e74:	e3500009 	cmp	r0, #9
    2e78:	e5841014 	str	r1, [r4, #20]
    2e7c:	01a02006 	moveq	r2, r6
    2e80:	0a000003 	beq	2e94 <deflate+0x1124>
    2e84:	e5946088 	ldr	r6, [r4, #136]	; 0x88
    2e88:	e3560001 	cmp	r6, #1
    2e8c:	da00000e 	ble	2ecc <deflate+0x115c>
    2e90:	e3a02004 	mov	r2, #4
    2e94:	e7cc2001 	strb	r2, [ip, r1]
    2e98:	e5941008 	ldr	r1, [r4, #8]
    2e9c:	e2832009 	add	r2, r3, #9
    2ea0:	e283000a 	add	r0, r3, #10
    2ea4:	e3a0c003 	mov	ip, #3
    2ea8:	e3a03071 	mov	r3, #113	; 0x71
    2eac:	e7c1c002 	strb	ip, [r1, r2]
    2eb0:	e5840014 	str	r0, [r4, #20]
    2eb4:	e5843004 	str	r3, [r4, #4]
    2eb8:	eafffbd2 	b	1e08 <deflate+0x98>
    2ebc:	e3510001 	cmp	r1, #1
    2ec0:	daffff6b 	ble	2c74 <deflate+0xf04>
    2ec4:	e3a06000 	mov	r6, #0
    2ec8:	eaffff6a 	b	2c78 <deflate+0xf08>
    2ecc:	e3500001 	cmp	r0, #1
    2ed0:	caffffef 	bgt	2e94 <deflate+0x1124>
    2ed4:	eaffffed 	b	2e90 <deflate+0x1120>

00002ed8 <deflateParams>:
    2ed8:	e3500000 	cmp	r0, #0
    2edc:	e92d40f8 	push	{r3, r4, r5, r6, r7, lr}
    2ee0:	e1a05001 	mov	r5, r1
    2ee4:	e1a06002 	mov	r6, r2
    2ee8:	0a000036 	beq	2fc8 <deflateParams+0xf0>
    2eec:	e590401c 	ldr	r4, [r0, #28]
    2ef0:	e3540000 	cmp	r4, #0
    2ef4:	0a000033 	beq	2fc8 <deflateParams+0xf0>
    2ef8:	e3710001 	cmn	r1, #1
    2efc:	0a000022 	beq	2f8c <deflateParams+0xb4>
    2f00:	e3510009 	cmp	r1, #9
    2f04:	93a03000 	movls	r3, #0
    2f08:	83a03001 	movhi	r3, #1
    2f0c:	e1932fa6 	orrs	r2, r3, r6, lsr #31
    2f10:	1a00002c 	bne	2fc8 <deflateParams+0xf0>
    2f14:	e3560004 	cmp	r6, #4
    2f18:	ca00002a 	bgt	2fc8 <deflateParams+0xf0>
    2f1c:	e5943084 	ldr	r3, [r4, #132]	; 0x84
    2f20:	e59f70a8 	ldr	r7, [pc, #168]	; 2fd0 <deflateParams+0xf8>
    2f24:	e594c088 	ldr	ip, [r4, #136]	; 0x88
    2f28:	e0831083 	add	r1, r3, r3, lsl #1
    2f2c:	e0871101 	add	r1, r7, r1, lsl #2
    2f30:	e15c0006 	cmp	ip, r6
    2f34:	e5911008 	ldr	r1, [r1, #8]
    2f38:	0a000016 	beq	2f98 <deflateParams+0xc0>
    2f3c:	e5902008 	ldr	r2, [r0, #8]
    2f40:	e3520000 	cmp	r2, #0
    2f44:	1a00001b 	bne	2fb8 <deflateParams+0xe0>
    2f48:	e1a00002 	mov	r0, r2
    2f4c:	e1550003 	cmp	r5, r3
    2f50:	0a00000b 	beq	2f84 <deflateParams+0xac>
    2f54:	e0853085 	add	r3, r5, r5, lsl #1
    2f58:	e1a03103 	lsl	r3, r3, #2
    2f5c:	e0872003 	add	r2, r7, r3
    2f60:	e1d2c0b2 	ldrh	ip, [r2, #2]
    2f64:	e19770b3 	ldrh	r7, [r7, r3]
    2f68:	e1d210b4 	ldrh	r1, [r2, #4]
    2f6c:	e1d230b6 	ldrh	r3, [r2, #6]
    2f70:	e5845084 	str	r5, [r4, #132]	; 0x84
    2f74:	e584708c 	str	r7, [r4, #140]	; 0x8c
    2f78:	e584c080 	str	ip, [r4, #128]	; 0x80
    2f7c:	e5841090 	str	r1, [r4, #144]	; 0x90
    2f80:	e584307c 	str	r3, [r4, #124]	; 0x7c
    2f84:	e5846088 	str	r6, [r4, #136]	; 0x88
    2f88:	e8bd80f8 	pop	{r3, r4, r5, r6, r7, pc}
    2f8c:	e3a03000 	mov	r3, #0
    2f90:	e3a05006 	mov	r5, #6
    2f94:	eaffffdc 	b	2f0c <deflateParams+0x34>
    2f98:	e085c085 	add	ip, r5, r5, lsl #1
    2f9c:	e087c10c 	add	ip, r7, ip, lsl #2
    2fa0:	e59cc008 	ldr	ip, [ip, #8]
    2fa4:	e15c0001 	cmp	ip, r1
    2fa8:	0affffe6 	beq	2f48 <deflateParams+0x70>
    2fac:	e5902008 	ldr	r2, [r0, #8]
    2fb0:	e3520000 	cmp	r2, #0
    2fb4:	0affffe3 	beq	2f48 <deflateParams+0x70>
    2fb8:	e3a01005 	mov	r1, #5
    2fbc:	ebfffb6b 	bl	1d70 <deflate>
    2fc0:	e5943084 	ldr	r3, [r4, #132]	; 0x84
    2fc4:	eaffffe0 	b	2f4c <deflateParams+0x74>
    2fc8:	e3e00001 	mvn	r0, #1
    2fcc:	e8bd80f8 	pop	{r3, r4, r5, r6, r7, pc}
    2fd0:	0000b138 	andeq	fp, r0, r8, lsr r1

00002fd4 <deflateEnd>:
    2fd4:	e92d4038 	push	{r3, r4, r5, lr}
    2fd8:	e2504000 	subs	r4, r0, #0
    2fdc:	0a000035 	beq	30b8 <deflateEnd+0xe4>
    2fe0:	e594301c 	ldr	r3, [r4, #28]
    2fe4:	e3530000 	cmp	r3, #0
    2fe8:	0a000032 	beq	30b8 <deflateEnd+0xe4>
    2fec:	e5935004 	ldr	r5, [r3, #4]
    2ff0:	e3550045 	cmp	r5, #69	; 0x45
    2ff4:	1355002a 	cmpne	r5, #42	; 0x2a
    2ff8:	1a000025 	bne	3094 <deflateEnd+0xc0>
    2ffc:	e5931008 	ldr	r1, [r3, #8]
    3000:	e3510000 	cmp	r1, #0
    3004:	0a000003 	beq	3018 <deflateEnd+0x44>
    3008:	e5943024 	ldr	r3, [r4, #36]	; 0x24
    300c:	e5940028 	ldr	r0, [r4, #40]	; 0x28
    3010:	e12fff33 	blx	r3
    3014:	e594301c 	ldr	r3, [r4, #28]
    3018:	e5931044 	ldr	r1, [r3, #68]	; 0x44
    301c:	e3510000 	cmp	r1, #0
    3020:	0a000003 	beq	3034 <deflateEnd+0x60>
    3024:	e5943024 	ldr	r3, [r4, #36]	; 0x24
    3028:	e5940028 	ldr	r0, [r4, #40]	; 0x28
    302c:	e12fff33 	blx	r3
    3030:	e594301c 	ldr	r3, [r4, #28]
    3034:	e5931040 	ldr	r1, [r3, #64]	; 0x40
    3038:	e3510000 	cmp	r1, #0
    303c:	0a000003 	beq	3050 <deflateEnd+0x7c>
    3040:	e5943024 	ldr	r3, [r4, #36]	; 0x24
    3044:	e5940028 	ldr	r0, [r4, #40]	; 0x28
    3048:	e12fff33 	blx	r3
    304c:	e594301c 	ldr	r3, [r4, #28]
    3050:	e5931038 	ldr	r1, [r3, #56]	; 0x38
    3054:	e3510000 	cmp	r1, #0
    3058:	0a000003 	beq	306c <deflateEnd+0x98>
    305c:	e5943024 	ldr	r3, [r4, #36]	; 0x24
    3060:	e5940028 	ldr	r0, [r4, #40]	; 0x28
    3064:	e12fff33 	blx	r3
    3068:	e594301c 	ldr	r3, [r4, #28]
    306c:	e1a01003 	mov	r1, r3
    3070:	e5940028 	ldr	r0, [r4, #40]	; 0x28
    3074:	e5943024 	ldr	r3, [r4, #36]	; 0x24
    3078:	e12fff33 	blx	r3
    307c:	e3a03000 	mov	r3, #0
    3080:	e3550071 	cmp	r5, #113	; 0x71
    3084:	11a00003 	movne	r0, r3
    3088:	03e00002 	mvneq	r0, #2
    308c:	e584301c 	str	r3, [r4, #28]
    3090:	e8bd8038 	pop	{r3, r4, r5, pc}
    3094:	e355005b 	cmp	r5, #91	; 0x5b
    3098:	13550049 	cmpne	r5, #73	; 0x49
    309c:	0affffd6 	beq	2ffc <deflateEnd+0x28>
    30a0:	e3550071 	cmp	r5, #113	; 0x71
    30a4:	13550067 	cmpne	r5, #103	; 0x67
    30a8:	0affffd3 	beq	2ffc <deflateEnd+0x28>
    30ac:	e59f200c 	ldr	r2, [pc, #12]	; 30c0 <deflateEnd+0xec>
    30b0:	e1550002 	cmp	r5, r2
    30b4:	0affffd0 	beq	2ffc <deflateEnd+0x28>
    30b8:	e3e00001 	mvn	r0, #1
    30bc:	e8bd8038 	pop	{r3, r4, r5, pc}
    30c0:	0000029a 	muleq	r0, sl, r2

000030c4 <deflateInit2_>:
    30c4:	e92d4ff0 	push	{r4, r5, r6, r7, r8, r9, sl, fp, lr}
    30c8:	e24dd00c 	sub	sp, sp, #12
    30cc:	e59dc038 	ldr	ip, [sp, #56]	; 0x38
    30d0:	e1a07001 	mov	r7, r1
    30d4:	e35c0000 	cmp	ip, #0
    30d8:	e1a05000 	mov	r5, r0
    30dc:	e1a06003 	mov	r6, r3
    30e0:	e59d8030 	ldr	r8, [sp, #48]	; 0x30
    30e4:	e59da034 	ldr	sl, [sp, #52]	; 0x34
    30e8:	e59d103c 	ldr	r1, [sp, #60]	; 0x3c
    30ec:	0a00008a 	beq	331c <deflateInit2_+0x258>
    30f0:	e5dc3000 	ldrb	r3, [ip]
    30f4:	e3530031 	cmp	r3, #49	; 0x31
    30f8:	1a000087 	bne	331c <deflateInit2_+0x258>
    30fc:	e3510038 	cmp	r1, #56	; 0x38
    3100:	1a000085 	bne	331c <deflateInit2_+0x258>
    3104:	e3500000 	cmp	r0, #0
    3108:	0a000086 	beq	3328 <deflateInit2_+0x264>
    310c:	e5903020 	ldr	r3, [r0, #32]
    3110:	e3a01000 	mov	r1, #0
    3114:	e1530001 	cmp	r3, r1
    3118:	05803028 	streq	r3, [r0, #40]	; 0x28
    311c:	e5801018 	str	r1, [r0, #24]
    3120:	e5903024 	ldr	r3, [r0, #36]	; 0x24
    3124:	059f1230 	ldreq	r1, [pc, #560]	; 335c <deflateInit2_+0x298>
    3128:	05801020 	streq	r1, [r0, #32]
    312c:	e3530000 	cmp	r3, #0
    3130:	059f3228 	ldreq	r3, [pc, #552]	; 3360 <deflateInit2_+0x29c>
    3134:	05803024 	streq	r3, [r0, #36]	; 0x24
    3138:	e3770001 	cmn	r7, #1
    313c:	03a07006 	moveq	r7, #6
    3140:	e3560000 	cmp	r6, #0
    3144:	b2666000 	rsblt	r6, r6, #0
    3148:	b3a03000 	movlt	r3, #0
    314c:	ba000003 	blt	3160 <deflateInit2_+0x9c>
    3150:	e356000f 	cmp	r6, #15
    3154:	c2466010 	subgt	r6, r6, #16
    3158:	c3a03002 	movgt	r3, #2
    315c:	d3a03001 	movle	r3, #1
    3160:	e2481001 	sub	r1, r8, #1
    3164:	e3510008 	cmp	r1, #8
    3168:	8a00006e 	bhi	3328 <deflateInit2_+0x264>
    316c:	e2522008 	subs	r2, r2, #8
    3170:	13a02001 	movne	r2, #1
    3174:	e3560007 	cmp	r6, #7
    3178:	d3822001 	orrle	r2, r2, #1
    317c:	e3520000 	cmp	r2, #0
    3180:	1a000068 	bne	3328 <deflateInit2_+0x264>
    3184:	e356000f 	cmp	r6, #15
    3188:	d3a02000 	movle	r2, #0
    318c:	c3a02001 	movgt	r2, #1
    3190:	e1922fa7 	orrs	r2, r2, r7, lsr #31
    3194:	1a000063 	bne	3328 <deflateInit2_+0x264>
    3198:	e1a09faa 	lsr	r9, sl, #31
    319c:	e3570009 	cmp	r7, #9
    31a0:	c3899001 	orrgt	r9, r9, #1
    31a4:	e3590000 	cmp	r9, #0
    31a8:	1a00005e 	bne	3328 <deflateInit2_+0x264>
    31ac:	e35a0004 	cmp	sl, #4
    31b0:	ca00005c 	bgt	3328 <deflateInit2_+0x264>
    31b4:	e595c020 	ldr	ip, [r5, #32]
    31b8:	e5950028 	ldr	r0, [r5, #40]	; 0x28
    31bc:	e3a01001 	mov	r1, #1
    31c0:	e58d3004 	str	r3, [sp, #4]
    31c4:	e59f2198 	ldr	r2, [pc, #408]	; 3364 <deflateInit2_+0x2a0>
    31c8:	e12fff3c 	blx	ip
    31cc:	e3560008 	cmp	r6, #8
    31d0:	03a06009 	moveq	r6, #9
    31d4:	e2504000 	subs	r4, r0, #0
    31d8:	e59d3004 	ldr	r3, [sp, #4]
    31dc:	0a00005c 	beq	3354 <deflateInit2_+0x290>
    31e0:	e59fc180 	ldr	ip, [pc, #384]	; 3368 <deflateInit2_+0x2a4>
    31e4:	e288e009 	add	lr, r8, #9
    31e8:	e08ece9c 	umull	ip, lr, ip, lr
    31ec:	e3a0b001 	mov	fp, #1
    31f0:	e2880007 	add	r0, r8, #7
    31f4:	e1a0161b 	lsl	r1, fp, r6
    31f8:	e1a0201b 	lsl	r2, fp, r0
    31fc:	e1a0eb3e 	lsr	lr, lr, fp
    3200:	e585401c 	str	r4, [r5, #28]
    3204:	e241c001 	sub	ip, r1, #1
    3208:	e5843018 	str	r3, [r4, #24]
    320c:	e2423001 	sub	r3, r2, #1
    3210:	e584c034 	str	ip, [r4, #52]	; 0x34
    3214:	e584e058 	str	lr, [r4, #88]	; 0x58
    3218:	e5846030 	str	r6, [r4, #48]	; 0x30
    321c:	e584102c 	str	r1, [r4, #44]	; 0x2c
    3220:	e5840050 	str	r0, [r4, #80]	; 0x50
    3224:	e584204c 	str	r2, [r4, #76]	; 0x4c
    3228:	e5843054 	str	r3, [r4, #84]	; 0x54
    322c:	e3a02002 	mov	r2, #2
    3230:	e5953020 	ldr	r3, [r5, #32]
    3234:	e5845000 	str	r5, [r4]
    3238:	e584901c 	str	r9, [r4, #28]
    323c:	e5950028 	ldr	r0, [r5, #40]	; 0x28
    3240:	e12fff33 	blx	r3
    3244:	e5953020 	ldr	r3, [r5, #32]
    3248:	e594102c 	ldr	r1, [r4, #44]	; 0x2c
    324c:	e5840038 	str	r0, [r4, #56]	; 0x38
    3250:	e3a02002 	mov	r2, #2
    3254:	e5950028 	ldr	r0, [r5, #40]	; 0x28
    3258:	e12fff33 	blx	r3
    325c:	e2888006 	add	r8, r8, #6
    3260:	e5953020 	ldr	r3, [r5, #32]
    3264:	e594104c 	ldr	r1, [r4, #76]	; 0x4c
    3268:	e5840040 	str	r0, [r4, #64]	; 0x40
    326c:	e3a02002 	mov	r2, #2
    3270:	e5950028 	ldr	r0, [r5, #40]	; 0x28
    3274:	e12fff33 	blx	r3
    3278:	e1a0181b 	lsl	r1, fp, r8
    327c:	e59f60e8 	ldr	r6, [pc, #232]	; 336c <deflateInit2_+0x2a8>
    3280:	e3a03d5b 	mov	r3, #5824	; 0x16c0
    3284:	e5840044 	str	r0, [r4, #68]	; 0x44
    3288:	e7841006 	str	r1, [r4, r6]
    328c:	e7849003 	str	r9, [r4, r3]
    3290:	e3a02004 	mov	r2, #4
    3294:	e5953020 	ldr	r3, [r5, #32]
    3298:	e5950028 	ldr	r0, [r5, #40]	; 0x28
    329c:	e12fff33 	blx	r3
    32a0:	e7943006 	ldr	r3, [r4, r6]
    32a4:	e5941038 	ldr	r1, [r4, #56]	; 0x38
    32a8:	e1a02103 	lsl	r2, r3, #2
    32ac:	e3510000 	cmp	r1, #0
    32b0:	e5840008 	str	r0, [r4, #8]
    32b4:	e584200c 	str	r2, [r4, #12]
    32b8:	0a00001c 	beq	3330 <deflateInit2_+0x26c>
    32bc:	e5942040 	ldr	r2, [r4, #64]	; 0x40
    32c0:	e3520000 	cmp	r2, #0
    32c4:	0a000019 	beq	3330 <deflateInit2_+0x26c>
    32c8:	e5942044 	ldr	r2, [r4, #68]	; 0x44
    32cc:	e3520000 	cmp	r2, #0
    32d0:	0a000016 	beq	3330 <deflateInit2_+0x26c>
    32d4:	e3500000 	cmp	r0, #0
    32d8:	0a000014 	beq	3330 <deflateInit2_+0x26c>
    32dc:	e3c36001 	bic	r6, r3, #1
    32e0:	e59fc088 	ldr	ip, [pc, #136]	; 3370 <deflateInit2_+0x2ac>
    32e4:	e59f1088 	ldr	r1, [pc, #136]	; 3374 <deflateInit2_+0x2b0>
    32e8:	e0833083 	add	r3, r3, r3, lsl #1
    32ec:	e0806006 	add	r6, r0, r6
    32f0:	e0803003 	add	r3, r0, r3
    32f4:	e3a02008 	mov	r2, #8
    32f8:	e1a00005 	mov	r0, r5
    32fc:	e5847084 	str	r7, [r4, #132]	; 0x84
    3300:	e584a088 	str	sl, [r4, #136]	; 0x88
    3304:	e784600c 	str	r6, [r4, ip]
    3308:	e7843001 	str	r3, [r4, r1]
    330c:	e5c42024 	strb	r2, [r4, #36]	; 0x24
    3310:	e28dd00c 	add	sp, sp, #12
    3314:	e8bd4ff0 	pop	{r4, r5, r6, r7, r8, r9, sl, fp, lr}
    3318:	eafff9c7 	b	1a3c <deflateReset>
    331c:	e3e00005 	mvn	r0, #5
    3320:	e28dd00c 	add	sp, sp, #12
    3324:	e8bd8ff0 	pop	{r4, r5, r6, r7, r8, r9, sl, fp, pc}
    3328:	e3e00001 	mvn	r0, #1
    332c:	eafffffb 	b	3320 <deflateInit2_+0x25c>
    3330:	e59f3040 	ldr	r3, [pc, #64]	; 3378 <deflateInit2_+0x2b4>
    3334:	e59f2040 	ldr	r2, [pc, #64]	; 337c <deflateInit2_+0x2b8>
    3338:	e5933018 	ldr	r3, [r3, #24]
    333c:	e5842004 	str	r2, [r4, #4]
    3340:	e1a00005 	mov	r0, r5
    3344:	e5853018 	str	r3, [r5, #24]
    3348:	ebffff21 	bl	2fd4 <deflateEnd>
    334c:	e3e00003 	mvn	r0, #3
    3350:	eafffff2 	b	3320 <deflateInit2_+0x25c>
    3354:	e3e00003 	mvn	r0, #3
    3358:	eafffff0 	b	3320 <deflateInit2_+0x25c>
    335c:	000035ac 	andeq	r3, r0, ip, lsr #11
    3360:	000035b4 			; <UNDEFINED> instruction: 0x000035b4
    3364:	000016c4 	andeq	r1, r0, r4, asr #13
    3368:	aaaaaaab 	bge	feaade1c <complen+0xfea9c324>
    336c:	0000169c 	muleq	r0, ip, r6
    3370:	000016a4 	andeq	r1, r0, r4, lsr #13
    3374:	00001698 	muleq	r0, r8, r6
    3378:	0000b1f4 	strdeq	fp, [r0], -r4
    337c:	0000029a 	muleq	r0, sl, r2

00003380 <deflateInit_>:
    3380:	e52de004 	push	{lr}		; (str lr, [sp, #-4]!)
    3384:	e3a0c008 	mov	ip, #8
    3388:	e24dd014 	sub	sp, sp, #20
    338c:	e3a0e000 	mov	lr, #0
    3390:	e58d2008 	str	r2, [sp, #8]
    3394:	e58d300c 	str	r3, [sp, #12]
    3398:	e58dc000 	str	ip, [sp]
    339c:	e1a0200c 	mov	r2, ip
    33a0:	e58de004 	str	lr, [sp, #4]
    33a4:	e3a0300f 	mov	r3, #15
    33a8:	ebffff45 	bl	30c4 <deflateInit2_>
    33ac:	e28dd014 	add	sp, sp, #20
    33b0:	e8bd8000 	pop	{pc}

000033b4 <deflateCopy>:
    33b4:	e3500000 	cmp	r0, #0
    33b8:	13510000 	cmpne	r1, #0
    33bc:	e92d45f8 	push	{r3, r4, r5, r6, r7, r8, sl, lr}
    33c0:	13a0a000 	movne	sl, #0
    33c4:	03a0a001 	moveq	sl, #1
    33c8:	e1a05000 	mov	r5, r0
    33cc:	0a000060 	beq	3554 <deflateCopy+0x1a0>
    33d0:	e591601c 	ldr	r6, [r1, #28]
    33d4:	e3560000 	cmp	r6, #0
    33d8:	0a00005d 	beq	3554 <deflateCopy+0x1a0>
    33dc:	e3a02038 	mov	r2, #56	; 0x38
    33e0:	ebfff317 	bl	44 <ZMEMCPY>
    33e4:	e5953020 	ldr	r3, [r5, #32]
    33e8:	e5950028 	ldr	r0, [r5, #40]	; 0x28
    33ec:	e3a01001 	mov	r1, #1
    33f0:	e59f217c 	ldr	r2, [pc, #380]	; 3574 <deflateCopy+0x1c0>
    33f4:	e12fff33 	blx	r3
    33f8:	e2504000 	subs	r4, r0, #0
    33fc:	0a00005a 	beq	356c <deflateCopy+0x1b8>
    3400:	e1a01006 	mov	r1, r6
    3404:	e59f2168 	ldr	r2, [pc, #360]	; 3574 <deflateCopy+0x1c0>
    3408:	e585401c 	str	r4, [r5, #28]
    340c:	ebfff30c 	bl	44 <ZMEMCPY>
    3410:	e5953020 	ldr	r3, [r5, #32]
    3414:	e594102c 	ldr	r1, [r4, #44]	; 0x2c
    3418:	e3a02002 	mov	r2, #2
    341c:	e5845000 	str	r5, [r4]
    3420:	e5950028 	ldr	r0, [r5, #40]	; 0x28
    3424:	e12fff33 	blx	r3
    3428:	e5953020 	ldr	r3, [r5, #32]
    342c:	e594102c 	ldr	r1, [r4, #44]	; 0x2c
    3430:	e5840038 	str	r0, [r4, #56]	; 0x38
    3434:	e3a02002 	mov	r2, #2
    3438:	e5950028 	ldr	r0, [r5, #40]	; 0x28
    343c:	e12fff33 	blx	r3
    3440:	e5953020 	ldr	r3, [r5, #32]
    3444:	e594104c 	ldr	r1, [r4, #76]	; 0x4c
    3448:	e5840040 	str	r0, [r4, #64]	; 0x40
    344c:	e3a02002 	mov	r2, #2
    3450:	e5950028 	ldr	r0, [r5, #40]	; 0x28
    3454:	e12fff33 	blx	r3
    3458:	e59f8118 	ldr	r8, [pc, #280]	; 3578 <deflateCopy+0x1c4>
    345c:	e5840044 	str	r0, [r4, #68]	; 0x44
    3460:	e7941008 	ldr	r1, [r4, r8]
    3464:	e5953020 	ldr	r3, [r5, #32]
    3468:	e5950028 	ldr	r0, [r5, #40]	; 0x28
    346c:	e3a02004 	mov	r2, #4
    3470:	e12fff33 	blx	r3
    3474:	e1a07000 	mov	r7, r0
    3478:	e5940038 	ldr	r0, [r4, #56]	; 0x38
    347c:	e5847008 	str	r7, [r4, #8]
    3480:	e3500000 	cmp	r0, #0
    3484:	0a000034 	beq	355c <deflateCopy+0x1a8>
    3488:	e5943040 	ldr	r3, [r4, #64]	; 0x40
    348c:	e3530000 	cmp	r3, #0
    3490:	0a000031 	beq	355c <deflateCopy+0x1a8>
    3494:	e5943044 	ldr	r3, [r4, #68]	; 0x44
    3498:	e3530000 	cmp	r3, #0
    349c:	0a00002e 	beq	355c <deflateCopy+0x1a8>
    34a0:	e3570000 	cmp	r7, #0
    34a4:	0a00002c 	beq	355c <deflateCopy+0x1a8>
    34a8:	e594202c 	ldr	r2, [r4, #44]	; 0x2c
    34ac:	e5961038 	ldr	r1, [r6, #56]	; 0x38
    34b0:	e1a02082 	lsl	r2, r2, #1
    34b4:	ebfff2e2 	bl	44 <ZMEMCPY>
    34b8:	e594202c 	ldr	r2, [r4, #44]	; 0x2c
    34bc:	e5961040 	ldr	r1, [r6, #64]	; 0x40
    34c0:	e5940040 	ldr	r0, [r4, #64]	; 0x40
    34c4:	e1a02082 	lsl	r2, r2, #1
    34c8:	ebfff2dd 	bl	44 <ZMEMCPY>
    34cc:	e594204c 	ldr	r2, [r4, #76]	; 0x4c
    34d0:	e5961044 	ldr	r1, [r6, #68]	; 0x44
    34d4:	e5940044 	ldr	r0, [r4, #68]	; 0x44
    34d8:	e1a02082 	lsl	r2, r2, #1
    34dc:	ebfff2d8 	bl	44 <ZMEMCPY>
    34e0:	e5961008 	ldr	r1, [r6, #8]
    34e4:	e594200c 	ldr	r2, [r4, #12]
    34e8:	e5940008 	ldr	r0, [r4, #8]
    34ec:	ebfff2d4 	bl	44 <ZMEMCPY>
    34f0:	e7943008 	ldr	r3, [r4, r8]
    34f4:	e596c010 	ldr	ip, [r6, #16]
    34f8:	e5961008 	ldr	r1, [r6, #8]
    34fc:	e5942008 	ldr	r2, [r4, #8]
    3500:	e3c30001 	bic	r0, r3, #1
    3504:	e061100c 	rsb	r1, r1, ip
    3508:	e59f806c 	ldr	r8, [pc, #108]	; 357c <deflateCopy+0x1c8>
    350c:	e59f606c 	ldr	r6, [pc, #108]	; 3580 <deflateCopy+0x1cc>
    3510:	e2845d26 	add	r5, r4, #2432	; 0x980
    3514:	e284cea7 	add	ip, r4, #2672	; 0xa70
    3518:	e0833083 	add	r3, r3, r3, lsl #1
    351c:	e0877000 	add	r7, r7, r0
    3520:	e0823003 	add	r3, r2, r3
    3524:	e2855008 	add	r5, r5, #8
    3528:	e0822001 	add	r2, r2, r1
    352c:	e28cc00c 	add	ip, ip, #12
    3530:	e2841094 	add	r1, r4, #148	; 0x94
    3534:	e1a0000a 	mov	r0, sl
    3538:	e7847008 	str	r7, [r4, r8]
    353c:	e7843006 	str	r3, [r4, r6]
    3540:	e5842010 	str	r2, [r4, #16]
    3544:	e5845b24 	str	r5, [r4, #2852]	; 0xb24
    3548:	e584cb30 	str	ip, [r4, #2864]	; 0xb30
    354c:	e5841b18 	str	r1, [r4, #2840]	; 0xb18
    3550:	e8bd85f8 	pop	{r3, r4, r5, r6, r7, r8, sl, pc}
    3554:	e3e00001 	mvn	r0, #1
    3558:	e8bd85f8 	pop	{r3, r4, r5, r6, r7, r8, sl, pc}
    355c:	e1a00005 	mov	r0, r5
    3560:	ebfffe9b 	bl	2fd4 <deflateEnd>
    3564:	e3e00003 	mvn	r0, #3
    3568:	e8bd85f8 	pop	{r3, r4, r5, r6, r7, r8, sl, pc}
    356c:	e3e00003 	mvn	r0, #3
    3570:	e8bd85f8 	pop	{r3, r4, r5, r6, r7, r8, sl, pc}
    3574:	000016c4 	andeq	r1, r0, r4, asr #13
    3578:	0000169c 	muleq	r0, ip, r6
    357c:	000016a4 	andeq	r1, r0, r4, lsr #13
    3580:	00001698 	muleq	r0, r8, r6

00003584 <zlibVersion>:
    3584:	e59f0000 	ldr	r0, [pc]	; 358c <zlibVersion+0x8>
    3588:	e12fff1e 	bx	lr
    358c:	0000ca24 	andeq	ip, r0, r4, lsr #20

00003590 <zlibCompileFlags>:
    3590:	e3a00055 	mov	r0, #85	; 0x55
    3594:	e12fff1e 	bx	lr

00003598 <zError>:
    3598:	e59f3008 	ldr	r3, [pc, #8]	; 35a8 <zError+0x10>
    359c:	e2600002 	rsb	r0, r0, #2
    35a0:	e7930100 	ldr	r0, [r3, r0, lsl #2]
    35a4:	e12fff1e 	bx	lr
    35a8:	0000b1f4 	strdeq	fp, [r0], -r4

000035ac <zcalloc>:
    35ac:	e0000291 	mul	r0, r1, r2
    35b0:	eafff2b5 	b	8c <ZMALLOC>

000035b4 <zcfree>:
    35b4:	e1a00001 	mov	r0, r1
    35b8:	eafff2cd 	b	f4 <free>

000035bc <adler32_combine_.part.0>:
    35bc:	e59fc0a0 	ldr	ip, [pc, #160]	; 3664 <adler32_combine_.part.0+0xa8>
    35c0:	e92d0030 	push	{r4, r5}
    35c4:	e0c3429c 	smull	r4, r3, ip, r2
    35c8:	e1a04fc2 	asr	r4, r2, #31
    35cc:	e0833002 	add	r3, r3, r2
    35d0:	e06437c3 	rsb	r3, r4, r3, asr #15
    35d4:	e0634603 	rsb	r4, r3, r3, lsl #12
    35d8:	e0833204 	add	r3, r3, r4, lsl #4
    35dc:	e0633002 	rsb	r3, r3, r2
    35e0:	e6ff4070 	uxth	r4, r0
    35e4:	e0050394 	mul	r5, r4, r3
    35e8:	e08c259c 	umull	r2, ip, ip, r5
    35ec:	e1a0c7ac 	lsr	ip, ip, #15
    35f0:	e06c260c 	rsb	r2, ip, ip, lsl #12
    35f4:	e1a00820 	lsr	r0, r0, #16
    35f8:	e0800821 	add	r0, r0, r1, lsr #16
    35fc:	e08cc202 	add	ip, ip, r2, lsl #4
    3600:	e0633000 	rsb	r3, r3, r0
    3604:	e06c5005 	rsb	r5, ip, r5
    3608:	e6f44071 	uxtah	r4, r4, r1
    360c:	e0833005 	add	r3, r3, r5
    3610:	e3540000 	cmp	r4, #0
    3614:	e2832cff 	add	r2, r3, #65280	; 0xff00
    3618:	e28220f1 	add	r2, r2, #241	; 0xf1
    361c:	059f0044 	ldreq	r0, [pc, #68]	; 3668 <adler32_combine_.part.0+0xac>
    3620:	0a000004 	beq	3638 <adler32_combine_.part.0+0x7c>
    3624:	e59f103c 	ldr	r1, [pc, #60]	; 3668 <adler32_combine_.part.0+0xac>
    3628:	e2440001 	sub	r0, r4, #1
    362c:	e1500001 	cmp	r0, r1
    3630:	82444cff 	subhi	r4, r4, #65280	; 0xff00
    3634:	824400f2 	subhi	r0, r4, #242	; 0xf2
    3638:	e59f102c 	ldr	r1, [pc, #44]	; 366c <adler32_combine_.part.0+0xb0>
    363c:	e1520001 	cmp	r2, r1
    3640:	82433cff 	subhi	r3, r3, #65280	; 0xff00
    3644:	824320f1 	subhi	r2, r3, #241	; 0xf1
    3648:	e59f3018 	ldr	r3, [pc, #24]	; 3668 <adler32_combine_.part.0+0xac>
    364c:	e1520003 	cmp	r2, r3
    3650:	82422cff 	subhi	r2, r2, #65280	; 0xff00
    3654:	824220f1 	subhi	r2, r2, #241	; 0xf1
    3658:	e1800802 	orr	r0, r0, r2, lsl #16
    365c:	e8bd0030 	pop	{r4, r5}
    3660:	e12fff1e 	bx	lr
    3664:	80078071 	andhi	r8, r7, r1, ror r0
    3668:	0000fff0 	strdeq	pc, [r0], -r0
    366c:	0001ffe1 	andeq	pc, r1, r1, ror #31

00003670 <adler32>:
    3670:	e3520001 	cmp	r2, #1
    3674:	e92d07f0 	push	{r4, r5, r6, r7, r8, r9, sl}
    3678:	e1a03001 	mov	r3, r1
    367c:	e1a05820 	lsr	r5, r0, #16
    3680:	e6ff0070 	uxth	r0, r0
    3684:	0a000064 	beq	381c <adler32+0x1ac>
    3688:	e3510000 	cmp	r1, #0
    368c:	0a0000c3 	beq	39a0 <adler32+0x330>
    3690:	e352000f 	cmp	r2, #15
    3694:	8a000014 	bhi	36ec <adler32+0x7c>
    3698:	e3520000 	cmp	r2, #0
    369c:	0a000005 	beq	36b8 <adler32+0x48>
    36a0:	e0812002 	add	r2, r1, r2
    36a4:	e4d31001 	ldrb	r1, [r3], #1
    36a8:	e0800001 	add	r0, r0, r1
    36ac:	e1530002 	cmp	r3, r2
    36b0:	e0855000 	add	r5, r5, r0
    36b4:	1afffffa 	bne	36a4 <adler32+0x34>
    36b8:	e59f32f0 	ldr	r3, [pc, #752]	; 39b0 <adler32+0x340>
    36bc:	e1500003 	cmp	r0, r3
    36c0:	e59f32ec 	ldr	r3, [pc, #748]	; 39b4 <adler32+0x344>
    36c4:	82400cff 	subhi	r0, r0, #65280	; 0xff00
    36c8:	e0831593 	umull	r1, r3, r3, r5
    36cc:	e1a037a3 	lsr	r3, r3, #15
    36d0:	e0632603 	rsb	r2, r3, r3, lsl #12
    36d4:	e0833202 	add	r3, r3, r2, lsl #4
    36d8:	824000f1 	subhi	r0, r0, #241	; 0xf1
    36dc:	e0635005 	rsb	r5, r3, r5
    36e0:	e1800805 	orr	r0, r0, r5, lsl #16
    36e4:	e8bd07f0 	pop	{r4, r5, r6, r7, r8, r9, sl}
    36e8:	e12fff1e 	bx	lr
    36ec:	e59f82c4 	ldr	r8, [pc, #708]	; 39b8 <adler32+0x348>
    36f0:	e1520008 	cmp	r2, r8
    36f4:	859f72b8 	ldrhi	r7, [pc, #696]	; 39b4 <adler32+0x344>
    36f8:	9a000056 	bls	3858 <adler32+0x1e8>
    36fc:	e2422d56 	sub	r2, r2, #5504	; 0x1580
    3700:	e2836d56 	add	r6, r3, #5504	; 0x1580
    3704:	e2422030 	sub	r2, r2, #48	; 0x30
    3708:	e2866030 	add	r6, r6, #48	; 0x30
    370c:	e5d31000 	ldrb	r1, [r3]
    3710:	e5d34001 	ldrb	r4, [r3, #1]
    3714:	e0800001 	add	r0, r0, r1
    3718:	e5d3c002 	ldrb	ip, [r3, #2]
    371c:	e0804004 	add	r4, r0, r4
    3720:	e5d39003 	ldrb	r9, [r3, #3]
    3724:	e0840000 	add	r0, r4, r0
    3728:	e084c00c 	add	ip, r4, ip
    372c:	e5d31004 	ldrb	r1, [r3, #4]
    3730:	e080a00c 	add	sl, r0, ip
    3734:	e5d34005 	ldrb	r4, [r3, #5]
    3738:	e08cc009 	add	ip, ip, r9
    373c:	e08c1001 	add	r1, ip, r1
    3740:	e08aa00c 	add	sl, sl, ip
    3744:	e5d30006 	ldrb	r0, [r3, #6]
    3748:	e5d3c007 	ldrb	ip, [r3, #7]
    374c:	e08aa001 	add	sl, sl, r1
    3750:	e0811004 	add	r1, r1, r4
    3754:	e0810000 	add	r0, r1, r0
    3758:	e08aa001 	add	sl, sl, r1
    375c:	e5d34008 	ldrb	r4, [r3, #8]
    3760:	e5d31009 	ldrb	r1, [r3, #9]
    3764:	e08aa000 	add	sl, sl, r0
    3768:	e080000c 	add	r0, r0, ip
    376c:	e0804004 	add	r4, r0, r4
    3770:	e08aa000 	add	sl, sl, r0
    3774:	e5d3c00a 	ldrb	ip, [r3, #10]
    3778:	e5d3000b 	ldrb	r0, [r3, #11]
    377c:	e08aa004 	add	sl, sl, r4
    3780:	e0844001 	add	r4, r4, r1
    3784:	e08aa004 	add	sl, sl, r4
    3788:	e084c00c 	add	ip, r4, ip
    378c:	e5d3100c 	ldrb	r1, [r3, #12]
    3790:	e08a400c 	add	r4, sl, ip
    3794:	e08cc000 	add	ip, ip, r0
    3798:	e5d3a00d 	ldrb	sl, [r3, #13]
    379c:	e08c1001 	add	r1, ip, r1
    37a0:	e084400c 	add	r4, r4, ip
    37a4:	e5d3000e 	ldrb	r0, [r3, #14]
    37a8:	e0844001 	add	r4, r4, r1
    37ac:	e5d3c00f 	ldrb	ip, [r3, #15]
    37b0:	e081100a 	add	r1, r1, sl
    37b4:	e0810000 	add	r0, r1, r0
    37b8:	e0844001 	add	r4, r4, r1
    37bc:	e0841000 	add	r1, r4, r0
    37c0:	e2833010 	add	r3, r3, #16
    37c4:	e080000c 	add	r0, r0, ip
    37c8:	e0811000 	add	r1, r1, r0
    37cc:	e1560003 	cmp	r6, r3
    37d0:	e0855001 	add	r5, r5, r1
    37d4:	1affffcc 	bne	370c <adler32+0x9c>
    37d8:	e0813097 	umull	r3, r1, r7, r0
    37dc:	e083c597 	umull	ip, r3, r7, r5
    37e0:	e1a017a1 	lsr	r1, r1, #15
    37e4:	e1a037a3 	lsr	r3, r3, #15
    37e8:	e063c603 	rsb	ip, r3, r3, lsl #12
    37ec:	e0614601 	rsb	r4, r1, r1, lsl #12
    37f0:	e083c20c 	add	ip, r3, ip, lsl #4
    37f4:	e0811204 	add	r1, r1, r4, lsl #4
    37f8:	e1520008 	cmp	r2, r8
    37fc:	e1a03006 	mov	r3, r6
    3800:	e0610000 	rsb	r0, r1, r0
    3804:	e06c5005 	rsb	r5, ip, r5
    3808:	8affffbb 	bhi	36fc <adler32+0x8c>
    380c:	e3520000 	cmp	r2, #0
    3810:	1a00000e 	bne	3850 <adler32+0x1e0>
    3814:	e1800805 	orr	r0, r0, r5, lsl #16
    3818:	eaffffb1 	b	36e4 <adler32+0x74>
    381c:	e5d12000 	ldrb	r2, [r1]
    3820:	e59f3188 	ldr	r3, [pc, #392]	; 39b0 <adler32+0x340>
    3824:	e0820000 	add	r0, r2, r0
    3828:	e1500003 	cmp	r0, r3
    382c:	82400cff 	subhi	r0, r0, #65280	; 0xff00
    3830:	824000f1 	subhi	r0, r0, #241	; 0xf1
    3834:	e59f3174 	ldr	r3, [pc, #372]	; 39b0 <adler32+0x340>
    3838:	e0805005 	add	r5, r0, r5
    383c:	e1550003 	cmp	r5, r3
    3840:	82455cff 	subhi	r5, r5, #65280	; 0xff00
    3844:	824550f1 	subhi	r5, r5, #241	; 0xf1
    3848:	e1800805 	orr	r0, r0, r5, lsl #16
    384c:	eaffffa4 	b	36e4 <adler32+0x74>
    3850:	e352000f 	cmp	r2, #15
    3854:	9a000053 	bls	39a8 <adler32+0x338>
    3858:	e1a01002 	mov	r1, r2
    385c:	e1a0c003 	mov	ip, r3
    3860:	e5dc6000 	ldrb	r6, [ip]
    3864:	e5dc4001 	ldrb	r4, [ip, #1]
    3868:	e0806006 	add	r6, r0, r6
    386c:	e5dc0002 	ldrb	r0, [ip, #2]
    3870:	e0864004 	add	r4, r6, r4
    3874:	e5dc8003 	ldrb	r8, [ip, #3]
    3878:	e0846006 	add	r6, r4, r6
    387c:	e0840000 	add	r0, r4, r0
    3880:	e5dc4004 	ldrb	r4, [ip, #4]
    3884:	e0867000 	add	r7, r6, r0
    3888:	e0800008 	add	r0, r0, r8
    388c:	e5dc6005 	ldrb	r6, [ip, #5]
    3890:	e0804004 	add	r4, r0, r4
    3894:	e0877000 	add	r7, r7, r0
    3898:	e5dc0006 	ldrb	r0, [ip, #6]
    389c:	e0877004 	add	r7, r7, r4
    38a0:	e0844006 	add	r4, r4, r6
    38a4:	e5dc6007 	ldrb	r6, [ip, #7]
    38a8:	e0840000 	add	r0, r4, r0
    38ac:	e0877004 	add	r7, r7, r4
    38b0:	e5dc4008 	ldrb	r4, [ip, #8]
    38b4:	e0877000 	add	r7, r7, r0
    38b8:	e0800006 	add	r0, r0, r6
    38bc:	e5dc6009 	ldrb	r6, [ip, #9]
    38c0:	e0804004 	add	r4, r0, r4
    38c4:	e0877000 	add	r7, r7, r0
    38c8:	e5dc000a 	ldrb	r0, [ip, #10]
    38cc:	e0877004 	add	r7, r7, r4
    38d0:	e0844006 	add	r4, r4, r6
    38d4:	e5dc600b 	ldrb	r6, [ip, #11]
    38d8:	e0840000 	add	r0, r4, r0
    38dc:	e0877004 	add	r7, r7, r4
    38e0:	e5dc400c 	ldrb	r4, [ip, #12]
    38e4:	e0877000 	add	r7, r7, r0
    38e8:	e0800006 	add	r0, r0, r6
    38ec:	e5dc600d 	ldrb	r6, [ip, #13]
    38f0:	e0804004 	add	r4, r0, r4
    38f4:	e0877000 	add	r7, r7, r0
    38f8:	e5dc000e 	ldrb	r0, [ip, #14]
    38fc:	e0877004 	add	r7, r7, r4
    3900:	e0844006 	add	r4, r4, r6
    3904:	e5dc600f 	ldrb	r6, [ip, #15]
    3908:	e0840000 	add	r0, r4, r0
    390c:	e0877004 	add	r7, r7, r4
    3910:	e0874000 	add	r4, r7, r0
    3914:	e2411010 	sub	r1, r1, #16
    3918:	e0800006 	add	r0, r0, r6
    391c:	e0844000 	add	r4, r4, r0
    3920:	e351000f 	cmp	r1, #15
    3924:	e0855004 	add	r5, r5, r4
    3928:	e28cc010 	add	ip, ip, #16
    392c:	8affffcb 	bhi	3860 <adler32+0x1f0>
    3930:	e2421010 	sub	r1, r2, #16
    3934:	e3c1100f 	bic	r1, r1, #15
    3938:	e202200f 	and	r2, r2, #15
    393c:	e2811010 	add	r1, r1, #16
    3940:	e3520000 	cmp	r2, #0
    3944:	e0833001 	add	r3, r3, r1
    3948:	e2422001 	sub	r2, r2, #1
    394c:	0a000006 	beq	396c <adler32+0x2fc>
    3950:	e2822001 	add	r2, r2, #1
    3954:	e0831002 	add	r1, r3, r2
    3958:	e4d32001 	ldrb	r2, [r3], #1
    395c:	e0800002 	add	r0, r0, r2
    3960:	e1530001 	cmp	r3, r1
    3964:	e0855000 	add	r5, r5, r0
    3968:	1afffffa 	bne	3958 <adler32+0x2e8>
    396c:	e59f3040 	ldr	r3, [pc, #64]	; 39b4 <adler32+0x344>
    3970:	e0821093 	umull	r1, r2, r3, r0
    3974:	e083c593 	umull	ip, r3, r3, r5
    3978:	e1a027a2 	lsr	r2, r2, #15
    397c:	e1a037a3 	lsr	r3, r3, #15
    3980:	e062c602 	rsb	ip, r2, r2, lsl #12
    3984:	e0631603 	rsb	r1, r3, r3, lsl #12
    3988:	e082220c 	add	r2, r2, ip, lsl #4
    398c:	e0833201 	add	r3, r3, r1, lsl #4
    3990:	e0620000 	rsb	r0, r2, r0
    3994:	e0635005 	rsb	r5, r3, r5
    3998:	e1800805 	orr	r0, r0, r5, lsl #16
    399c:	eaffff50 	b	36e4 <adler32+0x74>
    39a0:	e3a00001 	mov	r0, #1
    39a4:	eaffff4e 	b	36e4 <adler32+0x74>
    39a8:	e2422001 	sub	r2, r2, #1
    39ac:	eaffffe7 	b	3950 <adler32+0x2e0>
    39b0:	0000fff0 	strdeq	pc, [r0], -r0
    39b4:	80078071 	andhi	r8, r7, r1, ror r0
    39b8:	000015af 	andeq	r1, r0, pc, lsr #11

000039bc <adler32_combine>:
    39bc:	e3520000 	cmp	r2, #0
    39c0:	ba000000 	blt	39c8 <adler32_combine+0xc>
    39c4:	eafffefc 	b	35bc <adler32_combine_.part.0>
    39c8:	e3e00000 	mvn	r0, #0
    39cc:	e12fff1e 	bx	lr

000039d0 <adler32_combine64>:
    39d0:	e3520000 	cmp	r2, #0
    39d4:	ba000000 	blt	39dc <adler32_combine64+0xc>
    39d8:	eafffef7 	b	35bc <adler32_combine_.part.0>
    39dc:	e3e00000 	mvn	r0, #0
    39e0:	e12fff1e 	bx	lr

000039e4 <gf2_matrix_square>:
    39e4:	e92d0030 	push	{r4, r5}
    39e8:	e3a05000 	mov	r5, #0
    39ec:	e7913005 	ldr	r3, [r1, r5]
    39f0:	e3530000 	cmp	r3, #0
    39f4:	0a00000d 	beq	3a30 <gf2_matrix_square+0x4c>
    39f8:	e2812004 	add	r2, r1, #4
    39fc:	e3a0c000 	mov	ip, #0
    3a00:	e3130001 	tst	r3, #1
    3a04:	15124004 	ldrne	r4, [r2, #-4]
    3a08:	e2822004 	add	r2, r2, #4
    3a0c:	102cc004 	eorne	ip, ip, r4
    3a10:	e1b030a3 	lsrs	r3, r3, #1
    3a14:	1afffff9 	bne	3a00 <gf2_matrix_square+0x1c>
    3a18:	e780c005 	str	ip, [r0, r5]
    3a1c:	e2855004 	add	r5, r5, #4
    3a20:	e3550080 	cmp	r5, #128	; 0x80
    3a24:	1afffff0 	bne	39ec <gf2_matrix_square+0x8>
    3a28:	e8bd0030 	pop	{r4, r5}
    3a2c:	e12fff1e 	bx	lr
    3a30:	e1a0c003 	mov	ip, r3
    3a34:	e780c005 	str	ip, [r0, r5]
    3a38:	e2855004 	add	r5, r5, #4
    3a3c:	e3550080 	cmp	r5, #128	; 0x80
    3a40:	1affffe9 	bne	39ec <gf2_matrix_square+0x8>
    3a44:	eafffff7 	b	3a28 <gf2_matrix_square+0x44>

00003a48 <crc32_combine_>:
    3a48:	e92d40f0 	push	{r4, r5, r6, r7, lr}
    3a4c:	e2527000 	subs	r7, r2, #0
    3a50:	e24ddf41 	sub	sp, sp, #260	; 0x104
    3a54:	e1a04000 	mov	r4, r0
    3a58:	e1a06001 	mov	r6, r1
    3a5c:	da000034 	ble	3b34 <crc32_combine_+0xec>
    3a60:	e59f30d8 	ldr	r3, [pc, #216]	; 3b40 <crc32_combine_+0xf8>
    3a64:	e28d5c01 	add	r5, sp, #256	; 0x100
    3a68:	e5253080 	str	r3, [r5, #-128]!	; 0x80
    3a6c:	e1a0c005 	mov	ip, r5
    3a70:	e28d10fc 	add	r1, sp, #252	; 0xfc
    3a74:	e3a03001 	mov	r3, #1
    3a78:	e5ac3004 	str	r3, [ip, #4]!
    3a7c:	e15c0001 	cmp	ip, r1
    3a80:	e1a03083 	lsl	r3, r3, #1
    3a84:	1afffffb 	bne	3a78 <crc32_combine_+0x30>
    3a88:	e1a0000d 	mov	r0, sp
    3a8c:	e1a01005 	mov	r1, r5
    3a90:	ebffffd3 	bl	39e4 <gf2_matrix_square>
    3a94:	e1a00005 	mov	r0, r5
    3a98:	e1a0100d 	mov	r1, sp
    3a9c:	ebffffd0 	bl	39e4 <gf2_matrix_square>
    3aa0:	e1a0000d 	mov	r0, sp
    3aa4:	e1a01005 	mov	r1, r5
    3aa8:	ebffffcd 	bl	39e4 <gf2_matrix_square>
    3aac:	e3170001 	tst	r7, #1
    3ab0:	0a00000a 	beq	3ae0 <crc32_combine_+0x98>
    3ab4:	e3540000 	cmp	r4, #0
    3ab8:	0a000008 	beq	3ae0 <crc32_combine_+0x98>
    3abc:	e1a03004 	mov	r3, r4
    3ac0:	e28dc004 	add	ip, sp, #4
    3ac4:	e3a04000 	mov	r4, #0
    3ac8:	e3130001 	tst	r3, #1
    3acc:	151c1004 	ldrne	r1, [ip, #-4]
    3ad0:	e28cc004 	add	ip, ip, #4
    3ad4:	10244001 	eorne	r4, r4, r1
    3ad8:	e1b030a3 	lsrs	r3, r3, #1
    3adc:	1afffff9 	bne	3ac8 <crc32_combine_+0x80>
    3ae0:	e1b070c7 	asrs	r7, r7, #1
    3ae4:	0a000011 	beq	3b30 <crc32_combine_+0xe8>
    3ae8:	e1a00005 	mov	r0, r5
    3aec:	e1a0100d 	mov	r1, sp
    3af0:	ebffffbb 	bl	39e4 <gf2_matrix_square>
    3af4:	e3170001 	tst	r7, #1
    3af8:	0a00000a 	beq	3b28 <crc32_combine_+0xe0>
    3afc:	e3540000 	cmp	r4, #0
    3b00:	0a000008 	beq	3b28 <crc32_combine_+0xe0>
    3b04:	e1a03004 	mov	r3, r4
    3b08:	e28d2084 	add	r2, sp, #132	; 0x84
    3b0c:	e3a04000 	mov	r4, #0
    3b10:	e3130001 	tst	r3, #1
    3b14:	15121004 	ldrne	r1, [r2, #-4]
    3b18:	e2822004 	add	r2, r2, #4
    3b1c:	10244001 	eorne	r4, r4, r1
    3b20:	e1b030a3 	lsrs	r3, r3, #1
    3b24:	1afffff9 	bne	3b10 <crc32_combine_+0xc8>
    3b28:	e1b070c7 	asrs	r7, r7, #1
    3b2c:	1affffdb 	bne	3aa0 <crc32_combine_+0x58>
    3b30:	e0244006 	eor	r4, r4, r6
    3b34:	e1a00004 	mov	r0, r4
    3b38:	e28ddf41 	add	sp, sp, #260	; 0x104
    3b3c:	e8bd80f0 	pop	{r4, r5, r6, r7, pc}
    3b40:	edb88320 	ldc	3, cr8, [r8, #128]!	; 0x80

00003b44 <get_crc_table>:
    3b44:	e59f0000 	ldr	r0, [pc]	; 3b4c <get_crc_table+0x8>
    3b48:	e12fff1e 	bx	lr
    3b4c:	0000b21c 	andeq	fp, r0, ip, lsl r2

00003b50 <crc32>:
    3b50:	e3510000 	cmp	r1, #0
    3b54:	e92d00f0 	push	{r4, r5, r6, r7}
    3b58:	0a000044 	beq	3c70 <crc32+0x120>
    3b5c:	e3520007 	cmp	r2, #7
    3b60:	e1e00000 	mvn	r0, r0
    3b64:	9a000033 	bls	3c38 <crc32+0xe8>
    3b68:	e59fc108 	ldr	ip, [pc, #264]	; 3c78 <crc32+0x128>
    3b6c:	e1a04002 	mov	r4, r2
    3b70:	e1a03001 	mov	r3, r1
    3b74:	e5d36000 	ldrb	r6, [r3]
    3b78:	e5d35001 	ldrb	r5, [r3, #1]
    3b7c:	e0266000 	eor	r6, r6, r0
    3b80:	e6ef6076 	uxtb	r6, r6
    3b84:	e79c7106 	ldr	r7, [ip, r6, lsl #2]
    3b88:	e5d36002 	ldrb	r6, [r3, #2]
    3b8c:	e0270420 	eor	r0, r7, r0, lsr #8
    3b90:	e0205005 	eor	r5, r0, r5
    3b94:	e6ef5075 	uxtb	r5, r5
    3b98:	e79c7105 	ldr	r7, [ip, r5, lsl #2]
    3b9c:	e5d35003 	ldrb	r5, [r3, #3]
    3ba0:	e0270420 	eor	r0, r7, r0, lsr #8
    3ba4:	e0206006 	eor	r6, r0, r6
    3ba8:	e6ef6076 	uxtb	r6, r6
    3bac:	e79c7106 	ldr	r7, [ip, r6, lsl #2]
    3bb0:	e5d36004 	ldrb	r6, [r3, #4]
    3bb4:	e0270420 	eor	r0, r7, r0, lsr #8
    3bb8:	e0205005 	eor	r5, r0, r5
    3bbc:	e6ef5075 	uxtb	r5, r5
    3bc0:	e79c7105 	ldr	r7, [ip, r5, lsl #2]
    3bc4:	e5d35005 	ldrb	r5, [r3, #5]
    3bc8:	e0270420 	eor	r0, r7, r0, lsr #8
    3bcc:	e0206006 	eor	r6, r0, r6
    3bd0:	e6ef6076 	uxtb	r6, r6
    3bd4:	e79c7106 	ldr	r7, [ip, r6, lsl #2]
    3bd8:	e5d36006 	ldrb	r6, [r3, #6]
    3bdc:	e0270420 	eor	r0, r7, r0, lsr #8
    3be0:	e0205005 	eor	r5, r0, r5
    3be4:	e6ef5075 	uxtb	r5, r5
    3be8:	e79c7105 	ldr	r7, [ip, r5, lsl #2]
    3bec:	e5d35007 	ldrb	r5, [r3, #7]
    3bf0:	e0270420 	eor	r0, r7, r0, lsr #8
    3bf4:	e0206006 	eor	r6, r0, r6
    3bf8:	e6ef6076 	uxtb	r6, r6
    3bfc:	e79c6106 	ldr	r6, [ip, r6, lsl #2]
    3c00:	e2444008 	sub	r4, r4, #8
    3c04:	e0260420 	eor	r0, r6, r0, lsr #8
    3c08:	e0205005 	eor	r5, r0, r5
    3c0c:	e6ef5075 	uxtb	r5, r5
    3c10:	e79c5105 	ldr	r5, [ip, r5, lsl #2]
    3c14:	e3540007 	cmp	r4, #7
    3c18:	e0250420 	eor	r0, r5, r0, lsr #8
    3c1c:	e2833008 	add	r3, r3, #8
    3c20:	8affffd3 	bhi	3b74 <crc32+0x24>
    3c24:	e2423008 	sub	r3, r2, #8
    3c28:	e3c33007 	bic	r3, r3, #7
    3c2c:	e2833008 	add	r3, r3, #8
    3c30:	e0811003 	add	r1, r1, r3
    3c34:	e2022007 	and	r2, r2, #7
    3c38:	e3520000 	cmp	r2, #0
    3c3c:	0a000008 	beq	3c64 <crc32+0x114>
    3c40:	e59fc030 	ldr	ip, [pc, #48]	; 3c78 <crc32+0x128>
    3c44:	e0812002 	add	r2, r1, r2
    3c48:	e4d13001 	ldrb	r3, [r1], #1
    3c4c:	e0233000 	eor	r3, r3, r0
    3c50:	e6ef3073 	uxtb	r3, r3
    3c54:	e79c3103 	ldr	r3, [ip, r3, lsl #2]
    3c58:	e1510002 	cmp	r1, r2
    3c5c:	e0230420 	eor	r0, r3, r0, lsr #8
    3c60:	1afffff8 	bne	3c48 <crc32+0xf8>
    3c64:	e1e00000 	mvn	r0, r0
    3c68:	e8bd00f0 	pop	{r4, r5, r6, r7}
    3c6c:	e12fff1e 	bx	lr
    3c70:	e1a00001 	mov	r0, r1
    3c74:	eafffffb 	b	3c68 <crc32+0x118>
    3c78:	0000b21c 	andeq	fp, r0, ip, lsl r2

00003c7c <crc32_combine>:
    3c7c:	eaffff71 	b	3a48 <crc32_combine_>

00003c80 <crc32_combine64>:
    3c80:	eaffff70 	b	3a48 <crc32_combine_>

00003c84 <pqdownheap>:
    3c84:	e92d0ff0 	push	{r4, r5, r6, r7, r8, r9, sl, fp}
    3c88:	e59f3124 	ldr	r3, [pc, #292]	; 3db4 <pqdownheap+0x130>
    3c8c:	e2825fb5 	add	r5, r2, #724	; 0x2d4
    3c90:	e7906003 	ldr	r6, [r0, r3]
    3c94:	e0803105 	add	r3, r0, r5, lsl #2
    3c98:	e1a02082 	lsl	r2, r2, #1
    3c9c:	e593300c 	ldr	r3, [r3, #12]
    3ca0:	e24dd008 	sub	sp, sp, #8
    3ca4:	e1520006 	cmp	r2, r6
    3ca8:	e58d3004 	str	r3, [sp, #4]
    3cac:	ca000032 	bgt	3d7c <pqdownheap+0xf8>
    3cb0:	e080a003 	add	sl, r0, r3
    3cb4:	e28aad51 	add	sl, sl, #5184	; 0x1440
    3cb8:	e28aa018 	add	sl, sl, #24
    3cbc:	e0818103 	add	r8, r1, r3, lsl #2
    3cc0:	ea00000e 	b	3d00 <pqdownheap+0x7c>
    3cc4:	e0803102 	add	r3, r0, r2, lsl #2
    3cc8:	e593cb5c 	ldr	ip, [r3, #2908]	; 0xb5c
    3ccc:	e1a03002 	mov	r3, r2
    3cd0:	e1a0210c 	lsl	r2, ip, #2
    3cd4:	e19140b2 	ldrh	r4, [r1, r2]
    3cd8:	e1d820b0 	ldrh	r2, [r8]
    3cdc:	e1520004 	cmp	r2, r4
    3ce0:	3a000025 	bcc	3d7c <pqdownheap+0xf8>
    3ce4:	0a00002a 	beq	3d94 <pqdownheap+0x110>
    3ce8:	e1a02083 	lsl	r2, r3, #1
    3cec:	e0805105 	add	r5, r0, r5, lsl #2
    3cf0:	e1520006 	cmp	r2, r6
    3cf4:	e585c00c 	str	ip, [r5, #12]
    3cf8:	e2835fb5 	add	r5, r3, #724	; 0x2d4
    3cfc:	ca00001e 	bgt	3d7c <pqdownheap+0xf8>
    3d00:	e1560002 	cmp	r6, r2
    3d04:	daffffee 	ble	3cc4 <pqdownheap+0x40>
    3d08:	e2823001 	add	r3, r2, #1
    3d0c:	e0804102 	add	r4, r0, r2, lsl #2
    3d10:	e080c103 	add	ip, r0, r3, lsl #2
    3d14:	e5947b5c 	ldr	r7, [r4, #2908]	; 0xb5c
    3d18:	e59ccb5c 	ldr	ip, [ip, #2908]	; 0xb5c
    3d1c:	e1a09107 	lsl	r9, r7, #2
    3d20:	e1a0410c 	lsl	r4, ip, #2
    3d24:	e19140b4 	ldrh	r4, [r1, r4]
    3d28:	e19190b9 	ldrh	r9, [r1, r9]
    3d2c:	e1540009 	cmp	r4, r9
    3d30:	3affffe8 	bcc	3cd8 <pqdownheap+0x54>
    3d34:	11a04009 	movne	r4, r9
    3d38:	11a0c007 	movne	ip, r7
    3d3c:	11a03002 	movne	r3, r2
    3d40:	1affffe4 	bne	3cd8 <pqdownheap+0x54>
    3d44:	e080b00c 	add	fp, r0, ip
    3d48:	e0809007 	add	r9, r0, r7
    3d4c:	e28bbd51 	add	fp, fp, #5184	; 0x1440
    3d50:	e2899d51 	add	r9, r9, #5184	; 0x1440
    3d54:	e28bb018 	add	fp, fp, #24
    3d58:	e2899018 	add	r9, r9, #24
    3d5c:	e5dbb000 	ldrb	fp, [fp]
    3d60:	e5d99000 	ldrb	r9, [r9]
    3d64:	e15b0009 	cmp	fp, r9
    3d68:	81a03002 	movhi	r3, r2
    3d6c:	e1d820b0 	ldrh	r2, [r8]
    3d70:	81a0c007 	movhi	ip, r7
    3d74:	e1520004 	cmp	r2, r4
    3d78:	2affffd9 	bcs	3ce4 <pqdownheap+0x60>
    3d7c:	e59d3004 	ldr	r3, [sp, #4]
    3d80:	e0800105 	add	r0, r0, r5, lsl #2
    3d84:	e580300c 	str	r3, [r0, #12]
    3d88:	e28dd008 	add	sp, sp, #8
    3d8c:	e8bd0ff0 	pop	{r4, r5, r6, r7, r8, r9, sl, fp}
    3d90:	e12fff1e 	bx	lr
    3d94:	e080200c 	add	r2, r0, ip
    3d98:	e2822d51 	add	r2, r2, #5184	; 0x1440
    3d9c:	e2822018 	add	r2, r2, #24
    3da0:	e5d22000 	ldrb	r2, [r2]
    3da4:	e5da4000 	ldrb	r4, [sl]
    3da8:	e1540002 	cmp	r4, r2
    3dac:	8affffcd 	bhi	3ce8 <pqdownheap+0x64>
    3db0:	eafffff1 	b	3d7c <pqdownheap+0xf8>
    3db4:	00001450 	andeq	r1, r0, r0, asr r4

00003db8 <build_tree>:
    3db8:	e92d4ff0 	push	{r4, r5, r6, r7, r8, r9, sl, fp, lr}
    3dbc:	e5912008 	ldr	r2, [r1, #8]
    3dc0:	e24dd044 	sub	sp, sp, #68	; 0x44
    3dc4:	e592600c 	ldr	r6, [r2, #12]
    3dc8:	e58d1004 	str	r1, [sp, #4]
    3dcc:	e59fe5b4 	ldr	lr, [pc, #1460]	; 4388 <build_tree+0x5d0>
    3dd0:	e59f15b4 	ldr	r1, [pc, #1460]	; 438c <build_tree+0x5d4>
    3dd4:	e59fc5b4 	ldr	ip, [pc, #1460]	; 4390 <build_tree+0x5d8>
    3dd8:	e59d8004 	ldr	r8, [sp, #4]
    3ddc:	e3a03000 	mov	r3, #0
    3de0:	e3560000 	cmp	r6, #0
    3de4:	e5927000 	ldr	r7, [r2]
    3de8:	e5985000 	ldr	r5, [r8]
    3dec:	e1a04000 	mov	r4, r0
    3df0:	e780e001 	str	lr, [r0, r1]
    3df4:	e780300c 	str	r3, [r0, ip]
    3df8:	da00015f 	ble	437c <build_tree+0x5c4>
    3dfc:	e3e0a000 	mvn	sl, #0
    3e00:	e1a02003 	mov	r2, r3
    3e04:	e1a0e003 	mov	lr, r3
    3e08:	e58da014 	str	sl, [sp, #20]
    3e0c:	e1a0800a 	mov	r8, sl
    3e10:	e19510b2 	ldrh	r1, [r5, r2]
    3e14:	e0840003 	add	r0, r4, r3
    3e18:	e3510000 	cmp	r1, #0
    3e1c:	1794100c 	ldrne	r1, [r4, ip]
    3e20:	00850002 	addeq	r0, r5, r2
    3e24:	12811001 	addne	r1, r1, #1
    3e28:	10848101 	addne	r8, r4, r1, lsl #2
    3e2c:	15883b5c 	strne	r3, [r8, #2908]	; 0xb5c
    3e30:	12800d51 	addne	r0, r0, #5184	; 0x1440
    3e34:	11a08003 	movne	r8, r3
    3e38:	e2833001 	add	r3, r3, #1
    3e3c:	1784100c 	strne	r1, [r4, ip]
    3e40:	01c010b2 	strheq	r1, [r0, #2]
    3e44:	15c0e018 	strbne	lr, [r0, #24]
    3e48:	e1530006 	cmp	r3, r6
    3e4c:	e2822004 	add	r2, r2, #4
    3e50:	1affffee 	bne	3e10 <build_tree+0x58>
    3e54:	e59f3534 	ldr	r3, [pc, #1332]	; 4390 <build_tree+0x5d8>
    3e58:	e58d8014 	str	r8, [sp, #20]
    3e5c:	e7943003 	ldr	r3, [r4, r3]
    3e60:	e59f0528 	ldr	r0, [pc, #1320]	; 4390 <build_tree+0x5d8>
    3e64:	e59f1528 	ldr	r1, [pc, #1320]	; 4394 <build_tree+0x5dc>
    3e68:	e59fc528 	ldr	ip, [pc, #1320]	; 4398 <build_tree+0x5e0>
    3e6c:	e3a08000 	mov	r8, #0
    3e70:	e3a0e001 	mov	lr, #1
    3e74:	e59d9014 	ldr	r9, [sp, #20]
    3e78:	ea000017 	b	3edc <build_tree+0x124>
    3e7c:	e3590001 	cmp	r9, #1
    3e80:	c3a02000 	movgt	r2, #0
    3e84:	d2899001 	addle	r9, r9, #1
    3e88:	e784a000 	str	sl, [r4, r0]
    3e8c:	d1a02109 	lslle	r2, r9, #2
    3e90:	c1a03002 	movgt	r3, r2
    3e94:	d1a03009 	movle	r3, r9
    3e98:	e084a10a 	add	sl, r4, sl, lsl #2
    3e9c:	e58a3b5c 	str	r3, [sl, #2908]	; 0xb5c
    3ea0:	e185e0b2 	strh	lr, [r5, r2]
    3ea4:	e794a001 	ldr	sl, [r4, r1]
    3ea8:	e0843003 	add	r3, r4, r3
    3eac:	e3570000 	cmp	r7, #0
    3eb0:	e24aa001 	sub	sl, sl, #1
    3eb4:	e2833d51 	add	r3, r3, #5184	; 0x1440
    3eb8:	e5c38018 	strb	r8, [r3, #24]
    3ebc:	e784a001 	str	sl, [r4, r1]
    3ec0:	10872002 	addne	r2, r7, r2
    3ec4:	e2833018 	add	r3, r3, #24
    3ec8:	1794a00c 	ldrne	sl, [r4, ip]
    3ecc:	11d230b2 	ldrhne	r3, [r2, #2]
    3ed0:	1063300a 	rsbne	r3, r3, sl
    3ed4:	1784300c 	strne	r3, [r4, ip]
    3ed8:	e7943000 	ldr	r3, [r4, r0]
    3edc:	e3530001 	cmp	r3, #1
    3ee0:	e283a001 	add	sl, r3, #1
    3ee4:	daffffe4 	ble	3e7c <build_tree+0xc4>
    3ee8:	e59da004 	ldr	sl, [sp, #4]
    3eec:	e58d9014 	str	r9, [sp, #20]
    3ef0:	e58a9004 	str	r9, [sl, #4]
    3ef4:	e1a070c3 	asr	r7, r3, #1
    3ef8:	e1a02007 	mov	r2, r7
    3efc:	e1a00004 	mov	r0, r4
    3f00:	e1a01005 	mov	r1, r5
    3f04:	ebffff5e 	bl	3c84 <pqdownheap>
    3f08:	e2577001 	subs	r7, r7, #1
    3f0c:	1afffff9 	bne	3ef8 <build_tree+0x140>
    3f10:	e59f8478 	ldr	r8, [pc, #1144]	; 4390 <build_tree+0x5d8>
    3f14:	e59fa470 	ldr	sl, [pc, #1136]	; 438c <build_tree+0x5d4>
    3f18:	e7943008 	ldr	r3, [r4, r8]
    3f1c:	e085b106 	add	fp, r5, r6, lsl #2
    3f20:	e0842103 	add	r2, r4, r3, lsl #2
    3f24:	e5922b5c 	ldr	r2, [r2, #2908]	; 0xb5c
    3f28:	e2433001 	sub	r3, r3, #1
    3f2c:	e5949b60 	ldr	r9, [r4, #2912]	; 0xb60
    3f30:	e7843008 	str	r3, [r4, r8]
    3f34:	e1a00004 	mov	r0, r4
    3f38:	e5842b60 	str	r2, [r4, #2912]	; 0xb60
    3f3c:	e1a01005 	mov	r1, r5
    3f40:	e3a02001 	mov	r2, #1
    3f44:	ebffff4e 	bl	3c84 <pqdownheap>
    3f48:	e794100a 	ldr	r1, [r4, sl]
    3f4c:	e5943b60 	ldr	r3, [r4, #2912]	; 0xb60
    3f50:	e2412002 	sub	r2, r1, #2
    3f54:	e2411001 	sub	r1, r1, #1
    3f58:	e0840102 	add	r0, r4, r2, lsl #2
    3f5c:	e0841101 	add	r1, r4, r1, lsl #2
    3f60:	e5819b5c 	str	r9, [r1, #2908]	; 0xb5c
    3f64:	e784200a 	str	r2, [r4, sl]
    3f68:	e5803b5c 	str	r3, [r0, #2908]	; 0xb5c
    3f6c:	e1a01103 	lsl	r1, r3, #2
    3f70:	e1a02109 	lsl	r2, r9, #2
    3f74:	e195c0b1 	ldrh	ip, [r5, r1]
    3f78:	e19500b2 	ldrh	r0, [r5, r2]
    3f7c:	e0843003 	add	r3, r4, r3
    3f80:	e08c0000 	add	r0, ip, r0
    3f84:	e0849009 	add	r9, r4, r9
    3f88:	e2833d51 	add	r3, r3, #5184	; 0x1440
    3f8c:	e18b00b7 	strh	r0, [fp, r7]
    3f90:	e2899d51 	add	r9, r9, #5184	; 0x1440
    3f94:	e2833018 	add	r3, r3, #24
    3f98:	e5d90018 	ldrb	r0, [r9, #24]
    3f9c:	e5d33000 	ldrb	r3, [r3]
    3fa0:	e084c006 	add	ip, r4, r6
    3fa4:	e1500003 	cmp	r0, r3
    3fa8:	22800001 	addcs	r0, r0, #1
    3fac:	32833001 	addcc	r3, r3, #1
    3fb0:	36ef0073 	uxtbcc	r0, r3
    3fb4:	26ef0070 	uxtbcs	r0, r0
    3fb8:	e6ff3076 	uxth	r3, r6
    3fbc:	e0851001 	add	r1, r5, r1
    3fc0:	e0852002 	add	r2, r5, r2
    3fc4:	e28ccd51 	add	ip, ip, #5184	; 0x1440
    3fc8:	e5cc0018 	strb	r0, [ip, #24]
    3fcc:	e1c130b2 	strh	r3, [r1, #2]
    3fd0:	e1a00004 	mov	r0, r4
    3fd4:	e1c230b2 	strh	r3, [r2, #2]
    3fd8:	e1a01005 	mov	r1, r5
    3fdc:	e5846b60 	str	r6, [r4, #2912]	; 0xb60
    3fe0:	e3a02001 	mov	r2, #1
    3fe4:	ebffff26 	bl	3c84 <pqdownheap>
    3fe8:	e7943008 	ldr	r3, [r4, r8]
    3fec:	e2899018 	add	r9, r9, #24
    3ff0:	e3530001 	cmp	r3, #1
    3ff4:	e2877004 	add	r7, r7, #4
    3ff8:	e2866001 	add	r6, r6, #1
    3ffc:	caffffc7 	bgt	3f20 <build_tree+0x168>
    4000:	e59f1384 	ldr	r1, [pc, #900]	; 438c <build_tree+0x5d4>
    4004:	e59d3004 	ldr	r3, [sp, #4]
    4008:	e794c001 	ldr	ip, [r4, r1]
    400c:	e5946b60 	ldr	r6, [r4, #2912]	; 0xb60
    4010:	e24cc001 	sub	ip, ip, #1
    4014:	e5937008 	ldr	r7, [r3, #8]
    4018:	e084310c 	add	r3, r4, ip, lsl #2
    401c:	e5836b5c 	str	r6, [r3, #2908]	; 0xb5c
    4020:	e59d8004 	ldr	r8, [sp, #4]
    4024:	e597a008 	ldr	sl, [r7, #8]
    4028:	e5980004 	ldr	r0, [r8, #4]
    402c:	e5983000 	ldr	r3, [r8]
    4030:	e5972010 	ldr	r2, [r7, #16]
    4034:	e5978000 	ldr	r8, [r7]
    4038:	e5977004 	ldr	r7, [r7, #4]
    403c:	e58da00c 	str	sl, [sp, #12]
    4040:	e284aeb3 	add	sl, r4, #2864	; 0xb30
    4044:	e784c001 	str	ip, [r4, r1]
    4048:	e58d7010 	str	r7, [sp, #16]
    404c:	e58d8008 	str	r8, [sp, #8]
    4050:	e58da018 	str	sl, [sp, #24]
    4054:	e28ac00a 	add	ip, sl, #10
    4058:	e3a01010 	mov	r1, #16
    405c:	e3a07000 	mov	r7, #0
    4060:	e2511001 	subs	r1, r1, #1
    4064:	e1ec70b2 	strh	r7, [ip, #2]!
    4068:	1afffffc 	bne	4060 <build_tree+0x2a8>
    406c:	e0836106 	add	r6, r3, r6, lsl #2
    4070:	e59fc314 	ldr	ip, [pc, #788]	; 438c <build_tree+0x5d4>
    4074:	e1c610b2 	strh	r1, [r6, #2]
    4078:	e794c00c 	ldr	ip, [r4, ip]
    407c:	e28c6001 	add	r6, ip, #1
    4080:	e3560f8f 	cmp	r6, #572	; 0x23c
    4084:	ca00008f 	bgt	42c8 <build_tree+0x510>
    4088:	e28ccfb5 	add	ip, ip, #724	; 0x2d4
    408c:	e084610c 	add	r6, r4, ip, lsl #2
    4090:	e284cd51 	add	ip, r4, #5184	; 0x1440
    4094:	e28cc00c 	add	ip, ip, #12
    4098:	e59f92f4 	ldr	r9, [pc, #756]	; 4394 <build_tree+0x5dc>
    409c:	e59fb2f4 	ldr	fp, [pc, #756]	; 4398 <build_tree+0x5e0>
    40a0:	e286600c 	add	r6, r6, #12
    40a4:	e58d1004 	str	r1, [sp, #4]
    40a8:	e58d501c 	str	r5, [sp, #28]
    40ac:	e1a0a00c 	mov	sl, ip
    40b0:	e5b6c004 	ldr	ip, [r6, #4]!
    40b4:	e1a0710c 	lsl	r7, ip, #2
    40b8:	e0835007 	add	r5, r3, r7
    40bc:	e1d510b2 	ldrh	r1, [r5, #2]
    40c0:	e0831101 	add	r1, r3, r1, lsl #2
    40c4:	e1d110b2 	ldrh	r1, [r1, #2]
    40c8:	e2811001 	add	r1, r1, #1
    40cc:	e1520001 	cmp	r2, r1
    40d0:	b59d8004 	ldrlt	r8, [sp, #4]
    40d4:	b1a01002 	movlt	r1, r2
    40d8:	b2888001 	addlt	r8, r8, #1
    40dc:	b58d8004 	strlt	r8, [sp, #4]
    40e0:	e2818e59 	add	r8, r1, #1424	; 0x590
    40e4:	e288800c 	add	r8, r8, #12
    40e8:	e150000c 	cmp	r0, ip
    40ec:	e0848088 	add	r8, r4, r8, lsl #1
    40f0:	e1c510b2 	strh	r1, [r5, #2]
    40f4:	ba00001a 	blt	4164 <build_tree+0x3ac>
    40f8:	e1d850b4 	ldrh	r5, [r8, #4]
    40fc:	e58d5000 	str	r5, [sp]
    4100:	e59d500c 	ldr	r5, [sp, #12]
    4104:	e155000c 	cmp	r5, ip
    4108:	e59d5000 	ldr	r5, [sp]
    410c:	e2855001 	add	r5, r5, #1
    4110:	e1c850b4 	strh	r5, [r8, #4]
    4114:	d59d800c 	ldrle	r8, [sp, #12]
    4118:	c3a05000 	movgt	r5, #0
    411c:	d068c00c 	rsble	ip, r8, ip
    4120:	d59d8010 	ldrle	r8, [sp, #16]
    4124:	d798510c 	ldrle	r5, [r8, ip, lsl #2]
    4128:	e7948009 	ldr	r8, [r4, r9]
    412c:	e193c0b7 	ldrh	ip, [r3, r7]
    4130:	e0811005 	add	r1, r1, r5
    4134:	e021819c 	mla	r1, ip, r1, r8
    4138:	e59d8008 	ldr	r8, [sp, #8]
    413c:	e7841009 	str	r1, [r4, r9]
    4140:	e3580000 	cmp	r8, #0
    4144:	0a000006 	beq	4164 <build_tree+0x3ac>
    4148:	e59d1008 	ldr	r1, [sp, #8]
    414c:	e794800b 	ldr	r8, [r4, fp]
    4150:	e0817007 	add	r7, r1, r7
    4154:	e1d710b2 	ldrh	r1, [r7, #2]
    4158:	e0851001 	add	r1, r5, r1
    415c:	e021819c 	mla	r1, ip, r1, r8
    4160:	e784100b 	str	r1, [r4, fp]
    4164:	e156000a 	cmp	r6, sl
    4168:	1affffd0 	bne	40b0 <build_tree+0x2f8>
    416c:	e59d7004 	ldr	r7, [sp, #4]
    4170:	e59d501c 	ldr	r5, [sp, #28]
    4174:	e3570000 	cmp	r7, #0
    4178:	e59f6208 	ldr	r6, [pc, #520]	; 4388 <build_tree+0x5d0>
    417c:	0a000051 	beq	42c8 <build_tree+0x510>
    4180:	e2829e59 	add	r9, r2, #1424	; 0x590
    4184:	e242b001 	sub	fp, r2, #1
    4188:	e1a08009 	mov	r8, r9
    418c:	e28bae59 	add	sl, fp, #1424	; 0x590
    4190:	e28aa00c 	add	sl, sl, #12
    4194:	e289900b 	add	r9, r9, #11
    4198:	e288800c 	add	r8, r8, #12
    419c:	e1a07006 	mov	r7, r6
    41a0:	e1a06000 	mov	r6, r0
    41a4:	e1a00003 	mov	r0, r3
    41a8:	e59d3004 	ldr	r3, [sp, #4]
    41ac:	e084a08a 	add	sl, r4, sl, lsl #1
    41b0:	e0849089 	add	r9, r4, r9, lsl #1
    41b4:	e0848088 	add	r8, r4, r8, lsl #1
    41b8:	e58d5008 	str	r5, [sp, #8]
    41bc:	e1d9c0b4 	ldrh	ip, [r9, #4]
    41c0:	e35c0000 	cmp	ip, #0
    41c4:	1a00006a 	bne	4374 <build_tree+0x5bc>
    41c8:	e28a5004 	add	r5, sl, #4
    41cc:	e1a0100b 	mov	r1, fp
    41d0:	e175c0b2 	ldrh	ip, [r5, #-2]!
    41d4:	e2411001 	sub	r1, r1, #1
    41d8:	e35c0000 	cmp	ip, #0
    41dc:	0afffffb 	beq	41d0 <build_tree+0x418>
    41e0:	e2815e59 	add	r5, r1, #1424	; 0x590
    41e4:	e1a01005 	mov	r1, r5
    41e8:	e24cc001 	sub	ip, ip, #1
    41ec:	e0845085 	add	r5, r4, r5, lsl #1
    41f0:	e281100d 	add	r1, r1, #13
    41f4:	e1c5c1bc 	strh	ip, [r5, #28]
    41f8:	e0841081 	add	r1, r4, r1, lsl #1
    41fc:	e1d1c0b4 	ldrh	ip, [r1, #4]
    4200:	e2433002 	sub	r3, r3, #2
    4204:	e28cc002 	add	ip, ip, #2
    4208:	e1c1c0b4 	strh	ip, [r1, #4]
    420c:	e1d8c0b4 	ldrh	ip, [r8, #4]
    4210:	e3530000 	cmp	r3, #0
    4214:	e24cc001 	sub	ip, ip, #1
    4218:	e6ffc07c 	uxth	ip, ip
    421c:	e1c8c0b4 	strh	ip, [r8, #4]
    4220:	e2881004 	add	r1, r8, #4
    4224:	caffffe4 	bgt	41bc <build_tree+0x404>
    4228:	e3520000 	cmp	r2, #0
    422c:	e1a03000 	mov	r3, r0
    4230:	e59d5008 	ldr	r5, [sp, #8]
    4234:	e1a00006 	mov	r0, r6
    4238:	e1a06007 	mov	r6, r7
    423c:	e1a0700c 	mov	r7, ip
    4240:	0a000020 	beq	42c8 <build_tree+0x510>
    4244:	e59f9148 	ldr	r9, [pc, #328]	; 4394 <build_tree+0x5dc>
    4248:	e1a0a001 	mov	sl, r1
    424c:	e2575000 	subs	r5, r7, #0
    4250:	0a000016 	beq	42b0 <build_tree+0x4f8>
    4254:	e2867fb5 	add	r7, r6, #724	; 0x2d4
    4258:	e0847107 	add	r7, r4, r7, lsl #2
    425c:	e287700c 	add	r7, r7, #12
    4260:	e58da004 	str	sl, [sp, #4]
    4264:	e537c004 	ldr	ip, [r7, #-4]!
    4268:	e2466001 	sub	r6, r6, #1
    426c:	e1a0810c 	lsl	r8, ip, #2
    4270:	e150000c 	cmp	r0, ip
    4274:	e0831008 	add	r1, r3, r8
    4278:	ba000009 	blt	42a4 <build_tree+0x4ec>
    427c:	e1d1c0b2 	ldrh	ip, [r1, #2]
    4280:	e2455001 	sub	r5, r5, #1
    4284:	e15c0002 	cmp	ip, r2
    4288:	0a000005 	beq	42a4 <build_tree+0x4ec>
    428c:	e794a009 	ldr	sl, [r4, r9]
    4290:	e19380b8 	ldrh	r8, [r3, r8]
    4294:	e06cc002 	rsb	ip, ip, r2
    4298:	e02cac98 	mla	ip, r8, ip, sl
    429c:	e784c009 	str	ip, [r4, r9]
    42a0:	e1c120b2 	strh	r2, [r1, #2]
    42a4:	e3550000 	cmp	r5, #0
    42a8:	1affffed 	bne	4264 <build_tree+0x4ac>
    42ac:	e59da004 	ldr	sl, [sp, #4]
    42b0:	e35b0000 	cmp	fp, #0
    42b4:	e1a0200b 	mov	r2, fp
    42b8:	124bb001 	subne	fp, fp, #1
    42bc:	117a70b2 	ldrhne	r7, [sl, #-2]!
    42c0:	1affffe1 	bne	424c <build_tree+0x494>
    42c4:	e59d5008 	ldr	r5, [sp, #8]
    42c8:	e59d2018 	ldr	r2, [sp, #24]
    42cc:	e28dc03e 	add	ip, sp, #62	; 0x3e
    42d0:	e282100a 	add	r1, r2, #10
    42d4:	e3a03000 	mov	r3, #0
    42d8:	e28d2020 	add	r2, sp, #32
    42dc:	e1f100b2 	ldrh	r0, [r1, #2]!
    42e0:	e0833000 	add	r3, r3, r0
    42e4:	e6ff3073 	uxth	r3, r3
    42e8:	e1a03083 	lsl	r3, r3, #1
    42ec:	e6ff3073 	uxth	r3, r3
    42f0:	e1e230b2 	strh	r3, [r2, #2]!
    42f4:	e152000c 	cmp	r2, ip
    42f8:	1afffff7 	bne	42dc <build_tree+0x524>
    42fc:	e59d3014 	ldr	r3, [sp, #20]
    4300:	e3730001 	cmn	r3, #1
    4304:	0a000018 	beq	436c <build_tree+0x5b4>
    4308:	e2834001 	add	r4, r3, #1
    430c:	e1a07003 	mov	r7, r3
    4310:	e1a04104 	lsl	r4, r4, #2
    4314:	e3a0c000 	mov	ip, #0
    4318:	e085300c 	add	r3, r5, ip
    431c:	e1d330b2 	ldrh	r3, [r3, #2]
    4320:	e3530000 	cmp	r3, #0
    4324:	0a00000d 	beq	4360 <build_tree+0x5a8>
    4328:	e28d8040 	add	r8, sp, #64	; 0x40
    432c:	e0880083 	add	r0, r8, r3, lsl #1
    4330:	e15022b0 	ldrh	r2, [r0, #-32]	; 0xffffffe0
    4334:	e3a01000 	mov	r1, #0
    4338:	e2826001 	add	r6, r2, #1
    433c:	e14062b0 	strh	r6, [r0, #-32]	; 0xffffffe0
    4340:	e2020001 	and	r0, r2, #1
    4344:	e1811000 	orr	r1, r1, r0
    4348:	e2533001 	subs	r3, r3, #1
    434c:	e1a01081 	lsl	r1, r1, #1
    4350:	e1a020a2 	lsr	r2, r2, #1
    4354:	1afffff9 	bne	4340 <build_tree+0x588>
    4358:	e1a010a1 	lsr	r1, r1, #1
    435c:	e18510bc 	strh	r1, [r5, ip]
    4360:	e28cc004 	add	ip, ip, #4
    4364:	e15c0004 	cmp	ip, r4
    4368:	1affffea 	bne	4318 <build_tree+0x560>
    436c:	e28dd044 	add	sp, sp, #68	; 0x44
    4370:	e8bd8ff0 	pop	{r4, r5, r6, r7, r8, r9, sl, fp, pc}
    4374:	e1a0100b 	mov	r1, fp
    4378:	eaffff98 	b	41e0 <build_tree+0x428>
    437c:	e3e08000 	mvn	r8, #0
    4380:	e58d8014 	str	r8, [sp, #20]
    4384:	eafffeb5 	b	3e60 <build_tree+0xa8>
    4388:	0000023d 	andeq	r0, r0, sp, lsr r2
    438c:	00001454 	andeq	r1, r0, r4, asr r4
    4390:	00001450 	andeq	r1, r0, r0, asr r4
    4394:	000016a8 	andeq	r1, r0, r8, lsr #13
    4398:	000016ac 	andeq	r1, r0, ip, lsr #13

0000439c <scan_tree>:
    439c:	e92d07f0 	push	{r4, r5, r6, r7, r8, r9, sl}
    43a0:	e1d140b2 	ldrh	r4, [r1, #2]
    43a4:	e0813102 	add	r3, r1, r2, lsl #2
    43a8:	e3540000 	cmp	r4, #0
    43ac:	03a06003 	moveq	r6, #3
    43b0:	13a06004 	movne	r6, #4
    43b4:	03a0508a 	moveq	r5, #138	; 0x8a
    43b8:	13a05007 	movne	r5, #7
    43bc:	e3e07000 	mvn	r7, #0
    43c0:	e3520000 	cmp	r2, #0
    43c4:	e1c370b6 	strh	r7, [r3, #6]
    43c8:	ba000037 	blt	44ac <scan_tree+0x110>
    43cc:	e2813004 	add	r3, r1, #4
    43d0:	e0832102 	add	r2, r3, r2, lsl #2
    43d4:	e59f910c 	ldr	r9, [pc, #268]	; 44e8 <scan_tree+0x14c>
    43d8:	e59f810c 	ldr	r8, [pc, #268]	; 44ec <scan_tree+0x150>
    43dc:	e3a03000 	mov	r3, #0
    43e0:	e3a0ad2b 	mov	sl, #2752	; 0xac0
    43e4:	ea000011 	b	4430 <scan_tree+0x94>
    43e8:	e2845fa7 	add	r5, r4, #668	; 0x29c
    43ec:	e2855002 	add	r5, r5, #2
    43f0:	e0805105 	add	r5, r0, r5, lsl #2
    43f4:	e1d560b4 	ldrh	r6, [r5, #4]
    43f8:	e0833006 	add	r3, r3, r6
    43fc:	e1c530b4 	strh	r3, [r5, #4]
    4400:	e35c0000 	cmp	ip, #0
    4404:	0a000020 	beq	448c <scan_tree+0xf0>
    4408:	e154000c 	cmp	r4, ip
    440c:	0a000030 	beq	44d4 <scan_tree+0x138>
    4410:	e1a07004 	mov	r7, r4
    4414:	e3a06004 	mov	r6, #4
    4418:	e3a05007 	mov	r5, #7
    441c:	e3a03000 	mov	r3, #0
    4420:	e2811004 	add	r1, r1, #4
    4424:	e1510002 	cmp	r1, r2
    4428:	e1a0400c 	mov	r4, ip
    442c:	0a00001e 	beq	44ac <scan_tree+0x110>
    4430:	e2833001 	add	r3, r3, #1
    4434:	e1530005 	cmp	r3, r5
    4438:	e1d1c0b6 	ldrh	ip, [r1, #6]
    443c:	aa000001 	bge	4448 <scan_tree+0xac>
    4440:	e154000c 	cmp	r4, ip
    4444:	0afffff5 	beq	4420 <scan_tree+0x84>
    4448:	e1530006 	cmp	r3, r6
    444c:	baffffe5 	blt	43e8 <scan_tree+0x4c>
    4450:	e3540000 	cmp	r4, #0
    4454:	0a000016 	beq	44b4 <scan_tree+0x118>
    4458:	e1570004 	cmp	r7, r4
    445c:	0a000005 	beq	4478 <scan_tree+0xdc>
    4460:	e2843fa7 	add	r3, r4, #668	; 0x29c
    4464:	e2833002 	add	r3, r3, #2
    4468:	e0803103 	add	r3, r0, r3, lsl #2
    446c:	e1d350b4 	ldrh	r5, [r3, #4]
    4470:	e2855001 	add	r5, r5, #1
    4474:	e1c350b4 	strh	r5, [r3, #4]
    4478:	e19030b8 	ldrh	r3, [r0, r8]
    447c:	e35c0000 	cmp	ip, #0
    4480:	e2833001 	add	r3, r3, #1
    4484:	e18030b8 	strh	r3, [r0, r8]
    4488:	1affffde 	bne	4408 <scan_tree+0x6c>
    448c:	e2811004 	add	r1, r1, #4
    4490:	e1510002 	cmp	r1, r2
    4494:	e1a07004 	mov	r7, r4
    4498:	e3a06003 	mov	r6, #3
    449c:	e3a0508a 	mov	r5, #138	; 0x8a
    44a0:	e1a0300c 	mov	r3, ip
    44a4:	e1a0400c 	mov	r4, ip
    44a8:	1affffe0 	bne	4430 <scan_tree+0x94>
    44ac:	e8bd07f0 	pop	{r4, r5, r6, r7, r8, r9, sl}
    44b0:	e12fff1e 	bx	lr
    44b4:	e353000a 	cmp	r3, #10
    44b8:	d19030ba 	ldrhle	r3, [r0, sl]
    44bc:	c19030b9 	ldrhgt	r3, [r0, r9]
    44c0:	d2833001 	addle	r3, r3, #1
    44c4:	c2833001 	addgt	r3, r3, #1
    44c8:	d18030ba 	strhle	r3, [r0, sl]
    44cc:	c18030b9 	strhgt	r3, [r0, r9]
    44d0:	eaffffca 	b	4400 <scan_tree+0x64>
    44d4:	e1a0700c 	mov	r7, ip
    44d8:	e3a06003 	mov	r6, #3
    44dc:	e3a05006 	mov	r5, #6
    44e0:	e3a03000 	mov	r3, #0
    44e4:	eaffffcd 	b	4420 <scan_tree+0x84>
    44e8:	00000ac4 	andeq	r0, r0, r4, asr #21
    44ec:	00000abc 			; <UNDEFINED> instruction: 0x00000abc

000044f0 <send_tree>:
    44f0:	e92d0ff0 	push	{r4, r5, r6, r7, r8, r9, sl, fp}
    44f4:	e1d1a0b2 	ldrh	sl, [r1, #2]
    44f8:	e24dd010 	sub	sp, sp, #16
    44fc:	e35a0000 	cmp	sl, #0
    4500:	03a06003 	moveq	r6, #3
    4504:	13a06004 	movne	r6, #4
    4508:	03a0508a 	moveq	r5, #138	; 0x8a
    450c:	13a05007 	movne	r5, #7
    4510:	e3520000 	cmp	r2, #0
    4514:	ba000044 	blt	462c <send_tree+0x13c>
    4518:	e2813004 	add	r3, r1, #4
    451c:	e0833102 	add	r3, r3, r2, lsl #2
    4520:	e59f456c 	ldr	r4, [pc, #1388]	; 4a94 <send_tree+0x5a4>
    4524:	e59fc56c 	ldr	ip, [pc, #1388]	; 4a98 <send_tree+0x5a8>
    4528:	e58d300c 	str	r3, [sp, #12]
    452c:	e3a02000 	mov	r2, #0
    4530:	e3e07000 	mvn	r7, #0
    4534:	e2823001 	add	r3, r2, #1
    4538:	e1530005 	cmp	r3, r5
    453c:	e1d190b6 	ldrh	r9, [r1, #6]
    4540:	aa000002 	bge	4550 <send_tree+0x60>
    4544:	e15a0009 	cmp	sl, r9
    4548:	01a02003 	moveq	r2, r3
    454c:	0a000031 	beq	4618 <send_tree+0x128>
    4550:	e1530006 	cmp	r3, r6
    4554:	aa000037 	bge	4638 <send_tree+0x148>
    4558:	e28a6fa7 	add	r6, sl, #668	; 0x29c
    455c:	e2866002 	add	r6, r6, #2
    4560:	e0806106 	add	r6, r0, r6, lsl #2
    4564:	e58d1008 	str	r1, [sp, #8]
    4568:	ea000016 	b	45c8 <send_tree+0xd8>
    456c:	e190b0bc 	ldrh	fp, [r0, ip]
    4570:	e5905014 	ldr	r5, [r0, #20]
    4574:	e18b8817 	orr	r8, fp, r7, lsl r8
    4578:	e590b008 	ldr	fp, [r0, #8]
    457c:	e6ff8078 	uxth	r8, r8
    4580:	e18080bc 	strh	r8, [r0, ip]
    4584:	e7cb8005 	strb	r8, [fp, r5]
    4588:	e190b0bc 	ldrh	fp, [r0, ip]
    458c:	e5901008 	ldr	r1, [r0, #8]
    4590:	e2858001 	add	r8, r5, #1
    4594:	e1a0b42b 	lsr	fp, fp, #8
    4598:	e7c1b008 	strb	fp, [r1, r8]
    459c:	e7908004 	ldr	r8, [r0, r4]
    45a0:	e2422010 	sub	r2, r2, #16
    45a4:	e268b010 	rsb	fp, r8, #16
    45a8:	e1a07b57 	asr	r7, r7, fp
    45ac:	e2855002 	add	r5, r5, #2
    45b0:	e0888002 	add	r8, r8, r2
    45b4:	e2533001 	subs	r3, r3, #1
    45b8:	e5805014 	str	r5, [r0, #20]
    45bc:	e18070bc 	strh	r7, [r0, ip]
    45c0:	e7808004 	str	r8, [r0, r4]
    45c4:	0a00000c 	beq	45fc <send_tree+0x10c>
    45c8:	e1d620b6 	ldrh	r2, [r6, #6]
    45cc:	e7908004 	ldr	r8, [r0, r4]
    45d0:	e2625010 	rsb	r5, r2, #16
    45d4:	e1580005 	cmp	r8, r5
    45d8:	e1d670b4 	ldrh	r7, [r6, #4]
    45dc:	caffffe2 	bgt	456c <send_tree+0x7c>
    45e0:	e19050bc 	ldrh	r5, [r0, ip]
    45e4:	e0822008 	add	r2, r2, r8
    45e8:	e1858817 	orr	r8, r5, r7, lsl r8
    45ec:	e2533001 	subs	r3, r3, #1
    45f0:	e7802004 	str	r2, [r0, r4]
    45f4:	e18080bc 	strh	r8, [r0, ip]
    45f8:	1afffff2 	bne	45c8 <send_tree+0xd8>
    45fc:	e3590000 	cmp	r9, #0
    4600:	e59d1008 	ldr	r1, [sp, #8]
    4604:	1a000063 	bne	4798 <send_tree+0x2a8>
    4608:	e1a0700a 	mov	r7, sl
    460c:	e3a06003 	mov	r6, #3
    4610:	e3a0508a 	mov	r5, #138	; 0x8a
    4614:	e1a02009 	mov	r2, r9
    4618:	e59d800c 	ldr	r8, [sp, #12]
    461c:	e2811004 	add	r1, r1, #4
    4620:	e1510008 	cmp	r1, r8
    4624:	e1a0a009 	mov	sl, r9
    4628:	1affffc1 	bne	4534 <send_tree+0x44>
    462c:	e28dd010 	add	sp, sp, #16
    4630:	e8bd0ff0 	pop	{r4, r5, r6, r7, r8, r9, sl, fp}
    4634:	e12fff1e 	bx	lr
    4638:	e35a0000 	cmp	sl, #0
    463c:	0a00005c 	beq	47b4 <send_tree+0x2c4>
    4640:	e157000a 	cmp	r7, sl
    4644:	0a0000f0 	beq	4a0c <send_tree+0x51c>
    4648:	e28a5fa7 	add	r5, sl, #668	; 0x29c
    464c:	e2855002 	add	r5, r5, #2
    4650:	e0805105 	add	r5, r0, r5, lsl #2
    4654:	e1d530b6 	ldrh	r3, [r5, #6]
    4658:	e7907004 	ldr	r7, [r0, r4]
    465c:	e2636010 	rsb	r6, r3, #16
    4660:	e1570006 	cmp	r7, r6
    4664:	e1d560b4 	ldrh	r6, [r5, #4]
    4668:	da0000e0 	ble	49f0 <send_tree+0x500>
    466c:	e19080bc 	ldrh	r8, [r0, ip]
    4670:	e5905014 	ldr	r5, [r0, #20]
    4674:	e1887716 	orr	r7, r8, r6, lsl r7
    4678:	e5908008 	ldr	r8, [r0, #8]
    467c:	e6ff7077 	uxth	r7, r7
    4680:	e18070bc 	strh	r7, [r0, ip]
    4684:	e7c87005 	strb	r7, [r8, r5]
    4688:	e19080bc 	ldrh	r8, [r0, ip]
    468c:	e590b008 	ldr	fp, [r0, #8]
    4690:	e2857001 	add	r7, r5, #1
    4694:	e1a08428 	lsr	r8, r8, #8
    4698:	e7cb8007 	strb	r8, [fp, r7]
    469c:	e7907004 	ldr	r7, [r0, r4]
    46a0:	e2433010 	sub	r3, r3, #16
    46a4:	e2678010 	rsb	r8, r7, #16
    46a8:	e1a06856 	asr	r6, r6, r8
    46ac:	e2855002 	add	r5, r5, #2
    46b0:	e0873003 	add	r3, r7, r3
    46b4:	e6ff6076 	uxth	r6, r6
    46b8:	e5805014 	str	r5, [r0, #20]
    46bc:	e18060bc 	strh	r6, [r0, ip]
    46c0:	e7803004 	str	r3, [r0, r4]
    46c4:	e59f73d0 	ldr	r7, [pc, #976]	; 4a9c <send_tree+0x5ac>
    46c8:	e19050b7 	ldrh	r5, [r0, r7]
    46cc:	e2657010 	rsb	r7, r5, #16
    46d0:	e1570003 	cmp	r7, r3
    46d4:	aa000079 	bge	48c0 <send_tree+0x3d0>
    46d8:	e59fb3c0 	ldr	fp, [pc, #960]	; 4aa0 <send_tree+0x5b0>
    46dc:	e5907014 	ldr	r7, [r0, #20]
    46e0:	e19080bb 	ldrh	r8, [r0, fp]
    46e4:	e590b008 	ldr	fp, [r0, #8]
    46e8:	e1863318 	orr	r3, r6, r8, lsl r3
    46ec:	e6ff3073 	uxth	r3, r3
    46f0:	e18030bc 	strh	r3, [r0, ip]
    46f4:	e7cb3007 	strb	r3, [fp, r7]
    46f8:	e19060bc 	ldrh	r6, [r0, ip]
    46fc:	e590b008 	ldr	fp, [r0, #8]
    4700:	e2873001 	add	r3, r7, #1
    4704:	e1a06426 	lsr	r6, r6, #8
    4708:	e7cb6003 	strb	r6, [fp, r3]
    470c:	e7903004 	ldr	r3, [r0, r4]
    4710:	e2455010 	sub	r5, r5, #16
    4714:	e2636010 	rsb	r6, r3, #16
    4718:	e1a08658 	asr	r8, r8, r6
    471c:	e0835005 	add	r5, r3, r5
    4720:	e2877002 	add	r7, r7, #2
    4724:	e6ff8078 	uxth	r8, r8
    4728:	e2422003 	sub	r2, r2, #3
    472c:	e355000e 	cmp	r5, #14
    4730:	e5807014 	str	r7, [r0, #20]
    4734:	e18080bc 	strh	r8, [r0, ip]
    4738:	e7805004 	str	r5, [r0, r4]
    473c:	e6ff2072 	uxth	r2, r2
    4740:	da000069 	ble	48ec <send_tree+0x3fc>
    4744:	e1885512 	orr	r5, r8, r2, lsl r5
    4748:	e5903014 	ldr	r3, [r0, #20]
    474c:	e5906008 	ldr	r6, [r0, #8]
    4750:	e6ff5075 	uxth	r5, r5
    4754:	e18050bc 	strh	r5, [r0, ip]
    4758:	e7c65003 	strb	r5, [r6, r3]
    475c:	e19070bc 	ldrh	r7, [r0, ip]
    4760:	e5906008 	ldr	r6, [r0, #8]
    4764:	e2835001 	add	r5, r3, #1
    4768:	e1a07427 	lsr	r7, r7, #8
    476c:	e7c67005 	strb	r7, [r6, r5]
    4770:	e7905004 	ldr	r5, [r0, r4]
    4774:	e2833002 	add	r3, r3, #2
    4778:	e2656010 	rsb	r6, r5, #16
    477c:	e1a02652 	asr	r2, r2, r6
    4780:	e245500e 	sub	r5, r5, #14
    4784:	e5803014 	str	r3, [r0, #20]
    4788:	e18020bc 	strh	r2, [r0, ip]
    478c:	e7805004 	str	r5, [r0, r4]
    4790:	e3590000 	cmp	r9, #0
    4794:	0affff9b 	beq	4608 <send_tree+0x118>
    4798:	e15a0009 	cmp	sl, r9
    479c:	0a000042 	beq	48ac <send_tree+0x3bc>
    47a0:	e1a0700a 	mov	r7, sl
    47a4:	e3a06004 	mov	r6, #4
    47a8:	e3a05007 	mov	r5, #7
    47ac:	e3a02000 	mov	r2, #0
    47b0:	eaffff98 	b	4618 <send_tree+0x128>
    47b4:	e353000a 	cmp	r3, #10
    47b8:	ca000050 	bgt	4900 <send_tree+0x410>
    47bc:	e59f82e0 	ldr	r8, [pc, #736]	; 4aa4 <send_tree+0x5b4>
    47c0:	e7906004 	ldr	r6, [r0, r4]
    47c4:	e19050b8 	ldrh	r5, [r0, r8]
    47c8:	e2657010 	rsb	r7, r5, #16
    47cc:	e1560007 	cmp	r6, r7
    47d0:	e3a07d2b 	mov	r7, #2752	; 0xac0
    47d4:	da000097 	ble	4a38 <send_tree+0x548>
    47d8:	e19070b7 	ldrh	r7, [r0, r7]
    47dc:	e190b0bc 	ldrh	fp, [r0, ip]
    47e0:	e58d7000 	str	r7, [sp]
    47e4:	e59d8000 	ldr	r8, [sp]
    47e8:	e5907014 	ldr	r7, [r0, #20]
    47ec:	e18b6618 	orr	r6, fp, r8, lsl r6
    47f0:	e590b008 	ldr	fp, [r0, #8]
    47f4:	e6ff6076 	uxth	r6, r6
    47f8:	e18060bc 	strh	r6, [r0, ip]
    47fc:	e7cb6007 	strb	r6, [fp, r7]
    4800:	e190b0bc 	ldrh	fp, [r0, ip]
    4804:	e5908008 	ldr	r8, [r0, #8]
    4808:	e1a0b42b 	lsr	fp, fp, #8
    480c:	e58db008 	str	fp, [sp, #8]
    4810:	e59d6008 	ldr	r6, [sp, #8]
    4814:	e287b001 	add	fp, r7, #1
    4818:	e7c8600b 	strb	r6, [r8, fp]
    481c:	e7906004 	ldr	r6, [r0, r4]
    4820:	e2455010 	sub	r5, r5, #16
    4824:	e266b010 	rsb	fp, r6, #16
    4828:	e59d6000 	ldr	r6, [sp]
    482c:	e2877002 	add	r7, r7, #2
    4830:	e1a08b56 	asr	r8, r6, fp
    4834:	e790b004 	ldr	fp, [r0, r4]
    4838:	e6ff8078 	uxth	r8, r8
    483c:	e08b5005 	add	r5, fp, r5
    4840:	e5807014 	str	r7, [r0, #20]
    4844:	e18080bc 	strh	r8, [r0, ip]
    4848:	e7805004 	str	r5, [r0, r4]
    484c:	e355000d 	cmp	r5, #13
    4850:	da000071 	ble	4a1c <send_tree+0x52c>
    4854:	e2422002 	sub	r2, r2, #2
    4858:	e6ff2072 	uxth	r2, r2
    485c:	e1885512 	orr	r5, r8, r2, lsl r5
    4860:	e5903014 	ldr	r3, [r0, #20]
    4864:	e5906008 	ldr	r6, [r0, #8]
    4868:	e6ff5075 	uxth	r5, r5
    486c:	e18050bc 	strh	r5, [r0, ip]
    4870:	e7c65003 	strb	r5, [r6, r3]
    4874:	e19070bc 	ldrh	r7, [r0, ip]
    4878:	e5906008 	ldr	r6, [r0, #8]
    487c:	e2835001 	add	r5, r3, #1
    4880:	e1a07427 	lsr	r7, r7, #8
    4884:	e7c67005 	strb	r7, [r6, r5]
    4888:	e7905004 	ldr	r5, [r0, r4]
    488c:	e2833002 	add	r3, r3, #2
    4890:	e2656010 	rsb	r6, r5, #16
    4894:	e1a02652 	asr	r2, r2, r6
    4898:	e245500d 	sub	r5, r5, #13
    489c:	e5803014 	str	r3, [r0, #20]
    48a0:	e18020bc 	strh	r2, [r0, ip]
    48a4:	e7805004 	str	r5, [r0, r4]
    48a8:	eaffffb8 	b	4790 <send_tree+0x2a0>
    48ac:	e1a07009 	mov	r7, r9
    48b0:	e3a06003 	mov	r6, #3
    48b4:	e3a05006 	mov	r5, #6
    48b8:	e3a02000 	mov	r2, #0
    48bc:	eaffff55 	b	4618 <send_tree+0x128>
    48c0:	e59f71d8 	ldr	r7, [pc, #472]	; 4aa0 <send_tree+0x5b0>
    48c4:	e0855003 	add	r5, r5, r3
    48c8:	e19080b7 	ldrh	r8, [r0, r7]
    48cc:	e2422003 	sub	r2, r2, #3
    48d0:	e1863318 	orr	r3, r6, r8, lsl r3
    48d4:	e355000e 	cmp	r5, #14
    48d8:	e6ff8073 	uxth	r8, r3
    48dc:	e7805004 	str	r5, [r0, r4]
    48e0:	e18080bc 	strh	r8, [r0, ip]
    48e4:	e6ff2072 	uxth	r2, r2
    48e8:	caffff95 	bgt	4744 <send_tree+0x254>
    48ec:	e1888512 	orr	r8, r8, r2, lsl r5
    48f0:	e2855002 	add	r5, r5, #2
    48f4:	e18080bc 	strh	r8, [r0, ip]
    48f8:	e7805004 	str	r5, [r0, r4]
    48fc:	eaffffa3 	b	4790 <send_tree+0x2a0>
    4900:	e59f61a0 	ldr	r6, [pc, #416]	; 4aa8 <send_tree+0x5b8>
    4904:	e19050b6 	ldrh	r5, [r0, r6]
    4908:	e7906004 	ldr	r6, [r0, r4]
    490c:	e2657010 	rsb	r7, r5, #16
    4910:	e1560007 	cmp	r6, r7
    4914:	e59f7190 	ldr	r7, [pc, #400]	; 4aac <send_tree+0x5bc>
    4918:	da000055 	ble	4a74 <send_tree+0x584>
    491c:	e19070b7 	ldrh	r7, [r0, r7]
    4920:	e190b0bc 	ldrh	fp, [r0, ip]
    4924:	e58d7000 	str	r7, [sp]
    4928:	e59d8000 	ldr	r8, [sp]
    492c:	e5907014 	ldr	r7, [r0, #20]
    4930:	e18b6618 	orr	r6, fp, r8, lsl r6
    4934:	e590b008 	ldr	fp, [r0, #8]
    4938:	e6ff6076 	uxth	r6, r6
    493c:	e18060bc 	strh	r6, [r0, ip]
    4940:	e7cb6007 	strb	r6, [fp, r7]
    4944:	e190b0bc 	ldrh	fp, [r0, ip]
    4948:	e5908008 	ldr	r8, [r0, #8]
    494c:	e1a0b42b 	lsr	fp, fp, #8
    4950:	e58db008 	str	fp, [sp, #8]
    4954:	e59d6008 	ldr	r6, [sp, #8]
    4958:	e287b001 	add	fp, r7, #1
    495c:	e7c8600b 	strb	r6, [r8, fp]
    4960:	e7906004 	ldr	r6, [r0, r4]
    4964:	e2455010 	sub	r5, r5, #16
    4968:	e266b010 	rsb	fp, r6, #16
    496c:	e59d6000 	ldr	r6, [sp]
    4970:	e2877002 	add	r7, r7, #2
    4974:	e1a08b56 	asr	r8, r6, fp
    4978:	e790b004 	ldr	fp, [r0, r4]
    497c:	e6ff8078 	uxth	r8, r8
    4980:	e08b5005 	add	r5, fp, r5
    4984:	e5807014 	str	r7, [r0, #20]
    4988:	e18080bc 	strh	r8, [r0, ip]
    498c:	e7805004 	str	r5, [r0, r4]
    4990:	e3550009 	cmp	r5, #9
    4994:	da00002f 	ble	4a58 <send_tree+0x568>
    4998:	e242200a 	sub	r2, r2, #10
    499c:	e6ff2072 	uxth	r2, r2
    49a0:	e1885512 	orr	r5, r8, r2, lsl r5
    49a4:	e5903014 	ldr	r3, [r0, #20]
    49a8:	e5906008 	ldr	r6, [r0, #8]
    49ac:	e6ff5075 	uxth	r5, r5
    49b0:	e18050bc 	strh	r5, [r0, ip]
    49b4:	e7c65003 	strb	r5, [r6, r3]
    49b8:	e19070bc 	ldrh	r7, [r0, ip]
    49bc:	e5906008 	ldr	r6, [r0, #8]
    49c0:	e2835001 	add	r5, r3, #1
    49c4:	e1a07427 	lsr	r7, r7, #8
    49c8:	e7c67005 	strb	r7, [r6, r5]
    49cc:	e7905004 	ldr	r5, [r0, r4]
    49d0:	e2833002 	add	r3, r3, #2
    49d4:	e2656010 	rsb	r6, r5, #16
    49d8:	e1a02652 	asr	r2, r2, r6
    49dc:	e2455009 	sub	r5, r5, #9
    49e0:	e5803014 	str	r3, [r0, #20]
    49e4:	e18020bc 	strh	r2, [r0, ip]
    49e8:	e7805004 	str	r5, [r0, r4]
    49ec:	eaffff67 	b	4790 <send_tree+0x2a0>
    49f0:	e19050bc 	ldrh	r5, [r0, ip]
    49f4:	e0833007 	add	r3, r3, r7
    49f8:	e1856716 	orr	r6, r5, r6, lsl r7
    49fc:	e6ff6076 	uxth	r6, r6
    4a00:	e7803004 	str	r3, [r0, r4]
    4a04:	e18060bc 	strh	r6, [r0, ip]
    4a08:	eaffff2d 	b	46c4 <send_tree+0x1d4>
    4a0c:	e1a02003 	mov	r2, r3
    4a10:	e19060bc 	ldrh	r6, [r0, ip]
    4a14:	e7903004 	ldr	r3, [r0, r4]
    4a18:	eaffff29 	b	46c4 <send_tree+0x1d4>
    4a1c:	e2433003 	sub	r3, r3, #3
    4a20:	e6ff3073 	uxth	r3, r3
    4a24:	e1888513 	orr	r8, r8, r3, lsl r5
    4a28:	e2855003 	add	r5, r5, #3
    4a2c:	e18080bc 	strh	r8, [r0, ip]
    4a30:	e7805004 	str	r5, [r0, r4]
    4a34:	eaffff55 	b	4790 <send_tree+0x2a0>
    4a38:	e19080b7 	ldrh	r8, [r0, r7]
    4a3c:	e19070bc 	ldrh	r7, [r0, ip]
    4a40:	e0855006 	add	r5, r5, r6
    4a44:	e1878618 	orr	r8, r7, r8, lsl r6
    4a48:	e6ff8078 	uxth	r8, r8
    4a4c:	e7805004 	str	r5, [r0, r4]
    4a50:	e18080bc 	strh	r8, [r0, ip]
    4a54:	eaffff7c 	b	484c <send_tree+0x35c>
    4a58:	e243300b 	sub	r3, r3, #11
    4a5c:	e6ff3073 	uxth	r3, r3
    4a60:	e1888513 	orr	r8, r8, r3, lsl r5
    4a64:	e2855007 	add	r5, r5, #7
    4a68:	e18080bc 	strh	r8, [r0, ip]
    4a6c:	e7805004 	str	r5, [r0, r4]
    4a70:	eaffff46 	b	4790 <send_tree+0x2a0>
    4a74:	e19080b7 	ldrh	r8, [r0, r7]
    4a78:	e19070bc 	ldrh	r7, [r0, ip]
    4a7c:	e0855006 	add	r5, r5, r6
    4a80:	e1878618 	orr	r8, r7, r8, lsl r6
    4a84:	e6ff8078 	uxth	r8, r8
    4a88:	e7805004 	str	r5, [r0, r4]
    4a8c:	e18080bc 	strh	r8, [r0, ip]
    4a90:	eaffffbe 	b	4990 <send_tree+0x4a0>
    4a94:	000016bc 			; <UNDEFINED> instruction: 0x000016bc
    4a98:	000016b8 			; <UNDEFINED> instruction: 0x000016b8
    4a9c:	00000abe 			; <UNDEFINED> instruction: 0x00000abe
    4aa0:	00000abc 			; <UNDEFINED> instruction: 0x00000abc
    4aa4:	00000ac2 	andeq	r0, r0, r2, asr #21
    4aa8:	00000ac6 	andeq	r0, r0, r6, asr #21
    4aac:	00000ac4 	andeq	r0, r0, r4, asr #21

00004ab0 <compress_block>:
    4ab0:	e92d0ff0 	push	{r4, r5, r6, r7, r8, r9, sl, fp}
    4ab4:	e59f541c 	ldr	r5, [pc, #1052]	; 4ed8 <compress_block+0x428>
    4ab8:	e24dd010 	sub	sp, sp, #16
    4abc:	e7903005 	ldr	r3, [r0, r5]
    4ac0:	e58d200c 	str	r2, [sp, #12]
    4ac4:	e3530000 	cmp	r3, #0
    4ac8:	1a000013 	bne	4b1c <compress_block+0x6c>
    4acc:	e59f3408 	ldr	r3, [pc, #1032]	; 4edc <compress_block+0x42c>
    4ad0:	e59f2408 	ldr	r2, [pc, #1032]	; 4ee0 <compress_block+0x430>
    4ad4:	e7903003 	ldr	r3, [r0, r3]
    4ad8:	e190c0b2 	ldrh	ip, [r0, r2]
    4adc:	e59f2400 	ldr	r2, [pc, #1024]	; 4ee4 <compress_block+0x434>
    4ae0:	e19120b2 	ldrh	r2, [r1, r2]
    4ae4:	e2624010 	rsb	r4, r2, #16
    4ae8:	e1540003 	cmp	r4, r3
    4aec:	e3a04b01 	mov	r4, #1024	; 0x400
    4af0:	ba0000e0 	blt	4e78 <compress_block+0x3c8>
    4af4:	e19110b4 	ldrh	r1, [r1, r4]
    4af8:	e59f43dc 	ldr	r4, [pc, #988]	; 4edc <compress_block+0x42c>
    4afc:	e18cc311 	orr	ip, ip, r1, lsl r3
    4b00:	e59f13d8 	ldr	r1, [pc, #984]	; 4ee0 <compress_block+0x430>
    4b04:	e0823003 	add	r3, r2, r3
    4b08:	e7803004 	str	r3, [r0, r4]
    4b0c:	e180c0b1 	strh	ip, [r0, r1]
    4b10:	e28dd010 	add	sp, sp, #16
    4b14:	e8bd0ff0 	pop	{r4, r5, r6, r7, r8, r9, sl, fp}
    4b18:	e12fff1e 	bx	lr
    4b1c:	e59f63b8 	ldr	r6, [pc, #952]	; 4edc <compress_block+0x42c>
    4b20:	e59f43b8 	ldr	r4, [pc, #952]	; 4ee0 <compress_block+0x430>
    4b24:	e7903006 	ldr	r3, [r0, r6]
    4b28:	e190c0b4 	ldrh	ip, [r0, r4]
    4b2c:	e3a02000 	mov	r2, #0
    4b30:	ea00001f 	b	4bb4 <compress_block+0x104>
    4b34:	e1a08108 	lsl	r8, r8, #2
    4b38:	e0815008 	add	r5, r1, r8
    4b3c:	e1d550b2 	ldrh	r5, [r5, #2]
    4b40:	e2657010 	rsb	r7, r5, #16
    4b44:	e1570003 	cmp	r7, r3
    4b48:	aa0000b0 	bge	4e10 <compress_block+0x360>
    4b4c:	e191a0b8 	ldrh	sl, [r1, r8]
    4b50:	e5907014 	ldr	r7, [r0, #20]
    4b54:	e18c331a 	orr	r3, ip, sl, lsl r3
    4b58:	e5908008 	ldr	r8, [r0, #8]
    4b5c:	e6ff3073 	uxth	r3, r3
    4b60:	e18030b4 	strh	r3, [r0, r4]
    4b64:	e7c83007 	strb	r3, [r8, r7]
    4b68:	e19080b4 	ldrh	r8, [r0, r4]
    4b6c:	e590c008 	ldr	ip, [r0, #8]
    4b70:	e2873001 	add	r3, r7, #1
    4b74:	e1a08428 	lsr	r8, r8, #8
    4b78:	e7cc8003 	strb	r8, [ip, r3]
    4b7c:	e7908006 	ldr	r8, [r0, r6]
    4b80:	e2453010 	sub	r3, r5, #16
    4b84:	e268c010 	rsb	ip, r8, #16
    4b88:	e1a0cc5a 	asr	ip, sl, ip
    4b8c:	e2877002 	add	r7, r7, #2
    4b90:	e0883003 	add	r3, r8, r3
    4b94:	e6ffc07c 	uxth	ip, ip
    4b98:	e5807014 	str	r7, [r0, #20]
    4b9c:	e180c0b4 	strh	ip, [r0, r4]
    4ba0:	e7803006 	str	r3, [r0, r6]
    4ba4:	e59f732c 	ldr	r7, [pc, #812]	; 4ed8 <compress_block+0x428>
    4ba8:	e7905007 	ldr	r5, [r0, r7]
    4bac:	e1520005 	cmp	r2, r5
    4bb0:	2affffc9 	bcs	4adc <compress_block+0x2c>
    4bb4:	e59f532c 	ldr	r5, [pc, #812]	; 4ee8 <compress_block+0x438>
    4bb8:	e59f832c 	ldr	r8, [pc, #812]	; 4eec <compress_block+0x43c>
    4bbc:	e7907005 	ldr	r7, [r0, r5]
    4bc0:	e1a05082 	lsl	r5, r2, #1
    4bc4:	e19770b5 	ldrh	r7, [r7, r5]
    4bc8:	e7905008 	ldr	r5, [r0, r8]
    4bcc:	e3570000 	cmp	r7, #0
    4bd0:	e7d58002 	ldrb	r8, [r5, r2]
    4bd4:	e2822001 	add	r2, r2, #1
    4bd8:	0affffd5 	beq	4b34 <compress_block+0x84>
    4bdc:	e59fb30c 	ldr	fp, [pc, #780]	; 4ef0 <compress_block+0x440>
    4be0:	e7dba008 	ldrb	sl, [fp, r8]
    4be4:	e28a9c01 	add	r9, sl, #256	; 0x100
    4be8:	e2899001 	add	r9, r9, #1
    4bec:	e1a09109 	lsl	r9, r9, #2
    4bf0:	e0815009 	add	r5, r1, r9
    4bf4:	e1d550b2 	ldrh	r5, [r5, #2]
    4bf8:	e265b010 	rsb	fp, r5, #16
    4bfc:	e15b0003 	cmp	fp, r3
    4c00:	aa000090 	bge	4e48 <compress_block+0x398>
    4c04:	e19190b9 	ldrh	r9, [r1, r9]
    4c08:	e2455010 	sub	r5, r5, #16
    4c0c:	e58d9000 	str	r9, [sp]
    4c10:	e59db000 	ldr	fp, [sp]
    4c14:	e5909014 	ldr	r9, [r0, #20]
    4c18:	e18c331b 	orr	r3, ip, fp, lsl r3
    4c1c:	e590c008 	ldr	ip, [r0, #8]
    4c20:	e6ff3073 	uxth	r3, r3
    4c24:	e18030b4 	strh	r3, [r0, r4]
    4c28:	e7cc3009 	strb	r3, [ip, r9]
    4c2c:	e190c0b4 	ldrh	ip, [r0, r4]
    4c30:	e590b008 	ldr	fp, [r0, #8]
    4c34:	e1a0c42c 	lsr	ip, ip, #8
    4c38:	e58dc008 	str	ip, [sp, #8]
    4c3c:	e59d3008 	ldr	r3, [sp, #8]
    4c40:	e289c001 	add	ip, r9, #1
    4c44:	e7cb300c 	strb	r3, [fp, ip]
    4c48:	e7903006 	ldr	r3, [r0, r6]
    4c4c:	e2899002 	add	r9, r9, #2
    4c50:	e263c010 	rsb	ip, r3, #16
    4c54:	e59d3000 	ldr	r3, [sp]
    4c58:	e5809014 	str	r9, [r0, #20]
    4c5c:	e1a0bc53 	asr	fp, r3, ip
    4c60:	e790c006 	ldr	ip, [r0, r6]
    4c64:	e6ffb07b 	uxth	fp, fp
    4c68:	e08c5005 	add	r5, ip, r5
    4c6c:	e180b0b4 	strh	fp, [r0, r4]
    4c70:	e7805006 	str	r5, [r0, r6]
    4c74:	e59f3274 	ldr	r3, [pc, #628]	; 4ef0 <compress_block+0x440>
    4c78:	e083a10a 	add	sl, r3, sl, lsl #2
    4c7c:	e59a9100 	ldr	r9, [sl, #256]	; 0x100
    4c80:	e3590000 	cmp	r9, #0
    4c84:	0a00001a 	beq	4cf4 <compress_block+0x244>
    4c88:	e59a3174 	ldr	r3, [sl, #372]	; 0x174
    4c8c:	e269c010 	rsb	ip, r9, #16
    4c90:	e0638008 	rsb	r8, r3, r8
    4c94:	e6ff8078 	uxth	r8, r8
    4c98:	e15c0005 	cmp	ip, r5
    4c9c:	e18bb518 	orr	fp, fp, r8, lsl r5
    4ca0:	aa00006f 	bge	4e64 <compress_block+0x3b4>
    4ca4:	e590a014 	ldr	sl, [r0, #20]
    4ca8:	e5903008 	ldr	r3, [r0, #8]
    4cac:	e6ffb07b 	uxth	fp, fp
    4cb0:	e180b0b4 	strh	fp, [r0, r4]
    4cb4:	e7c3b00a 	strb	fp, [r3, sl]
    4cb8:	e19050b4 	ldrh	r5, [r0, r4]
    4cbc:	e590c008 	ldr	ip, [r0, #8]
    4cc0:	e28a3001 	add	r3, sl, #1
    4cc4:	e1a05425 	lsr	r5, r5, #8
    4cc8:	e7cc5003 	strb	r5, [ip, r3]
    4ccc:	e7903006 	ldr	r3, [r0, r6]
    4cd0:	e2495010 	sub	r5, r9, #16
    4cd4:	e263b010 	rsb	fp, r3, #16
    4cd8:	e1a0bb58 	asr	fp, r8, fp
    4cdc:	e28aa002 	add	sl, sl, #2
    4ce0:	e0835005 	add	r5, r3, r5
    4ce4:	e6ffb07b 	uxth	fp, fp
    4ce8:	e580a014 	str	sl, [r0, #20]
    4cec:	e180b0b4 	strh	fp, [r0, r4]
    4cf0:	e7805006 	str	r5, [r0, r6]
    4cf4:	e2477001 	sub	r7, r7, #1
    4cf8:	e35700ff 	cmp	r7, #255	; 0xff
    4cfc:	959f81ec 	ldrls	r8, [pc, #492]	; 4ef0 <compress_block+0x440>
    4d00:	859fa1e8 	ldrhi	sl, [pc, #488]	; 4ef0 <compress_block+0x440>
    4d04:	90883007 	addls	r3, r8, r7
    4d08:	808a33a7 	addhi	r3, sl, r7, lsr #7
    4d0c:	95d381e8 	ldrbls	r8, [r3, #488]	; 0x1e8
    4d10:	85d382e8 	ldrbhi	r8, [r3, #744]	; 0x2e8
    4d14:	e59dc00c 	ldr	ip, [sp, #12]
    4d18:	e1a08108 	lsl	r8, r8, #2
    4d1c:	e08c3008 	add	r3, ip, r8
    4d20:	e1d330b2 	ldrh	r3, [r3, #2]
    4d24:	e59da00c 	ldr	sl, [sp, #12]
    4d28:	e263c010 	rsb	ip, r3, #16
    4d2c:	e15c0005 	cmp	ip, r5
    4d30:	aa00003d 	bge	4e2c <compress_block+0x37c>
    4d34:	e19a90b8 	ldrh	r9, [sl, r8]
    4d38:	e590c008 	ldr	ip, [r0, #8]
    4d3c:	e18bb519 	orr	fp, fp, r9, lsl r5
    4d40:	e590a014 	ldr	sl, [r0, #20]
    4d44:	e6ffb07b 	uxth	fp, fp
    4d48:	e180b0b4 	strh	fp, [r0, r4]
    4d4c:	e7ccb00a 	strb	fp, [ip, sl]
    4d50:	e19050b4 	ldrh	r5, [r0, r4]
    4d54:	e590b008 	ldr	fp, [r0, #8]
    4d58:	e28ac001 	add	ip, sl, #1
    4d5c:	e1a05425 	lsr	r5, r5, #8
    4d60:	e7cb500c 	strb	r5, [fp, ip]
    4d64:	e7905006 	ldr	r5, [r0, r6]
    4d68:	e2433010 	sub	r3, r3, #16
    4d6c:	e265c010 	rsb	ip, r5, #16
    4d70:	e1a0cc59 	asr	ip, r9, ip
    4d74:	e28aa002 	add	sl, sl, #2
    4d78:	e0853003 	add	r3, r5, r3
    4d7c:	e6ffc07c 	uxth	ip, ip
    4d80:	e580a014 	str	sl, [r0, #20]
    4d84:	e180c0b4 	strh	ip, [r0, r4]
    4d88:	e7803006 	str	r3, [r0, r6]
    4d8c:	e59fb15c 	ldr	fp, [pc, #348]	; 4ef0 <compress_block+0x440>
    4d90:	e08b8008 	add	r8, fp, r8
    4d94:	e59853e8 	ldr	r5, [r8, #1000]	; 0x3e8
    4d98:	e3550000 	cmp	r5, #0
    4d9c:	0affff80 	beq	4ba4 <compress_block+0xf4>
    4da0:	e5988460 	ldr	r8, [r8, #1120]	; 0x460
    4da4:	e265a010 	rsb	sl, r5, #16
    4da8:	e0687007 	rsb	r7, r8, r7
    4dac:	e15a0003 	cmp	sl, r3
    4db0:	e6ff7077 	uxth	r7, r7
    4db4:	aa000016 	bge	4e14 <compress_block+0x364>
    4db8:	e18c3317 	orr	r3, ip, r7, lsl r3
    4dbc:	e5908014 	ldr	r8, [r0, #20]
    4dc0:	e590a008 	ldr	sl, [r0, #8]
    4dc4:	e6ff3073 	uxth	r3, r3
    4dc8:	e18030b4 	strh	r3, [r0, r4]
    4dcc:	e7ca3008 	strb	r3, [sl, r8]
    4dd0:	e190a0b4 	ldrh	sl, [r0, r4]
    4dd4:	e590c008 	ldr	ip, [r0, #8]
    4dd8:	e2883001 	add	r3, r8, #1
    4ddc:	e1a0a42a 	lsr	sl, sl, #8
    4de0:	e7cca003 	strb	sl, [ip, r3]
    4de4:	e790a006 	ldr	sl, [r0, r6]
    4de8:	e2453010 	sub	r3, r5, #16
    4dec:	e26ac010 	rsb	ip, sl, #16
    4df0:	e1a07c57 	asr	r7, r7, ip
    4df4:	e2888002 	add	r8, r8, #2
    4df8:	e08a3003 	add	r3, sl, r3
    4dfc:	e6ffc077 	uxth	ip, r7
    4e00:	e5808014 	str	r8, [r0, #20]
    4e04:	e180c0b4 	strh	ip, [r0, r4]
    4e08:	e7803006 	str	r3, [r0, r6]
    4e0c:	eaffff64 	b	4ba4 <compress_block+0xf4>
    4e10:	e19170b8 	ldrh	r7, [r1, r8]
    4e14:	e18cc317 	orr	ip, ip, r7, lsl r3
    4e18:	e0833005 	add	r3, r3, r5
    4e1c:	e6ffc07c 	uxth	ip, ip
    4e20:	e180c0b4 	strh	ip, [r0, r4]
    4e24:	e7803006 	str	r3, [r0, r6]
    4e28:	eaffff5d 	b	4ba4 <compress_block+0xf4>
    4e2c:	e19ac0b8 	ldrh	ip, [sl, r8]
    4e30:	e0833005 	add	r3, r3, r5
    4e34:	e18bb51c 	orr	fp, fp, ip, lsl r5
    4e38:	e6ffc07b 	uxth	ip, fp
    4e3c:	e180c0b4 	strh	ip, [r0, r4]
    4e40:	e7803006 	str	r3, [r0, r6]
    4e44:	eaffffd0 	b	4d8c <compress_block+0x2dc>
    4e48:	e191b0b9 	ldrh	fp, [r1, r9]
    4e4c:	e0855003 	add	r5, r5, r3
    4e50:	e18cb31b 	orr	fp, ip, fp, lsl r3
    4e54:	e6ffb07b 	uxth	fp, fp
    4e58:	e180b0b4 	strh	fp, [r0, r4]
    4e5c:	e7805006 	str	r5, [r0, r6]
    4e60:	eaffff83 	b	4c74 <compress_block+0x1c4>
    4e64:	e0855009 	add	r5, r5, r9
    4e68:	e6ffb07b 	uxth	fp, fp
    4e6c:	e180b0b4 	strh	fp, [r0, r4]
    4e70:	e7805006 	str	r5, [r0, r6]
    4e74:	eaffff9e 	b	4cf4 <compress_block+0x244>
    4e78:	e19160b4 	ldrh	r6, [r1, r4]
    4e7c:	e5905008 	ldr	r5, [r0, #8]
    4e80:	e18c3316 	orr	r3, ip, r6, lsl r3
    4e84:	e5904014 	ldr	r4, [r0, #20]
    4e88:	e59f1050 	ldr	r1, [pc, #80]	; 4ee0 <compress_block+0x430>
    4e8c:	e6ff3073 	uxth	r3, r3
    4e90:	e18030b1 	strh	r3, [r0, r1]
    4e94:	e7c53004 	strb	r3, [r5, r4]
    4e98:	e19070b1 	ldrh	r7, [r0, r1]
    4e9c:	e5905008 	ldr	r5, [r0, #8]
    4ea0:	e2843001 	add	r3, r4, #1
    4ea4:	e59fc030 	ldr	ip, [pc, #48]	; 4edc <compress_block+0x42c>
    4ea8:	e1a07427 	lsr	r7, r7, #8
    4eac:	e7c57003 	strb	r7, [r5, r3]
    4eb0:	e790500c 	ldr	r5, [r0, ip]
    4eb4:	e2422010 	sub	r2, r2, #16
    4eb8:	e2653010 	rsb	r3, r5, #16
    4ebc:	e1a06356 	asr	r6, r6, r3
    4ec0:	e2844002 	add	r4, r4, #2
    4ec4:	e0855002 	add	r5, r5, r2
    4ec8:	e5804014 	str	r4, [r0, #20]
    4ecc:	e18060b1 	strh	r6, [r0, r1]
    4ed0:	e780500c 	str	r5, [r0, ip]
    4ed4:	eaffff0d 	b	4b10 <compress_block+0x60>
    4ed8:	000016a0 	andeq	r1, r0, r0, lsr #13
    4edc:	000016bc 			; <UNDEFINED> instruction: 0x000016bc
    4ee0:	000016b8 			; <UNDEFINED> instruction: 0x000016b8
    4ee4:	00000402 	andeq	r0, r0, r2, lsl #8
    4ee8:	000016a4 	andeq	r1, r0, r4, lsr #13
    4eec:	00001698 	muleq	r0, r8, r6
    4ef0:	0000b61c 	andeq	fp, r0, ip, lsl r6

00004ef4 <bi_windup>:
    4ef4:	e59f3080 	ldr	r3, [pc, #128]	; 4f7c <bi_windup+0x88>
    4ef8:	e52d4004 	push	{r4}		; (str r4, [sp, #-4]!)
    4efc:	e7903003 	ldr	r3, [r0, r3]
    4f00:	e3530008 	cmp	r3, #8
    4f04:	ca00000f 	bgt	4f48 <bi_windup+0x54>
    4f08:	e3530000 	cmp	r3, #0
    4f0c:	da000006 	ble	4f2c <bi_windup+0x38>
    4f10:	e59f2068 	ldr	r2, [pc, #104]	; 4f80 <bi_windup+0x8c>
    4f14:	e5903014 	ldr	r3, [r0, #20]
    4f18:	e190c0b2 	ldrh	ip, [r0, r2]
    4f1c:	e5901008 	ldr	r1, [r0, #8]
    4f20:	e2832001 	add	r2, r3, #1
    4f24:	e7c1c003 	strb	ip, [r1, r3]
    4f28:	e5802014 	str	r2, [r0, #20]
    4f2c:	e59f104c 	ldr	r1, [pc, #76]	; 4f80 <bi_windup+0x8c>
    4f30:	e59f2044 	ldr	r2, [pc, #68]	; 4f7c <bi_windup+0x88>
    4f34:	e3a03000 	mov	r3, #0
    4f38:	e18030b1 	strh	r3, [r0, r1]
    4f3c:	e7803002 	str	r3, [r0, r2]
    4f40:	e8bd0010 	pop	{r4}
    4f44:	e12fff1e 	bx	lr
    4f48:	e59f2030 	ldr	r2, [pc, #48]	; 4f80 <bi_windup+0x8c>
    4f4c:	e5903014 	ldr	r3, [r0, #20]
    4f50:	e19040b2 	ldrh	r4, [r0, r2]
    4f54:	e590c008 	ldr	ip, [r0, #8]
    4f58:	e2831001 	add	r1, r3, #1
    4f5c:	e7cc4003 	strb	r4, [ip, r3]
    4f60:	e190c0b2 	ldrh	ip, [r0, r2]
    4f64:	e5902008 	ldr	r2, [r0, #8]
    4f68:	e1a0c42c 	lsr	ip, ip, #8
    4f6c:	e2833002 	add	r3, r3, #2
    4f70:	e7c2c001 	strb	ip, [r2, r1]
    4f74:	e5803014 	str	r3, [r0, #20]
    4f78:	eaffffeb 	b	4f2c <bi_windup+0x38>
    4f7c:	000016bc 			; <UNDEFINED> instruction: 0x000016bc
    4f80:	000016b8 			; <UNDEFINED> instruction: 0x000016b8

00004f84 <bi_flush>:
    4f84:	e59f3090 	ldr	r3, [pc, #144]	; 501c <bi_flush+0x98>
    4f88:	e92d0070 	push	{r4, r5, r6}
    4f8c:	e7902003 	ldr	r2, [r0, r3]
    4f90:	e3520010 	cmp	r2, #16
    4f94:	0a000010 	beq	4fdc <bi_flush+0x58>
    4f98:	e3520007 	cmp	r2, #7
    4f9c:	da00000c 	ble	4fd4 <bi_flush+0x50>
    4fa0:	e59f2078 	ldr	r2, [pc, #120]	; 5020 <bi_flush+0x9c>
    4fa4:	e5901014 	ldr	r1, [r0, #20]
    4fa8:	e19050b2 	ldrh	r5, [r0, r2]
    4fac:	e590c008 	ldr	ip, [r0, #8]
    4fb0:	e2814001 	add	r4, r1, #1
    4fb4:	e7cc5001 	strb	r5, [ip, r1]
    4fb8:	e190c0b2 	ldrh	ip, [r0, r2]
    4fbc:	e7901003 	ldr	r1, [r0, r3]
    4fc0:	e1a0c42c 	lsr	ip, ip, #8
    4fc4:	e2411008 	sub	r1, r1, #8
    4fc8:	e5804014 	str	r4, [r0, #20]
    4fcc:	e180c0b2 	strh	ip, [r0, r2]
    4fd0:	e7801003 	str	r1, [r0, r3]
    4fd4:	e8bd0070 	pop	{r4, r5, r6}
    4fd8:	e12fff1e 	bx	lr
    4fdc:	e59f203c 	ldr	r2, [pc, #60]	; 5020 <bi_flush+0x9c>
    4fe0:	e5901014 	ldr	r1, [r0, #20]
    4fe4:	e19050b2 	ldrh	r5, [r0, r2]
    4fe8:	e590c008 	ldr	ip, [r0, #8]
    4fec:	e2814001 	add	r4, r1, #1
    4ff0:	e7cc5001 	strb	r5, [ip, r1]
    4ff4:	e19060b2 	ldrh	r6, [r0, r2]
    4ff8:	e5905008 	ldr	r5, [r0, #8]
    4ffc:	e3a0c000 	mov	ip, #0
    5000:	e1a06426 	lsr	r6, r6, #8
    5004:	e2811002 	add	r1, r1, #2
    5008:	e7c56004 	strb	r6, [r5, r4]
    500c:	e5801014 	str	r1, [r0, #20]
    5010:	e180c0b2 	strh	ip, [r0, r2]
    5014:	e780c003 	str	ip, [r0, r3]
    5018:	eaffffed 	b	4fd4 <bi_flush+0x50>
    501c:	000016bc 			; <UNDEFINED> instruction: 0x000016bc
    5020:	000016b8 			; <UNDEFINED> instruction: 0x000016b8

00005024 <_tr_init>:
    5024:	e59f20d4 	ldr	r2, [pc, #212]	; 5100 <_tr_init+0xdc>
    5028:	e92d05f0 	push	{r4, r5, r6, r7, r8, sl}
    502c:	e59fc0d0 	ldr	ip, [pc, #208]	; 5104 <_tr_init+0xe0>
    5030:	e2808d26 	add	r8, r0, #2432	; 0x980
    5034:	e2805ea7 	add	r5, r0, #2672	; 0xa70
    5038:	e59f40c8 	ldr	r4, [pc, #200]	; 5108 <_tr_init+0xe4>
    503c:	e2827014 	add	r7, r2, #20
    5040:	e2826028 	add	r6, r2, #40	; 0x28
    5044:	e3a01000 	mov	r1, #0
    5048:	e280a094 	add	sl, r0, #148	; 0x94
    504c:	e2888008 	add	r8, r8, #8
    5050:	e285500c 	add	r5, r5, #12
    5054:	e59f30b0 	ldr	r3, [pc, #176]	; 510c <_tr_init+0xe8>
    5058:	e5802b20 	str	r2, [r0, #2848]	; 0xb20
    505c:	e580ab18 	str	sl, [r0, #2840]	; 0xb18
    5060:	e5808b24 	str	r8, [r0, #2852]	; 0xb24
    5064:	e5807b2c 	str	r7, [r0, #2860]	; 0xb2c
    5068:	e5806b38 	str	r6, [r0, #2872]	; 0xb38
    506c:	e5805b30 	str	r5, [r0, #2864]	; 0xb30
    5070:	e18010b4 	strh	r1, [r0, r4]
    5074:	e780100c 	str	r1, [r0, ip]
    5078:	e1a02000 	mov	r2, r0
    507c:	e2533001 	subs	r3, r3, #1
    5080:	e1c219b4 	strh	r1, [r2, #148]	; 0x94
    5084:	e2822004 	add	r2, r2, #4
    5088:	1afffffb 	bne	507c <_tr_init+0x58>
    508c:	e1a01003 	mov	r1, r3
    5090:	e0802003 	add	r2, r0, r3
    5094:	e2833004 	add	r3, r3, #4
    5098:	e2822d26 	add	r2, r2, #2432	; 0x980
    509c:	e3530078 	cmp	r3, #120	; 0x78
    50a0:	e1c210b8 	strh	r1, [r2, #8]
    50a4:	1afffff9 	bne	5090 <_tr_init+0x6c>
    50a8:	e3a03000 	mov	r3, #0
    50ac:	e1a01003 	mov	r1, r3
    50b0:	e0802003 	add	r2, r0, r3
    50b4:	e2833004 	add	r3, r3, #4
    50b8:	e2822ea7 	add	r2, r2, #2672	; 0xa70
    50bc:	e353004c 	cmp	r3, #76	; 0x4c
    50c0:	e1c210bc 	strh	r1, [r2, #12]
    50c4:	e3a02000 	mov	r2, #0
    50c8:	1afffff8 	bne	50b0 <_tr_init+0x8c>
    50cc:	e59f503c 	ldr	r5, [pc, #60]	; 5110 <_tr_init+0xec>
    50d0:	e59f403c 	ldr	r4, [pc, #60]	; 5114 <_tr_init+0xf0>
    50d4:	e59fc03c 	ldr	ip, [pc, #60]	; 5118 <_tr_init+0xf4>
    50d8:	e59f103c 	ldr	r1, [pc, #60]	; 511c <_tr_init+0xf8>
    50dc:	e59f303c 	ldr	r3, [pc, #60]	; 5120 <_tr_init+0xfc>
    50e0:	e3a06001 	mov	r6, #1
    50e4:	e18060b5 	strh	r6, [r0, r5]
    50e8:	e7802004 	str	r2, [r0, r4]
    50ec:	e780200c 	str	r2, [r0, ip]
    50f0:	e7802001 	str	r2, [r0, r1]
    50f4:	e7802003 	str	r2, [r0, r3]
    50f8:	e8bd05f0 	pop	{r4, r5, r6, r7, r8, sl}
    50fc:	e12fff1e 	bx	lr
    5100:	0000cc94 	muleq	r0, r4, ip
    5104:	000016bc 			; <UNDEFINED> instruction: 0x000016bc
    5108:	000016b8 			; <UNDEFINED> instruction: 0x000016b8
    510c:	0000011e 	andeq	r0, r0, lr, lsl r1
    5110:	00000494 	muleq	r0, r4, r4
    5114:	000016ac 	andeq	r1, r0, ip, lsr #13
    5118:	000016a8 	andeq	r1, r0, r8, lsr #13
    511c:	000016b0 			; <UNDEFINED> instruction: 0x000016b0
    5120:	000016a0 	andeq	r1, r0, r0, lsr #13

00005124 <_tr_stored_block>:
    5124:	e59fc10c 	ldr	ip, [pc, #268]	; 5238 <_tr_stored_block+0x114>
    5128:	e92d40f8 	push	{r3, r4, r5, r6, r7, lr}
    512c:	e1a04000 	mov	r4, r0
    5130:	e790000c 	ldr	r0, [r0, ip]
    5134:	e1a05002 	mov	r5, r2
    5138:	e59f20fc 	ldr	r2, [pc, #252]	; 523c <_tr_stored_block+0x118>
    513c:	e350000d 	cmp	r0, #13
    5140:	e1a06001 	mov	r6, r1
    5144:	e6ff3073 	uxth	r3, r3
    5148:	e194e0b2 	ldrh	lr, [r4, r2]
    514c:	ca000025 	bgt	51e8 <_tr_stored_block+0xc4>
    5150:	e2801003 	add	r1, r0, #3
    5154:	e18e0013 	orr	r0, lr, r3, lsl r0
    5158:	e784100c 	str	r1, [r4, ip]
    515c:	e18400b2 	strh	r0, [r4, r2]
    5160:	e1a00004 	mov	r0, r4
    5164:	ebffff62 	bl	4ef4 <bi_windup>
    5168:	e5943014 	ldr	r3, [r4, #20]
    516c:	e5942008 	ldr	r2, [r4, #8]
    5170:	e6ef0075 	uxtb	r0, r5
    5174:	e7c20003 	strb	r0, [r2, r3]
    5178:	e594c008 	ldr	ip, [r4, #8]
    517c:	e6ff2075 	uxth	r2, r5
    5180:	e2831001 	add	r1, r3, #1
    5184:	e1a07422 	lsr	r7, r2, #8
    5188:	e7cc7001 	strb	r7, [ip, r1]
    518c:	e594c008 	ldr	ip, [r4, #8]
    5190:	e2831002 	add	r1, r3, #2
    5194:	e1e00000 	mvn	r0, r0
    5198:	e7cc0001 	strb	r0, [ip, r1]
    519c:	e2222cff 	eor	r2, r2, #65280	; 0xff00
    51a0:	e5940008 	ldr	r0, [r4, #8]
    51a4:	e2831003 	add	r1, r3, #3
    51a8:	e1a02422 	lsr	r2, r2, #8
    51ac:	e2833004 	add	r3, r3, #4
    51b0:	e3550000 	cmp	r5, #0
    51b4:	e7c02001 	strb	r2, [r0, r1]
    51b8:	e5843014 	str	r3, [r4, #20]
    51bc:	08bd80f8 	popeq	{r3, r4, r5, r6, r7, pc}
    51c0:	e2461001 	sub	r1, r6, #1
    51c4:	e0852003 	add	r2, r5, r3
    51c8:	e5f1c001 	ldrb	ip, [r1, #1]!
    51cc:	e5940008 	ldr	r0, [r4, #8]
    51d0:	e7c0c003 	strb	ip, [r0, r3]
    51d4:	e2833001 	add	r3, r3, #1
    51d8:	e1530002 	cmp	r3, r2
    51dc:	e5843014 	str	r3, [r4, #20]
    51e0:	1afffff8 	bne	51c8 <_tr_stored_block+0xa4>
    51e4:	e8bd80f8 	pop	{r3, r4, r5, r6, r7, pc}
    51e8:	e18e0013 	orr	r0, lr, r3, lsl r0
    51ec:	e5941014 	ldr	r1, [r4, #20]
    51f0:	e594e008 	ldr	lr, [r4, #8]
    51f4:	e6ff0070 	uxth	r0, r0
    51f8:	e18400b2 	strh	r0, [r4, r2]
    51fc:	e7ce0001 	strb	r0, [lr, r1]
    5200:	e19470b2 	ldrh	r7, [r4, r2]
    5204:	e594e008 	ldr	lr, [r4, #8]
    5208:	e2810001 	add	r0, r1, #1
    520c:	e1a07427 	lsr	r7, r7, #8
    5210:	e7ce7000 	strb	r7, [lr, r0]
    5214:	e794000c 	ldr	r0, [r4, ip]
    5218:	e2811002 	add	r1, r1, #2
    521c:	e260e010 	rsb	lr, r0, #16
    5220:	e1a03e53 	asr	r3, r3, lr
    5224:	e240000d 	sub	r0, r0, #13
    5228:	e5841014 	str	r1, [r4, #20]
    522c:	e18430b2 	strh	r3, [r4, r2]
    5230:	e784000c 	str	r0, [r4, ip]
    5234:	eaffffc9 	b	5160 <_tr_stored_block+0x3c>
    5238:	000016bc 			; <UNDEFINED> instruction: 0x000016bc
    523c:	000016b8 			; <UNDEFINED> instruction: 0x000016b8

00005240 <_tr_flush_bits>:
    5240:	eaffff4f 	b	4f84 <bi_flush>

00005244 <_tr_align>:
    5244:	e59f20e8 	ldr	r2, [pc, #232]	; 5334 <_tr_align+0xf0>
    5248:	e92d0070 	push	{r4, r5, r6}
    524c:	e7901002 	ldr	r1, [r0, r2]
    5250:	e59fc0e0 	ldr	ip, [pc, #224]	; 5338 <_tr_align+0xf4>
    5254:	e351000d 	cmp	r1, #13
    5258:	e3a05002 	mov	r5, #2
    525c:	da00001a 	ble	52cc <_tr_align+0x88>
    5260:	e19030bc 	ldrh	r3, [r0, ip]
    5264:	e5904014 	ldr	r4, [r0, #20]
    5268:	e1831115 	orr	r1, r3, r5, lsl r1
    526c:	e5903008 	ldr	r3, [r0, #8]
    5270:	e6ff1071 	uxth	r1, r1
    5274:	e18010bc 	strh	r1, [r0, ip]
    5278:	e7c31004 	strb	r1, [r3, r4]
    527c:	e19060bc 	ldrh	r6, [r0, ip]
    5280:	e5901008 	ldr	r1, [r0, #8]
    5284:	e2843001 	add	r3, r4, #1
    5288:	e1a06426 	lsr	r6, r6, #8
    528c:	e7c16003 	strb	r6, [r1, r3]
    5290:	e7903002 	ldr	r3, [r0, r2]
    5294:	e0844005 	add	r4, r4, r5
    5298:	e2631010 	rsb	r1, r3, #16
    529c:	e1a05155 	asr	r5, r5, r1
    52a0:	e243300d 	sub	r3, r3, #13
    52a4:	e3530009 	cmp	r3, #9
    52a8:	e5804014 	str	r4, [r0, #20]
    52ac:	e18050bc 	strh	r5, [r0, ip]
    52b0:	e7803002 	str	r3, [r0, r2]
    52b4:	ca00000b 	bgt	52e8 <_tr_align+0xa4>
    52b8:	e59f2074 	ldr	r2, [pc, #116]	; 5334 <_tr_align+0xf0>
    52bc:	e2833007 	add	r3, r3, #7
    52c0:	e7803002 	str	r3, [r0, r2]
    52c4:	e8bd0070 	pop	{r4, r5, r6}
    52c8:	eaffff2d 	b	4f84 <bi_flush>
    52cc:	e19040bc 	ldrh	r4, [r0, ip]
    52d0:	e2813003 	add	r3, r1, #3
    52d4:	e1841115 	orr	r1, r4, r5, lsl r1
    52d8:	e3530009 	cmp	r3, #9
    52dc:	e7803002 	str	r3, [r0, r2]
    52e0:	e18010bc 	strh	r1, [r0, ip]
    52e4:	dafffff3 	ble	52b8 <_tr_align+0x74>
    52e8:	e59f3048 	ldr	r3, [pc, #72]	; 5338 <_tr_align+0xf4>
    52ec:	e5902014 	ldr	r2, [r0, #20]
    52f0:	e19040b3 	ldrh	r4, [r0, r3]
    52f4:	e5901008 	ldr	r1, [r0, #8]
    52f8:	e282c001 	add	ip, r2, #1
    52fc:	e7c14002 	strb	r4, [r1, r2]
    5300:	e19050b3 	ldrh	r5, [r0, r3]
    5304:	e5904008 	ldr	r4, [r0, #8]
    5308:	e59f1024 	ldr	r1, [pc, #36]	; 5334 <_tr_align+0xf0>
    530c:	e1a05425 	lsr	r5, r5, #8
    5310:	e7c4500c 	strb	r5, [r4, ip]
    5314:	e790c001 	ldr	ip, [r0, r1]
    5318:	e2822002 	add	r2, r2, #2
    531c:	e3a04000 	mov	r4, #0
    5320:	e24cc009 	sub	ip, ip, #9
    5324:	e5802014 	str	r2, [r0, #20]
    5328:	e18040b3 	strh	r4, [r0, r3]
    532c:	e780c001 	str	ip, [r0, r1]
    5330:	eaffffe3 	b	52c4 <_tr_align+0x80>
    5334:	000016bc 			; <UNDEFINED> instruction: 0x000016bc
    5338:	000016b8 			; <UNDEFINED> instruction: 0x000016b8

0000533c <_tr_flush_block>:
    533c:	e92d4ff8 	push	{r3, r4, r5, r6, r7, r8, r9, sl, fp, lr}
    5340:	e1a04000 	mov	r4, r0
    5344:	e5900084 	ldr	r0, [r0, #132]	; 0x84
    5348:	e1a07001 	mov	r7, r1
    534c:	e3500000 	cmp	r0, #0
    5350:	e1a06002 	mov	r6, r2
    5354:	e1a05003 	mov	r5, r3
    5358:	da000114 	ble	57b0 <_tr_flush_block+0x474>
    535c:	e594c000 	ldr	ip, [r4]
    5360:	e59c302c 	ldr	r3, [ip, #44]	; 0x2c
    5364:	e3530002 	cmp	r3, #2
    5368:	0a000114 	beq	57c0 <_tr_flush_block+0x484>
    536c:	e2841eb1 	add	r1, r4, #2832	; 0xb10
    5370:	e2811008 	add	r1, r1, #8
    5374:	e1a00004 	mov	r0, r4
    5378:	ebfffa8e 	bl	3db8 <build_tree>
    537c:	e2841eb2 	add	r1, r4, #2848	; 0xb20
    5380:	e2811004 	add	r1, r1, #4
    5384:	e1a00004 	mov	r0, r4
    5388:	ebfffa8a 	bl	3db8 <build_tree>
    538c:	e1a00004 	mov	r0, r4
    5390:	e2841094 	add	r1, r4, #148	; 0x94
    5394:	e5942b1c 	ldr	r2, [r4, #2844]	; 0xb1c
    5398:	ebfffbff 	bl	439c <scan_tree>
    539c:	e2841d26 	add	r1, r4, #2432	; 0x980
    53a0:	e2811008 	add	r1, r1, #8
    53a4:	e1a00004 	mov	r0, r4
    53a8:	e5942b28 	ldr	r2, [r4, #2856]	; 0xb28
    53ac:	ebfffbfa 	bl	439c <scan_tree>
    53b0:	e1a00004 	mov	r0, r4
    53b4:	e2841eb3 	add	r1, r4, #2864	; 0xb30
    53b8:	ebfffa7e 	bl	3db8 <build_tree>
    53bc:	e59fe5a4 	ldr	lr, [pc, #1444]	; 5968 <_tr_flush_block+0x62c>
    53c0:	e3a03012 	mov	r3, #18
    53c4:	e7de0003 	ldrb	r0, [lr, r3]
    53c8:	e2800fa7 	add	r0, r0, #668	; 0x29c
    53cc:	e0840100 	add	r0, r4, r0, lsl #2
    53d0:	e1d000be 	ldrh	r0, [r0, #14]
    53d4:	e3500000 	cmp	r0, #0
    53d8:	1a0000e0 	bne	5760 <_tr_flush_block+0x424>
    53dc:	e2433001 	sub	r3, r3, #1
    53e0:	e3530002 	cmp	r3, #2
    53e4:	1afffff6 	bne	53c4 <_tr_flush_block+0x88>
    53e8:	e3a02009 	mov	r2, #9
    53ec:	e59f0578 	ldr	r0, [pc, #1400]	; 596c <_tr_flush_block+0x630>
    53f0:	e59f1578 	ldr	r1, [pc, #1400]	; 5970 <_tr_flush_block+0x634>
    53f4:	e794c000 	ldr	ip, [r4, r0]
    53f8:	e7941001 	ldr	r1, [r4, r1]
    53fc:	e28cc00e 	add	ip, ip, #14
    5400:	e08cc002 	add	ip, ip, r2
    5404:	e28c200a 	add	r2, ip, #10
    5408:	e281100a 	add	r1, r1, #10
    540c:	e1a021a2 	lsr	r2, r2, #3
    5410:	e1a011a1 	lsr	r1, r1, #3
    5414:	e784c000 	str	ip, [r4, r0]
    5418:	e1520001 	cmp	r2, r1
    541c:	21a02001 	movcs	r2, r1
    5420:	e2860004 	add	r0, r6, #4
    5424:	e1520000 	cmp	r2, r0
    5428:	3a00002d 	bcc	54e4 <_tr_flush_block+0x1a8>
    542c:	e3570000 	cmp	r7, #0
    5430:	0a00002b 	beq	54e4 <_tr_flush_block+0x1a8>
    5434:	e1a01007 	mov	r1, r7
    5438:	e1a02006 	mov	r2, r6
    543c:	e1a00004 	mov	r0, r4
    5440:	e1a03005 	mov	r3, r5
    5444:	ebffff36 	bl	5124 <_tr_stored_block>
    5448:	e59f2524 	ldr	r2, [pc, #1316]	; 5974 <_tr_flush_block+0x638>
    544c:	e1a01004 	mov	r1, r4
    5450:	e3a00000 	mov	r0, #0
    5454:	e2522001 	subs	r2, r2, #1
    5458:	e1c109b4 	strh	r0, [r1, #148]	; 0x94
    545c:	e2811004 	add	r1, r1, #4
    5460:	1afffffb 	bne	5454 <_tr_flush_block+0x118>
    5464:	e1a03002 	mov	r3, r2
    5468:	e0841002 	add	r1, r4, r2
    546c:	e2822004 	add	r2, r2, #4
    5470:	e2811d26 	add	r1, r1, #2432	; 0x980
    5474:	e3520078 	cmp	r2, #120	; 0x78
    5478:	e1c130b8 	strh	r3, [r1, #8]
    547c:	1afffff9 	bne	5468 <_tr_flush_block+0x12c>
    5480:	e3a02000 	mov	r2, #0
    5484:	e1a01002 	mov	r1, r2
    5488:	e0843002 	add	r3, r4, r2
    548c:	e2822004 	add	r2, r2, #4
    5490:	e2833ea7 	add	r3, r3, #2672	; 0xa70
    5494:	e352004c 	cmp	r2, #76	; 0x4c
    5498:	e1c310bc 	strh	r1, [r3, #12]
    549c:	e3a03000 	mov	r3, #0
    54a0:	1afffff8 	bne	5488 <_tr_flush_block+0x14c>
    54a4:	e59f64cc 	ldr	r6, [pc, #1228]	; 5978 <_tr_flush_block+0x63c>
    54a8:	e59fc4c0 	ldr	ip, [pc, #1216]	; 5970 <_tr_flush_block+0x634>
    54ac:	e59f04b8 	ldr	r0, [pc, #1208]	; 596c <_tr_flush_block+0x630>
    54b0:	e59f14c4 	ldr	r1, [pc, #1220]	; 597c <_tr_flush_block+0x640>
    54b4:	e59f24c4 	ldr	r2, [pc, #1220]	; 5980 <_tr_flush_block+0x644>
    54b8:	e1550003 	cmp	r5, r3
    54bc:	e3a05001 	mov	r5, #1
    54c0:	e18450b6 	strh	r5, [r4, r6]
    54c4:	e784300c 	str	r3, [r4, ip]
    54c8:	e7843000 	str	r3, [r4, r0]
    54cc:	e7843001 	str	r3, [r4, r1]
    54d0:	e7843002 	str	r3, [r4, r2]
    54d4:	08bd8ff8 	popeq	{r3, r4, r5, r6, r7, r8, r9, sl, fp, pc}
    54d8:	e1a00004 	mov	r0, r4
    54dc:	e8bd4ff8 	pop	{r3, r4, r5, r6, r7, r8, r9, sl, fp, lr}
    54e0:	eafffe83 	b	4ef4 <bi_windup>
    54e4:	e5940088 	ldr	r0, [r4, #136]	; 0x88
    54e8:	e3500004 	cmp	r0, #4
    54ec:	0a00009e 	beq	576c <_tr_flush_block+0x430>
    54f0:	e1510002 	cmp	r1, r2
    54f4:	0a00009c 	beq	576c <_tr_flush_block+0x430>
    54f8:	e59f2484 	ldr	r2, [pc, #1156]	; 5984 <_tr_flush_block+0x648>
    54fc:	e59fc484 	ldr	ip, [pc, #1156]	; 5988 <_tr_flush_block+0x64c>
    5500:	e7941002 	ldr	r1, [r4, r2]
    5504:	e285e004 	add	lr, r5, #4
    5508:	e351000d 	cmp	r1, #13
    550c:	e19400bc 	ldrh	r0, [r4, ip]
    5510:	e6ffe07e 	uxth	lr, lr
    5514:	ca0000cb 	bgt	5848 <_tr_flush_block+0x50c>
    5518:	e180011e 	orr	r0, r0, lr, lsl r1
    551c:	e2811003 	add	r1, r1, #3
    5520:	e6ff0070 	uxth	r0, r0
    5524:	e18400bc 	strh	r0, [r4, ip]
    5528:	e7841002 	str	r1, [r4, r2]
    552c:	e351000b 	cmp	r1, #11
    5530:	e5942b1c 	ldr	r2, [r4, #2844]	; 0xb1c
    5534:	e5947b28 	ldr	r7, [r4, #2856]	; 0xb28
    5538:	e283a001 	add	sl, r3, #1
    553c:	da0000fd 	ble	5938 <_tr_flush_block+0x5fc>
    5540:	e2428c01 	sub	r8, r2, #256	; 0x100
    5544:	e6ff8078 	uxth	r8, r8
    5548:	e1801118 	orr	r1, r0, r8, lsl r1
    554c:	e594e014 	ldr	lr, [r4, #20]
    5550:	e59fc430 	ldr	ip, [pc, #1072]	; 5988 <_tr_flush_block+0x64c>
    5554:	e5946008 	ldr	r6, [r4, #8]
    5558:	e6ff1071 	uxth	r1, r1
    555c:	e18410bc 	strh	r1, [r4, ip]
    5560:	e7c6100e 	strb	r1, [r6, lr]
    5564:	e19490bc 	ldrh	r9, [r4, ip]
    5568:	e5940008 	ldr	r0, [r4, #8]
    556c:	e28e1001 	add	r1, lr, #1
    5570:	e59f640c 	ldr	r6, [pc, #1036]	; 5984 <_tr_flush_block+0x648>
    5574:	e1a09429 	lsr	r9, r9, #8
    5578:	e7c09001 	strb	r9, [r0, r1]
    557c:	e7941006 	ldr	r1, [r4, r6]
    5580:	e28ee002 	add	lr, lr, #2
    5584:	e2610010 	rsb	r0, r1, #16
    5588:	e1a00058 	asr	r0, r8, r0
    558c:	e241100b 	sub	r1, r1, #11
    5590:	e6ff0070 	uxth	r0, r0
    5594:	e584e014 	str	lr, [r4, #20]
    5598:	e18400bc 	strh	r0, [r4, ip]
    559c:	e7841006 	str	r1, [r4, r6]
    55a0:	e351000b 	cmp	r1, #11
    55a4:	da0000da 	ble	5914 <_tr_flush_block+0x5d8>
    55a8:	e6ff8077 	uxth	r8, r7
    55ac:	e1801118 	orr	r1, r0, r8, lsl r1
    55b0:	e594e014 	ldr	lr, [r4, #20]
    55b4:	e59fc3cc 	ldr	ip, [pc, #972]	; 5988 <_tr_flush_block+0x64c>
    55b8:	e5946008 	ldr	r6, [r4, #8]
    55bc:	e6ff1071 	uxth	r1, r1
    55c0:	e18410bc 	strh	r1, [r4, ip]
    55c4:	e7c6100e 	strb	r1, [r6, lr]
    55c8:	e19490bc 	ldrh	r9, [r4, ip]
    55cc:	e5940008 	ldr	r0, [r4, #8]
    55d0:	e28e1001 	add	r1, lr, #1
    55d4:	e59f63a8 	ldr	r6, [pc, #936]	; 5984 <_tr_flush_block+0x648>
    55d8:	e1a09429 	lsr	r9, r9, #8
    55dc:	e7c09001 	strb	r9, [r0, r1]
    55e0:	e7941006 	ldr	r1, [r4, r6]
    55e4:	e28ee002 	add	lr, lr, #2
    55e8:	e2610010 	rsb	r0, r1, #16
    55ec:	e1a00058 	asr	r0, r8, r0
    55f0:	e241100b 	sub	r1, r1, #11
    55f4:	e6ff0070 	uxth	r0, r0
    55f8:	e584e014 	str	lr, [r4, #20]
    55fc:	e18400bc 	strh	r0, [r4, ip]
    5600:	e7841006 	str	r1, [r4, r6]
    5604:	e351000c 	cmp	r1, #12
    5608:	da0000b7 	ble	58ec <_tr_flush_block+0x5b0>
    560c:	e2433003 	sub	r3, r3, #3
    5610:	e6ffe073 	uxth	lr, r3
    5614:	e180111e 	orr	r1, r0, lr, lsl r1
    5618:	e594c014 	ldr	ip, [r4, #20]
    561c:	e59f3364 	ldr	r3, [pc, #868]	; 5988 <_tr_flush_block+0x64c>
    5620:	e5946008 	ldr	r6, [r4, #8]
    5624:	e6ff1071 	uxth	r1, r1
    5628:	e18410b3 	strh	r1, [r4, r3]
    562c:	e7c6100c 	strb	r1, [r6, ip]
    5630:	e19480b3 	ldrh	r8, [r4, r3]
    5634:	e5946008 	ldr	r6, [r4, #8]
    5638:	e28c1001 	add	r1, ip, #1
    563c:	e59f0340 	ldr	r0, [pc, #832]	; 5984 <_tr_flush_block+0x648>
    5640:	e1a08428 	lsr	r8, r8, #8
    5644:	e7c68001 	strb	r8, [r6, r1]
    5648:	e7941000 	ldr	r1, [r4, r0]
    564c:	e28cc002 	add	ip, ip, #2
    5650:	e2616010 	rsb	r6, r1, #16
    5654:	e1a0e65e 	asr	lr, lr, r6
    5658:	e241100c 	sub	r1, r1, #12
    565c:	e6ff607e 	uxth	r6, lr
    5660:	e584c014 	str	ip, [r4, #20]
    5664:	e18460b3 	strh	r6, [r4, r3]
    5668:	e7841000 	str	r1, [r4, r0]
    566c:	e3a03000 	mov	r3, #0
    5670:	e59fe2f0 	ldr	lr, [pc, #752]	; 5968 <_tr_flush_block+0x62c>
    5674:	e59f030c 	ldr	r0, [pc, #780]	; 5988 <_tr_flush_block+0x64c>
    5678:	e59fc304 	ldr	ip, [pc, #772]	; 5984 <_tr_flush_block+0x648>
    567c:	ea00001b 	b	56f0 <_tr_flush_block+0x3b4>
    5680:	e7de9003 	ldrb	r9, [lr, r3]
    5684:	e5948014 	ldr	r8, [r4, #20]
    5688:	e2899fa7 	add	r9, r9, #668	; 0x29c
    568c:	e0849109 	add	r9, r4, r9, lsl #2
    5690:	e1d990be 	ldrh	r9, [r9, #14]
    5694:	e594b008 	ldr	fp, [r4, #8]
    5698:	e1861119 	orr	r1, r6, r9, lsl r1
    569c:	e6ff1071 	uxth	r1, r1
    56a0:	e18410b0 	strh	r1, [r4, r0]
    56a4:	e7cb1008 	strb	r1, [fp, r8]
    56a8:	e194b0b0 	ldrh	fp, [r4, r0]
    56ac:	e5946008 	ldr	r6, [r4, #8]
    56b0:	e2881001 	add	r1, r8, #1
    56b4:	e1a0b42b 	lsr	fp, fp, #8
    56b8:	e7c6b001 	strb	fp, [r6, r1]
    56bc:	e794100c 	ldr	r1, [r4, ip]
    56c0:	e2833001 	add	r3, r3, #1
    56c4:	e2616010 	rsb	r6, r1, #16
    56c8:	e1a09659 	asr	r9, r9, r6
    56cc:	e2888002 	add	r8, r8, #2
    56d0:	e241100d 	sub	r1, r1, #13
    56d4:	e15a0003 	cmp	sl, r3
    56d8:	e5848014 	str	r8, [r4, #20]
    56dc:	e18490b0 	strh	r9, [r4, r0]
    56e0:	e784100c 	str	r1, [r4, ip]
    56e4:	da00000e 	ble	5724 <_tr_flush_block+0x3e8>
    56e8:	e794100c 	ldr	r1, [r4, ip]
    56ec:	e19460b0 	ldrh	r6, [r4, r0]
    56f0:	e351000d 	cmp	r1, #13
    56f4:	caffffe1 	bgt	5680 <_tr_flush_block+0x344>
    56f8:	e7de8003 	ldrb	r8, [lr, r3]
    56fc:	e2819003 	add	r9, r1, #3
    5700:	e2888fa7 	add	r8, r8, #668	; 0x29c
    5704:	e0848108 	add	r8, r4, r8, lsl #2
    5708:	e1d880be 	ldrh	r8, [r8, #14]
    570c:	e2833001 	add	r3, r3, #1
    5710:	e1861118 	orr	r1, r6, r8, lsl r1
    5714:	e15a0003 	cmp	sl, r3
    5718:	e784900c 	str	r9, [r4, ip]
    571c:	e18410b0 	strh	r1, [r4, r0]
    5720:	cafffff0 	bgt	56e8 <_tr_flush_block+0x3ac>
    5724:	e2848094 	add	r8, r4, #148	; 0x94
    5728:	e2846d26 	add	r6, r4, #2432	; 0x980
    572c:	e1a01008 	mov	r1, r8
    5730:	e1a00004 	mov	r0, r4
    5734:	e2866008 	add	r6, r6, #8
    5738:	ebfffb6c 	bl	44f0 <send_tree>
    573c:	e1a02007 	mov	r2, r7
    5740:	e1a01006 	mov	r1, r6
    5744:	e1a00004 	mov	r0, r4
    5748:	ebfffb68 	bl	44f0 <send_tree>
    574c:	e1a00004 	mov	r0, r4
    5750:	e1a01008 	mov	r1, r8
    5754:	e1a02006 	mov	r2, r6
    5758:	ebfffcd4 	bl	4ab0 <compress_block>
    575c:	eaffff39 	b	5448 <_tr_flush_block+0x10c>
    5760:	e2832001 	add	r2, r3, #1
    5764:	e0822082 	add	r2, r2, r2, lsl #1
    5768:	eaffff1f 	b	53ec <_tr_flush_block+0xb0>
    576c:	e59f3210 	ldr	r3, [pc, #528]	; 5984 <_tr_flush_block+0x648>
    5770:	e59f1210 	ldr	r1, [pc, #528]	; 5988 <_tr_flush_block+0x64c>
    5774:	e7942003 	ldr	r2, [r4, r3]
    5778:	e285c002 	add	ip, r5, #2
    577c:	e352000d 	cmp	r2, #13
    5780:	e19400b1 	ldrh	r0, [r4, r1]
    5784:	e6ffc07c 	uxth	ip, ip
    5788:	ca000043 	bgt	589c <_tr_flush_block+0x560>
    578c:	e180021c 	orr	r0, r0, ip, lsl r2
    5790:	e2822003 	add	r2, r2, #3
    5794:	e18400b1 	strh	r0, [r4, r1]
    5798:	e7842003 	str	r2, [r4, r3]
    579c:	e59f11e8 	ldr	r1, [pc, #488]	; 598c <_tr_flush_block+0x650>
    57a0:	e1a00004 	mov	r0, r4
    57a4:	e2812d12 	add	r2, r1, #1152	; 0x480
    57a8:	ebfffcc0 	bl	4ab0 <compress_block>
    57ac:	eaffff25 	b	5448 <_tr_flush_block+0x10c>
    57b0:	e2821005 	add	r1, r2, #5
    57b4:	e1a02001 	mov	r2, r1
    57b8:	e3a03000 	mov	r3, #0
    57bc:	eaffff17 	b	5420 <_tr_flush_block+0xe4>
    57c0:	e59f21c8 	ldr	r2, [pc, #456]	; 5990 <_tr_flush_block+0x654>
    57c4:	e1a01004 	mov	r1, r4
    57c8:	e3a03000 	mov	r3, #0
    57cc:	e3120001 	tst	r2, #1
    57d0:	e2833001 	add	r3, r3, #1
    57d4:	0a000002 	beq	57e4 <_tr_flush_block+0x4a8>
    57d8:	e1d109b4 	ldrh	r0, [r1, #148]	; 0x94
    57dc:	e3500000 	cmp	r0, #0
    57e0:	1a00005e 	bne	5960 <_tr_flush_block+0x624>
    57e4:	e3530020 	cmp	r3, #32
    57e8:	e1a020a2 	lsr	r2, r2, #1
    57ec:	e2811004 	add	r1, r1, #4
    57f0:	1afffff5 	bne	57cc <_tr_flush_block+0x490>
    57f4:	e1d43bb8 	ldrh	r3, [r4, #184]	; 0xb8
    57f8:	e3530000 	cmp	r3, #0
    57fc:	1a00000e 	bne	583c <_tr_flush_block+0x500>
    5800:	e1d43bbc 	ldrh	r3, [r4, #188]	; 0xbc
    5804:	e3530000 	cmp	r3, #0
    5808:	1a00000b 	bne	583c <_tr_flush_block+0x500>
    580c:	e1d43cb8 	ldrh	r3, [r4, #200]	; 0xc8
    5810:	e3530000 	cmp	r3, #0
    5814:	0a000002 	beq	5824 <_tr_flush_block+0x4e8>
    5818:	ea000007 	b	583c <_tr_flush_block+0x500>
    581c:	e3530d0e 	cmp	r3, #896	; 0x380
    5820:	0a000006 	beq	5840 <_tr_flush_block+0x504>
    5824:	e0842003 	add	r2, r4, r3
    5828:	e2822f45 	add	r2, r2, #276	; 0x114
    582c:	e1d220b0 	ldrh	r2, [r2]
    5830:	e2833004 	add	r3, r3, #4
    5834:	e3520000 	cmp	r2, #0
    5838:	0afffff7 	beq	581c <_tr_flush_block+0x4e0>
    583c:	e3a02001 	mov	r2, #1
    5840:	e58c202c 	str	r2, [ip, #44]	; 0x2c
    5844:	eafffec8 	b	536c <_tr_flush_block+0x30>
    5848:	e180111e 	orr	r1, r0, lr, lsl r1
    584c:	e5946008 	ldr	r6, [r4, #8]
    5850:	e5940014 	ldr	r0, [r4, #20]
    5854:	e6ff1071 	uxth	r1, r1
    5858:	e18410bc 	strh	r1, [r4, ip]
    585c:	e7c61000 	strb	r1, [r6, r0]
    5860:	e19470bc 	ldrh	r7, [r4, ip]
    5864:	e5946008 	ldr	r6, [r4, #8]
    5868:	e2801001 	add	r1, r0, #1
    586c:	e1a07427 	lsr	r7, r7, #8
    5870:	e7c67001 	strb	r7, [r6, r1]
    5874:	e7941002 	ldr	r1, [r4, r2]
    5878:	e2806002 	add	r6, r0, #2
    587c:	e2610010 	rsb	r0, r1, #16
    5880:	e1a0005e 	asr	r0, lr, r0
    5884:	e241100d 	sub	r1, r1, #13
    5888:	e6ff0070 	uxth	r0, r0
    588c:	e5846014 	str	r6, [r4, #20]
    5890:	e18400bc 	strh	r0, [r4, ip]
    5894:	e7841002 	str	r1, [r4, r2]
    5898:	eaffff23 	b	552c <_tr_flush_block+0x1f0>
    589c:	e180221c 	orr	r2, r0, ip, lsl r2
    58a0:	e594e008 	ldr	lr, [r4, #8]
    58a4:	e5940014 	ldr	r0, [r4, #20]
    58a8:	e6ff2072 	uxth	r2, r2
    58ac:	e18420b1 	strh	r2, [r4, r1]
    58b0:	e7ce2000 	strb	r2, [lr, r0]
    58b4:	e19460b1 	ldrh	r6, [r4, r1]
    58b8:	e594e008 	ldr	lr, [r4, #8]
    58bc:	e2802001 	add	r2, r0, #1
    58c0:	e1a06426 	lsr	r6, r6, #8
    58c4:	e7ce6002 	strb	r6, [lr, r2]
    58c8:	e7942003 	ldr	r2, [r4, r3]
    58cc:	e2800002 	add	r0, r0, #2
    58d0:	e262e010 	rsb	lr, r2, #16
    58d4:	e1a0ce5c 	asr	ip, ip, lr
    58d8:	e242200d 	sub	r2, r2, #13
    58dc:	e5840014 	str	r0, [r4, #20]
    58e0:	e184c0b1 	strh	ip, [r4, r1]
    58e4:	e7842003 	str	r2, [r4, r3]
    58e8:	eaffffab 	b	579c <_tr_flush_block+0x460>
    58ec:	e24a3004 	sub	r3, sl, #4
    58f0:	e6ff3073 	uxth	r3, r3
    58f4:	e1800113 	orr	r0, r0, r3, lsl r1
    58f8:	e59fc088 	ldr	ip, [pc, #136]	; 5988 <_tr_flush_block+0x64c>
    58fc:	e59f3080 	ldr	r3, [pc, #128]	; 5984 <_tr_flush_block+0x648>
    5900:	e6ff6070 	uxth	r6, r0
    5904:	e2811004 	add	r1, r1, #4
    5908:	e18460bc 	strh	r6, [r4, ip]
    590c:	e7841003 	str	r1, [r4, r3]
    5910:	eaffff55 	b	566c <_tr_flush_block+0x330>
    5914:	e6ffc077 	uxth	ip, r7
    5918:	e180011c 	orr	r0, r0, ip, lsl r1
    591c:	e59fe064 	ldr	lr, [pc, #100]	; 5988 <_tr_flush_block+0x64c>
    5920:	e59fc05c 	ldr	ip, [pc, #92]	; 5984 <_tr_flush_block+0x648>
    5924:	e6ff0070 	uxth	r0, r0
    5928:	e2811005 	add	r1, r1, #5
    592c:	e18400be 	strh	r0, [r4, lr]
    5930:	e784100c 	str	r1, [r4, ip]
    5934:	eaffff32 	b	5604 <_tr_flush_block+0x2c8>
    5938:	e242cc01 	sub	ip, r2, #256	; 0x100
    593c:	e6ffc07c 	uxth	ip, ip
    5940:	e180011c 	orr	r0, r0, ip, lsl r1
    5944:	e59fe03c 	ldr	lr, [pc, #60]	; 5988 <_tr_flush_block+0x64c>
    5948:	e59fc034 	ldr	ip, [pc, #52]	; 5984 <_tr_flush_block+0x648>
    594c:	e6ff0070 	uxth	r0, r0
    5950:	e2811005 	add	r1, r1, #5
    5954:	e18400be 	strh	r0, [r4, lr]
    5958:	e784100c 	str	r1, [r4, ip]
    595c:	eaffff0f 	b	55a0 <_tr_flush_block+0x264>
    5960:	e3a02000 	mov	r2, #0
    5964:	eaffffb5 	b	5840 <_tr_flush_block+0x504>
    5968:	0000baf4 	strdeq	fp, [r0], -r4
    596c:	000016a8 	andeq	r1, r0, r8, lsr #13
    5970:	000016ac 	andeq	r1, r0, ip, lsr #13
    5974:	0000011e 	andeq	r0, r0, lr, lsl r1
    5978:	00000494 	muleq	r0, r4, r4
    597c:	000016b0 			; <UNDEFINED> instruction: 0x000016b0
    5980:	000016a0 	andeq	r1, r0, r0, lsr #13
    5984:	000016bc 			; <UNDEFINED> instruction: 0x000016bc
    5988:	000016b8 			; <UNDEFINED> instruction: 0x000016b8
    598c:	0000bb08 	andeq	fp, r0, r8, lsl #22
    5990:	f3ffc07f 	vshr.u32	q14, <illegal reg q15.5>, #1

00005994 <_tr_tally>:
    5994:	e59fc0c8 	ldr	ip, [pc, #200]	; 5a64 <_tr_tally+0xd0>
    5998:	e92d00f0 	push	{r4, r5, r6, r7}
    599c:	e59f50c4 	ldr	r5, [pc, #196]	; 5a68 <_tr_tally+0xd4>
    59a0:	e59f40c4 	ldr	r4, [pc, #196]	; 5a6c <_tr_tally+0xd8>
    59a4:	e790300c 	ldr	r3, [r0, ip]
    59a8:	e7906005 	ldr	r6, [r0, r5]
    59ac:	e7905004 	ldr	r5, [r0, r4]
    59b0:	e1a07083 	lsl	r7, r3, #1
    59b4:	e2834001 	add	r4, r3, #1
    59b8:	e3510000 	cmp	r1, #0
    59bc:	e18610b7 	strh	r1, [r6, r7]
    59c0:	e7c52003 	strb	r2, [r5, r3]
    59c4:	e780400c 	str	r4, [r0, ip]
    59c8:	0a00001f 	beq	5a4c <_tr_tally+0xb8>
    59cc:	e59f309c 	ldr	r3, [pc, #156]	; 5a70 <_tr_tally+0xdc>
    59d0:	e59fc09c 	ldr	ip, [pc, #156]	; 5a74 <_tr_tally+0xe0>
    59d4:	e7d32002 	ldrb	r2, [r3, r2]
    59d8:	e790500c 	ldr	r5, [r0, ip]
    59dc:	e2411001 	sub	r1, r1, #1
    59e0:	e35100ff 	cmp	r1, #255	; 0xff
    59e4:	e2822c01 	add	r2, r2, #256	; 0x100
    59e8:	90831001 	addls	r1, r3, r1
    59ec:	808313a1 	addhi	r1, r3, r1, lsr #7
    59f0:	e2822025 	add	r2, r2, #37	; 0x25
    59f4:	e2855001 	add	r5, r5, #1
    59f8:	e780500c 	str	r5, [r0, ip]
    59fc:	e0802102 	add	r2, r0, r2, lsl #2
    5a00:	95d131e8 	ldrbls	r3, [r1, #488]	; 0x1e8
    5a04:	85d132e8 	ldrbhi	r3, [r1, #744]	; 0x2e8
    5a08:	e1d2c0b4 	ldrh	ip, [r2, #4]
    5a0c:	e2833e26 	add	r3, r3, #608	; 0x260
    5a10:	e28cc001 	add	ip, ip, #1
    5a14:	e2833002 	add	r3, r3, #2
    5a18:	e1c2c0b4 	strh	ip, [r2, #4]
    5a1c:	e1a03103 	lsl	r3, r3, #2
    5a20:	e19020b3 	ldrh	r2, [r0, r3]
    5a24:	e2822001 	add	r2, r2, #1
    5a28:	e18020b3 	strh	r2, [r0, r3]
    5a2c:	e59f3044 	ldr	r3, [pc, #68]	; 5a78 <_tr_tally+0xe4>
    5a30:	e7900003 	ldr	r0, [r0, r3]
    5a34:	e2400001 	sub	r0, r0, #1
    5a38:	e0543000 	subs	r3, r4, r0
    5a3c:	e2730000 	rsbs	r0, r3, #0
    5a40:	e0b00003 	adcs	r0, r0, r3
    5a44:	e8bd00f0 	pop	{r4, r5, r6, r7}
    5a48:	e12fff1e 	bx	lr
    5a4c:	e2822024 	add	r2, r2, #36	; 0x24
    5a50:	e0802102 	add	r2, r0, r2, lsl #2
    5a54:	e1d230b4 	ldrh	r3, [r2, #4]
    5a58:	e2833001 	add	r3, r3, #1
    5a5c:	e1c230b4 	strh	r3, [r2, #4]
    5a60:	eafffff1 	b	5a2c <_tr_tally+0x98>
    5a64:	000016a0 	andeq	r1, r0, r0, lsr #13
    5a68:	000016a4 	andeq	r1, r0, r4, lsr #13
    5a6c:	00001698 	muleq	r0, r8, r6
    5a70:	0000b61c 	andeq	fp, r0, ip, lsl r6
    5a74:	000016b0 			; <UNDEFINED> instruction: 0x000016b0
    5a78:	0000169c 	muleq	r0, ip, r6

00005a7c <syncsearch>:
    5a7c:	e590c000 	ldr	ip, [r0]
    5a80:	e2923000 	adds	r3, r2, #0
    5a84:	13a03001 	movne	r3, #1
    5a88:	e35c0003 	cmp	ip, #3
    5a8c:	83a03000 	movhi	r3, #0
    5a90:	e3530000 	cmp	r3, #0
    5a94:	e92d0030 	push	{r4, r5}
    5a98:	0a00001a 	beq	5b08 <syncsearch+0x8c>
    5a9c:	e3a03000 	mov	r3, #0
    5aa0:	ea00000d 	b	5adc <syncsearch+0x60>
    5aa4:	e3540000 	cmp	r4, #0
    5aa8:	13a04001 	movne	r4, #1
    5aac:	13a0c000 	movne	ip, #0
    5ab0:	1a000003 	bne	5ac4 <syncsearch+0x48>
    5ab4:	e26cc004 	rsb	ip, ip, #4
    5ab8:	e35c0003 	cmp	ip, #3
    5abc:	83a04000 	movhi	r4, #0
    5ac0:	93a04001 	movls	r4, #1
    5ac4:	e2833001 	add	r3, r3, #1
    5ac8:	e1520003 	cmp	r2, r3
    5acc:	93a04000 	movls	r4, #0
    5ad0:	82044001 	andhi	r4, r4, #1
    5ad4:	e3540000 	cmp	r4, #0
    5ad8:	0a00000a 	beq	5b08 <syncsearch+0x8c>
    5adc:	e35c0001 	cmp	ip, #1
    5ae0:	e7d14003 	ldrb	r4, [r1, r3]
    5ae4:	83a050ff 	movhi	r5, #255	; 0xff
    5ae8:	93a05000 	movls	r5, #0
    5aec:	e1540005 	cmp	r4, r5
    5af0:	1affffeb 	bne	5aa4 <syncsearch+0x28>
    5af4:	e28cc001 	add	ip, ip, #1
    5af8:	e35c0003 	cmp	ip, #3
    5afc:	83a04000 	movhi	r4, #0
    5b00:	93a04001 	movls	r4, #1
    5b04:	eaffffee 	b	5ac4 <syncsearch+0x48>
    5b08:	e580c000 	str	ip, [r0]
    5b0c:	e1a00003 	mov	r0, r3
    5b10:	e8bd0030 	pop	{r4, r5}
    5b14:	e12fff1e 	bx	lr

00005b18 <updatewindow>:
    5b18:	e92d40f8 	push	{r3, r4, r5, r6, r7, lr}
    5b1c:	e590401c 	ldr	r4, [r0, #28]
    5b20:	e1a06000 	mov	r6, r0
    5b24:	e5940034 	ldr	r0, [r4, #52]	; 0x34
    5b28:	e1a05001 	mov	r5, r1
    5b2c:	e3500000 	cmp	r0, #0
    5b30:	0a00003e 	beq	5c30 <updatewindow+0x118>
    5b34:	e5942028 	ldr	r2, [r4, #40]	; 0x28
    5b38:	e3520000 	cmp	r2, #0
    5b3c:	0a00001c 	beq	5bb4 <updatewindow+0x9c>
    5b40:	e5963010 	ldr	r3, [r6, #16]
    5b44:	e0635005 	rsb	r5, r3, r5
    5b48:	e1550002 	cmp	r5, r2
    5b4c:	2a000023 	bcs	5be0 <updatewindow+0xc8>
    5b50:	e5943030 	ldr	r3, [r4, #48]	; 0x30
    5b54:	e596100c 	ldr	r1, [r6, #12]
    5b58:	e0632002 	rsb	r2, r3, r2
    5b5c:	e1520005 	cmp	r2, r5
    5b60:	31a07002 	movcc	r7, r2
    5b64:	21a07005 	movcs	r7, r5
    5b68:	e0651001 	rsb	r1, r5, r1
    5b6c:	e0800003 	add	r0, r0, r3
    5b70:	e1a02007 	mov	r2, r7
    5b74:	ebffe932 	bl	44 <ZMEMCPY>
    5b78:	e0555007 	subs	r5, r5, r7
    5b7c:	1a000021 	bne	5c08 <updatewindow+0xf0>
    5b80:	e5941030 	ldr	r1, [r4, #48]	; 0x30
    5b84:	e5943028 	ldr	r3, [r4, #40]	; 0x28
    5b88:	e0871001 	add	r1, r7, r1
    5b8c:	e594202c 	ldr	r2, [r4, #44]	; 0x2c
    5b90:	e1510003 	cmp	r1, r3
    5b94:	e5841030 	str	r1, [r4, #48]	; 0x30
    5b98:	05845030 	streq	r5, [r4, #48]	; 0x30
    5b9c:	e1530002 	cmp	r3, r2
    5ba0:	9a000016 	bls	5c00 <updatewindow+0xe8>
    5ba4:	e0872002 	add	r2, r7, r2
    5ba8:	e584202c 	str	r2, [r4, #44]	; 0x2c
    5bac:	e3a00000 	mov	r0, #0
    5bb0:	e8bd80f8 	pop	{r3, r4, r5, r6, r7, pc}
    5bb4:	e5943024 	ldr	r3, [r4, #36]	; 0x24
    5bb8:	e3a02001 	mov	r2, #1
    5bbc:	e1a02312 	lsl	r2, r2, r3
    5bc0:	e3a03000 	mov	r3, #0
    5bc4:	e5843030 	str	r3, [r4, #48]	; 0x30
    5bc8:	e584302c 	str	r3, [r4, #44]	; 0x2c
    5bcc:	e5963010 	ldr	r3, [r6, #16]
    5bd0:	e5842028 	str	r2, [r4, #40]	; 0x28
    5bd4:	e0635005 	rsb	r5, r3, r5
    5bd8:	e1550002 	cmp	r5, r2
    5bdc:	3affffdb 	bcc	5b50 <updatewindow+0x38>
    5be0:	e596100c 	ldr	r1, [r6, #12]
    5be4:	e0621001 	rsb	r1, r2, r1
    5be8:	ebffe915 	bl	44 <ZMEMCPY>
    5bec:	e5943028 	ldr	r3, [r4, #40]	; 0x28
    5bf0:	e3a00000 	mov	r0, #0
    5bf4:	e584302c 	str	r3, [r4, #44]	; 0x2c
    5bf8:	e5840030 	str	r0, [r4, #48]	; 0x30
    5bfc:	e8bd80f8 	pop	{r3, r4, r5, r6, r7, pc}
    5c00:	e3a00000 	mov	r0, #0
    5c04:	e8bd80f8 	pop	{r3, r4, r5, r6, r7, pc}
    5c08:	e596100c 	ldr	r1, [r6, #12]
    5c0c:	e5940034 	ldr	r0, [r4, #52]	; 0x34
    5c10:	e0651001 	rsb	r1, r5, r1
    5c14:	e1a02005 	mov	r2, r5
    5c18:	ebffe909 	bl	44 <ZMEMCPY>
    5c1c:	e5943028 	ldr	r3, [r4, #40]	; 0x28
    5c20:	e5845030 	str	r5, [r4, #48]	; 0x30
    5c24:	e584302c 	str	r3, [r4, #44]	; 0x2c
    5c28:	e3a00000 	mov	r0, #0
    5c2c:	e8bd80f8 	pop	{r3, r4, r5, r6, r7, pc}
    5c30:	e5941024 	ldr	r1, [r4, #36]	; 0x24
    5c34:	e3a07001 	mov	r7, #1
    5c38:	e1a01117 	lsl	r1, r7, r1
    5c3c:	e1a02007 	mov	r2, r7
    5c40:	e5963020 	ldr	r3, [r6, #32]
    5c44:	e5960028 	ldr	r0, [r6, #40]	; 0x28
    5c48:	e12fff33 	blx	r3
    5c4c:	e3500000 	cmp	r0, #0
    5c50:	e5840034 	str	r0, [r4, #52]	; 0x34
    5c54:	1affffb6 	bne	5b34 <updatewindow+0x1c>
    5c58:	e1a00007 	mov	r0, r7
    5c5c:	e8bd80f8 	pop	{r3, r4, r5, r6, r7, pc}

00005c60 <inflateResetKeep>:
    5c60:	e3500000 	cmp	r0, #0
    5c64:	e92d0070 	push	{r4, r5, r6}
    5c68:	0a000020 	beq	5cf0 <inflateResetKeep+0x90>
    5c6c:	e590301c 	ldr	r3, [r0, #28]
    5c70:	e3530000 	cmp	r3, #0
    5c74:	0a00001d 	beq	5cf0 <inflateResetKeep+0x90>
    5c78:	e5931008 	ldr	r1, [r3, #8]
    5c7c:	e3a02000 	mov	r2, #0
    5c80:	e1510002 	cmp	r1, r2
    5c84:	12011001 	andne	r1, r1, #1
    5c88:	e59f5068 	ldr	r5, [pc, #104]	; 5cf8 <inflateResetKeep+0x98>
    5c8c:	e583201c 	str	r2, [r3, #28]
    5c90:	e3e06000 	mvn	r6, #0
    5c94:	e5802014 	str	r2, [r0, #20]
    5c98:	e5802008 	str	r2, [r0, #8]
    5c9c:	e5802018 	str	r2, [r0, #24]
    5ca0:	15801030 	strne	r1, [r0, #48]	; 0x30
    5ca4:	e2832e53 	add	r2, r3, #1328	; 0x530
    5ca8:	e3a00000 	mov	r0, #0
    5cac:	e3a04902 	mov	r4, #32768	; 0x8000
    5cb0:	e3a01d6f 	mov	r1, #7104	; 0x1bc0
    5cb4:	e3a0c001 	mov	ip, #1
    5cb8:	e7836005 	str	r6, [r3, r5]
    5cbc:	e5830000 	str	r0, [r3]
    5cc0:	e5830004 	str	r0, [r3, #4]
    5cc4:	e583000c 	str	r0, [r3, #12]
    5cc8:	e5830020 	str	r0, [r3, #32]
    5ccc:	e5830038 	str	r0, [r3, #56]	; 0x38
    5cd0:	e583003c 	str	r0, [r3, #60]	; 0x3c
    5cd4:	e5834014 	str	r4, [r3, #20]
    5cd8:	e583206c 	str	r2, [r3, #108]	; 0x6c
    5cdc:	e5832050 	str	r2, [r3, #80]	; 0x50
    5ce0:	e583204c 	str	r2, [r3, #76]	; 0x4c
    5ce4:	e783c001 	str	ip, [r3, r1]
    5ce8:	e8bd0070 	pop	{r4, r5, r6}
    5cec:	e12fff1e 	bx	lr
    5cf0:	e3e00001 	mvn	r0, #1
    5cf4:	eafffffb 	b	5ce8 <inflateResetKeep+0x88>
    5cf8:	00001bc4 	andeq	r1, r0, r4, asr #23

00005cfc <inflateReset>:
    5cfc:	e2503000 	subs	r3, r0, #0
    5d00:	0a000007 	beq	5d24 <inflateReset+0x28>
    5d04:	e593301c 	ldr	r3, [r3, #28]
    5d08:	e3530000 	cmp	r3, #0
    5d0c:	0a000004 	beq	5d24 <inflateReset+0x28>
    5d10:	e3a02000 	mov	r2, #0
    5d14:	e5832028 	str	r2, [r3, #40]	; 0x28
    5d18:	e583202c 	str	r2, [r3, #44]	; 0x2c
    5d1c:	e5832030 	str	r2, [r3, #48]	; 0x30
    5d20:	eaffffce 	b	5c60 <inflateResetKeep>
    5d24:	e3e00001 	mvn	r0, #1
    5d28:	e12fff1e 	bx	lr

00005d2c <inflateReset2>:
    5d2c:	e92d41f0 	push	{r4, r5, r6, r7, r8, lr}
    5d30:	e2506000 	subs	r6, r0, #0
    5d34:	e1a04001 	mov	r4, r1
    5d38:	0a00001f 	beq	5dbc <inflateReset2+0x90>
    5d3c:	e596501c 	ldr	r5, [r6, #28]
    5d40:	e3550000 	cmp	r5, #0
    5d44:	0a00001c 	beq	5dbc <inflateReset2+0x90>
    5d48:	e3510000 	cmp	r1, #0
    5d4c:	b2614000 	rsblt	r4, r1, #0
    5d50:	b3a07000 	movlt	r7, #0
    5d54:	ba000003 	blt	5d68 <inflateReset2+0x3c>
    5d58:	e1a07244 	asr	r7, r4, #4
    5d5c:	e354002f 	cmp	r4, #47	; 0x2f
    5d60:	e2877001 	add	r7, r7, #1
    5d64:	d204400f 	andle	r4, r4, #15
    5d68:	e2443008 	sub	r3, r4, #8
    5d6c:	e3540000 	cmp	r4, #0
    5d70:	13530007 	cmpne	r3, #7
    5d74:	93a08000 	movls	r8, #0
    5d78:	83a08001 	movhi	r8, #1
    5d7c:	8a00000e 	bhi	5dbc <inflateReset2+0x90>
    5d80:	e5951034 	ldr	r1, [r5, #52]	; 0x34
    5d84:	e3510000 	cmp	r1, #0
    5d88:	0a000006 	beq	5da8 <inflateReset2+0x7c>
    5d8c:	e5952024 	ldr	r2, [r5, #36]	; 0x24
    5d90:	e1540002 	cmp	r4, r2
    5d94:	0a000003 	beq	5da8 <inflateReset2+0x7c>
    5d98:	e5963024 	ldr	r3, [r6, #36]	; 0x24
    5d9c:	e5960028 	ldr	r0, [r6, #40]	; 0x28
    5da0:	e12fff33 	blx	r3
    5da4:	e5858034 	str	r8, [r5, #52]	; 0x34
    5da8:	e1a00006 	mov	r0, r6
    5dac:	e5857008 	str	r7, [r5, #8]
    5db0:	e5854024 	str	r4, [r5, #36]	; 0x24
    5db4:	e8bd41f0 	pop	{r4, r5, r6, r7, r8, lr}
    5db8:	eaffffcf 	b	5cfc <inflateReset>
    5dbc:	e3e00001 	mvn	r0, #1
    5dc0:	e8bd81f0 	pop	{r4, r5, r6, r7, r8, pc}

00005dc4 <inflateInit2_>:
    5dc4:	e3520000 	cmp	r2, #0
    5dc8:	e92d40f8 	push	{r3, r4, r5, r6, r7, lr}
    5dcc:	e1a04000 	mov	r4, r0
    5dd0:	e1a06001 	mov	r6, r1
    5dd4:	0a000029 	beq	5e80 <inflateInit2_+0xbc>
    5dd8:	e5d22000 	ldrb	r2, [r2]
    5ddc:	e3520031 	cmp	r2, #49	; 0x31
    5de0:	1a000026 	bne	5e80 <inflateInit2_+0xbc>
    5de4:	e3530038 	cmp	r3, #56	; 0x38
    5de8:	1a000024 	bne	5e80 <inflateInit2_+0xbc>
    5dec:	e3500000 	cmp	r0, #0
    5df0:	0a000027 	beq	5e94 <inflateInit2_+0xd0>
    5df4:	e5903020 	ldr	r3, [r0, #32]
    5df8:	e3a02000 	mov	r2, #0
    5dfc:	e1530002 	cmp	r3, r2
    5e00:	e5802018 	str	r2, [r0, #24]
    5e04:	059f2090 	ldreq	r2, [pc, #144]	; 5e9c <inflateInit2_+0xd8>
    5e08:	05803028 	streq	r3, [r0, #40]	; 0x28
    5e0c:	05802020 	streq	r2, [r0, #32]
    5e10:	01a03002 	moveq	r3, r2
    5e14:	e5902024 	ldr	r2, [r0, #36]	; 0x24
    5e18:	e3a01001 	mov	r1, #1
    5e1c:	e3520000 	cmp	r2, #0
    5e20:	059f2078 	ldreq	r2, [pc, #120]	; 5ea0 <inflateInit2_+0xdc>
    5e24:	05802024 	streq	r2, [r0, #36]	; 0x24
    5e28:	e5900028 	ldr	r0, [r0, #40]	; 0x28
    5e2c:	e59f2070 	ldr	r2, [pc, #112]	; 5ea4 <inflateInit2_+0xe0>
    5e30:	e12fff33 	blx	r3
    5e34:	e2505000 	subs	r5, r0, #0
    5e38:	0a000013 	beq	5e8c <inflateInit2_+0xc8>
    5e3c:	e3a07000 	mov	r7, #0
    5e40:	e584501c 	str	r5, [r4, #28]
    5e44:	e1a01006 	mov	r1, r6
    5e48:	e5857034 	str	r7, [r5, #52]	; 0x34
    5e4c:	e1a00004 	mov	r0, r4
    5e50:	ebffffb5 	bl	5d2c <inflateReset2>
    5e54:	e2506000 	subs	r6, r0, #0
    5e58:	1a000001 	bne	5e64 <inflateInit2_+0xa0>
    5e5c:	e1a00006 	mov	r0, r6
    5e60:	e8bd80f8 	pop	{r3, r4, r5, r6, r7, pc}
    5e64:	e5940028 	ldr	r0, [r4, #40]	; 0x28
    5e68:	e1a01005 	mov	r1, r5
    5e6c:	e5943024 	ldr	r3, [r4, #36]	; 0x24
    5e70:	e12fff33 	blx	r3
    5e74:	e584701c 	str	r7, [r4, #28]
    5e78:	e1a00006 	mov	r0, r6
    5e7c:	e8bd80f8 	pop	{r3, r4, r5, r6, r7, pc}
    5e80:	e3e06005 	mvn	r6, #5
    5e84:	e1a00006 	mov	r0, r6
    5e88:	e8bd80f8 	pop	{r3, r4, r5, r6, r7, pc}
    5e8c:	e3e06003 	mvn	r6, #3
    5e90:	eafffff1 	b	5e5c <inflateInit2_+0x98>
    5e94:	e3e06001 	mvn	r6, #1
    5e98:	eaffffef 	b	5e5c <inflateInit2_+0x98>
    5e9c:	000035ac 	andeq	r3, r0, ip, lsr #11
    5ea0:	000035b4 			; <UNDEFINED> instruction: 0x000035b4
    5ea4:	00001bcc 	andeq	r1, r0, ip, asr #23

00005ea8 <inflateInit_>:
    5ea8:	e1a03002 	mov	r3, r2
    5eac:	e1a02001 	mov	r2, r1
    5eb0:	e3a0100f 	mov	r1, #15
    5eb4:	eaffffc2 	b	5dc4 <inflateInit2_>

00005eb8 <inflatePrime>:
    5eb8:	e3500000 	cmp	r0, #0
    5ebc:	e52d4004 	push	{r4}		; (str r4, [sp, #-4]!)
    5ec0:	0a000016 	beq	5f20 <inflatePrime+0x68>
    5ec4:	e590301c 	ldr	r3, [r0, #28]
    5ec8:	e3530000 	cmp	r3, #0
    5ecc:	0a000013 	beq	5f20 <inflatePrime+0x68>
    5ed0:	e3510000 	cmp	r1, #0
    5ed4:	b3a00000 	movlt	r0, #0
    5ed8:	b5830038 	strlt	r0, [r3, #56]	; 0x38
    5edc:	b583003c 	strlt	r0, [r3, #60]	; 0x3c
    5ee0:	ba00000c 	blt	5f18 <inflatePrime+0x60>
    5ee4:	e3510010 	cmp	r1, #16
    5ee8:	ca00000c 	bgt	5f20 <inflatePrime+0x68>
    5eec:	e593003c 	ldr	r0, [r3, #60]	; 0x3c
    5ef0:	e081c000 	add	ip, r1, r0
    5ef4:	e35c0020 	cmp	ip, #32
    5ef8:	8a000008 	bhi	5f20 <inflatePrime+0x68>
    5efc:	e3e04000 	mvn	r4, #0
    5f00:	e1c21114 	bic	r1, r2, r4, lsl r1
    5f04:	e5934038 	ldr	r4, [r3, #56]	; 0x38
    5f08:	e583c03c 	str	ip, [r3, #60]	; 0x3c
    5f0c:	e0841011 	add	r1, r4, r1, lsl r0
    5f10:	e3a00000 	mov	r0, #0
    5f14:	e5831038 	str	r1, [r3, #56]	; 0x38
    5f18:	e8bd0010 	pop	{r4}
    5f1c:	e12fff1e 	bx	lr
    5f20:	e3e00001 	mvn	r0, #1
    5f24:	eafffffb 	b	5f18 <inflatePrime+0x60>

00005f28 <inflate>:
    5f28:	e92d4ff0 	push	{r4, r5, r6, r7, r8, r9, sl, fp, lr}
    5f2c:	e2509000 	subs	r9, r0, #0
    5f30:	e24dd044 	sub	sp, sp, #68	; 0x44
    5f34:	e58d1020 	str	r1, [sp, #32]
    5f38:	0a000564 	beq	74d0 <inflate+0x15a8>
    5f3c:	e599a01c 	ldr	sl, [r9, #28]
    5f40:	e35a0000 	cmp	sl, #0
    5f44:	0a000182 	beq	6554 <inflate+0x62c>
    5f48:	e599700c 	ldr	r7, [r9, #12]
    5f4c:	e3570000 	cmp	r7, #0
    5f50:	e58d7014 	str	r7, [sp, #20]
    5f54:	0a0005b4 	beq	762c <inflate+0x1704>
    5f58:	e599b000 	ldr	fp, [r9]
    5f5c:	e35b0000 	cmp	fp, #0
    5f60:	0a0004a8 	beq	7208 <inflate+0x12e0>
    5f64:	e599c004 	ldr	ip, [r9, #4]
    5f68:	e58dc01c 	str	ip, [sp, #28]
    5f6c:	e59a3000 	ldr	r3, [sl]
    5f70:	e5997010 	ldr	r7, [r9, #16]
    5f74:	e353000b 	cmp	r3, #11
    5f78:	03a0300c 	moveq	r3, #12
    5f7c:	e3a0c000 	mov	ip, #0
    5f80:	e59a6038 	ldr	r6, [sl, #56]	; 0x38
    5f84:	e59a403c 	ldr	r4, [sl, #60]	; 0x3c
    5f88:	e59d501c 	ldr	r5, [sp, #28]
    5f8c:	058a3000 	streq	r3, [sl]
    5f90:	e58d7010 	str	r7, [sp, #16]
    5f94:	e58d7018 	str	r7, [sp, #24]
    5f98:	e58dc00c 	str	ip, [sp, #12]
    5f9c:	e353001e 	cmp	r3, #30
    5fa0:	979ff103 	ldrls	pc, [pc, r3, lsl #2]
    5fa4:	ea00016a 	b	6554 <inflate+0x62c>
    5fa8:	00006b94 	muleq	r0, r4, fp
    5fac:	00006f48 	andeq	r6, r0, r8, asr #30
    5fb0:	00006568 	andeq	r6, r0, r8, ror #10
    5fb4:	000065d0 	ldrdeq	r6, [r0], -r0
    5fb8:	00006a60 	andeq	r6, r0, r0, ror #20
    5fbc:	00006ad8 	ldrdeq	r6, [r0], -r8
    5fc0:	00006de8 	andeq	r6, r0, r8, ror #27
    5fc4:	00006f40 	andeq	r6, r0, r0, asr #30
    5fc8:	00006c84 	andeq	r6, r0, r4, lsl #25
    5fcc:	00006024 	andeq	r6, r0, r4, lsr #32
    5fd0:	00006094 	muleq	r0, r4, r0
    5fd4:	000060c0 	andeq	r6, r0, r0, asr #1
    5fd8:	000060d0 	ldrdeq	r6, [r0], -r0
    5fdc:	00006cec 	andeq	r6, r0, ip, ror #25
    5fe0:	00006d60 	andeq	r6, r0, r0, ror #26
    5fe4:	00006dd4 	ldrdeq	r6, [r0], -r4
    5fe8:	000070d0 	ldrdeq	r7, [r0], -r0
    5fec:	00006828 	andeq	r6, r0, r8, lsr #16
    5ff0:	0000691c 	andeq	r6, r0, ip, lsl r9
    5ff4:	00006234 	andeq	r6, r0, r4, lsr r2
    5ff8:	0000623c 	andeq	r6, r0, ip, lsr r2
    5ffc:	000063f0 	strdeq	r6, [r0], -r0
    6000:	00006410 	andeq	r6, r0, r0, lsl r4
    6004:	00006150 	andeq	r6, r0, r0, asr r1
    6008:	000061cc 	andeq	r6, r0, ip, asr #3
    600c:	00006fb4 			; <UNDEFINED> instruction: 0x00006fb4
    6010:	00006fe4 	andeq	r6, r0, r4, ror #31
    6014:	00006654 	andeq	r6, r0, r4, asr r6
    6018:	000066c8 	andeq	r6, r0, r8, asr #13
    601c:	00006fa8 	andeq	r6, r0, r8, lsr #31
    6020:	00006ddc 	ldrdeq	r6, [r0], -ip
    6024:	e354001f 	cmp	r4, #31
    6028:	8a00000c 	bhi	6060 <inflate+0x138>
    602c:	e3550000 	cmp	r5, #0
    6030:	0a0001a6 	beq	66d0 <inflate+0x7a8>
    6034:	e1a0300b 	mov	r3, fp
    6038:	ea000001 	b	6044 <inflate+0x11c>
    603c:	e3550000 	cmp	r5, #0
    6040:	0a0001a2 	beq	66d0 <inflate+0x7a8>
    6044:	e4d32001 	ldrb	r2, [r3], #1
    6048:	e2455001 	sub	r5, r5, #1
    604c:	e0866412 	add	r6, r6, r2, lsl r4
    6050:	e2844008 	add	r4, r4, #8
    6054:	e354001f 	cmp	r4, #31
    6058:	e1a0b003 	mov	fp, r3
    605c:	9afffff6 	bls	603c <inflate+0x114>
    6060:	e1a02c26 	lsr	r2, r6, #24
    6064:	e1a03426 	lsr	r3, r6, #8
    6068:	e0822c06 	add	r2, r2, r6, lsl #24
    606c:	e2033cff 	and	r3, r3, #65280	; 0xff00
    6070:	e0823003 	add	r3, r2, r3
    6074:	e2066cff 	and	r6, r6, #65280	; 0xff00
    6078:	e0833406 	add	r3, r3, r6, lsl #8
    607c:	e3a0200a 	mov	r2, #10
    6080:	e3a06000 	mov	r6, #0
    6084:	e58a3018 	str	r3, [sl, #24]
    6088:	e1a04006 	mov	r4, r6
    608c:	e5893030 	str	r3, [r9, #48]	; 0x30
    6090:	e58a2000 	str	r2, [sl]
    6094:	e59a300c 	ldr	r3, [sl, #12]
    6098:	e3530000 	cmp	r3, #0
    609c:	0a0005ca 	beq	77cc <inflate+0x18a4>
    60a0:	e3a00000 	mov	r0, #0
    60a4:	e1a01000 	mov	r1, r0
    60a8:	e1a02000 	mov	r2, r0
    60ac:	ebfff56f 	bl	3670 <adler32>
    60b0:	e3a0300b 	mov	r3, #11
    60b4:	e58a0018 	str	r0, [sl, #24]
    60b8:	e5890030 	str	r0, [r9, #48]	; 0x30
    60bc:	e58a3000 	str	r3, [sl]
    60c0:	e59d7020 	ldr	r7, [sp, #32]
    60c4:	e2473005 	sub	r3, r7, #5
    60c8:	e3530001 	cmp	r3, #1
    60cc:	9a00017f 	bls	66d0 <inflate+0x7a8>
    60d0:	e59a3004 	ldr	r3, [sl, #4]
    60d4:	e3530000 	cmp	r3, #0
    60d8:	1a000016 	bne	6138 <inflate+0x210>
    60dc:	e3540002 	cmp	r4, #2
    60e0:	8a000005 	bhi	60fc <inflate+0x1d4>
    60e4:	e3550000 	cmp	r5, #0
    60e8:	0a000178 	beq	66d0 <inflate+0x7a8>
    60ec:	e4db3001 	ldrb	r3, [fp], #1
    60f0:	e2455001 	sub	r5, r5, #1
    60f4:	e0866413 	add	r6, r6, r3, lsl r4
    60f8:	e2844008 	add	r4, r4, #8
    60fc:	e1a020a6 	lsr	r2, r6, #1
    6100:	e2023003 	and	r3, r2, #3
    6104:	e2061001 	and	r1, r6, #1
    6108:	e3530002 	cmp	r3, #2
    610c:	e58a1004 	str	r1, [sl, #4]
    6110:	0a0004ac 	beq	73c8 <inflate+0x14a0>
    6114:	e3530003 	cmp	r3, #3
    6118:	0a000507 	beq	753c <inflate+0x1614>
    611c:	e3530001 	cmp	r3, #1
    6120:	0a0004f5 	beq	74fc <inflate+0x15d4>
    6124:	e3a0300d 	mov	r3, #13
    6128:	e58a3000 	str	r3, [sl]
    612c:	e1a06122 	lsr	r6, r2, #2
    6130:	e2444003 	sub	r4, r4, #3
    6134:	eaffff98 	b	5f9c <inflate+0x74>
    6138:	e2042007 	and	r2, r4, #7
    613c:	e3a0301a 	mov	r3, #26
    6140:	e1a06236 	lsr	r6, r6, r2
    6144:	e3c44007 	bic	r4, r4, #7
    6148:	e58a3000 	str	r3, [sl]
    614c:	eaffff92 	b	5f9c <inflate+0x74>
    6150:	e59a1048 	ldr	r1, [sl, #72]	; 0x48
    6154:	e3510000 	cmp	r1, #0
    6158:	0a000019 	beq	61c4 <inflate+0x29c>
    615c:	e1540001 	cmp	r4, r1
    6160:	2a00000c 	bcs	6198 <inflate+0x270>
    6164:	e3550000 	cmp	r5, #0
    6168:	0a000158 	beq	66d0 <inflate+0x7a8>
    616c:	e1a0300b 	mov	r3, fp
    6170:	ea000001 	b	617c <inflate+0x254>
    6174:	e3550000 	cmp	r5, #0
    6178:	0a000154 	beq	66d0 <inflate+0x7a8>
    617c:	e4d32001 	ldrb	r2, [r3], #1
    6180:	e2455001 	sub	r5, r5, #1
    6184:	e0866412 	add	r6, r6, r2, lsl r4
    6188:	e2844008 	add	r4, r4, #8
    618c:	e1540001 	cmp	r4, r1
    6190:	e1a0b003 	mov	fp, r3
    6194:	3afffff6 	bcc	6174 <inflate+0x24c>
    6198:	e3e00000 	mvn	r0, #0
    619c:	e1c60110 	bic	r0, r6, r0, lsl r1
    61a0:	e1a06136 	lsr	r6, r6, r1
    61a4:	e59f3fc0 	ldr	r3, [pc, #4032]	; 716c <inflate+0x1244>
    61a8:	e59ac044 	ldr	ip, [sl, #68]	; 0x44
    61ac:	e79a2003 	ldr	r2, [sl, r3]
    61b0:	e08c0000 	add	r0, ip, r0
    61b4:	e0812002 	add	r2, r1, r2
    61b8:	e0614004 	rsb	r4, r1, r4
    61bc:	e58a0044 	str	r0, [sl, #68]	; 0x44
    61c0:	e78a2003 	str	r2, [sl, r3]
    61c4:	e3a03018 	mov	r3, #24
    61c8:	e58a3000 	str	r3, [sl]
    61cc:	e59d7010 	ldr	r7, [sp, #16]
    61d0:	e3570000 	cmp	r7, #0
    61d4:	0a00013d 	beq	66d0 <inflate+0x7a8>
    61d8:	e59dc018 	ldr	ip, [sp, #24]
    61dc:	e59a3044 	ldr	r3, [sl, #68]	; 0x44
    61e0:	e067100c 	rsb	r1, r7, ip
    61e4:	e1510003 	cmp	r1, r3
    61e8:	2a000414 	bcs	7240 <inflate+0x1318>
    61ec:	e59a202c 	ldr	r2, [sl, #44]	; 0x2c
    61f0:	e0611003 	rsb	r1, r1, r3
    61f4:	e1510002 	cmp	r1, r2
    61f8:	9a000450 	bls	7340 <inflate+0x1418>
    61fc:	e3a03d6f 	mov	r3, #7104	; 0x1bc0
    6200:	e79a3003 	ldr	r3, [sl, r3]
    6204:	e3530000 	cmp	r3, #0
    6208:	0a00044c 	beq	7340 <inflate+0x1418>
    620c:	e59f2f5c 	ldr	r2, [pc, #3932]	; 7170 <inflate+0x1248>
    6210:	e3a0301d 	mov	r3, #29
    6214:	e5892018 	str	r2, [r9, #24]
    6218:	e58a3000 	str	r3, [sl]
    621c:	eaffff5e 	b	5f9c <inflate+0x74>
    6220:	e59d7020 	ldr	r7, [sp, #32]
    6224:	e3a03013 	mov	r3, #19
    6228:	e3570006 	cmp	r7, #6
    622c:	e58a3000 	str	r3, [sl]
    6230:	0a000126 	beq	66d0 <inflate+0x7a8>
    6234:	e3a03014 	mov	r3, #20
    6238:	e58a3000 	str	r3, [sl]
    623c:	e59f3f30 	ldr	r3, [pc, #3888]	; 7174 <inflate+0x124c>
    6240:	e59dc010 	ldr	ip, [sp, #16]
    6244:	e3550005 	cmp	r5, #5
    6248:	815c0003 	cmphi	ip, r3
    624c:	93a03000 	movls	r3, #0
    6250:	83a03001 	movhi	r3, #1
    6254:	8a000464 	bhi	73ec <inflate+0x14c4>
    6258:	e59a2054 	ldr	r2, [sl, #84]	; 0x54
    625c:	e3e08000 	mvn	r8, #0
    6260:	e1e08218 	mvn	r8, r8, lsl r2
    6264:	e59fcf00 	ldr	ip, [pc, #3840]	; 716c <inflate+0x1244>
    6268:	e59a204c 	ldr	r2, [sl, #76]	; 0x4c
    626c:	e0061008 	and	r1, r6, r8
    6270:	e0820101 	add	r0, r2, r1, lsl #2
    6274:	e78a300c 	str	r3, [sl, ip]
    6278:	e5d03001 	ldrb	r3, [r0, #1]
    627c:	e7d21101 	ldrb	r1, [r2, r1, lsl #2]
    6280:	e1540003 	cmp	r4, r3
    6284:	e1d000b2 	ldrh	r0, [r0, #2]
    6288:	e1a0c003 	mov	ip, r3
    628c:	2a000012 	bcs	62dc <inflate+0x3b4>
    6290:	e3550000 	cmp	r5, #0
    6294:	0a00010d 	beq	66d0 <inflate+0x7a8>
    6298:	e1a0700b 	mov	r7, fp
    629c:	ea000001 	b	62a8 <inflate+0x380>
    62a0:	e3550000 	cmp	r5, #0
    62a4:	0a000109 	beq	66d0 <inflate+0x7a8>
    62a8:	e4d73001 	ldrb	r3, [r7], #1
    62ac:	e2455001 	sub	r5, r5, #1
    62b0:	e0866413 	add	r6, r6, r3, lsl r4
    62b4:	e0061008 	and	r1, r6, r8
    62b8:	e0820101 	add	r0, r2, r1, lsl #2
    62bc:	e5d03001 	ldrb	r3, [r0, #1]
    62c0:	e2844008 	add	r4, r4, #8
    62c4:	e1530004 	cmp	r3, r4
    62c8:	e7d21101 	ldrb	r1, [r2, r1, lsl #2]
    62cc:	e1d000b2 	ldrh	r0, [r0, #2]
    62d0:	e1a0c003 	mov	ip, r3
    62d4:	e1a0b007 	mov	fp, r7
    62d8:	8afffff0 	bhi	62a0 <inflate+0x378>
    62dc:	e3510000 	cmp	r1, #0
    62e0:	0a000459 	beq	744c <inflate+0x1524>
    62e4:	e31100f0 	tst	r1, #240	; 0xf0
    62e8:	1a000457 	bne	744c <inflate+0x1524>
    62ec:	e58d3024 	str	r3, [sp, #36]	; 0x24
    62f0:	e0831001 	add	r1, r3, r1
    62f4:	e3e03000 	mvn	r3, #0
    62f8:	e1e03113 	mvn	r3, r3, lsl r1
    62fc:	e0031006 	and	r1, r3, r6
    6300:	e58d3028 	str	r3, [sp, #40]	; 0x28
    6304:	e59d3024 	ldr	r3, [sp, #36]	; 0x24
    6308:	e58d002c 	str	r0, [sp, #44]	; 0x2c
    630c:	e0801331 	add	r1, r0, r1, lsr r3
    6310:	e0820101 	add	r0, r2, r1, lsl #2
    6314:	e5d03001 	ldrb	r3, [r0, #1]
    6318:	e59d7024 	ldr	r7, [sp, #36]	; 0x24
    631c:	e7d21101 	ldrb	r1, [r2, r1, lsl #2]
    6320:	e0878003 	add	r8, r7, r3
    6324:	e1540008 	cmp	r4, r8
    6328:	e1d000b2 	ldrh	r0, [r0, #2]
    632c:	2a00001c 	bcs	63a4 <inflate+0x47c>
    6330:	e3550000 	cmp	r5, #0
    6334:	0a0000e5 	beq	66d0 <inflate+0x7a8>
    6338:	e58da030 	str	sl, [sp, #48]	; 0x30
    633c:	e58dc034 	str	ip, [sp, #52]	; 0x34
    6340:	e59da028 	ldr	sl, [sp, #40]	; 0x28
    6344:	e1a0700b 	mov	r7, fp
    6348:	e58d9028 	str	r9, [sp, #40]	; 0x28
    634c:	e59dc024 	ldr	ip, [sp, #36]	; 0x24
    6350:	e59d902c 	ldr	r9, [sp, #44]	; 0x2c
    6354:	ea000001 	b	6360 <inflate+0x438>
    6358:	e3550000 	cmp	r5, #0
    635c:	0a0004e9 	beq	7708 <inflate+0x17e0>
    6360:	e4d73001 	ldrb	r3, [r7], #1
    6364:	e2455001 	sub	r5, r5, #1
    6368:	e0866413 	add	r6, r6, r3, lsl r4
    636c:	e006100a 	and	r1, r6, sl
    6370:	e0891c31 	add	r1, r9, r1, lsr ip
    6374:	e0820101 	add	r0, r2, r1, lsl #2
    6378:	e5d03001 	ldrb	r3, [r0, #1]
    637c:	e2844008 	add	r4, r4, #8
    6380:	e083800c 	add	r8, r3, ip
    6384:	e1580004 	cmp	r8, r4
    6388:	e7d21101 	ldrb	r1, [r2, r1, lsl #2]
    638c:	e1d000b2 	ldrh	r0, [r0, #2]
    6390:	e1a0b007 	mov	fp, r7
    6394:	8affffef 	bhi	6358 <inflate+0x430>
    6398:	e59da030 	ldr	sl, [sp, #48]	; 0x30
    639c:	e59dc034 	ldr	ip, [sp, #52]	; 0x34
    63a0:	e59d9028 	ldr	r9, [sp, #40]	; 0x28
    63a4:	e59d2024 	ldr	r2, [sp, #36]	; 0x24
    63a8:	e06c4004 	rsb	r4, ip, r4
    63ac:	e1a06236 	lsr	r6, r6, r2
    63b0:	e3510000 	cmp	r1, #0
    63b4:	e59f2db0 	ldr	r2, [pc, #3504]	; 716c <inflate+0x1244>
    63b8:	e1a06336 	lsr	r6, r6, r3
    63bc:	e0634004 	rsb	r4, r3, r4
    63c0:	03a03019 	moveq	r3, #25
    63c4:	e58a0040 	str	r0, [sl, #64]	; 0x40
    63c8:	e78a8002 	str	r8, [sl, r2]
    63cc:	058a3000 	streq	r3, [sl]
    63d0:	0afffef1 	beq	5f9c <inflate+0x74>
    63d4:	e3110020 	tst	r1, #32
    63d8:	0a00046f 	beq	759c <inflate+0x1674>
    63dc:	e3e01000 	mvn	r1, #0
    63e0:	e3a0300b 	mov	r3, #11
    63e4:	e78a1002 	str	r1, [sl, r2]
    63e8:	e58a3000 	str	r3, [sl]
    63ec:	eafffeea 	b	5f9c <inflate+0x74>
    63f0:	e59a1048 	ldr	r1, [sl, #72]	; 0x48
    63f4:	e3510000 	cmp	r1, #0
    63f8:	1a0003aa 	bne	72a8 <inflate+0x1380>
    63fc:	e59a3040 	ldr	r3, [sl, #64]	; 0x40
    6400:	e59f1d70 	ldr	r1, [pc, #3440]	; 7178 <inflate+0x1250>
    6404:	e3a02016 	mov	r2, #22
    6408:	e78a3001 	str	r3, [sl, r1]
    640c:	e58a2000 	str	r2, [sl]
    6410:	e59a3058 	ldr	r3, [sl, #88]	; 0x58
    6414:	e3e08000 	mvn	r8, #0
    6418:	e1e08318 	mvn	r8, r8, lsl r3
    641c:	e59a2050 	ldr	r2, [sl, #80]	; 0x50
    6420:	e0061008 	and	r1, r6, r8
    6424:	e0820101 	add	r0, r2, r1, lsl #2
    6428:	e5d03001 	ldrb	r3, [r0, #1]
    642c:	e7d21101 	ldrb	r1, [r2, r1, lsl #2]
    6430:	e1540003 	cmp	r4, r3
    6434:	e1d000b2 	ldrh	r0, [r0, #2]
    6438:	e1a0c003 	mov	ip, r3
    643c:	2a000012 	bcs	648c <inflate+0x564>
    6440:	e3550000 	cmp	r5, #0
    6444:	0a0000a1 	beq	66d0 <inflate+0x7a8>
    6448:	e1a0700b 	mov	r7, fp
    644c:	ea000001 	b	6458 <inflate+0x530>
    6450:	e3550000 	cmp	r5, #0
    6454:	0a00009d 	beq	66d0 <inflate+0x7a8>
    6458:	e4d73001 	ldrb	r3, [r7], #1
    645c:	e2455001 	sub	r5, r5, #1
    6460:	e0866413 	add	r6, r6, r3, lsl r4
    6464:	e0061008 	and	r1, r6, r8
    6468:	e0820101 	add	r0, r2, r1, lsl #2
    646c:	e5d03001 	ldrb	r3, [r0, #1]
    6470:	e2844008 	add	r4, r4, #8
    6474:	e1530004 	cmp	r3, r4
    6478:	e7d21101 	ldrb	r1, [r2, r1, lsl #2]
    647c:	e1d000b2 	ldrh	r0, [r0, #2]
    6480:	e1a0c003 	mov	ip, r3
    6484:	e1a0b007 	mov	fp, r7
    6488:	8afffff0 	bhi	6450 <inflate+0x528>
    648c:	e31100f0 	tst	r1, #240	; 0xf0
    6490:	1a0003b7 	bne	7374 <inflate+0x144c>
    6494:	e1a08003 	mov	r8, r3
    6498:	e0831001 	add	r1, r3, r1
    649c:	e3e03000 	mvn	r3, #0
    64a0:	e1e03113 	mvn	r3, r3, lsl r1
    64a4:	e0031006 	and	r1, r3, r6
    64a8:	e0801831 	add	r1, r0, r1, lsr r8
    64ac:	e58d0028 	str	r0, [sp, #40]	; 0x28
    64b0:	e0820101 	add	r0, r2, r1, lsl #2
    64b4:	e58d3024 	str	r3, [sp, #36]	; 0x24
    64b8:	e5d03001 	ldrb	r3, [r0, #1]
    64bc:	e7d21101 	ldrb	r1, [r2, r1, lsl #2]
    64c0:	e0887003 	add	r7, r8, r3
    64c4:	e1540007 	cmp	r4, r7
    64c8:	e1d000b2 	ldrh	r0, [r0, #2]
    64cc:	2a00001a 	bcs	653c <inflate+0x614>
    64d0:	e3550000 	cmp	r5, #0
    64d4:	0a00007d 	beq	66d0 <inflate+0x7a8>
    64d8:	e1a0700b 	mov	r7, fp
    64dc:	e58da02c 	str	sl, [sp, #44]	; 0x2c
    64e0:	e58dc030 	str	ip, [sp, #48]	; 0x30
    64e4:	e59da024 	ldr	sl, [sp, #36]	; 0x24
    64e8:	e59db028 	ldr	fp, [sp, #40]	; 0x28
    64ec:	ea000001 	b	64f8 <inflate+0x5d0>
    64f0:	e3550000 	cmp	r5, #0
    64f4:	0a0003f8 	beq	74dc <inflate+0x15b4>
    64f8:	e4d73001 	ldrb	r3, [r7], #1
    64fc:	e2455001 	sub	r5, r5, #1
    6500:	e0866413 	add	r6, r6, r3, lsl r4
    6504:	e006100a 	and	r1, r6, sl
    6508:	e08b1831 	add	r1, fp, r1, lsr r8
    650c:	e0820101 	add	r0, r2, r1, lsl #2
    6510:	e5d03001 	ldrb	r3, [r0, #1]
    6514:	e2844008 	add	r4, r4, #8
    6518:	e083c008 	add	ip, r3, r8
    651c:	e15c0004 	cmp	ip, r4
    6520:	e7d21101 	ldrb	r1, [r2, r1, lsl #2]
    6524:	e1d000b2 	ldrh	r0, [r0, #2]
    6528:	e1a0c007 	mov	ip, r7
    652c:	8affffef 	bhi	64f0 <inflate+0x5c8>
    6530:	e59da02c 	ldr	sl, [sp, #44]	; 0x2c
    6534:	e59dc030 	ldr	ip, [sp, #48]	; 0x30
    6538:	e1a0b007 	mov	fp, r7
    653c:	e59f2c28 	ldr	r2, [pc, #3112]	; 716c <inflate+0x1244>
    6540:	e1a06836 	lsr	r6, r6, r8
    6544:	e79a2002 	ldr	r2, [sl, r2]
    6548:	e06c4004 	rsb	r4, ip, r4
    654c:	e0888002 	add	r8, r8, r2
    6550:	ea000389 	b	737c <inflate+0x1454>
    6554:	e3e07001 	mvn	r7, #1
    6558:	e58d700c 	str	r7, [sp, #12]
    655c:	e59d000c 	ldr	r0, [sp, #12]
    6560:	e28dd044 	add	sp, sp, #68	; 0x44
    6564:	e8bd8ff0 	pop	{r4, r5, r6, r7, r8, r9, sl, fp, pc}
    6568:	e354001f 	cmp	r4, #31
    656c:	8a00000c 	bhi	65a4 <inflate+0x67c>
    6570:	e3550000 	cmp	r5, #0
    6574:	0a000055 	beq	66d0 <inflate+0x7a8>
    6578:	e1a0300b 	mov	r3, fp
    657c:	ea000001 	b	6588 <inflate+0x660>
    6580:	e3550000 	cmp	r5, #0
    6584:	0a000051 	beq	66d0 <inflate+0x7a8>
    6588:	e4d32001 	ldrb	r2, [r3], #1
    658c:	e2455001 	sub	r5, r5, #1
    6590:	e0866412 	add	r6, r6, r2, lsl r4
    6594:	e2844008 	add	r4, r4, #8
    6598:	e354001f 	cmp	r4, #31
    659c:	e1a0b003 	mov	fp, r3
    65a0:	9afffff6 	bls	6580 <inflate+0x658>
    65a4:	e59a3020 	ldr	r3, [sl, #32]
    65a8:	e3530000 	cmp	r3, #0
    65ac:	15836004 	strne	r6, [r3, #4]
    65b0:	e59a3010 	ldr	r3, [sl, #16]
    65b4:	e3130c02 	tst	r3, #512	; 0x200
    65b8:	1a0003ea 	bne	7568 <inflate+0x1640>
    65bc:	e3a03003 	mov	r3, #3
    65c0:	e3a04000 	mov	r4, #0
    65c4:	e58a3000 	str	r3, [sl]
    65c8:	e1a06004 	mov	r6, r4
    65cc:	ea000001 	b	65d8 <inflate+0x6b0>
    65d0:	e354000f 	cmp	r4, #15
    65d4:	8a00000c 	bhi	660c <inflate+0x6e4>
    65d8:	e3550000 	cmp	r5, #0
    65dc:	0a00003b 	beq	66d0 <inflate+0x7a8>
    65e0:	e1a0300b 	mov	r3, fp
    65e4:	ea000001 	b	65f0 <inflate+0x6c8>
    65e8:	e3550000 	cmp	r5, #0
    65ec:	0a000037 	beq	66d0 <inflate+0x7a8>
    65f0:	e4d32001 	ldrb	r2, [r3], #1
    65f4:	e2455001 	sub	r5, r5, #1
    65f8:	e0866412 	add	r6, r6, r2, lsl r4
    65fc:	e2844008 	add	r4, r4, #8
    6600:	e354000f 	cmp	r4, #15
    6604:	e1a0b003 	mov	fp, r3
    6608:	9afffff6 	bls	65e8 <inflate+0x6c0>
    660c:	e59a3020 	ldr	r3, [sl, #32]
    6610:	e59ac010 	ldr	ip, [sl, #16]
    6614:	e3530000 	cmp	r3, #0
    6618:	16ef1076 	uxtbne	r1, r6
    661c:	11a02426 	lsrne	r2, r6, #8
    6620:	15831008 	strne	r1, [r3, #8]
    6624:	1583200c 	strne	r2, [r3, #12]
    6628:	e31c0c02 	tst	ip, #512	; 0x200
    662c:	e1a0100c 	mov	r1, ip
    6630:	1a00039b 	bne	74a4 <inflate+0x157c>
    6634:	e3a03004 	mov	r3, #4
    6638:	e21c4b01 	ands	r4, ip, #1024	; 0x400
    663c:	e58a3000 	str	r3, [sl]
    6640:	01a06004 	moveq	r6, r4
    6644:	0a0002e4 	beq	71dc <inflate+0x12b4>
    6648:	e3a04000 	mov	r4, #0
    664c:	e1a06004 	mov	r6, r4
    6650:	ea000108 	b	6a78 <inflate+0xb50>
    6654:	e59a3008 	ldr	r3, [sl, #8]
    6658:	e3530000 	cmp	r3, #0
    665c:	0a000433 	beq	7730 <inflate+0x1808>
    6660:	e59a3010 	ldr	r3, [sl, #16]
    6664:	e3530000 	cmp	r3, #0
    6668:	0a000430 	beq	7730 <inflate+0x1808>
    666c:	e354001f 	cmp	r4, #31
    6670:	8a00000c 	bhi	66a8 <inflate+0x780>
    6674:	e3550000 	cmp	r5, #0
    6678:	0a000014 	beq	66d0 <inflate+0x7a8>
    667c:	e1a0300b 	mov	r3, fp
    6680:	ea000001 	b	668c <inflate+0x764>
    6684:	e3550000 	cmp	r5, #0
    6688:	0a000010 	beq	66d0 <inflate+0x7a8>
    668c:	e4d32001 	ldrb	r2, [r3], #1
    6690:	e2455001 	sub	r5, r5, #1
    6694:	e0866412 	add	r6, r6, r2, lsl r4
    6698:	e2844008 	add	r4, r4, #8
    669c:	e354001f 	cmp	r4, #31
    66a0:	e1a0b003 	mov	fp, r3
    66a4:	9afffff6 	bls	6684 <inflate+0x75c>
    66a8:	e59a301c 	ldr	r3, [sl, #28]
    66ac:	e1530006 	cmp	r3, r6
    66b0:	0a00041c 	beq	7728 <inflate+0x1800>
    66b4:	e59f2ac0 	ldr	r2, [pc, #2752]	; 717c <inflate+0x1254>
    66b8:	e3a0301d 	mov	r3, #29
    66bc:	e5892018 	str	r2, [r9, #24]
    66c0:	e58a3000 	str	r3, [sl]
    66c4:	eafffe34 	b	5f9c <inflate+0x74>
    66c8:	e3a07001 	mov	r7, #1
    66cc:	e58d700c 	str	r7, [sp, #12]
    66d0:	e59a3028 	ldr	r3, [sl, #40]	; 0x28
    66d4:	e59dc014 	ldr	ip, [sp, #20]
    66d8:	e59d7010 	ldr	r7, [sp, #16]
    66dc:	e3530000 	cmp	r3, #0
    66e0:	e589c00c 	str	ip, [r9, #12]
    66e4:	e5897010 	str	r7, [r9, #16]
    66e8:	e589b000 	str	fp, [r9]
    66ec:	e5895004 	str	r5, [r9, #4]
    66f0:	e58a6038 	str	r6, [sl, #56]	; 0x38
    66f4:	e58a403c 	str	r4, [sl, #60]	; 0x3c
    66f8:	1a00000a 	bne	6728 <inflate+0x800>
    66fc:	e59dc018 	ldr	ip, [sp, #24]
    6700:	e157000c 	cmp	r7, ip
    6704:	0a000010 	beq	674c <inflate+0x824>
    6708:	e59a3000 	ldr	r3, [sl]
    670c:	e353001c 	cmp	r3, #28
    6710:	8a00000d 	bhi	674c <inflate+0x824>
    6714:	e3530019 	cmp	r3, #25
    6718:	9a000002 	bls	6728 <inflate+0x800>
    671c:	e59d7020 	ldr	r7, [sp, #32]
    6720:	e3570004 	cmp	r7, #4
    6724:	0a000008 	beq	674c <inflate+0x824>
    6728:	e1a00009 	mov	r0, r9
    672c:	e59d1018 	ldr	r1, [sp, #24]
    6730:	ebfffcf8 	bl	5b18 <updatewindow>
    6734:	e3500000 	cmp	r0, #0
    6738:	13a0301e 	movne	r3, #30
    673c:	13e0c003 	mvnne	ip, #3
    6740:	158a3000 	strne	r3, [sl]
    6744:	158dc00c 	strne	ip, [sp, #12]
    6748:	1affff83 	bne	655c <inflate+0x634>
    674c:	e5995004 	ldr	r5, [r9, #4]
    6750:	e5994010 	ldr	r4, [r9, #16]
    6754:	e59d701c 	ldr	r7, [sp, #28]
    6758:	e59dc018 	ldr	ip, [sp, #24]
    675c:	e59a301c 	ldr	r3, [sl, #28]
    6760:	e5991008 	ldr	r1, [r9, #8]
    6764:	e5992014 	ldr	r2, [r9, #20]
    6768:	e59a0008 	ldr	r0, [sl, #8]
    676c:	e064400c 	rsb	r4, r4, ip
    6770:	e0655007 	rsb	r5, r5, r7
    6774:	e0811005 	add	r1, r1, r5
    6778:	e0822004 	add	r2, r2, r4
    677c:	e0833004 	add	r3, r3, r4
    6780:	e3500000 	cmp	r0, #0
    6784:	e5891008 	str	r1, [r9, #8]
    6788:	e5892014 	str	r2, [r9, #20]
    678c:	e58a301c 	str	r3, [sl, #28]
    6790:	0a00000b 	beq	67c4 <inflate+0x89c>
    6794:	e3540000 	cmp	r4, #0
    6798:	0a000009 	beq	67c4 <inflate+0x89c>
    679c:	e59a3010 	ldr	r3, [sl, #16]
    67a0:	e599100c 	ldr	r1, [r9, #12]
    67a4:	e3530000 	cmp	r3, #0
    67a8:	e59a0018 	ldr	r0, [sl, #24]
    67ac:	e0641001 	rsb	r1, r4, r1
    67b0:	e1a02004 	mov	r2, r4
    67b4:	0a00029c 	beq	722c <inflate+0x1304>
    67b8:	ebfff4e4 	bl	3b50 <crc32>
    67bc:	e58a0018 	str	r0, [sl, #24]
    67c0:	e5890030 	str	r0, [r9, #48]	; 0x30
    67c4:	e59a2004 	ldr	r2, [sl, #4]
    67c8:	e59a3000 	ldr	r3, [sl]
    67cc:	e3520000 	cmp	r2, #0
    67d0:	e59a103c 	ldr	r1, [sl, #60]	; 0x3c
    67d4:	13a02040 	movne	r2, #64	; 0x40
    67d8:	03a02000 	moveq	r2, #0
    67dc:	e353000b 	cmp	r3, #11
    67e0:	e0822001 	add	r2, r2, r1
    67e4:	0a000284 	beq	71fc <inflate+0x12d4>
    67e8:	e3530013 	cmp	r3, #19
    67ec:	1353000e 	cmpne	r3, #14
    67f0:	03a03c01 	moveq	r3, #256	; 0x100
    67f4:	1a000281 	bne	7200 <inflate+0x12d8>
    67f8:	e0822003 	add	r2, r2, r3
    67fc:	e1944005 	orrs	r4, r4, r5
    6800:	e589202c 	str	r2, [r9, #44]	; 0x2c
    6804:	0a000002 	beq	6814 <inflate+0x8ec>
    6808:	e59d7020 	ldr	r7, [sp, #32]
    680c:	e3570004 	cmp	r7, #4
    6810:	1affff51 	bne	655c <inflate+0x634>
    6814:	e59dc00c 	ldr	ip, [sp, #12]
    6818:	e35c0000 	cmp	ip, #0
    681c:	03e0c004 	mvneq	ip, #4
    6820:	e58dc00c 	str	ip, [sp, #12]
    6824:	eaffff4c 	b	655c <inflate+0x634>
    6828:	e59a205c 	ldr	r2, [sl, #92]	; 0x5c
    682c:	e59a3068 	ldr	r3, [sl, #104]	; 0x68
    6830:	e1520003 	cmp	r2, r3
    6834:	9a000014 	bls	688c <inflate+0x964>
    6838:	e59f1940 	ldr	r1, [pc, #2368]	; 7180 <inflate+0x1258>
    683c:	e2430001 	sub	r0, r3, #1
    6840:	e0810080 	add	r0, r1, r0, lsl #1
    6844:	e3540002 	cmp	r4, #2
    6848:	8a000005 	bhi	6864 <inflate+0x93c>
    684c:	e3550000 	cmp	r5, #0
    6850:	0affff9e 	beq	66d0 <inflate+0x7a8>
    6854:	e4db1001 	ldrb	r1, [fp], #1
    6858:	e2455001 	sub	r5, r5, #1
    685c:	e0866411 	add	r6, r6, r1, lsl r4
    6860:	e2844008 	add	r4, r4, #8
    6864:	e1f010b2 	ldrh	r1, [r0, #2]!
    6868:	e2833001 	add	r3, r3, #1
    686c:	e206c007 	and	ip, r6, #7
    6870:	e08a1081 	add	r1, sl, r1, lsl #1
    6874:	e1530002 	cmp	r3, r2
    6878:	e2444003 	sub	r4, r4, #3
    687c:	e58a3068 	str	r3, [sl, #104]	; 0x68
    6880:	e1c1c7b0 	strh	ip, [r1, #112]	; 0x70
    6884:	e1a061a6 	lsr	r6, r6, #3
    6888:	3affffed 	bcc	6844 <inflate+0x91c>
    688c:	e3530012 	cmp	r3, #18
    6890:	8a00000c 	bhi	68c8 <inflate+0x9a0>
    6894:	e59f28e4 	ldr	r2, [pc, #2276]	; 7180 <inflate+0x1258>
    6898:	e2433001 	sub	r3, r3, #1
    689c:	e0823083 	add	r3, r2, r3, lsl #1
    68a0:	e3a01000 	mov	r1, #0
    68a4:	e1f320b2 	ldrh	r2, [r3, #2]!
    68a8:	e59f78d4 	ldr	r7, [pc, #2260]	; 7184 <inflate+0x125c>
    68ac:	e2822038 	add	r2, r2, #56	; 0x38
    68b0:	e1a02082 	lsl	r2, r2, #1
    68b4:	e1530007 	cmp	r3, r7
    68b8:	e18a10b2 	strh	r1, [sl, r2]
    68bc:	1afffff8 	bne	68a4 <inflate+0x97c>
    68c0:	e3a03013 	mov	r3, #19
    68c4:	e58a3068 	str	r3, [sl, #104]	; 0x68
    68c8:	e28a3e53 	add	r3, sl, #1328	; 0x530
    68cc:	e3a00007 	mov	r0, #7
    68d0:	e28a1054 	add	r1, sl, #84	; 0x54
    68d4:	e28a2e2f 	add	r2, sl, #752	; 0x2f0
    68d8:	e58a306c 	str	r3, [sl, #108]	; 0x6c
    68dc:	e58a304c 	str	r3, [sl, #76]	; 0x4c
    68e0:	e58a0054 	str	r0, [sl, #84]	; 0x54
    68e4:	e28a306c 	add	r3, sl, #108	; 0x6c
    68e8:	e88d0006 	stm	sp, {r1, r2}
    68ec:	e3a00000 	mov	r0, #0
    68f0:	e28a1070 	add	r1, sl, #112	; 0x70
    68f4:	e3a02013 	mov	r2, #19
    68f8:	eb00057e 	bl	7ef8 <inflate_table>
    68fc:	e3500000 	cmp	r0, #0
    6900:	e58d000c 	str	r0, [sp, #12]
    6904:	0a00039e 	beq	7784 <inflate+0x185c>
    6908:	e59f2878 	ldr	r2, [pc, #2168]	; 7188 <inflate+0x1260>
    690c:	e3a0301d 	mov	r3, #29
    6910:	e5892018 	str	r2, [r9, #24]
    6914:	e58a3000 	str	r3, [sl]
    6918:	eafffd9f 	b	5f9c <inflate+0x74>
    691c:	e59a7068 	ldr	r7, [sl, #104]	; 0x68
    6920:	e59a0060 	ldr	r0, [sl, #96]	; 0x60
    6924:	e59a8064 	ldr	r8, [sl, #100]	; 0x64
    6928:	e28a106e 	add	r1, sl, #110	; 0x6e
    692c:	e58d0024 	str	r0, [sp, #36]	; 0x24
    6930:	e0888000 	add	r8, r8, r0
    6934:	e58d1028 	str	r1, [sp, #40]	; 0x28
    6938:	e1570008 	cmp	r7, r8
    693c:	2a000396 	bcs	779c <inflate+0x1874>
    6940:	e59ac054 	ldr	ip, [sl, #84]	; 0x54
    6944:	e3a01001 	mov	r1, #1
    6948:	e1a0cc11 	lsl	ip, r1, ip
    694c:	e59a004c 	ldr	r0, [sl, #76]	; 0x4c
    6950:	e24cc001 	sub	ip, ip, #1
    6954:	e006300c 	and	r3, r6, ip
    6958:	e0803103 	add	r3, r0, r3, lsl #2
    695c:	e5d31001 	ldrb	r1, [r3, #1]
    6960:	e1d320b2 	ldrh	r2, [r3, #2]
    6964:	e1540001 	cmp	r4, r1
    6968:	2a000010 	bcs	69b0 <inflate+0xa88>
    696c:	e3550000 	cmp	r5, #0
    6970:	0affff56 	beq	66d0 <inflate+0x7a8>
    6974:	e1a0300b 	mov	r3, fp
    6978:	ea000001 	b	6984 <inflate+0xa5c>
    697c:	e3550000 	cmp	r5, #0
    6980:	0affff52 	beq	66d0 <inflate+0x7a8>
    6984:	e4d32001 	ldrb	r2, [r3], #1
    6988:	e2455001 	sub	r5, r5, #1
    698c:	e0866412 	add	r6, r6, r2, lsl r4
    6990:	e006200c 	and	r2, r6, ip
    6994:	e0802102 	add	r2, r0, r2, lsl #2
    6998:	e5d21001 	ldrb	r1, [r2, #1]
    699c:	e2844008 	add	r4, r4, #8
    69a0:	e1510004 	cmp	r1, r4
    69a4:	e1d220b2 	ldrh	r2, [r2, #2]
    69a8:	e1a0b003 	mov	fp, r3
    69ac:	8afffff2 	bhi	697c <inflate+0xa54>
    69b0:	e352000f 	cmp	r2, #15
    69b4:	9a00027c 	bls	73ac <inflate+0x1484>
    69b8:	e3520010 	cmp	r2, #16
    69bc:	0a00031d 	beq	7638 <inflate+0x1710>
    69c0:	e3520011 	cmp	r2, #17
    69c4:	0a000336 	beq	76a4 <inflate+0x177c>
    69c8:	e2810007 	add	r0, r1, #7
    69cc:	e1540000 	cmp	r4, r0
    69d0:	2a00000c 	bcs	6a08 <inflate+0xae0>
    69d4:	e3550000 	cmp	r5, #0
    69d8:	0affff3c 	beq	66d0 <inflate+0x7a8>
    69dc:	e1a0300b 	mov	r3, fp
    69e0:	ea000001 	b	69ec <inflate+0xac4>
    69e4:	e3550000 	cmp	r5, #0
    69e8:	0affff38 	beq	66d0 <inflate+0x7a8>
    69ec:	e4d32001 	ldrb	r2, [r3], #1
    69f0:	e2455001 	sub	r5, r5, #1
    69f4:	e0866412 	add	r6, r6, r2, lsl r4
    69f8:	e2844008 	add	r4, r4, #8
    69fc:	e1540000 	cmp	r4, r0
    6a00:	e1a0b003 	mov	fp, r3
    6a04:	3afffff6 	bcc	69e4 <inflate+0xabc>
    6a08:	e1a06136 	lsr	r6, r6, r1
    6a0c:	e3e03006 	mvn	r3, #6
    6a10:	e206007f 	and	r0, r6, #127	; 0x7f
    6a14:	e0613003 	rsb	r3, r1, r3
    6a18:	e280000b 	add	r0, r0, #11
    6a1c:	e1a063a6 	lsr	r6, r6, #7
    6a20:	e0844003 	add	r4, r4, r3
    6a24:	e3a01000 	mov	r1, #0
    6a28:	e0800007 	add	r0, r0, r7
    6a2c:	e1500008 	cmp	r0, r8
    6a30:	8a0003b1 	bhi	78fc <inflate+0x19d4>
    6a34:	e2873037 	add	r3, r7, #55	; 0x37
    6a38:	e59d7028 	ldr	r7, [sp, #40]	; 0x28
    6a3c:	e08a3083 	add	r3, sl, r3, lsl #1
    6a40:	e6ff1071 	uxth	r1, r1
    6a44:	e0872080 	add	r2, r7, r0, lsl #1
    6a48:	e1e310b2 	strh	r1, [r3, #2]!
    6a4c:	e1530002 	cmp	r3, r2
    6a50:	1afffffc 	bne	6a48 <inflate+0xb20>
    6a54:	e58a0068 	str	r0, [sl, #104]	; 0x68
    6a58:	e1a07000 	mov	r7, r0
    6a5c:	eaffffb5 	b	6938 <inflate+0xa10>
    6a60:	e59ac010 	ldr	ip, [sl, #16]
    6a64:	e31c0b01 	tst	ip, #1024	; 0x400
    6a68:	e1a0100c 	mov	r1, ip
    6a6c:	0a0001da 	beq	71dc <inflate+0x12b4>
    6a70:	e354000f 	cmp	r4, #15
    6a74:	8a00000c 	bhi	6aac <inflate+0xb84>
    6a78:	e3550000 	cmp	r5, #0
    6a7c:	0affff13 	beq	66d0 <inflate+0x7a8>
    6a80:	e1a0300b 	mov	r3, fp
    6a84:	ea000001 	b	6a90 <inflate+0xb68>
    6a88:	e3550000 	cmp	r5, #0
    6a8c:	0affff0f 	beq	66d0 <inflate+0x7a8>
    6a90:	e4d32001 	ldrb	r2, [r3], #1
    6a94:	e2455001 	sub	r5, r5, #1
    6a98:	e0866412 	add	r6, r6, r2, lsl r4
    6a9c:	e2844008 	add	r4, r4, #8
    6aa0:	e354000f 	cmp	r4, #15
    6aa4:	e1a0b003 	mov	fp, r3
    6aa8:	9afffff6 	bls	6a88 <inflate+0xb60>
    6aac:	e59a3020 	ldr	r3, [sl, #32]
    6ab0:	e58a6040 	str	r6, [sl, #64]	; 0x40
    6ab4:	e3530000 	cmp	r3, #0
    6ab8:	15836014 	strne	r6, [r3, #20]
    6abc:	e21c3c02 	ands	r3, ip, #512	; 0x200
    6ac0:	1a0002cc 	bne	75f8 <inflate+0x16d0>
    6ac4:	e1a06003 	mov	r6, r3
    6ac8:	e1a0100c 	mov	r1, ip
    6acc:	e20c3b01 	and	r3, ip, #1024	; 0x400
    6ad0:	e1a04006 	mov	r4, r6
    6ad4:	ea0001c5 	b	71f0 <inflate+0x12c8>
    6ad8:	e59a1010 	ldr	r1, [sl, #16]
    6adc:	e2013b01 	and	r3, r1, #1024	; 0x400
    6ae0:	e3530000 	cmp	r3, #0
    6ae4:	0a000020 	beq	6b6c <inflate+0xc44>
    6ae8:	e59a3040 	ldr	r3, [sl, #64]	; 0x40
    6aec:	e1550003 	cmp	r5, r3
    6af0:	31a07005 	movcc	r7, r5
    6af4:	21a07003 	movcs	r7, r3
    6af8:	e3570000 	cmp	r7, #0
    6afc:	0a000017 	beq	6b60 <inflate+0xc38>
    6b00:	e59a2020 	ldr	r2, [sl, #32]
    6b04:	e3520000 	cmp	r2, #0
    6b08:	0a00000d 	beq	6b44 <inflate+0xc1c>
    6b0c:	e5920010 	ldr	r0, [r2, #16]
    6b10:	e3500000 	cmp	r0, #0
    6b14:	0a00000a 	beq	6b44 <inflate+0xc1c>
    6b18:	e5921014 	ldr	r1, [r2, #20]
    6b1c:	e5922018 	ldr	r2, [r2, #24]
    6b20:	e0633001 	rsb	r3, r3, r1
    6b24:	e0871003 	add	r1, r7, r3
    6b28:	e1510002 	cmp	r1, r2
    6b2c:	e0800003 	add	r0, r0, r3
    6b30:	e1a0100b 	mov	r1, fp
    6b34:	80632002 	rsbhi	r2, r3, r2
    6b38:	91a02007 	movls	r2, r7
    6b3c:	ebffe540 	bl	44 <ZMEMCPY>
    6b40:	e59a1010 	ldr	r1, [sl, #16]
    6b44:	e3110c02 	tst	r1, #512	; 0x200
    6b48:	1a000280 	bne	7550 <inflate+0x1628>
    6b4c:	e59a3040 	ldr	r3, [sl, #64]	; 0x40
    6b50:	e0675005 	rsb	r5, r7, r5
    6b54:	e0673003 	rsb	r3, r7, r3
    6b58:	e08bb007 	add	fp, fp, r7
    6b5c:	e58a3040 	str	r3, [sl, #64]	; 0x40
    6b60:	e3530000 	cmp	r3, #0
    6b64:	1afffed9 	bne	66d0 <inflate+0x7a8>
    6b68:	e59a1010 	ldr	r1, [sl, #16]
    6b6c:	e3a02000 	mov	r2, #0
    6b70:	e3a03006 	mov	r3, #6
    6b74:	e58a2040 	str	r2, [sl, #64]	; 0x40
    6b78:	e2112b02 	ands	r2, r1, #2048	; 0x800
    6b7c:	e58a3000 	str	r3, [sl]
    6b80:	1a00009b 	bne	6df4 <inflate+0xecc>
    6b84:	e59a3020 	ldr	r3, [sl, #32]
    6b88:	e3530000 	cmp	r3, #0
    6b8c:	1583201c 	strne	r2, [r3, #28]
    6b90:	ea0000b3 	b	6e64 <inflate+0xf3c>
    6b94:	e59a1008 	ldr	r1, [sl, #8]
    6b98:	e3510000 	cmp	r1, #0
    6b9c:	0a0001e4 	beq	7334 <inflate+0x140c>
    6ba0:	e354000f 	cmp	r4, #15
    6ba4:	8a00000c 	bhi	6bdc <inflate+0xcb4>
    6ba8:	e3550000 	cmp	r5, #0
    6bac:	0afffec7 	beq	66d0 <inflate+0x7a8>
    6bb0:	e1a0300b 	mov	r3, fp
    6bb4:	ea000001 	b	6bc0 <inflate+0xc98>
    6bb8:	e3550000 	cmp	r5, #0
    6bbc:	0afffec3 	beq	66d0 <inflate+0x7a8>
    6bc0:	e4d32001 	ldrb	r2, [r3], #1
    6bc4:	e2455001 	sub	r5, r5, #1
    6bc8:	e0866412 	add	r6, r6, r2, lsl r4
    6bcc:	e2844008 	add	r4, r4, #8
    6bd0:	e354000f 	cmp	r4, #15
    6bd4:	e1a0b003 	mov	fp, r3
    6bd8:	9afffff6 	bls	6bb8 <inflate+0xc90>
    6bdc:	e3110002 	tst	r1, #2
    6be0:	0a000002 	beq	6bf0 <inflate+0xcc8>
    6be4:	e59f35a0 	ldr	r3, [pc, #1440]	; 718c <inflate+0x1264>
    6be8:	e1560003 	cmp	r6, r3
    6bec:	0a00030a 	beq	781c <inflate+0x18f4>
    6bf0:	e59a3020 	ldr	r3, [sl, #32]
    6bf4:	e3a02000 	mov	r2, #0
    6bf8:	e1530002 	cmp	r3, r2
    6bfc:	e58a2010 	str	r2, [sl, #16]
    6c00:	13e02000 	mvnne	r2, #0
    6c04:	15832030 	strne	r2, [r3, #48]	; 0x30
    6c08:	e3110001 	tst	r1, #1
    6c0c:	0a000235 	beq	74e8 <inflate+0x15c0>
    6c10:	e1a01c06 	lsl	r1, r6, #24
    6c14:	e1a03426 	lsr	r3, r6, #8
    6c18:	e59f2570 	ldr	r2, [pc, #1392]	; 7190 <inflate+0x1268>
    6c1c:	e0833821 	add	r3, r3, r1, lsr #16
    6c20:	e0827392 	umull	r7, r2, r2, r3
    6c24:	e0621003 	rsb	r1, r2, r3
    6c28:	e08220a1 	add	r2, r2, r1, lsr #1
    6c2c:	e1a02222 	lsr	r2, r2, #4
    6c30:	e0622282 	rsb	r2, r2, r2, lsl #5
    6c34:	e1530002 	cmp	r3, r2
    6c38:	1a00022a 	bne	74e8 <inflate+0x15c0>
    6c3c:	e206300f 	and	r3, r6, #15
    6c40:	e3530008 	cmp	r3, #8
    6c44:	1a0000d2 	bne	6f94 <inflate+0x106c>
    6c48:	e59a2024 	ldr	r2, [sl, #36]	; 0x24
    6c4c:	e1a06226 	lsr	r6, r6, #4
    6c50:	e206300f 	and	r3, r6, #15
    6c54:	e3520000 	cmp	r2, #0
    6c58:	e2833008 	add	r3, r3, #8
    6c5c:	058a3024 	streq	r3, [sl, #36]	; 0x24
    6c60:	0a0002ff 	beq	7864 <inflate+0x193c>
    6c64:	e1530002 	cmp	r3, r2
    6c68:	9a0002fd 	bls	7864 <inflate+0x193c>
    6c6c:	e59f2520 	ldr	r2, [pc, #1312]	; 7194 <inflate+0x126c>
    6c70:	e3a0301d 	mov	r3, #29
    6c74:	e5892018 	str	r2, [r9, #24]
    6c78:	e2444004 	sub	r4, r4, #4
    6c7c:	e58a3000 	str	r3, [sl]
    6c80:	eafffcc5 	b	5f9c <inflate+0x74>
    6c84:	e59a1010 	ldr	r1, [sl, #16]
    6c88:	e3110c02 	tst	r1, #512	; 0x200
    6c8c:	0a00009a 	beq	6efc <inflate+0xfd4>
    6c90:	e354000f 	cmp	r4, #15
    6c94:	8a00000c 	bhi	6ccc <inflate+0xda4>
    6c98:	e3550000 	cmp	r5, #0
    6c9c:	0afffe8b 	beq	66d0 <inflate+0x7a8>
    6ca0:	e1a0300b 	mov	r3, fp
    6ca4:	ea000001 	b	6cb0 <inflate+0xd88>
    6ca8:	e3550000 	cmp	r5, #0
    6cac:	0afffe87 	beq	66d0 <inflate+0x7a8>
    6cb0:	e4d32001 	ldrb	r2, [r3], #1
    6cb4:	e2455001 	sub	r5, r5, #1
    6cb8:	e0866412 	add	r6, r6, r2, lsl r4
    6cbc:	e2844008 	add	r4, r4, #8
    6cc0:	e354000f 	cmp	r4, #15
    6cc4:	e1a0b003 	mov	fp, r3
    6cc8:	9afffff6 	bls	6ca8 <inflate+0xd80>
    6ccc:	e1da31b8 	ldrh	r3, [sl, #24]
    6cd0:	e1530006 	cmp	r3, r6
    6cd4:	0a0001e9 	beq	7480 <inflate+0x1558>
    6cd8:	e59f24b8 	ldr	r2, [pc, #1208]	; 7198 <inflate+0x1270>
    6cdc:	e3a0301d 	mov	r3, #29
    6ce0:	e5892018 	str	r2, [r9, #24]
    6ce4:	e58a3000 	str	r3, [sl]
    6ce8:	eafffcab 	b	5f9c <inflate+0x74>
    6cec:	e2043007 	and	r3, r4, #7
    6cf0:	e3c44007 	bic	r4, r4, #7
    6cf4:	e354001f 	cmp	r4, #31
    6cf8:	e1a06336 	lsr	r6, r6, r3
    6cfc:	8a00000c 	bhi	6d34 <inflate+0xe0c>
    6d00:	e3550000 	cmp	r5, #0
    6d04:	0afffe71 	beq	66d0 <inflate+0x7a8>
    6d08:	e1a0300b 	mov	r3, fp
    6d0c:	ea000001 	b	6d18 <inflate+0xdf0>
    6d10:	e3550000 	cmp	r5, #0
    6d14:	0afffe6d 	beq	66d0 <inflate+0x7a8>
    6d18:	e4d32001 	ldrb	r2, [r3], #1
    6d1c:	e2455001 	sub	r5, r5, #1
    6d20:	e0866412 	add	r6, r6, r2, lsl r4
    6d24:	e2844008 	add	r4, r4, #8
    6d28:	e354001f 	cmp	r4, #31
    6d2c:	e1a0b003 	mov	fp, r3
    6d30:	9afffff6 	bls	6d10 <inflate+0xde8>
    6d34:	e1a03826 	lsr	r3, r6, #16
    6d38:	e2233cff 	eor	r3, r3, #65280	; 0xff00
    6d3c:	e22330ff 	eor	r3, r3, #255	; 0xff
    6d40:	e6ff7076 	uxth	r7, r6
    6d44:	e1570003 	cmp	r7, r3
    6d48:	0a000221 	beq	75d4 <inflate+0x16ac>
    6d4c:	e59f2448 	ldr	r2, [pc, #1096]	; 719c <inflate+0x1274>
    6d50:	e3a0301d 	mov	r3, #29
    6d54:	e5892018 	str	r2, [r9, #24]
    6d58:	e58a3000 	str	r3, [sl]
    6d5c:	eafffc8e 	b	5f9c <inflate+0x74>
    6d60:	e59a7040 	ldr	r7, [sl, #64]	; 0x40
    6d64:	e3a0300f 	mov	r3, #15
    6d68:	e58a3000 	str	r3, [sl]
    6d6c:	e3570000 	cmp	r7, #0
    6d70:	0a00012f 	beq	7234 <inflate+0x130c>
    6d74:	e59dc010 	ldr	ip, [sp, #16]
    6d78:	e1550007 	cmp	r5, r7
    6d7c:	31a07005 	movcc	r7, r5
    6d80:	e157000c 	cmp	r7, ip
    6d84:	21a0700c 	movcs	r7, ip
    6d88:	e3570000 	cmp	r7, #0
    6d8c:	0afffe4f 	beq	66d0 <inflate+0x7a8>
    6d90:	e1a0100b 	mov	r1, fp
    6d94:	e59d0014 	ldr	r0, [sp, #20]
    6d98:	e1a02007 	mov	r2, r7
    6d9c:	ebffe4a8 	bl	44 <ZMEMCPY>
    6da0:	e59dc010 	ldr	ip, [sp, #16]
    6da4:	e59a3040 	ldr	r3, [sl, #64]	; 0x40
    6da8:	e067c00c 	rsb	ip, r7, ip
    6dac:	e58dc010 	str	ip, [sp, #16]
    6db0:	e59dc014 	ldr	ip, [sp, #20]
    6db4:	e0673003 	rsb	r3, r7, r3
    6db8:	e08cc007 	add	ip, ip, r7
    6dbc:	e58a3040 	str	r3, [sl, #64]	; 0x40
    6dc0:	e0675005 	rsb	r5, r7, r5
    6dc4:	e58dc014 	str	ip, [sp, #20]
    6dc8:	e08bb007 	add	fp, fp, r7
    6dcc:	e59a3000 	ldr	r3, [sl]
    6dd0:	eafffc71 	b	5f9c <inflate+0x74>
    6dd4:	e59a7040 	ldr	r7, [sl, #64]	; 0x40
    6dd8:	eaffffe3 	b	6d6c <inflate+0xe44>
    6ddc:	e3e03003 	mvn	r3, #3
    6de0:	e58d300c 	str	r3, [sp, #12]
    6de4:	eafffddc 	b	655c <inflate+0x634>
    6de8:	e59a1010 	ldr	r1, [sl, #16]
    6dec:	e2112b02 	ands	r2, r1, #2048	; 0x800
    6df0:	0affff63 	beq	6b84 <inflate+0xc5c>
    6df4:	e3550000 	cmp	r5, #0
    6df8:	0afffe34 	beq	66d0 <inflate+0x7a8>
    6dfc:	e3a07000 	mov	r7, #0
    6e00:	e59a3020 	ldr	r3, [sl, #32]
    6e04:	e7db8007 	ldrb	r8, [fp, r7]
    6e08:	e3530000 	cmp	r3, #0
    6e0c:	e2877001 	add	r7, r7, #1
    6e10:	0a000008 	beq	6e38 <inflate+0xf10>
    6e14:	e593201c 	ldr	r2, [r3, #28]
    6e18:	e3520000 	cmp	r2, #0
    6e1c:	0a000005 	beq	6e38 <inflate+0xf10>
    6e20:	e5931020 	ldr	r1, [r3, #32]
    6e24:	e59a3040 	ldr	r3, [sl, #64]	; 0x40
    6e28:	e1530001 	cmp	r3, r1
    6e2c:	32831001 	addcc	r1, r3, #1
    6e30:	37c28003 	strbcc	r8, [r2, r3]
    6e34:	358a1040 	strcc	r1, [sl, #64]	; 0x40
    6e38:	e3580000 	cmp	r8, #0
    6e3c:	11570005 	cmpne	r7, r5
    6e40:	3affffee 	bcc	6e00 <inflate+0xed8>
    6e44:	e59a3010 	ldr	r3, [sl, #16]
    6e48:	e3130c02 	tst	r3, #512	; 0x200
    6e4c:	1a000180 	bne	7454 <inflate+0x152c>
    6e50:	e3580000 	cmp	r8, #0
    6e54:	e0675005 	rsb	r5, r7, r5
    6e58:	e08bb007 	add	fp, fp, r7
    6e5c:	1afffe1b 	bne	66d0 <inflate+0x7a8>
    6e60:	e59a1010 	ldr	r1, [sl, #16]
    6e64:	e3a02000 	mov	r2, #0
    6e68:	e3a03007 	mov	r3, #7
    6e6c:	e58a2040 	str	r2, [sl, #64]	; 0x40
    6e70:	e58a3000 	str	r3, [sl]
    6e74:	e2113a01 	ands	r3, r1, #4096	; 0x1000
    6e78:	0a0000e7 	beq	721c <inflate+0x12f4>
    6e7c:	e3550000 	cmp	r5, #0
    6e80:	0afffe12 	beq	66d0 <inflate+0x7a8>
    6e84:	e3a07000 	mov	r7, #0
    6e88:	e59a3020 	ldr	r3, [sl, #32]
    6e8c:	e7db8007 	ldrb	r8, [fp, r7]
    6e90:	e3530000 	cmp	r3, #0
    6e94:	e2877001 	add	r7, r7, #1
    6e98:	0a000008 	beq	6ec0 <inflate+0xf98>
    6e9c:	e5932024 	ldr	r2, [r3, #36]	; 0x24
    6ea0:	e3520000 	cmp	r2, #0
    6ea4:	0a000005 	beq	6ec0 <inflate+0xf98>
    6ea8:	e5931028 	ldr	r1, [r3, #40]	; 0x28
    6eac:	e59a3040 	ldr	r3, [sl, #64]	; 0x40
    6eb0:	e1530001 	cmp	r3, r1
    6eb4:	32831001 	addcc	r1, r3, #1
    6eb8:	37c28003 	strbcc	r8, [r2, r3]
    6ebc:	358a1040 	strcc	r1, [sl, #64]	; 0x40
    6ec0:	e3580000 	cmp	r8, #0
    6ec4:	11570005 	cmpne	r7, r5
    6ec8:	3affffee 	bcc	6e88 <inflate+0xf60>
    6ecc:	e59a3010 	ldr	r3, [sl, #16]
    6ed0:	e3130c02 	tst	r3, #512	; 0x200
    6ed4:	1a00013e 	bne	73d4 <inflate+0x14ac>
    6ed8:	e3580000 	cmp	r8, #0
    6edc:	e0675005 	rsb	r5, r7, r5
    6ee0:	e08bb007 	add	fp, fp, r7
    6ee4:	1afffdf9 	bne	66d0 <inflate+0x7a8>
    6ee8:	e59a1010 	ldr	r1, [sl, #16]
    6eec:	e3a03008 	mov	r3, #8
    6ef0:	e3110c02 	tst	r1, #512	; 0x200
    6ef4:	e58a3000 	str	r3, [sl]
    6ef8:	1affff64 	bne	6c90 <inflate+0xd68>
    6efc:	e59a3020 	ldr	r3, [sl, #32]
    6f00:	e3a00000 	mov	r0, #0
    6f04:	e3530000 	cmp	r3, #0
    6f08:	11a014c1 	asrne	r1, r1, #9
    6f0c:	12011001 	andne	r1, r1, #1
    6f10:	13a02001 	movne	r2, #1
    6f14:	1583102c 	strne	r1, [r3, #44]	; 0x2c
    6f18:	15832030 	strne	r2, [r3, #48]	; 0x30
    6f1c:	e1a01000 	mov	r1, r0
    6f20:	e1a02000 	mov	r2, r0
    6f24:	ebfff309 	bl	3b50 <crc32>
    6f28:	e3a0200b 	mov	r2, #11
    6f2c:	e58a0018 	str	r0, [sl, #24]
    6f30:	e1a03002 	mov	r3, r2
    6f34:	e5890030 	str	r0, [r9, #48]	; 0x30
    6f38:	e58a2000 	str	r2, [sl]
    6f3c:	eafffc16 	b	5f9c <inflate+0x74>
    6f40:	e59a1010 	ldr	r1, [sl, #16]
    6f44:	eaffffca 	b	6e74 <inflate+0xf4c>
    6f48:	e354000f 	cmp	r4, #15
    6f4c:	8a00000c 	bhi	6f84 <inflate+0x105c>
    6f50:	e3550000 	cmp	r5, #0
    6f54:	0afffddd 	beq	66d0 <inflate+0x7a8>
    6f58:	e1a0300b 	mov	r3, fp
    6f5c:	ea000001 	b	6f68 <inflate+0x1040>
    6f60:	e3550000 	cmp	r5, #0
    6f64:	0afffdd9 	beq	66d0 <inflate+0x7a8>
    6f68:	e4d32001 	ldrb	r2, [r3], #1
    6f6c:	e2455001 	sub	r5, r5, #1
    6f70:	e0866412 	add	r6, r6, r2, lsl r4
    6f74:	e2844008 	add	r4, r4, #8
    6f78:	e354000f 	cmp	r4, #15
    6f7c:	e1a0b003 	mov	fp, r3
    6f80:	9afffff6 	bls	6f60 <inflate+0x1038>
    6f84:	e6ef3076 	uxtb	r3, r6
    6f88:	e3530008 	cmp	r3, #8
    6f8c:	e58a6010 	str	r6, [sl, #16]
    6f90:	0a000188 	beq	75b8 <inflate+0x1690>
    6f94:	e59f2204 	ldr	r2, [pc, #516]	; 71a0 <inflate+0x1278>
    6f98:	e3a0301d 	mov	r3, #29
    6f9c:	e5892018 	str	r2, [r9, #24]
    6fa0:	e58a3000 	str	r3, [sl]
    6fa4:	eafffbfc 	b	5f9c <inflate+0x74>
    6fa8:	e3e03002 	mvn	r3, #2
    6fac:	e58d300c 	str	r3, [sp, #12]
    6fb0:	eafffdc6 	b	66d0 <inflate+0x7a8>
    6fb4:	e59dc010 	ldr	ip, [sp, #16]
    6fb8:	e35c0000 	cmp	ip, #0
    6fbc:	0afffdc3 	beq	66d0 <inflate+0x7a8>
    6fc0:	e59d7014 	ldr	r7, [sp, #20]
    6fc4:	e59a2040 	ldr	r2, [sl, #64]	; 0x40
    6fc8:	e3a03014 	mov	r3, #20
    6fcc:	e4c72001 	strb	r2, [r7], #1
    6fd0:	e24cc001 	sub	ip, ip, #1
    6fd4:	e58dc010 	str	ip, [sp, #16]
    6fd8:	e58d7014 	str	r7, [sp, #20]
    6fdc:	e58a3000 	str	r3, [sl]
    6fe0:	eafffbed 	b	5f9c <inflate+0x74>
    6fe4:	e59a3008 	ldr	r3, [sl, #8]
    6fe8:	e3530000 	cmp	r3, #0
    6fec:	0a0000cd 	beq	7328 <inflate+0x1400>
    6ff0:	e354001f 	cmp	r4, #31
    6ff4:	8a00000c 	bhi	702c <inflate+0x1104>
    6ff8:	e3550000 	cmp	r5, #0
    6ffc:	0afffdb3 	beq	66d0 <inflate+0x7a8>
    7000:	e1a0300b 	mov	r3, fp
    7004:	ea000001 	b	7010 <inflate+0x10e8>
    7008:	e3550000 	cmp	r5, #0
    700c:	0afffdaf 	beq	66d0 <inflate+0x7a8>
    7010:	e4d32001 	ldrb	r2, [r3], #1
    7014:	e2455001 	sub	r5, r5, #1
    7018:	e0866412 	add	r6, r6, r2, lsl r4
    701c:	e2844008 	add	r4, r4, #8
    7020:	e354001f 	cmp	r4, #31
    7024:	e1a0b003 	mov	fp, r3
    7028:	9afffff6 	bls	7008 <inflate+0x10e0>
    702c:	e59dc018 	ldr	ip, [sp, #24]
    7030:	e59d7010 	ldr	r7, [sp, #16]
    7034:	e5991014 	ldr	r1, [r9, #20]
    7038:	e59a301c 	ldr	r3, [sl, #28]
    703c:	e067200c 	rsb	r2, r7, ip
    7040:	e0811002 	add	r1, r1, r2
    7044:	e0833002 	add	r3, r3, r2
    7048:	e3520000 	cmp	r2, #0
    704c:	e5891014 	str	r1, [r9, #20]
    7050:	e58a301c 	str	r3, [sl, #28]
    7054:	0a000008 	beq	707c <inflate+0x1154>
    7058:	e59a3010 	ldr	r3, [sl, #16]
    705c:	e59a0018 	ldr	r0, [sl, #24]
    7060:	e3530000 	cmp	r3, #0
    7064:	0a0001c2 	beq	7774 <inflate+0x184c>
    7068:	e59dc014 	ldr	ip, [sp, #20]
    706c:	e062100c 	rsb	r1, r2, ip
    7070:	ebfff2b6 	bl	3b50 <crc32>
    7074:	e58a0018 	str	r0, [sl, #24]
    7078:	e5890030 	str	r0, [r9, #48]	; 0x30
    707c:	e59a3010 	ldr	r3, [sl, #16]
    7080:	e3530000 	cmp	r3, #0
    7084:	01a02c26 	lsreq	r2, r6, #24
    7088:	01a03426 	lsreq	r3, r6, #8
    708c:	00822c06 	addeq	r2, r2, r6, lsl #24
    7090:	02033cff 	andeq	r3, r3, #65280	; 0xff00
    7094:	00823003 	addeq	r3, r2, r3
    7098:	02062cff 	andeq	r2, r6, #65280	; 0xff00
    709c:	00832402 	addeq	r2, r3, r2, lsl #8
    70a0:	e59a3018 	ldr	r3, [sl, #24]
    70a4:	11a02006 	movne	r2, r6
    70a8:	e1520003 	cmp	r2, r3
    70ac:	0a000098 	beq	7314 <inflate+0x13ec>
    70b0:	e59f30ec 	ldr	r3, [pc, #236]	; 71a4 <inflate+0x127c>
    70b4:	e59d7010 	ldr	r7, [sp, #16]
    70b8:	e3a0201d 	mov	r2, #29
    70bc:	e5893018 	str	r3, [r9, #24]
    70c0:	e58d7018 	str	r7, [sp, #24]
    70c4:	e1a03002 	mov	r3, r2
    70c8:	e58a2000 	str	r2, [sl]
    70cc:	eafffbb2 	b	5f9c <inflate+0x74>
    70d0:	e354000d 	cmp	r4, #13
    70d4:	8a00000c 	bhi	710c <inflate+0x11e4>
    70d8:	e3550000 	cmp	r5, #0
    70dc:	0afffd7b 	beq	66d0 <inflate+0x7a8>
    70e0:	e1a0300b 	mov	r3, fp
    70e4:	ea000001 	b	70f0 <inflate+0x11c8>
    70e8:	e3550000 	cmp	r5, #0
    70ec:	0afffd77 	beq	66d0 <inflate+0x7a8>
    70f0:	e4d32001 	ldrb	r2, [r3], #1
    70f4:	e2455001 	sub	r5, r5, #1
    70f8:	e0866412 	add	r6, r6, r2, lsl r4
    70fc:	e2844008 	add	r4, r4, #8
    7100:	e354000d 	cmp	r4, #13
    7104:	e1a0b003 	mov	fp, r3
    7108:	9afffff6 	bls	70e8 <inflate+0x11c0>
    710c:	e206301f 	and	r3, r6, #31
    7110:	e59f2090 	ldr	r2, [pc, #144]	; 71a8 <inflate+0x1280>
    7114:	e2833c01 	add	r3, r3, #256	; 0x100
    7118:	e2833001 	add	r3, r3, #1
    711c:	e1a012a6 	lsr	r1, r6, #5
    7120:	e1530002 	cmp	r3, r2
    7124:	e1a02526 	lsr	r2, r6, #10
    7128:	e201101f 	and	r1, r1, #31
    712c:	e202200f 	and	r2, r2, #15
    7130:	e2811001 	add	r1, r1, #1
    7134:	e2822004 	add	r2, r2, #4
    7138:	e244400e 	sub	r4, r4, #14
    713c:	e58a3060 	str	r3, [sl, #96]	; 0x60
    7140:	e58a1064 	str	r1, [sl, #100]	; 0x64
    7144:	e58a205c 	str	r2, [sl, #92]	; 0x5c
    7148:	e1a06726 	lsr	r6, r6, #14
    714c:	8a0000c6 	bhi	746c <inflate+0x1544>
    7150:	e351001e 	cmp	r1, #30
    7154:	8a0000c4 	bhi	746c <inflate+0x1544>
    7158:	e3a03000 	mov	r3, #0
    715c:	e3a01011 	mov	r1, #17
    7160:	e58a3068 	str	r3, [sl, #104]	; 0x68
    7164:	e58a1000 	str	r1, [sl]
    7168:	eafffdb2 	b	6838 <inflate+0x910>
    716c:	00001bc4 	andeq	r1, r0, r4, asr #23
    7170:	0000cc44 	andeq	ip, r0, r4, asr #24
    7174:	00000101 	andeq	r0, r0, r1, lsl #2
    7178:	00001bc8 	andeq	r1, r0, r8, asr #23
    717c:	0000cc7c 	andeq	ip, r0, ip, ror ip
    7180:	0000c8cc 	andeq	ip, r0, ip, asr #17
    7184:	0000c8f0 	strdeq	ip, [r0], -r0
    7188:	0000cb7c 	andeq	ip, r0, ip, ror fp
    718c:	00008b1f 	andeq	r8, r0, pc, lsl fp
    7190:	08421085 	stmdaeq	r2, {r0, r2, r7, ip}^
    7194:	0000cae0 	andeq	ip, r0, r0, ror #21
    7198:	0000cb10 	andeq	ip, r0, r0, lsl fp
    719c:	0000cb38 	andeq	ip, r0, r8, lsr fp
    71a0:	0000cac4 	andeq	ip, r0, r4, asr #21
    71a4:	0000cc64 	andeq	ip, r0, r4, ror #24
    71a8:	0000011e 	andeq	r0, r0, lr, lsl r1
    71ac:	0000cc2c 	andeq	ip, r0, ip, lsr #24
    71b0:	00001bc4 	andeq	r1, r0, r4, asr #23
    71b4:	0000cb58 	andeq	ip, r0, r8, asr fp
    71b8:	0000caac 	andeq	ip, r0, ip, lsr #21
    71bc:	0000c04c 	andeq	ip, r0, ip, asr #32
    71c0:	0000cb24 	andeq	ip, r0, r4, lsr #22
    71c4:	0000cc10 	andeq	ip, r0, r0, lsl ip
    71c8:	0000caf4 	strdeq	ip, [r0], -r4
    71cc:	0000cbb4 			; <UNDEFINED> instruction: 0x0000cbb4
    71d0:	0000cbdc 	ldrdeq	ip, [r0], -ip	; <UNPREDICTABLE>
    71d4:	0000cb98 	muleq	r0, r8, fp
    71d8:	0000cbf8 	strdeq	ip, [r0], -r8
    71dc:	e59a2020 	ldr	r2, [sl, #32]
    71e0:	e3520000 	cmp	r2, #0
    71e4:	13a03000 	movne	r3, #0
    71e8:	15823010 	strne	r3, [r2, #16]
    71ec:	01a03002 	moveq	r3, r2
    71f0:	e3a02005 	mov	r2, #5
    71f4:	e58a2000 	str	r2, [sl]
    71f8:	eafffe38 	b	6ae0 <inflate+0xbb8>
    71fc:	e2822080 	add	r2, r2, #128	; 0x80
    7200:	e3a03000 	mov	r3, #0
    7204:	eafffd7b 	b	67f8 <inflate+0x8d0>
    7208:	e5993004 	ldr	r3, [r9, #4]
    720c:	e3530000 	cmp	r3, #0
    7210:	1a0000ae 	bne	74d0 <inflate+0x15a8>
    7214:	e58db01c 	str	fp, [sp, #28]
    7218:	eafffb53 	b	5f6c <inflate+0x44>
    721c:	e59a2020 	ldr	r2, [sl, #32]
    7220:	e3520000 	cmp	r2, #0
    7224:	15823024 	strne	r3, [r2, #36]	; 0x24
    7228:	eaffff2f 	b	6eec <inflate+0xfc4>
    722c:	ebfff10f 	bl	3670 <adler32>
    7230:	eafffd61 	b	67bc <inflate+0x894>
    7234:	e3a0300b 	mov	r3, #11
    7238:	e58a3000 	str	r3, [sl]
    723c:	eafffb56 	b	5f9c <inflate+0x74>
    7240:	e59a1040 	ldr	r1, [sl, #64]	; 0x40
    7244:	e59d7014 	ldr	r7, [sp, #20]
    7248:	e1a02001 	mov	r2, r1
    724c:	e0633007 	rsb	r3, r3, r7
    7250:	e59dc010 	ldr	ip, [sp, #16]
    7254:	e59d7014 	ldr	r7, [sp, #20]
    7258:	e151000c 	cmp	r1, ip
    725c:	21a0100c 	movcs	r1, ip
    7260:	e0612002 	rsb	r2, r1, r2
    7264:	e061c00c 	rsb	ip, r1, ip
    7268:	e58a2040 	str	r2, [sl, #64]	; 0x40
    726c:	e58dc010 	str	ip, [sp, #16]
    7270:	e0871001 	add	r1, r7, r1
    7274:	e2433001 	sub	r3, r3, #1
    7278:	e1a02007 	mov	r2, r7
    727c:	e5f30001 	ldrb	r0, [r3, #1]!
    7280:	e4c20001 	strb	r0, [r2], #1
    7284:	e1520001 	cmp	r2, r1
    7288:	1afffffb 	bne	727c <inflate+0x1354>
    728c:	e59a3040 	ldr	r3, [sl, #64]	; 0x40
    7290:	e58d2014 	str	r2, [sp, #20]
    7294:	e3530000 	cmp	r3, #0
    7298:	03a03014 	moveq	r3, #20
    729c:	159a3000 	ldrne	r3, [sl]
    72a0:	058a3000 	streq	r3, [sl]
    72a4:	eafffb3c 	b	5f9c <inflate+0x74>
    72a8:	e1540001 	cmp	r4, r1
    72ac:	2a00000c 	bcs	72e4 <inflate+0x13bc>
    72b0:	e3550000 	cmp	r5, #0
    72b4:	0afffd05 	beq	66d0 <inflate+0x7a8>
    72b8:	e1a0300b 	mov	r3, fp
    72bc:	ea000001 	b	72c8 <inflate+0x13a0>
    72c0:	e3550000 	cmp	r5, #0
    72c4:	0afffd01 	beq	66d0 <inflate+0x7a8>
    72c8:	e4d32001 	ldrb	r2, [r3], #1
    72cc:	e2455001 	sub	r5, r5, #1
    72d0:	e0866412 	add	r6, r6, r2, lsl r4
    72d4:	e2844008 	add	r4, r4, #8
    72d8:	e1540001 	cmp	r4, r1
    72dc:	e1a0b003 	mov	fp, r3
    72e0:	3afffff6 	bcc	72c0 <inflate+0x1398>
    72e4:	e3e0c000 	mvn	ip, #0
    72e8:	e1c6c11c 	bic	ip, r6, ip, lsl r1
    72ec:	e51f2144 	ldr	r2, [pc, #-324]	; 71b0 <inflate+0x1288>
    72f0:	e59a3040 	ldr	r3, [sl, #64]	; 0x40
    72f4:	e79a0002 	ldr	r0, [sl, r2]
    72f8:	e08c3003 	add	r3, ip, r3
    72fc:	e0810000 	add	r0, r1, r0
    7300:	e1a06136 	lsr	r6, r6, r1
    7304:	e0614004 	rsb	r4, r1, r4
    7308:	e58a3040 	str	r3, [sl, #64]	; 0x40
    730c:	e78a0002 	str	r0, [sl, r2]
    7310:	eafffc3a 	b	6400 <inflate+0x4d8>
    7314:	e59dc010 	ldr	ip, [sp, #16]
    7318:	e3a04000 	mov	r4, #0
    731c:	e59a3008 	ldr	r3, [sl, #8]
    7320:	e1a06004 	mov	r6, r4
    7324:	e58dc018 	str	ip, [sp, #24]
    7328:	e3a0201b 	mov	r2, #27
    732c:	e58a2000 	str	r2, [sl]
    7330:	eafffcc8 	b	6658 <inflate+0x730>
    7334:	e3a0300c 	mov	r3, #12
    7338:	e58a3000 	str	r3, [sl]
    733c:	eafffb16 	b	5f9c <inflate+0x74>
    7340:	e59a2030 	ldr	r2, [sl, #48]	; 0x30
    7344:	e1510002 	cmp	r1, r2
    7348:	859a3028 	ldrhi	r3, [sl, #40]	; 0x28
    734c:	80621001 	rsbhi	r1, r2, r1
    7350:	959a3034 	ldrls	r3, [sl, #52]	; 0x34
    7354:	859a2034 	ldrhi	r2, [sl, #52]	; 0x34
    7358:	90612002 	rsbls	r2, r1, r2
    735c:	80613003 	rsbhi	r3, r1, r3
    7360:	e0833002 	add	r3, r3, r2
    7364:	e59a2040 	ldr	r2, [sl, #64]	; 0x40
    7368:	e1510002 	cmp	r1, r2
    736c:	21a01002 	movcs	r1, r2
    7370:	eaffffb6 	b	7250 <inflate+0x1328>
    7374:	e51f21cc 	ldr	r2, [pc, #-460]	; 71b0 <inflate+0x1288>
    7378:	e79a8002 	ldr	r8, [sl, r2]
    737c:	e51f21d4 	ldr	r2, [pc, #-468]	; 71b0 <inflate+0x1288>
    7380:	e0888003 	add	r8, r8, r3
    7384:	e3110040 	tst	r1, #64	; 0x40
    7388:	e1a06336 	lsr	r6, r6, r3
    738c:	e0634004 	rsb	r4, r3, r4
    7390:	e78a8002 	str	r8, [sl, r2]
    7394:	0a00003c 	beq	748c <inflate+0x1564>
    7398:	e51f21f4 	ldr	r2, [pc, #-500]	; 71ac <inflate+0x1284>
    739c:	e3a0301d 	mov	r3, #29
    73a0:	e5892018 	str	r2, [r9, #24]
    73a4:	e58a3000 	str	r3, [sl]
    73a8:	eafffafb 	b	5f9c <inflate+0x74>
    73ac:	e08a3087 	add	r3, sl, r7, lsl #1
    73b0:	e2877001 	add	r7, r7, #1
    73b4:	e1a06136 	lsr	r6, r6, r1
    73b8:	e0614004 	rsb	r4, r1, r4
    73bc:	e1c327b0 	strh	r2, [r3, #112]	; 0x70
    73c0:	e58a7068 	str	r7, [sl, #104]	; 0x68
    73c4:	eafffd5b 	b	6938 <inflate+0xa10>
    73c8:	e3a03010 	mov	r3, #16
    73cc:	e58a3000 	str	r3, [sl]
    73d0:	eafffb55 	b	612c <inflate+0x204>
    73d4:	e59a0018 	ldr	r0, [sl, #24]
    73d8:	e1a0100b 	mov	r1, fp
    73dc:	e1a02007 	mov	r2, r7
    73e0:	ebfff1da 	bl	3b50 <crc32>
    73e4:	e58a0018 	str	r0, [sl, #24]
    73e8:	eafffeba 	b	6ed8 <inflate+0xfb0>
    73ec:	e59d7014 	ldr	r7, [sp, #20]
    73f0:	e589c010 	str	ip, [r9, #16]
    73f4:	e589700c 	str	r7, [r9, #12]
    73f8:	e589b000 	str	fp, [r9]
    73fc:	e5895004 	str	r5, [r9, #4]
    7400:	e1a00009 	mov	r0, r9
    7404:	e58a6038 	str	r6, [sl, #56]	; 0x38
    7408:	e58a403c 	str	r4, [sl, #60]	; 0x3c
    740c:	e59d1018 	ldr	r1, [sp, #24]
    7410:	eb000413 	bl	8464 <inflate_fast>
    7414:	e59a3000 	ldr	r3, [sl]
    7418:	e599c00c 	ldr	ip, [r9, #12]
    741c:	e5997010 	ldr	r7, [r9, #16]
    7420:	e353000b 	cmp	r3, #11
    7424:	e58dc014 	str	ip, [sp, #20]
    7428:	e58d7010 	str	r7, [sp, #16]
    742c:	e599b000 	ldr	fp, [r9]
    7430:	e5995004 	ldr	r5, [r9, #4]
    7434:	e59a6038 	ldr	r6, [sl, #56]	; 0x38
    7438:	e59a403c 	ldr	r4, [sl, #60]	; 0x3c
    743c:	051f2294 	ldreq	r2, [pc, #-660]	; 71b0 <inflate+0x1288>
    7440:	03e01000 	mvneq	r1, #0
    7444:	078a1002 	streq	r1, [sl, r2]
    7448:	eafffad3 	b	5f9c <inflate+0x74>
    744c:	e1a08003 	mov	r8, r3
    7450:	eafffbd6 	b	63b0 <inflate+0x488>
    7454:	e59a0018 	ldr	r0, [sl, #24]
    7458:	e1a0100b 	mov	r1, fp
    745c:	e1a02007 	mov	r2, r7
    7460:	ebfff1ba 	bl	3b50 <crc32>
    7464:	e58a0018 	str	r0, [sl, #24]
    7468:	eafffe78 	b	6e50 <inflate+0xf28>
    746c:	e51f02c0 	ldr	r0, [pc, #-704]	; 71b4 <inflate+0x128c>
    7470:	e3a0301d 	mov	r3, #29
    7474:	e5890018 	str	r0, [r9, #24]
    7478:	e58a3000 	str	r3, [sl]
    747c:	eafffac6 	b	5f9c <inflate+0x74>
    7480:	e3a04000 	mov	r4, #0
    7484:	e1a06004 	mov	r6, r4
    7488:	eafffe9b 	b	6efc <inflate+0xfd4>
    748c:	e201100f 	and	r1, r1, #15
    7490:	e3a03017 	mov	r3, #23
    7494:	e58a1048 	str	r1, [sl, #72]	; 0x48
    7498:	e58a0044 	str	r0, [sl, #68]	; 0x44
    749c:	e58a3000 	str	r3, [sl]
    74a0:	eafffb2b 	b	6154 <inflate+0x22c>
    74a4:	e1a03426 	lsr	r3, r6, #8
    74a8:	e28d103c 	add	r1, sp, #60	; 0x3c
    74ac:	e59a0018 	ldr	r0, [sl, #24]
    74b0:	e3a02002 	mov	r2, #2
    74b4:	e5cd603c 	strb	r6, [sp, #60]	; 0x3c
    74b8:	e5cd303d 	strb	r3, [sp, #61]	; 0x3d
    74bc:	ebfff1a3 	bl	3b50 <crc32>
    74c0:	e59ac010 	ldr	ip, [sl, #16]
    74c4:	e58a0018 	str	r0, [sl, #24]
    74c8:	e1a0100c 	mov	r1, ip
    74cc:	eafffc58 	b	6634 <inflate+0x70c>
    74d0:	e3e03001 	mvn	r3, #1
    74d4:	e58d300c 	str	r3, [sp, #12]
    74d8:	eafffc1f 	b	655c <inflate+0x634>
    74dc:	e1a0b00c 	mov	fp, ip
    74e0:	e59da02c 	ldr	sl, [sp, #44]	; 0x2c
    74e4:	eafffc79 	b	66d0 <inflate+0x7a8>
    74e8:	e51f2338 	ldr	r2, [pc, #-824]	; 71b8 <inflate+0x1290>
    74ec:	e3a0301d 	mov	r3, #29
    74f0:	e5892018 	str	r2, [r9, #24]
    74f4:	e58a3000 	str	r3, [sl]
    74f8:	eafffaa7 	b	5f9c <inflate+0x74>
    74fc:	e51f0348 	ldr	r0, [pc, #-840]	; 71bc <inflate+0x1294>
    7500:	e59dc020 	ldr	ip, [sp, #32]
    7504:	e3a03009 	mov	r3, #9
    7508:	e3a01005 	mov	r1, #5
    750c:	e2807b02 	add	r7, r0, #2048	; 0x800
    7510:	e58a3054 	str	r3, [sl, #84]	; 0x54
    7514:	e35c0006 	cmp	ip, #6
    7518:	e3a03013 	mov	r3, #19
    751c:	e58a004c 	str	r0, [sl, #76]	; 0x4c
    7520:	e58a7050 	str	r7, [sl, #80]	; 0x50
    7524:	e58a1058 	str	r1, [sl, #88]	; 0x58
    7528:	e58a3000 	str	r3, [sl]
    752c:	1afffafe 	bne	612c <inflate+0x204>
    7530:	e1a061a6 	lsr	r6, r6, #3
    7534:	e2444003 	sub	r4, r4, #3
    7538:	eafffc64 	b	66d0 <inflate+0x7a8>
    753c:	e51f1384 	ldr	r1, [pc, #-900]	; 71c0 <inflate+0x1298>
    7540:	e3a0301d 	mov	r3, #29
    7544:	e5891018 	str	r1, [r9, #24]
    7548:	e58a3000 	str	r3, [sl]
    754c:	eafffaf6 	b	612c <inflate+0x204>
    7550:	e59a0018 	ldr	r0, [sl, #24]
    7554:	e1a0100b 	mov	r1, fp
    7558:	e1a02007 	mov	r2, r7
    755c:	ebfff17b 	bl	3b50 <crc32>
    7560:	e58a0018 	str	r0, [sl, #24]
    7564:	eafffd78 	b	6b4c <inflate+0xc24>
    7568:	e1a01426 	lsr	r1, r6, #8
    756c:	e1a02826 	lsr	r2, r6, #16
    7570:	e1a03c26 	lsr	r3, r6, #24
    7574:	e5cd103d 	strb	r1, [sp, #61]	; 0x3d
    7578:	e5cd203e 	strb	r2, [sp, #62]	; 0x3e
    757c:	e59a0018 	ldr	r0, [sl, #24]
    7580:	e28d103c 	add	r1, sp, #60	; 0x3c
    7584:	e3a02004 	mov	r2, #4
    7588:	e5cd603c 	strb	r6, [sp, #60]	; 0x3c
    758c:	e5cd303f 	strb	r3, [sp, #63]	; 0x3f
    7590:	ebfff16e 	bl	3b50 <crc32>
    7594:	e58a0018 	str	r0, [sl, #24]
    7598:	eafffc07 	b	65bc <inflate+0x694>
    759c:	e3110040 	tst	r1, #64	; 0x40
    75a0:	0a00005b 	beq	7714 <inflate+0x17ec>
    75a4:	e51f23e8 	ldr	r2, [pc, #-1000]	; 71c4 <inflate+0x129c>
    75a8:	e3a0301d 	mov	r3, #29
    75ac:	e5892018 	str	r2, [r9, #24]
    75b0:	e58a3000 	str	r3, [sl]
    75b4:	eafffa78 	b	5f9c <inflate+0x74>
    75b8:	e3160a0e 	tst	r6, #57344	; 0xe000
    75bc:	0a000060 	beq	7744 <inflate+0x181c>
    75c0:	e51fc400 	ldr	ip, [pc, #-1024]	; 71c8 <inflate+0x12a0>
    75c4:	e3a0301d 	mov	r3, #29
    75c8:	e589c018 	str	ip, [r9, #24]
    75cc:	e58a3000 	str	r3, [sl]
    75d0:	eafffa71 	b	5f9c <inflate+0x74>
    75d4:	e59dc020 	ldr	ip, [sp, #32]
    75d8:	e3a04000 	mov	r4, #0
    75dc:	e3a0300e 	mov	r3, #14
    75e0:	e35c0006 	cmp	ip, #6
    75e4:	e1a06004 	mov	r6, r4
    75e8:	e58a7040 	str	r7, [sl, #64]	; 0x40
    75ec:	e58a3000 	str	r3, [sl]
    75f0:	1afffddb 	bne	6d64 <inflate+0xe3c>
    75f4:	eafffc35 	b	66d0 <inflate+0x7a8>
    75f8:	e1a03426 	lsr	r3, r6, #8
    75fc:	e28d103c 	add	r1, sp, #60	; 0x3c
    7600:	e59a0018 	ldr	r0, [sl, #24]
    7604:	e3a02002 	mov	r2, #2
    7608:	e5cd603c 	strb	r6, [sp, #60]	; 0x3c
    760c:	e5cd303d 	strb	r3, [sp, #61]	; 0x3d
    7610:	ebfff14e 	bl	3b50 <crc32>
    7614:	e59a1010 	ldr	r1, [sl, #16]
    7618:	e3a06000 	mov	r6, #0
    761c:	e58a0018 	str	r0, [sl, #24]
    7620:	e2013b01 	and	r3, r1, #1024	; 0x400
    7624:	e1a04006 	mov	r4, r6
    7628:	eafffef0 	b	71f0 <inflate+0x12c8>
    762c:	e3e0c001 	mvn	ip, #1
    7630:	e58dc00c 	str	ip, [sp, #12]
    7634:	eafffbc8 	b	655c <inflate+0x634>
    7638:	e2810002 	add	r0, r1, #2
    763c:	e1540000 	cmp	r4, r0
    7640:	2a00000c 	bcs	7678 <inflate+0x1750>
    7644:	e3550000 	cmp	r5, #0
    7648:	0afffc20 	beq	66d0 <inflate+0x7a8>
    764c:	e1a0300b 	mov	r3, fp
    7650:	ea000001 	b	765c <inflate+0x1734>
    7654:	e3550000 	cmp	r5, #0
    7658:	0afffc1c 	beq	66d0 <inflate+0x7a8>
    765c:	e4d32001 	ldrb	r2, [r3], #1
    7660:	e2455001 	sub	r5, r5, #1
    7664:	e0866412 	add	r6, r6, r2, lsl r4
    7668:	e2844008 	add	r4, r4, #8
    766c:	e1540000 	cmp	r4, r0
    7670:	e1a0b003 	mov	fp, r3
    7674:	3afffff6 	bcc	7654 <inflate+0x172c>
    7678:	e3570000 	cmp	r7, #0
    767c:	e1a06136 	lsr	r6, r6, r1
    7680:	e0614004 	rsb	r4, r1, r4
    7684:	0a00009c 	beq	78fc <inflate+0x19d4>
    7688:	e2060003 	and	r0, r6, #3
    768c:	e08a3087 	add	r3, sl, r7, lsl #1
    7690:	e2444002 	sub	r4, r4, #2
    7694:	e1d316be 	ldrh	r1, [r3, #110]	; 0x6e
    7698:	e2800003 	add	r0, r0, #3
    769c:	e1a06126 	lsr	r6, r6, #2
    76a0:	eafffce0 	b	6a28 <inflate+0xb00>
    76a4:	e2810003 	add	r0, r1, #3
    76a8:	e1540000 	cmp	r4, r0
    76ac:	2a00000c 	bcs	76e4 <inflate+0x17bc>
    76b0:	e3550000 	cmp	r5, #0
    76b4:	0afffc05 	beq	66d0 <inflate+0x7a8>
    76b8:	e1a0300b 	mov	r3, fp
    76bc:	ea000001 	b	76c8 <inflate+0x17a0>
    76c0:	e3550000 	cmp	r5, #0
    76c4:	0afffc01 	beq	66d0 <inflate+0x7a8>
    76c8:	e4d32001 	ldrb	r2, [r3], #1
    76cc:	e2455001 	sub	r5, r5, #1
    76d0:	e0866412 	add	r6, r6, r2, lsl r4
    76d4:	e2844008 	add	r4, r4, #8
    76d8:	e1540000 	cmp	r4, r0
    76dc:	e1a0b003 	mov	fp, r3
    76e0:	3afffff6 	bcc	76c0 <inflate+0x1798>
    76e4:	e1a06136 	lsr	r6, r6, r1
    76e8:	e3e03002 	mvn	r3, #2
    76ec:	e2060007 	and	r0, r6, #7
    76f0:	e0613003 	rsb	r3, r1, r3
    76f4:	e2800003 	add	r0, r0, #3
    76f8:	e1a061a6 	lsr	r6, r6, #3
    76fc:	e0844003 	add	r4, r4, r3
    7700:	e3a01000 	mov	r1, #0
    7704:	eafffcc7 	b	6a28 <inflate+0xb00>
    7708:	e59da030 	ldr	sl, [sp, #48]	; 0x30
    770c:	e59d9028 	ldr	r9, [sp, #40]	; 0x28
    7710:	eafffbee 	b	66d0 <inflate+0x7a8>
    7714:	e201100f 	and	r1, r1, #15
    7718:	e3a03015 	mov	r3, #21
    771c:	e58a1048 	str	r1, [sl, #72]	; 0x48
    7720:	e58a3000 	str	r3, [sl]
    7724:	eafffb32 	b	63f4 <inflate+0x4cc>
    7728:	e3a04000 	mov	r4, #0
    772c:	e1a06004 	mov	r6, r4
    7730:	e3a0301c 	mov	r3, #28
    7734:	e3a0c001 	mov	ip, #1
    7738:	e58a3000 	str	r3, [sl]
    773c:	e58dc00c 	str	ip, [sp, #12]
    7740:	eafffbe2 	b	66d0 <inflate+0x7a8>
    7744:	e59a3020 	ldr	r3, [sl, #32]
    7748:	e3530000 	cmp	r3, #0
    774c:	11a02426 	lsrne	r2, r6, #8
    7750:	12022001 	andne	r2, r2, #1
    7754:	15832000 	strne	r2, [r3]
    7758:	e3160c02 	tst	r6, #512	; 0x200
    775c:	1a000025 	bne	77f8 <inflate+0x18d0>
    7760:	e3a03002 	mov	r3, #2
    7764:	e3a04000 	mov	r4, #0
    7768:	e58a3000 	str	r3, [sl]
    776c:	e1a06004 	mov	r6, r4
    7770:	eafffb7e 	b	6570 <inflate+0x648>
    7774:	e59d7014 	ldr	r7, [sp, #20]
    7778:	e0621007 	rsb	r1, r2, r7
    777c:	ebffefbb 	bl	3670 <adler32>
    7780:	eafffe3b 	b	7074 <inflate+0x114c>
    7784:	e59dc00c 	ldr	ip, [sp, #12]
    7788:	e3a03012 	mov	r3, #18
    778c:	e58ac068 	str	ip, [sl, #104]	; 0x68
    7790:	e58a3000 	str	r3, [sl]
    7794:	e1a0700c 	mov	r7, ip
    7798:	eafffc60 	b	6920 <inflate+0x9f8>
    779c:	e59a3000 	ldr	r3, [sl]
    77a0:	e353001d 	cmp	r3, #29
    77a4:	0afff9fc 	beq	5f9c <inflate+0x74>
    77a8:	e3a03e27 	mov	r3, #624	; 0x270
    77ac:	e19a30b3 	ldrh	r3, [sl, r3]
    77b0:	e3530000 	cmp	r3, #0
    77b4:	1a00003a 	bne	78a4 <inflate+0x197c>
    77b8:	e51f25f4 	ldr	r2, [pc, #-1524]	; 71cc <inflate+0x12a4>
    77bc:	e3a0301d 	mov	r3, #29
    77c0:	e5892018 	str	r2, [r9, #24]
    77c4:	e58a3000 	str	r3, [sl]
    77c8:	eafff9f3 	b	5f9c <inflate+0x74>
    77cc:	e59d7014 	ldr	r7, [sp, #20]
    77d0:	e59dc010 	ldr	ip, [sp, #16]
    77d4:	e3a03002 	mov	r3, #2
    77d8:	e589700c 	str	r7, [r9, #12]
    77dc:	e589c010 	str	ip, [r9, #16]
    77e0:	e589b000 	str	fp, [r9]
    77e4:	e5895004 	str	r5, [r9, #4]
    77e8:	e58d300c 	str	r3, [sp, #12]
    77ec:	e58a6038 	str	r6, [sl, #56]	; 0x38
    77f0:	e58a403c 	str	r4, [sl, #60]	; 0x3c
    77f4:	eafffb58 	b	655c <inflate+0x634>
    77f8:	e1a03426 	lsr	r3, r6, #8
    77fc:	e59a0018 	ldr	r0, [sl, #24]
    7800:	e28d103c 	add	r1, sp, #60	; 0x3c
    7804:	e3a02002 	mov	r2, #2
    7808:	e5cd603c 	strb	r6, [sp, #60]	; 0x3c
    780c:	e5cd303d 	strb	r3, [sp, #61]	; 0x3d
    7810:	ebfff0ce 	bl	3b50 <crc32>
    7814:	e58a0018 	str	r0, [sl, #24]
    7818:	eaffffd0 	b	7760 <inflate+0x1838>
    781c:	e3a00000 	mov	r0, #0
    7820:	e1a01000 	mov	r1, r0
    7824:	e1a02000 	mov	r2, r0
    7828:	ebfff0c8 	bl	3b50 <crc32>
    782c:	e3a0201f 	mov	r2, #31
    7830:	e3e03074 	mvn	r3, #116	; 0x74
    7834:	e5cd203c 	strb	r2, [sp, #60]	; 0x3c
    7838:	e58a0018 	str	r0, [sl, #24]
    783c:	e28d103c 	add	r1, sp, #60	; 0x3c
    7840:	e3a02002 	mov	r2, #2
    7844:	e5cd303d 	strb	r3, [sp, #61]	; 0x3d
    7848:	ebfff0c0 	bl	3b50 <crc32>
    784c:	e3a04000 	mov	r4, #0
    7850:	e3a03001 	mov	r3, #1
    7854:	e58a0018 	str	r0, [sl, #24]
    7858:	e58a3000 	str	r3, [sl]
    785c:	e1a06004 	mov	r6, r4
    7860:	eafff9cd 	b	5f9c <inflate+0x74>
    7864:	e3a02001 	mov	r2, #1
    7868:	e1a03312 	lsl	r3, r2, r3
    786c:	e3a00000 	mov	r0, #0
    7870:	e58a3014 	str	r3, [sl, #20]
    7874:	e1a01000 	mov	r1, r0
    7878:	e1a02000 	mov	r2, r0
    787c:	ebffef7b 	bl	3670 <adler32>
    7880:	e3160c02 	tst	r6, #512	; 0x200
    7884:	03a0300b 	moveq	r3, #11
    7888:	13a03009 	movne	r3, #9
    788c:	e3a06000 	mov	r6, #0
    7890:	e58a0018 	str	r0, [sl, #24]
    7894:	e1a04006 	mov	r4, r6
    7898:	e5890030 	str	r0, [r9, #48]	; 0x30
    789c:	e58a3000 	str	r3, [sl]
    78a0:	eafff9bd 	b	5f9c <inflate+0x74>
    78a4:	e28a3e53 	add	r3, sl, #1328	; 0x530
    78a8:	e3a00009 	mov	r0, #9
    78ac:	e28a1054 	add	r1, sl, #84	; 0x54
    78b0:	e28a706c 	add	r7, sl, #108	; 0x6c
    78b4:	e28a8e2f 	add	r8, sl, #752	; 0x2f0
    78b8:	e58a306c 	str	r3, [sl, #108]	; 0x6c
    78bc:	e58a304c 	str	r3, [sl, #76]	; 0x4c
    78c0:	e58a0054 	str	r0, [sl, #84]	; 0x54
    78c4:	e59d2024 	ldr	r2, [sp, #36]	; 0x24
    78c8:	e88d0102 	stm	sp, {r1, r8}
    78cc:	e1a03007 	mov	r3, r7
    78d0:	e3a00001 	mov	r0, #1
    78d4:	e28a1070 	add	r1, sl, #112	; 0x70
    78d8:	eb000186 	bl	7ef8 <inflate_table>
    78dc:	e3500000 	cmp	r0, #0
    78e0:	e58d000c 	str	r0, [sp, #12]
    78e4:	0a00000a 	beq	7914 <inflate+0x19ec>
    78e8:	e51f2720 	ldr	r2, [pc, #-1824]	; 71d0 <inflate+0x12a8>
    78ec:	e3a0301d 	mov	r3, #29
    78f0:	e5892018 	str	r2, [r9, #24]
    78f4:	e58a3000 	str	r3, [sl]
    78f8:	eafff9a7 	b	5f9c <inflate+0x74>
    78fc:	e51f2730 	ldr	r2, [pc, #-1840]	; 71d4 <inflate+0x12ac>
    7900:	e3a0301d 	mov	r3, #29
    7904:	e5892018 	str	r2, [r9, #24]
    7908:	e58a3000 	str	r3, [sl]
    790c:	e3a0301d 	mov	r3, #29
    7910:	eafff9a1 	b	5f9c <inflate+0x74>
    7914:	e59a306c 	ldr	r3, [sl, #108]	; 0x6c
    7918:	e3a02006 	mov	r2, #6
    791c:	e58a3050 	str	r3, [sl, #80]	; 0x50
    7920:	e28a3058 	add	r3, sl, #88	; 0x58
    7924:	e59a1060 	ldr	r1, [sl, #96]	; 0x60
    7928:	e58a2058 	str	r2, [sl, #88]	; 0x58
    792c:	e88d0108 	stm	sp, {r3, r8}
    7930:	e2811038 	add	r1, r1, #56	; 0x38
    7934:	e1a03007 	mov	r3, r7
    7938:	e08a1081 	add	r1, sl, r1, lsl #1
    793c:	e59a2064 	ldr	r2, [sl, #100]	; 0x64
    7940:	e3a00002 	mov	r0, #2
    7944:	eb00016b 	bl	7ef8 <inflate_table>
    7948:	e3500000 	cmp	r0, #0
    794c:	e58d000c 	str	r0, [sp, #12]
    7950:	0afffa32 	beq	6220 <inflate+0x2f8>
    7954:	e51f2784 	ldr	r2, [pc, #-1924]	; 71d8 <inflate+0x12b0>
    7958:	e3a0301d 	mov	r3, #29
    795c:	e5892018 	str	r2, [r9, #24]
    7960:	e58a3000 	str	r3, [sl]
    7964:	eafff98c 	b	5f9c <inflate+0x74>

00007968 <inflateEnd>:
    7968:	e92d4010 	push	{r4, lr}
    796c:	e2504000 	subs	r4, r0, #0
    7970:	0a000012 	beq	79c0 <inflateEnd+0x58>
    7974:	e594101c 	ldr	r1, [r4, #28]
    7978:	e3510000 	cmp	r1, #0
    797c:	0a00000f 	beq	79c0 <inflateEnd+0x58>
    7980:	e5943024 	ldr	r3, [r4, #36]	; 0x24
    7984:	e3530000 	cmp	r3, #0
    7988:	0a00000c 	beq	79c0 <inflateEnd+0x58>
    798c:	e5912034 	ldr	r2, [r1, #52]	; 0x34
    7990:	e3520000 	cmp	r2, #0
    7994:	0a000004 	beq	79ac <inflateEnd+0x44>
    7998:	e1a01002 	mov	r1, r2
    799c:	e5940028 	ldr	r0, [r4, #40]	; 0x28
    79a0:	e12fff33 	blx	r3
    79a4:	e5943024 	ldr	r3, [r4, #36]	; 0x24
    79a8:	e594101c 	ldr	r1, [r4, #28]
    79ac:	e5940028 	ldr	r0, [r4, #40]	; 0x28
    79b0:	e12fff33 	blx	r3
    79b4:	e3a00000 	mov	r0, #0
    79b8:	e584001c 	str	r0, [r4, #28]
    79bc:	e8bd8010 	pop	{r4, pc}
    79c0:	e3e00001 	mvn	r0, #1
    79c4:	e8bd8010 	pop	{r4, pc}

000079c8 <inflateSetDictionary>:
    79c8:	e92d41f0 	push	{r4, r5, r6, r7, r8, lr}
    79cc:	e2504000 	subs	r4, r0, #0
    79d0:	e1a07001 	mov	r7, r1
    79d4:	e1a06002 	mov	r6, r2
    79d8:	0a000026 	beq	7a78 <inflateSetDictionary+0xb0>
    79dc:	e594501c 	ldr	r5, [r4, #28]
    79e0:	e3550000 	cmp	r5, #0
    79e4:	0a000023 	beq	7a78 <inflateSetDictionary+0xb0>
    79e8:	e5953008 	ldr	r3, [r5, #8]
    79ec:	e3530000 	cmp	r3, #0
    79f0:	e5953000 	ldr	r3, [r5]
    79f4:	1a000011 	bne	7a40 <inflateSetDictionary+0x78>
    79f8:	e353000a 	cmp	r3, #10
    79fc:	0a000011 	beq	7a48 <inflateSetDictionary+0x80>
    7a00:	e0877006 	add	r7, r7, r6
    7a04:	e3a03000 	mov	r3, #0
    7a08:	e5948010 	ldr	r8, [r4, #16]
    7a0c:	e1a01006 	mov	r1, r6
    7a10:	e5843010 	str	r3, [r4, #16]
    7a14:	e594600c 	ldr	r6, [r4, #12]
    7a18:	e1a00004 	mov	r0, r4
    7a1c:	e584700c 	str	r7, [r4, #12]
    7a20:	ebfff83c 	bl	5b18 <updatewindow>
    7a24:	e3500000 	cmp	r0, #0
    7a28:	e5848010 	str	r8, [r4, #16]
    7a2c:	e584600c 	str	r6, [r4, #12]
    7a30:	1a000012 	bne	7a80 <inflateSetDictionary+0xb8>
    7a34:	e3a03001 	mov	r3, #1
    7a38:	e585300c 	str	r3, [r5, #12]
    7a3c:	e8bd81f0 	pop	{r4, r5, r6, r7, r8, pc}
    7a40:	e353000a 	cmp	r3, #10
    7a44:	1a00000b 	bne	7a78 <inflateSetDictionary+0xb0>
    7a48:	e3a00000 	mov	r0, #0
    7a4c:	e1a01000 	mov	r1, r0
    7a50:	e1a02000 	mov	r2, r0
    7a54:	ebffef05 	bl	3670 <adler32>
    7a58:	e1a01007 	mov	r1, r7
    7a5c:	e1a02006 	mov	r2, r6
    7a60:	ebffef02 	bl	3670 <adler32>
    7a64:	e5953018 	ldr	r3, [r5, #24]
    7a68:	e1530000 	cmp	r3, r0
    7a6c:	0affffe3 	beq	7a00 <inflateSetDictionary+0x38>
    7a70:	e3e00002 	mvn	r0, #2
    7a74:	e8bd81f0 	pop	{r4, r5, r6, r7, r8, pc}
    7a78:	e3e00001 	mvn	r0, #1
    7a7c:	e8bd81f0 	pop	{r4, r5, r6, r7, r8, pc}
    7a80:	e3a0301e 	mov	r3, #30
    7a84:	e5853000 	str	r3, [r5]
    7a88:	e3e00003 	mvn	r0, #3
    7a8c:	e8bd81f0 	pop	{r4, r5, r6, r7, r8, pc}

00007a90 <inflateGetHeader>:
    7a90:	e3500000 	cmp	r0, #0
    7a94:	0a00000a 	beq	7ac4 <inflateGetHeader+0x34>
    7a98:	e590301c 	ldr	r3, [r0, #28]
    7a9c:	e3530000 	cmp	r3, #0
    7aa0:	0a000007 	beq	7ac4 <inflateGetHeader+0x34>
    7aa4:	e5932008 	ldr	r2, [r3, #8]
    7aa8:	e3120002 	tst	r2, #2
    7aac:	0a000004 	beq	7ac4 <inflateGetHeader+0x34>
    7ab0:	e3a02000 	mov	r2, #0
    7ab4:	e5831020 	str	r1, [r3, #32]
    7ab8:	e1a00002 	mov	r0, r2
    7abc:	e5812030 	str	r2, [r1, #48]	; 0x30
    7ac0:	e12fff1e 	bx	lr
    7ac4:	e3e00001 	mvn	r0, #1
    7ac8:	e12fff1e 	bx	lr

00007acc <inflateSync>:
    7acc:	e92d40f0 	push	{r4, r5, r6, r7, lr}
    7ad0:	e2504000 	subs	r4, r0, #0
    7ad4:	e24dd00c 	sub	sp, sp, #12
    7ad8:	0a000049 	beq	7c04 <inflateSync+0x138>
    7adc:	e594501c 	ldr	r5, [r4, #28]
    7ae0:	e3550000 	cmp	r5, #0
    7ae4:	0a000046 	beq	7c04 <inflateSync+0x138>
    7ae8:	e5942004 	ldr	r2, [r4, #4]
    7aec:	e3520000 	cmp	r2, #0
    7af0:	0a00003b 	beq	7be4 <inflateSync+0x118>
    7af4:	e5953000 	ldr	r3, [r5]
    7af8:	e353001f 	cmp	r3, #31
    7afc:	02856068 	addeq	r6, r5, #104	; 0x68
    7b00:	0a00001d 	beq	7b7c <inflateSync+0xb0>
    7b04:	e595203c 	ldr	r2, [r5, #60]	; 0x3c
    7b08:	e5951038 	ldr	r1, [r5, #56]	; 0x38
    7b0c:	e2023007 	and	r3, r2, #7
    7b10:	e1a03311 	lsl	r3, r1, r3
    7b14:	e3c22007 	bic	r2, r2, #7
    7b18:	e3a0101f 	mov	r1, #31
    7b1c:	e3520007 	cmp	r2, #7
    7b20:	e585203c 	str	r2, [r5, #60]	; 0x3c
    7b24:	e5853038 	str	r3, [r5, #56]	; 0x38
    7b28:	e5851000 	str	r1, [r5]
    7b2c:	9a000031 	bls	7bf8 <inflateSync+0x12c>
    7b30:	e2422008 	sub	r2, r2, #8
    7b34:	e1a021a2 	lsr	r2, r2, #3
    7b38:	e28d1004 	add	r1, sp, #4
    7b3c:	e081c002 	add	ip, r1, r2
    7b40:	e28d0003 	add	r0, sp, #3
    7b44:	e5e03001 	strb	r3, [r0, #1]!
    7b48:	e150000c 	cmp	r0, ip
    7b4c:	e1a03423 	lsr	r3, r3, #8
    7b50:	1afffffb 	bne	7b44 <inflateSync+0x78>
    7b54:	e3a00000 	mov	r0, #0
    7b58:	e2822001 	add	r2, r2, #1
    7b5c:	e5853038 	str	r3, [r5, #56]	; 0x38
    7b60:	e585003c 	str	r0, [r5, #60]	; 0x3c
    7b64:	e3a03000 	mov	r3, #0
    7b68:	e1a06005 	mov	r6, r5
    7b6c:	e5a63068 	str	r3, [r6, #104]!	; 0x68
    7b70:	e1a00006 	mov	r0, r6
    7b74:	ebfff7c0 	bl	5a7c <syncsearch>
    7b78:	e5942004 	ldr	r2, [r4, #4]
    7b7c:	e1a00006 	mov	r0, r6
    7b80:	e5941000 	ldr	r1, [r4]
    7b84:	ebfff7bc 	bl	5a7c <syncsearch>
    7b88:	e5951068 	ldr	r1, [r5, #104]	; 0x68
    7b8c:	e5942004 	ldr	r2, [r4, #4]
    7b90:	e5943000 	ldr	r3, [r4]
    7b94:	e5946008 	ldr	r6, [r4, #8]
    7b98:	e0602002 	rsb	r2, r0, r2
    7b9c:	e0833000 	add	r3, r3, r0
    7ba0:	e0806006 	add	r6, r0, r6
    7ba4:	e3510004 	cmp	r1, #4
    7ba8:	e5842004 	str	r2, [r4, #4]
    7bac:	e5843000 	str	r3, [r4]
    7bb0:	e5846008 	str	r6, [r4, #8]
    7bb4:	13e00002 	mvnne	r0, #2
    7bb8:	1a000007 	bne	7bdc <inflateSync+0x110>
    7bbc:	e5947014 	ldr	r7, [r4, #20]
    7bc0:	e1a00004 	mov	r0, r4
    7bc4:	ebfff84c 	bl	5cfc <inflateReset>
    7bc8:	e3a0300b 	mov	r3, #11
    7bcc:	e5847014 	str	r7, [r4, #20]
    7bd0:	e5846008 	str	r6, [r4, #8]
    7bd4:	e3a00000 	mov	r0, #0
    7bd8:	e5853000 	str	r3, [r5]
    7bdc:	e28dd00c 	add	sp, sp, #12
    7be0:	e8bd80f0 	pop	{r4, r5, r6, r7, pc}
    7be4:	e595303c 	ldr	r3, [r5, #60]	; 0x3c
    7be8:	e3530007 	cmp	r3, #7
    7bec:	8affffc0 	bhi	7af4 <inflateSync+0x28>
    7bf0:	e3e00004 	mvn	r0, #4
    7bf4:	eafffff8 	b	7bdc <inflateSync+0x110>
    7bf8:	e3a02000 	mov	r2, #0
    7bfc:	e28d1004 	add	r1, sp, #4
    7c00:	eaffffd7 	b	7b64 <inflateSync+0x98>
    7c04:	e3e00001 	mvn	r0, #1
    7c08:	eafffff3 	b	7bdc <inflateSync+0x110>

00007c0c <inflateSyncPoint>:
    7c0c:	e3500000 	cmp	r0, #0
    7c10:	0a00000b 	beq	7c44 <inflateSyncPoint+0x38>
    7c14:	e590301c 	ldr	r3, [r0, #28]
    7c18:	e3530000 	cmp	r3, #0
    7c1c:	0a000008 	beq	7c44 <inflateSyncPoint+0x38>
    7c20:	e5932000 	ldr	r2, [r3]
    7c24:	e352000d 	cmp	r2, #13
    7c28:	0a000001 	beq	7c34 <inflateSyncPoint+0x28>
    7c2c:	e3a00000 	mov	r0, #0
    7c30:	e12fff1e 	bx	lr
    7c34:	e593003c 	ldr	r0, [r3, #60]	; 0x3c
    7c38:	e2700001 	rsbs	r0, r0, #1
    7c3c:	33a00000 	movcc	r0, #0
    7c40:	e12fff1e 	bx	lr
    7c44:	e3e00001 	mvn	r0, #1
    7c48:	e12fff1e 	bx	lr

00007c4c <inflateCopy>:
    7c4c:	e3500000 	cmp	r0, #0
    7c50:	13510000 	cmpne	r1, #0
    7c54:	e92d41f0 	push	{r4, r5, r6, r7, r8, lr}
    7c58:	e1a05001 	mov	r5, r1
    7c5c:	e1a07000 	mov	r7, r0
    7c60:	0a000047 	beq	7d84 <inflateCopy+0x138>
    7c64:	e591401c 	ldr	r4, [r1, #28]
    7c68:	e3540000 	cmp	r4, #0
    7c6c:	0a000044 	beq	7d84 <inflateCopy+0x138>
    7c70:	e5913020 	ldr	r3, [r1, #32]
    7c74:	e3530000 	cmp	r3, #0
    7c78:	0a000041 	beq	7d84 <inflateCopy+0x138>
    7c7c:	e5912024 	ldr	r2, [r1, #36]	; 0x24
    7c80:	e3520000 	cmp	r2, #0
    7c84:	0a00003e 	beq	7d84 <inflateCopy+0x138>
    7c88:	e5910028 	ldr	r0, [r1, #40]	; 0x28
    7c8c:	e59f2118 	ldr	r2, [pc, #280]	; 7dac <inflateCopy+0x160>
    7c90:	e3a01001 	mov	r1, #1
    7c94:	e12fff33 	blx	r3
    7c98:	e2506000 	subs	r6, r0, #0
    7c9c:	0a00003a 	beq	7d8c <inflateCopy+0x140>
    7ca0:	e5948034 	ldr	r8, [r4, #52]	; 0x34
    7ca4:	e3580000 	cmp	r8, #0
    7ca8:	0a000007 	beq	7ccc <inflateCopy+0x80>
    7cac:	e5941024 	ldr	r1, [r4, #36]	; 0x24
    7cb0:	e3a02001 	mov	r2, #1
    7cb4:	e1a01112 	lsl	r1, r2, r1
    7cb8:	e5953020 	ldr	r3, [r5, #32]
    7cbc:	e5950028 	ldr	r0, [r5, #40]	; 0x28
    7cc0:	e12fff33 	blx	r3
    7cc4:	e2508000 	subs	r8, r0, #0
    7cc8:	0a000031 	beq	7d94 <inflateCopy+0x148>
    7ccc:	e1a01005 	mov	r1, r5
    7cd0:	e3a02038 	mov	r2, #56	; 0x38
    7cd4:	e1a00007 	mov	r0, r7
    7cd8:	ebffe0d9 	bl	44 <ZMEMCPY>
    7cdc:	e59f20c8 	ldr	r2, [pc, #200]	; 7dac <inflateCopy+0x160>
    7ce0:	e1a00006 	mov	r0, r6
    7ce4:	e1a01004 	mov	r1, r4
    7ce8:	ebffe0d5 	bl	44 <ZMEMCPY>
    7cec:	e594204c 	ldr	r2, [r4, #76]	; 0x4c
    7cf0:	e2843e53 	add	r3, r4, #1328	; 0x530
    7cf4:	e1520003 	cmp	r2, r3
    7cf8:	2a000011 	bcs	7d44 <inflateCopy+0xf8>
    7cfc:	e594206c 	ldr	r2, [r4, #108]	; 0x6c
    7d00:	e3580000 	cmp	r8, #0
    7d04:	e0633002 	rsb	r3, r3, r2
    7d08:	e3c33003 	bic	r3, r3, #3
    7d0c:	e2833e53 	add	r3, r3, #1328	; 0x530
    7d10:	e0863003 	add	r3, r6, r3
    7d14:	e586306c 	str	r3, [r6, #108]	; 0x6c
    7d18:	0a000005 	beq	7d34 <inflateCopy+0xe8>
    7d1c:	e5943024 	ldr	r3, [r4, #36]	; 0x24
    7d20:	e3a02001 	mov	r2, #1
    7d24:	e5941034 	ldr	r1, [r4, #52]	; 0x34
    7d28:	e1a02312 	lsl	r2, r2, r3
    7d2c:	e1a00008 	mov	r0, r8
    7d30:	ebffe0c3 	bl	44 <ZMEMCPY>
    7d34:	e5868034 	str	r8, [r6, #52]	; 0x34
    7d38:	e3a00000 	mov	r0, #0
    7d3c:	e587601c 	str	r6, [r7, #28]
    7d40:	e8bd81f0 	pop	{r4, r5, r6, r7, r8, pc}
    7d44:	e2841d6e 	add	r1, r4, #7040	; 0x1b80
    7d48:	e281103c 	add	r1, r1, #60	; 0x3c
    7d4c:	e1510002 	cmp	r1, r2
    7d50:	3affffe9 	bcc	7cfc <inflateCopy+0xb0>
    7d54:	e5940050 	ldr	r0, [r4, #80]	; 0x50
    7d58:	e0631002 	rsb	r1, r3, r2
    7d5c:	e0632000 	rsb	r2, r3, r0
    7d60:	e3c11003 	bic	r1, r1, #3
    7d64:	e3c22003 	bic	r2, r2, #3
    7d68:	e2811e53 	add	r1, r1, #1328	; 0x530
    7d6c:	e2822e53 	add	r2, r2, #1328	; 0x530
    7d70:	e0861001 	add	r1, r6, r1
    7d74:	e0862002 	add	r2, r6, r2
    7d78:	e586104c 	str	r1, [r6, #76]	; 0x4c
    7d7c:	e5862050 	str	r2, [r6, #80]	; 0x50
    7d80:	eaffffdd 	b	7cfc <inflateCopy+0xb0>
    7d84:	e3e00001 	mvn	r0, #1
    7d88:	e8bd81f0 	pop	{r4, r5, r6, r7, r8, pc}
    7d8c:	e3e00003 	mvn	r0, #3
    7d90:	e8bd81f0 	pop	{r4, r5, r6, r7, r8, pc}
    7d94:	e5950028 	ldr	r0, [r5, #40]	; 0x28
    7d98:	e1a01006 	mov	r1, r6
    7d9c:	e5953024 	ldr	r3, [r5, #36]	; 0x24
    7da0:	e12fff33 	blx	r3
    7da4:	e3e00003 	mvn	r0, #3
    7da8:	e8bd81f0 	pop	{r4, r5, r6, r7, r8, pc}
    7dac:	00001bcc 	andeq	r1, r0, ip, asr #23

00007db0 <inflateUndermine>:
    7db0:	e3500000 	cmp	r0, #0
    7db4:	0a000007 	beq	7dd8 <inflateUndermine+0x28>
    7db8:	e590301c 	ldr	r3, [r0, #28]
    7dbc:	e3530000 	cmp	r3, #0
    7dc0:	0a000004 	beq	7dd8 <inflateUndermine+0x28>
    7dc4:	e3a02d6f 	mov	r2, #7104	; 0x1bc0
    7dc8:	e3a01001 	mov	r1, #1
    7dcc:	e7831002 	str	r1, [r3, r2]
    7dd0:	e3e00002 	mvn	r0, #2
    7dd4:	e12fff1e 	bx	lr
    7dd8:	e3e00001 	mvn	r0, #1
    7ddc:	e12fff1e 	bx	lr

00007de0 <inflateMark>:
    7de0:	e3500000 	cmp	r0, #0
    7de4:	0a000011 	beq	7e30 <inflateMark+0x50>
    7de8:	e590301c 	ldr	r3, [r0, #28]
    7dec:	e3530000 	cmp	r3, #0
    7df0:	0a00000e 	beq	7e30 <inflateMark+0x50>
    7df4:	e59f103c 	ldr	r1, [pc, #60]	; 7e38 <inflateMark+0x58>
    7df8:	e5932000 	ldr	r2, [r3]
    7dfc:	e7931001 	ldr	r1, [r3, r1]
    7e00:	e352000f 	cmp	r2, #15
    7e04:	e1a01801 	lsl	r1, r1, #16
    7e08:	05930040 	ldreq	r0, [r3, #64]	; 0x40
    7e0c:	0a000005 	beq	7e28 <inflateMark+0x48>
    7e10:	e3520018 	cmp	r2, #24
    7e14:	059f0020 	ldreq	r0, [pc, #32]	; 7e3c <inflateMark+0x5c>
    7e18:	05932040 	ldreq	r2, [r3, #64]	; 0x40
    7e1c:	07930000 	ldreq	r0, [r3, r0]
    7e20:	13a00000 	movne	r0, #0
    7e24:	00620000 	rsbeq	r0, r2, r0
    7e28:	e0800001 	add	r0, r0, r1
    7e2c:	e12fff1e 	bx	lr
    7e30:	e59f0008 	ldr	r0, [pc, #8]	; 7e40 <inflateMark+0x60>
    7e34:	e12fff1e 	bx	lr
    7e38:	00001bc4 	andeq	r1, r0, r4, asr #23
    7e3c:	00001bc8 	andeq	r1, r0, r8, asr #23
    7e40:	ffff0000 			; <UNDEFINED> instruction: 0xffff0000

00007e44 <uncompress>:
    7e44:	e92d4030 	push	{r4, r5, lr}
    7e48:	e591e000 	ldr	lr, [r1]
    7e4c:	e24dd03c 	sub	sp, sp, #60	; 0x3c
    7e50:	e3a0c000 	mov	ip, #0
    7e54:	e58d2000 	str	r2, [sp]
    7e58:	e58d000c 	str	r0, [sp, #12]
    7e5c:	e1a05001 	mov	r5, r1
    7e60:	e1a0000d 	mov	r0, sp
    7e64:	e59f1088 	ldr	r1, [pc, #136]	; 7ef4 <uncompress+0xb0>
    7e68:	e3a02038 	mov	r2, #56	; 0x38
    7e6c:	e58d3004 	str	r3, [sp, #4]
    7e70:	e58de010 	str	lr, [sp, #16]
    7e74:	e58dc020 	str	ip, [sp, #32]
    7e78:	e58dc024 	str	ip, [sp, #36]	; 0x24
    7e7c:	ebfff809 	bl	5ea8 <inflateInit_>
    7e80:	e2504000 	subs	r4, r0, #0
    7e84:	0a000002 	beq	7e94 <uncompress+0x50>
    7e88:	e1a00004 	mov	r0, r4
    7e8c:	e28dd03c 	add	sp, sp, #60	; 0x3c
    7e90:	e8bd8030 	pop	{r4, r5, pc}
    7e94:	e1a0000d 	mov	r0, sp
    7e98:	e3a01004 	mov	r1, #4
    7e9c:	ebfff821 	bl	5f28 <inflate>
    7ea0:	e3500001 	cmp	r0, #1
    7ea4:	e1a04000 	mov	r4, r0
    7ea8:	0a000009 	beq	7ed4 <uncompress+0x90>
    7eac:	e1a0000d 	mov	r0, sp
    7eb0:	ebfffeac 	bl	7968 <inflateEnd>
    7eb4:	e3540002 	cmp	r4, #2
    7eb8:	0a00000b 	beq	7eec <uncompress+0xa8>
    7ebc:	e3740005 	cmn	r4, #5
    7ec0:	1afffff0 	bne	7e88 <uncompress+0x44>
    7ec4:	e59d3004 	ldr	r3, [sp, #4]
    7ec8:	e3530000 	cmp	r3, #0
    7ecc:	03e04002 	mvneq	r4, #2
    7ed0:	eaffffec 	b	7e88 <uncompress+0x44>
    7ed4:	e59d3014 	ldr	r3, [sp, #20]
    7ed8:	e1a0000d 	mov	r0, sp
    7edc:	e5853000 	str	r3, [r5]
    7ee0:	ebfffea0 	bl	7968 <inflateEnd>
    7ee4:	e1a04000 	mov	r4, r0
    7ee8:	eaffffe6 	b	7e88 <uncompress+0x44>
    7eec:	e3e04002 	mvn	r4, #2
    7ef0:	eaffffe4 	b	7e88 <uncompress+0x44>
    7ef4:	0000ca24 	andeq	ip, r0, r4, lsr #20

00007ef8 <inflate_table>:
    7ef8:	e92d0ff0 	push	{r4, r5, r6, r7, r8, r9, sl, fp}
    7efc:	e24dd078 	sub	sp, sp, #120	; 0x78
    7f00:	e59da09c 	ldr	sl, [sp, #156]	; 0x9c
    7f04:	e58d1018 	str	r1, [sp, #24]
    7f08:	e58d3010 	str	r3, [sp, #16]
    7f0c:	e28d1036 	add	r1, sp, #54	; 0x36
    7f10:	e28d3056 	add	r3, sp, #86	; 0x56
    7f14:	e3a0c000 	mov	ip, #0
    7f18:	e1e1c0b2 	strh	ip, [r1, #2]!
    7f1c:	e1510003 	cmp	r1, r3
    7f20:	1afffffc 	bne	7f18 <inflate_table+0x20>
    7f24:	e3520000 	cmp	r2, #0
    7f28:	159d1018 	ldrne	r1, [sp, #24]
    7f2c:	10815082 	addne	r5, r1, r2, lsl #1
    7f30:	0a000007 	beq	7f54 <inflate_table+0x5c>
    7f34:	e0d1c0b2 	ldrh	ip, [r1], #2
    7f38:	e28d6078 	add	r6, sp, #120	; 0x78
    7f3c:	e086c08c 	add	ip, r6, ip, lsl #1
    7f40:	e15c44b0 	ldrh	r4, [ip, #-64]	; 0xffffffc0
    7f44:	e1510005 	cmp	r1, r5
    7f48:	e2844001 	add	r4, r4, #1
    7f4c:	e14c44b0 	strh	r4, [ip, #-64]	; 0xffffffc0
    7f50:	1afffff7 	bne	7f34 <inflate_table+0x3c>
    7f54:	e59d4098 	ldr	r4, [sp, #152]	; 0x98
    7f58:	e28d1058 	add	r1, sp, #88	; 0x58
    7f5c:	e5948000 	ldr	r8, [r4]
    7f60:	e3a0c00f 	mov	ip, #15
    7f64:	e17140b2 	ldrh	r4, [r1, #-2]!
    7f68:	e3540000 	cmp	r4, #0
    7f6c:	1a000014 	bne	7fc4 <inflate_table+0xcc>
    7f70:	e25cc001 	subs	ip, ip, #1
    7f74:	1afffffa 	bne	7f64 <inflate_table+0x6c>
    7f78:	e59dc010 	ldr	ip, [sp, #16]
    7f7c:	e3a01040 	mov	r1, #64	; 0x40
    7f80:	e59c3000 	ldr	r3, [ip]
    7f84:	e59d4098 	ldr	r4, [sp, #152]	; 0x98
    7f88:	e5c31000 	strb	r1, [r3]
    7f8c:	e5c31004 	strb	r1, [r3, #4]
    7f90:	e59d1010 	ldr	r1, [sp, #16]
    7f94:	e3a02001 	mov	r2, #1
    7f98:	e3a00000 	mov	r0, #0
    7f9c:	e283c008 	add	ip, r3, #8
    7fa0:	e5c32001 	strb	r2, [r3, #1]
    7fa4:	e5c32005 	strb	r2, [r3, #5]
    7fa8:	e1c300b2 	strh	r0, [r3, #2]
    7fac:	e1c300b6 	strh	r0, [r3, #6]
    7fb0:	e581c000 	str	ip, [r1]
    7fb4:	e5842000 	str	r2, [r4]
    7fb8:	e28dd078 	add	sp, sp, #120	; 0x78
    7fbc:	e8bd0ff0 	pop	{r4, r5, r6, r7, r8, r9, sl, fp}
    7fc0:	e12fff1e 	bx	lr
    7fc4:	e15c0008 	cmp	ip, r8
    7fc8:	31a0800c 	movcc	r8, ip
    7fcc:	e35c0000 	cmp	ip, #0
    7fd0:	0affffe8 	beq	7f78 <inflate_table+0x80>
    7fd4:	e35c0001 	cmp	ip, #1
    7fd8:	9a000116 	bls	8438 <inflate_table+0x540>
    7fdc:	e1dd63ba 	ldrh	r6, [sp, #58]	; 0x3a
    7fe0:	e3560000 	cmp	r6, #0
    7fe4:	1a000117 	bne	8448 <inflate_table+0x550>
    7fe8:	e28d703a 	add	r7, sp, #58	; 0x3a
    7fec:	e1a01007 	mov	r1, r7
    7ff0:	e3a09001 	mov	r9, #1
    7ff4:	ea000002 	b	8004 <inflate_table+0x10c>
    7ff8:	e1f140b2 	ldrh	r4, [r1, #2]!
    7ffc:	e3540000 	cmp	r4, #0
    8000:	1a000002 	bne	8010 <inflate_table+0x118>
    8004:	e2899001 	add	r9, r9, #1
    8008:	e159000c 	cmp	r9, ip
    800c:	1afffff9 	bne	7ff8 <inflate_table+0x100>
    8010:	e1a05007 	mov	r5, r7
    8014:	e1a04006 	mov	r4, r6
    8018:	e3a01001 	mov	r1, #1
    801c:	ea000000 	b	8024 <inflate_table+0x12c>
    8020:	e1f540b2 	ldrh	r4, [r5, #2]!
    8024:	e0741081 	rsbs	r1, r4, r1, lsl #1
    8028:	4a0000de 	bmi	83a8 <inflate_table+0x4b0>
    802c:	e1550003 	cmp	r5, r3
    8030:	1afffffa 	bne	8020 <inflate_table+0x128>
    8034:	e3510000 	cmp	r1, #0
    8038:	0a000005 	beq	8054 <inflate_table+0x15c>
    803c:	e2703001 	rsbs	r3, r0, #1
    8040:	33a03000 	movcc	r3, #0
    8044:	e35c0001 	cmp	ip, #1
    8048:	13833001 	orrne	r3, r3, #1
    804c:	e3530000 	cmp	r3, #0
    8050:	1a0000d4 	bne	83a8 <inflate_table+0x4b0>
    8054:	e3a01000 	mov	r1, #0
    8058:	e28d4078 	add	r4, sp, #120	; 0x78
    805c:	e16411be 	strh	r1, [r4, #-30]!	; 0xffffffe2
    8060:	e3a03001 	mov	r3, #1
    8064:	ea000000 	b	806c <inflate_table+0x174>
    8068:	e1f760b2 	ldrh	r6, [r7, #2]!
    806c:	e0861001 	add	r1, r6, r1
    8070:	e2833001 	add	r3, r3, #1
    8074:	e6ff1071 	uxth	r1, r1
    8078:	e353000f 	cmp	r3, #15
    807c:	e1e410b2 	strh	r1, [r4, #2]!
    8080:	1afffff8 	bne	8068 <inflate_table+0x170>
    8084:	e3520000 	cmp	r2, #0
    8088:	0a00000f 	beq	80cc <inflate_table+0x1d4>
    808c:	e59d4018 	ldr	r4, [sp, #24]
    8090:	e3a03000 	mov	r3, #0
    8094:	e2441002 	sub	r1, r4, #2
    8098:	e1f140b2 	ldrh	r4, [r1, #2]!
    809c:	e3540000 	cmp	r4, #0
    80a0:	0a000006 	beq	80c0 <inflate_table+0x1c8>
    80a4:	e28d5078 	add	r5, sp, #120	; 0x78
    80a8:	e0854084 	add	r4, r5, r4, lsl #1
    80ac:	e15452b0 	ldrh	r5, [r4, #-32]	; 0xffffffe0
    80b0:	e2856001 	add	r6, r5, #1
    80b4:	e1a05085 	lsl	r5, r5, #1
    80b8:	e14462b0 	strh	r6, [r4, #-32]	; 0xffffffe0
    80bc:	e18a30b5 	strh	r3, [sl, r5]
    80c0:	e2833001 	add	r3, r3, #1
    80c4:	e1530002 	cmp	r3, r2
    80c8:	1afffff2 	bne	8098 <inflate_table+0x1a0>
    80cc:	e3500000 	cmp	r0, #0
    80d0:	0a0000b6 	beq	83b0 <inflate_table+0x4b8>
    80d4:	e3500001 	cmp	r0, #1
    80d8:	0a0000bd 	beq	83d4 <inflate_table+0x4dc>
    80dc:	e59f6370 	ldr	r6, [pc, #880]	; 8454 <inflate_table+0x55c>
    80e0:	e3e01000 	mvn	r1, #0
    80e4:	e2862040 	add	r2, r6, #64	; 0x40
    80e8:	e58d6030 	str	r6, [sp, #48]	; 0x30
    80ec:	e58d101c 	str	r1, [sp, #28]
    80f0:	e58d2034 	str	r2, [sp, #52]	; 0x34
    80f4:	e1590008 	cmp	r9, r8
    80f8:	21a08009 	movcs	r8, r9
    80fc:	e3a01001 	mov	r1, #1
    8100:	e1a04811 	lsl	r4, r1, r8
    8104:	e0502001 	subs	r2, r0, r1
    8108:	e2725000 	rsbs	r5, r2, #0
    810c:	e0b55002 	adcs	r5, r5, r2
    8110:	e59f3340 	ldr	r3, [pc, #832]	; 8458 <inflate_table+0x560>
    8114:	e59d6010 	ldr	r6, [sp, #16]
    8118:	e1a02005 	mov	r2, r5
    811c:	e1540003 	cmp	r4, r3
    8120:	93a02000 	movls	r2, #0
    8124:	82022001 	andhi	r2, r2, #1
    8128:	e5966000 	ldr	r6, [r6]
    812c:	e3520000 	cmp	r2, #0
    8130:	e58d800c 	str	r8, [sp, #12]
    8134:	e58d5024 	str	r5, [sp, #36]	; 0x24
    8138:	e58d6008 	str	r6, [sp, #8]
    813c:	1a0000a2 	bne	83cc <inflate_table+0x4d4>
    8140:	e2503002 	subs	r3, r0, #2
    8144:	e2730000 	rsbs	r0, r3, #0
    8148:	e59f230c 	ldr	r2, [pc, #780]	; 845c <inflate_table+0x564>
    814c:	e0b00003 	adcs	r0, r0, r3
    8150:	e58d002c 	str	r0, [sp, #44]	; 0x2c
    8154:	e1540002 	cmp	r4, r2
    8158:	93a00000 	movls	r0, #0
    815c:	82000001 	andhi	r0, r0, #1
    8160:	e3500000 	cmp	r0, #0
    8164:	1a000098 	bne	83cc <inflate_table+0x4d4>
    8168:	e24aa002 	sub	sl, sl, #2
    816c:	e2442001 	sub	r2, r4, #1
    8170:	e58d4014 	str	r4, [sp, #20]
    8174:	e3e03000 	mvn	r3, #0
    8178:	e59d400c 	ldr	r4, [sp, #12]
    817c:	e58da004 	str	sl, [sp, #4]
    8180:	e1a0b001 	mov	fp, r1
    8184:	e1a0a000 	mov	sl, r0
    8188:	e1a01009 	mov	r1, r9
    818c:	e58d2028 	str	r2, [sp, #40]	; 0x28
    8190:	e58d3020 	str	r3, [sp, #32]
    8194:	e1a0800c 	mov	r8, ip
    8198:	e59d5004 	ldr	r5, [sp, #4]
    819c:	e59d201c 	ldr	r2, [sp, #28]
    81a0:	e1f5c0b2 	ldrh	ip, [r5, #2]!
    81a4:	e6ef6071 	uxtb	r6, r1
    81a8:	e152000c 	cmp	r2, ip
    81ac:	e58d5004 	str	r5, [sp, #4]
    81b0:	c3a07000 	movgt	r7, #0
    81b4:	ca000006 	bgt	81d4 <inflate_table+0x2dc>
    81b8:	b59d3030 	ldrlt	r3, [sp, #48]	; 0x30
    81bc:	b59d5034 	ldrlt	r5, [sp, #52]	; 0x34
    81c0:	b1a0c08c 	lsllt	ip, ip, #1
    81c4:	b7d3700c 	ldrblt	r7, [r3, ip]
    81c8:	b195c0bc 	ldrhlt	ip, [r5, ip]
    81cc:	a3a0c000 	movge	ip, #0
    81d0:	a3a07060 	movge	r7, #96	; 0x60
    81d4:	e1a0241b 	lsl	r2, fp, r4
    81d8:	e1a0111b 	lsl	r1, fp, r1
    81dc:	e0823a30 	add	r3, r2, r0, lsr sl
    81e0:	e58d2000 	str	r2, [sp]
    81e4:	e59d2008 	ldr	r2, [sp, #8]
    81e8:	e0613003 	rsb	r3, r1, r3
    81ec:	e0615f01 	rsb	r5, r1, r1, lsl #30
    81f0:	e0823103 	add	r3, r2, r3, lsl #2
    81f4:	e59d2000 	ldr	r2, [sp]
    81f8:	e1a05105 	lsl	r5, r5, #2
    81fc:	e0522001 	subs	r2, r2, r1
    8200:	e5c37000 	strb	r7, [r3]
    8204:	e5c36001 	strb	r6, [r3, #1]
    8208:	e1c3c0b2 	strh	ip, [r3, #2]
    820c:	e0833005 	add	r3, r3, r5
    8210:	1afffff9 	bne	81fc <inflate_table+0x304>
    8214:	e2493001 	sub	r3, r9, #1
    8218:	e1a0331b 	lsl	r3, fp, r3
    821c:	e1130000 	tst	r3, r0
    8220:	0a000002 	beq	8230 <inflate_table+0x338>
    8224:	e1a030a3 	lsr	r3, r3, #1
    8228:	e1100003 	tst	r0, r3
    822c:	1afffffc 	bne	8224 <inflate_table+0x32c>
    8230:	e3530000 	cmp	r3, #0
    8234:	12432001 	subne	r2, r3, #1
    8238:	10020000 	andne	r0, r2, r0
    823c:	10800003 	addne	r0, r0, r3
    8240:	01a00003 	moveq	r0, r3
    8244:	e28d3078 	add	r3, sp, #120	; 0x78
    8248:	e0832089 	add	r2, r3, r9, lsl #1
    824c:	e15234b0 	ldrh	r3, [r2, #-64]	; 0xffffffc0
    8250:	e2433001 	sub	r3, r3, #1
    8254:	e6ff3073 	uxth	r3, r3
    8258:	e3530000 	cmp	r3, #0
    825c:	e14234b0 	strh	r3, [r2, #-64]	; 0xffffffc0
    8260:	1a000006 	bne	8280 <inflate_table+0x388>
    8264:	e1590008 	cmp	r9, r8
    8268:	0a000060 	beq	83f0 <inflate_table+0x4f8>
    826c:	e59d5004 	ldr	r5, [sp, #4]
    8270:	e59d6018 	ldr	r6, [sp, #24]
    8274:	e1d530b2 	ldrh	r3, [r5, #2]
    8278:	e1a03083 	lsl	r3, r3, #1
    827c:	e19690b3 	ldrh	r9, [r6, r3]
    8280:	e59dc00c 	ldr	ip, [sp, #12]
    8284:	e15c0009 	cmp	ip, r9
    8288:	2a00004d 	bcs	83c4 <inflate_table+0x4cc>
    828c:	e59d1028 	ldr	r1, [sp, #40]	; 0x28
    8290:	e59d2020 	ldr	r2, [sp, #32]
    8294:	e000c001 	and	ip, r0, r1
    8298:	e15c0002 	cmp	ip, r2
    829c:	0a000048 	beq	83c4 <inflate_table+0x4cc>
    82a0:	e59d300c 	ldr	r3, [sp, #12]
    82a4:	e35a0000 	cmp	sl, #0
    82a8:	e59d5008 	ldr	r5, [sp, #8]
    82ac:	e59d6000 	ldr	r6, [sp]
    82b0:	01a0a003 	moveq	sl, r3
    82b4:	e06a4009 	rsb	r4, sl, r9
    82b8:	e0855106 	add	r5, r5, r6, lsl #2
    82bc:	e1590008 	cmp	r9, r8
    82c0:	e58d5008 	str	r5, [sp, #8]
    82c4:	e1a01004 	mov	r1, r4
    82c8:	e1a0341b 	lsl	r3, fp, r4
    82cc:	2a000012 	bcs	831c <inflate_table+0x424>
    82d0:	e1a05089 	lsl	r5, r9, #1
    82d4:	e28d6078 	add	r6, sp, #120	; 0x78
    82d8:	e0862005 	add	r2, r6, r5
    82dc:	e15224b0 	ldrh	r2, [r2, #-64]	; 0xffffffc0
    82e0:	e0623003 	rsb	r3, r2, r3
    82e4:	e3530000 	cmp	r3, #0
    82e8:	da00000b 	ble	831c <inflate_table+0x424>
    82ec:	e28d2038 	add	r2, sp, #56	; 0x38
    82f0:	e0825005 	add	r5, r2, r5
    82f4:	ea000003 	b	8308 <inflate_table+0x410>
    82f8:	e1f520b2 	ldrh	r2, [r5, #2]!
    82fc:	e0623003 	rsb	r3, r2, r3
    8300:	e3530000 	cmp	r3, #0
    8304:	da000004 	ble	831c <inflate_table+0x424>
    8308:	e2844001 	add	r4, r4, #1
    830c:	e08a2004 	add	r2, sl, r4
    8310:	e1580002 	cmp	r8, r2
    8314:	e1a03083 	lsl	r3, r3, #1
    8318:	8afffff6 	bhi	82f8 <inflate_table+0x400>
    831c:	e59d3014 	ldr	r3, [sp, #20]
    8320:	e59f6130 	ldr	r6, [pc, #304]	; 8458 <inflate_table+0x560>
    8324:	e083341b 	add	r3, r3, fp, lsl r4
    8328:	e58d3014 	str	r3, [sp, #20]
    832c:	e59d5014 	ldr	r5, [sp, #20]
    8330:	e59d3024 	ldr	r3, [sp, #36]	; 0x24
    8334:	e1550006 	cmp	r5, r6
    8338:	93a03000 	movls	r3, #0
    833c:	82033001 	andhi	r3, r3, #1
    8340:	e3530000 	cmp	r3, #0
    8344:	1a000020 	bne	83cc <inflate_table+0x4d4>
    8348:	e59d302c 	ldr	r3, [sp, #44]	; 0x2c
    834c:	e59f2108 	ldr	r2, [pc, #264]	; 845c <inflate_table+0x564>
    8350:	e1550002 	cmp	r5, r2
    8354:	93a03000 	movls	r3, #0
    8358:	82033001 	andhi	r3, r3, #1
    835c:	e3530000 	cmp	r3, #0
    8360:	1a000019 	bne	83cc <inflate_table+0x4d4>
    8364:	e59d3010 	ldr	r3, [sp, #16]
    8368:	e59d5010 	ldr	r5, [sp, #16]
    836c:	e5932000 	ldr	r2, [r3]
    8370:	e59d600c 	ldr	r6, [sp, #12]
    8374:	e7c2410c 	strb	r4, [r2, ip, lsl #2]
    8378:	e5952000 	ldr	r2, [r5]
    837c:	e1a0310c 	lsl	r3, ip, #2
    8380:	e0822003 	add	r2, r2, r3
    8384:	e5c26001 	strb	r6, [r2, #1]
    8388:	e5952000 	ldr	r2, [r5]
    838c:	e59d5008 	ldr	r5, [sp, #8]
    8390:	e58dc020 	str	ip, [sp, #32]
    8394:	e062c005 	rsb	ip, r2, r5
    8398:	e0823003 	add	r3, r2, r3
    839c:	e1a0c14c 	asr	ip, ip, #2
    83a0:	e1c3c0b2 	strh	ip, [r3, #2]
    83a4:	eaffff7b 	b	8198 <inflate_table+0x2a0>
    83a8:	e3e00000 	mvn	r0, #0
    83ac:	eaffff01 	b	7fb8 <inflate_table+0xc0>
    83b0:	e3a03013 	mov	r3, #19
    83b4:	e58da030 	str	sl, [sp, #48]	; 0x30
    83b8:	e58da034 	str	sl, [sp, #52]	; 0x34
    83bc:	e58d301c 	str	r3, [sp, #28]
    83c0:	eaffff4b 	b	80f4 <inflate_table+0x1fc>
    83c4:	e06a1009 	rsb	r1, sl, r9
    83c8:	eaffff72 	b	8198 <inflate_table+0x2a0>
    83cc:	e3a00001 	mov	r0, #1
    83d0:	eafffef8 	b	7fb8 <inflate_table+0xc0>
    83d4:	e59f5084 	ldr	r5, [pc, #132]	; 8460 <inflate_table+0x568>
    83d8:	e3a06c01 	mov	r6, #256	; 0x100
    83dc:	e2851040 	add	r1, r5, #64	; 0x40
    83e0:	e58d5030 	str	r5, [sp, #48]	; 0x30
    83e4:	e58d601c 	str	r6, [sp, #28]
    83e8:	e58d1034 	str	r1, [sp, #52]	; 0x34
    83ec:	eaffff40 	b	80f4 <inflate_table+0x1fc>
    83f0:	e3500000 	cmp	r0, #0
    83f4:	0a000005 	beq	8410 <inflate_table+0x518>
    83f8:	e59dc008 	ldr	ip, [sp, #8]
    83fc:	e3a01040 	mov	r1, #64	; 0x40
    8400:	e08c2100 	add	r2, ip, r0, lsl #2
    8404:	e5c26001 	strb	r6, [r2, #1]
    8408:	e1c230b2 	strh	r3, [r2, #2]
    840c:	e7cc1100 	strb	r1, [ip, r0, lsl #2]
    8410:	e59d1010 	ldr	r1, [sp, #16]
    8414:	e59d2014 	ldr	r2, [sp, #20]
    8418:	e5913000 	ldr	r3, [r1]
    841c:	e59d4098 	ldr	r4, [sp, #152]	; 0x98
    8420:	e0833102 	add	r3, r3, r2, lsl #2
    8424:	e5813000 	str	r3, [r1]
    8428:	e59d300c 	ldr	r3, [sp, #12]
    842c:	e3a00000 	mov	r0, #0
    8430:	e5843000 	str	r3, [r4]
    8434:	eafffedf 	b	7fb8 <inflate_table+0xc0>
    8438:	e28d7078 	add	r7, sp, #120	; 0x78
    843c:	e17763be 	ldrh	r6, [r7, #-62]!	; 0xffffffc2
    8440:	e3a09001 	mov	r9, #1
    8444:	eafffef1 	b	8010 <inflate_table+0x118>
    8448:	e3a09001 	mov	r9, #1
    844c:	e28d703a 	add	r7, sp, #58	; 0x3a
    8450:	eafffeee 	b	8010 <inflate_table+0x118>
    8454:	0000c974 	andeq	ip, r0, r4, ror r9
    8458:	00000353 	andeq	r0, r0, r3, asr r3
    845c:	0000024f 	andeq	r0, r0, pc, asr #4
    8460:	0000c6f2 	strdeq	ip, [r0], -r2

00008464 <inflate_fast>:
    8464:	e92d0ff0 	push	{r4, r5, r6, r7, r8, r9, sl, fp}
    8468:	e8900408 	ldm	r0, {r3, sl}
    846c:	e590501c 	ldr	r5, [r0, #28]
    8470:	e3a04001 	mov	r4, #1
    8474:	e5958054 	ldr	r8, [r5, #84]	; 0x54
    8478:	e5957058 	ldr	r7, [r5, #88]	; 0x58
    847c:	e1a08814 	lsl	r8, r4, r8
    8480:	e1a07714 	lsl	r7, r4, r7
    8484:	e590c010 	ldr	ip, [r0, #16]
    8488:	e5959028 	ldr	r9, [r5, #40]	; 0x28
    848c:	e24dd038 	sub	sp, sp, #56	; 0x38
    8490:	e590200c 	ldr	r2, [r0, #12]
    8494:	e24c6c01 	sub	r6, ip, #256	; 0x100
    8498:	e58d9014 	str	r9, [sp, #20]
    849c:	e5959030 	ldr	r9, [r5, #48]	; 0x30
    84a0:	e242b001 	sub	fp, r2, #1
    84a4:	e061100c 	rsb	r1, r1, ip
    84a8:	e2466001 	sub	r6, r6, #1
    84ac:	e58d9010 	str	r9, [sp, #16]
    84b0:	e08b6006 	add	r6, fp, r6
    84b4:	e08b1001 	add	r1, fp, r1
    84b8:	e58d6008 	str	r6, [sp, #8]
    84bc:	e58d1024 	str	r1, [sp, #36]	; 0x24
    84c0:	e59d6014 	ldr	r6, [sp, #20]
    84c4:	e59d1010 	ldr	r1, [sp, #16]
    84c8:	e2433001 	sub	r3, r3, #1
    84cc:	e0811006 	add	r1, r1, r6
    84d0:	e58d3000 	str	r3, [sp]
    84d4:	e595c02c 	ldr	ip, [r5, #44]	; 0x2c
    84d8:	e59d6000 	ldr	r6, [sp]
    84dc:	e58d1030 	str	r1, [sp, #48]	; 0x30
    84e0:	e5951034 	ldr	r1, [r5, #52]	; 0x34
    84e4:	e24aa005 	sub	sl, sl, #5
    84e8:	e086a00a 	add	sl, r6, sl
    84ec:	e58dc028 	str	ip, [sp, #40]	; 0x28
    84f0:	e2488001 	sub	r8, r8, #1
    84f4:	e2477001 	sub	r7, r7, #1
    84f8:	e2411001 	sub	r1, r1, #1
    84fc:	e5953038 	ldr	r3, [r5, #56]	; 0x38
    8500:	e595203c 	ldr	r2, [r5, #60]	; 0x3c
    8504:	e595c04c 	ldr	ip, [r5, #76]	; 0x4c
    8508:	e5959050 	ldr	r9, [r5, #80]	; 0x50
    850c:	e58da004 	str	sl, [sp, #4]
    8510:	e58d800c 	str	r8, [sp, #12]
    8514:	e58d7020 	str	r7, [sp, #32]
    8518:	e58d102c 	str	r1, [sp, #44]	; 0x2c
    851c:	e1a0a006 	mov	sl, r6
    8520:	e58d5018 	str	r5, [sp, #24]
    8524:	e58d001c 	str	r0, [sp, #28]
    8528:	e352000e 	cmp	r2, #14
    852c:	8a000007 	bhi	8550 <inflate_fast+0xec>
    8530:	e5da0002 	ldrb	r0, [sl, #2]
    8534:	e2821008 	add	r1, r2, #8
    8538:	e1a01110 	lsl	r1, r0, r1
    853c:	e5da0001 	ldrb	r0, [sl, #1]
    8540:	e28aa002 	add	sl, sl, #2
    8544:	e0811210 	add	r1, r1, r0, lsl r2
    8548:	e2822010 	add	r2, r2, #16
    854c:	e0833001 	add	r3, r3, r1
    8550:	e59d000c 	ldr	r0, [sp, #12]
    8554:	e0031000 	and	r1, r3, r0
    8558:	e08c0101 	add	r0, ip, r1, lsl #2
    855c:	e7dc1101 	ldrb	r1, [ip, r1, lsl #2]
    8560:	e5d05001 	ldrb	r5, [r0, #1]
    8564:	e3510000 	cmp	r1, #0
    8568:	e1a03533 	lsr	r3, r3, r5
    856c:	e0652002 	rsb	r2, r5, r2
    8570:	e1d000b2 	ldrh	r0, [r0, #2]
    8574:	1a00000e 	bne	85b4 <inflate_fast+0x150>
    8578:	ea000040 	b	8680 <inflate_fast+0x21c>
    857c:	e3110040 	tst	r1, #64	; 0x40
    8580:	1a000049 	bne	86ac <inflate_fast+0x248>
    8584:	e1a01114 	lsl	r1, r4, r1
    8588:	e2411001 	sub	r1, r1, #1
    858c:	e0031001 	and	r1, r3, r1
    8590:	e0810000 	add	r0, r1, r0
    8594:	e08c5100 	add	r5, ip, r0, lsl #2
    8598:	e7dc1100 	ldrb	r1, [ip, r0, lsl #2]
    859c:	e5d50001 	ldrb	r0, [r5, #1]
    85a0:	e3510000 	cmp	r1, #0
    85a4:	e1a03033 	lsr	r3, r3, r0
    85a8:	e0602002 	rsb	r2, r0, r2
    85ac:	e1d500b2 	ldrh	r0, [r5, #2]
    85b0:	0a000032 	beq	8680 <inflate_fast+0x21c>
    85b4:	e3110010 	tst	r1, #16
    85b8:	0affffef 	beq	857c <inflate_fast+0x118>
    85bc:	e211500f 	ands	r5, r1, #15
    85c0:	e1a01000 	mov	r1, r0
    85c4:	0a00000a 	beq	85f4 <inflate_fast+0x190>
    85c8:	e1550002 	cmp	r5, r2
    85cc:	85da1001 	ldrbhi	r1, [sl, #1]
    85d0:	828aa001 	addhi	sl, sl, #1
    85d4:	80833211 	addhi	r3, r3, r1, lsl r2
    85d8:	e1a01514 	lsl	r1, r4, r5
    85dc:	e2411001 	sub	r1, r1, #1
    85e0:	e0031001 	and	r1, r3, r1
    85e4:	e1a03533 	lsr	r3, r3, r5
    85e8:	82822008 	addhi	r2, r2, #8
    85ec:	e0652002 	rsb	r2, r5, r2
    85f0:	e0801001 	add	r1, r0, r1
    85f4:	e352000e 	cmp	r2, #14
    85f8:	9a000050 	bls	8740 <inflate_fast+0x2dc>
    85fc:	e59d6020 	ldr	r6, [sp, #32]
    8600:	e0035006 	and	r5, r3, r6
    8604:	e0890105 	add	r0, r9, r5, lsl #2
    8608:	e7d95105 	ldrb	r5, [r9, r5, lsl #2]
    860c:	e5d06001 	ldrb	r6, [r0, #1]
    8610:	e3150010 	tst	r5, #16
    8614:	e1a03633 	lsr	r3, r3, r6
    8618:	e0662002 	rsb	r2, r6, r2
    861c:	e1d000b2 	ldrh	r0, [r0, #2]
    8620:	0a00000c 	beq	8658 <inflate_fast+0x1f4>
    8624:	ea00004e 	b	8764 <inflate_fast+0x300>
    8628:	e1a05514 	lsl	r5, r4, r5
    862c:	e2455001 	sub	r5, r5, #1
    8630:	e0035005 	and	r5, r3, r5
    8634:	e0850000 	add	r0, r5, r0
    8638:	e0896100 	add	r6, r9, r0, lsl #2
    863c:	e7d95100 	ldrb	r5, [r9, r0, lsl #2]
    8640:	e5d60001 	ldrb	r0, [r6, #1]
    8644:	e3150010 	tst	r5, #16
    8648:	e1a03033 	lsr	r3, r3, r0
    864c:	e0602002 	rsb	r2, r0, r2
    8650:	e1d600b2 	ldrh	r0, [r6, #2]
    8654:	1a000042 	bne	8764 <inflate_fast+0x300>
    8658:	e3150040 	tst	r5, #64	; 0x40
    865c:	0afffff1 	beq	8628 <inflate_fast+0x1c4>
    8660:	e59d5018 	ldr	r5, [sp, #24]
    8664:	e59d001c 	ldr	r0, [sp, #28]
    8668:	e59fc3ac 	ldr	ip, [pc, #940]	; 8a1c <inflate_fast+0x5b8>
    866c:	e3a0101d 	mov	r1, #29
    8670:	e580c018 	str	ip, [r0, #24]
    8674:	e58da000 	str	sl, [sp]
    8678:	e5851000 	str	r1, [r5]
    867c:	ea000013 	b	86d0 <inflate_fast+0x26c>
    8680:	e5cb0001 	strb	r0, [fp, #1]
    8684:	e28bb001 	add	fp, fp, #1
    8688:	e59d0008 	ldr	r0, [sp, #8]
    868c:	e59d1004 	ldr	r1, [sp, #4]
    8690:	e15b0000 	cmp	fp, r0
    8694:	315a0001 	cmpcc	sl, r1
    8698:	3affffa2 	bcc	8528 <inflate_fast+0xc4>
    869c:	e58da000 	str	sl, [sp]
    86a0:	e59d5018 	ldr	r5, [sp, #24]
    86a4:	e59d001c 	ldr	r0, [sp, #28]
    86a8:	ea000008 	b	86d0 <inflate_fast+0x26c>
    86ac:	e3110020 	tst	r1, #32
    86b0:	e59d5018 	ldr	r5, [sp, #24]
    86b4:	e59d001c 	ldr	r0, [sp, #28]
    86b8:	059fc360 	ldreq	ip, [pc, #864]	; 8a20 <inflate_fast+0x5bc>
    86bc:	13a0100b 	movne	r1, #11
    86c0:	03a0101d 	moveq	r1, #29
    86c4:	0580c018 	streq	ip, [r0, #24]
    86c8:	e58da000 	str	sl, [sp]
    86cc:	e5851000 	str	r1, [r5]
    86d0:	e59d4000 	ldr	r4, [sp]
    86d4:	e1a011a2 	lsr	r1, r2, #3
    86d8:	e061c004 	rsb	ip, r1, r4
    86dc:	e59d4008 	ldr	r4, [sp, #8]
    86e0:	e0422181 	sub	r2, r2, r1, lsl #3
    86e4:	e15b0004 	cmp	fp, r4
    86e8:	e3e04000 	mvn	r4, #0
    86ec:	e1c33214 	bic	r3, r3, r4, lsl r2
    86f0:	e59d9004 	ldr	r9, [sp, #4]
    86f4:	e28b1001 	add	r1, fp, #1
    86f8:	e06c6009 	rsb	r6, ip, r9
    86fc:	e2866005 	add	r6, r6, #5
    8700:	e5806004 	str	r6, [r0, #4]
    8704:	259d9008 	ldrcs	r9, [sp, #8]
    8708:	359d6008 	ldrcc	r6, [sp, #8]
    870c:	e580100c 	str	r1, [r0, #12]
    8710:	306b1006 	rsbcc	r1, fp, r6
    8714:	206b1009 	rsbcs	r1, fp, r9
    8718:	e2811c01 	add	r1, r1, #256	; 0x100
    871c:	e28cc001 	add	ip, ip, #1
    8720:	e2811001 	add	r1, r1, #1
    8724:	e580c000 	str	ip, [r0]
    8728:	e5801010 	str	r1, [r0, #16]
    872c:	e5853038 	str	r3, [r5, #56]	; 0x38
    8730:	e585203c 	str	r2, [r5, #60]	; 0x3c
    8734:	e28dd038 	add	sp, sp, #56	; 0x38
    8738:	e8bd0ff0 	pop	{r4, r5, r6, r7, r8, r9, sl, fp}
    873c:	e12fff1e 	bx	lr
    8740:	e5da5002 	ldrb	r5, [sl, #2]
    8744:	e2820008 	add	r0, r2, #8
    8748:	e1a00015 	lsl	r0, r5, r0
    874c:	e5da5001 	ldrb	r5, [sl, #1]
    8750:	e28aa002 	add	sl, sl, #2
    8754:	e0800215 	add	r0, r0, r5, lsl r2
    8758:	e2822010 	add	r2, r2, #16
    875c:	e0833000 	add	r3, r3, r0
    8760:	eaffffa5 	b	85fc <inflate_fast+0x198>
    8764:	e205500f 	and	r5, r5, #15
    8768:	e1550002 	cmp	r5, r2
    876c:	9a000009 	bls	8798 <inflate_fast+0x334>
    8770:	e5da7001 	ldrb	r7, [sl, #1]
    8774:	e2826008 	add	r6, r2, #8
    8778:	e0833217 	add	r3, r3, r7, lsl r2
    877c:	e1550006 	cmp	r5, r6
    8780:	85da7002 	ldrbhi	r7, [sl, #2]
    8784:	928aa001 	addls	sl, sl, #1
    8788:	80833617 	addhi	r3, r3, r7, lsl r6
    878c:	91a02006 	movls	r2, r6
    8790:	82822010 	addhi	r2, r2, #16
    8794:	828aa002 	addhi	sl, sl, #2
    8798:	e1a08514 	lsl	r8, r4, r5
    879c:	e2488001 	sub	r8, r8, #1
    87a0:	e0038008 	and	r8, r3, r8
    87a4:	e0888000 	add	r8, r8, r0
    87a8:	e59d0024 	ldr	r0, [sp, #36]	; 0x24
    87ac:	e0652002 	rsb	r2, r5, r2
    87b0:	e060700b 	rsb	r7, r0, fp
    87b4:	e1580007 	cmp	r8, r7
    87b8:	e1a03533 	lsr	r3, r3, r5
    87bc:	9a000041 	bls	88c8 <inflate_fast+0x464>
    87c0:	e59d5028 	ldr	r5, [sp, #40]	; 0x28
    87c4:	e0677008 	rsb	r7, r7, r8
    87c8:	e1550007 	cmp	r5, r7
    87cc:	2a000004 	bcs	87e4 <inflate_fast+0x380>
    87d0:	e59d5018 	ldr	r5, [sp, #24]
    87d4:	e3a06d6f 	mov	r6, #7104	; 0x1bc0
    87d8:	e7950006 	ldr	r0, [r5, r6]
    87dc:	e3500000 	cmp	r0, #0
    87e0:	1a000086 	bne	8a00 <inflate_fast+0x59c>
    87e4:	e59d6010 	ldr	r6, [sp, #16]
    87e8:	e3560000 	cmp	r6, #0
    87ec:	1a00004e 	bne	892c <inflate_fast+0x4c8>
    87f0:	e59d5014 	ldr	r5, [sp, #20]
    87f4:	e59d602c 	ldr	r6, [sp, #44]	; 0x2c
    87f8:	e0670005 	rsb	r0, r7, r5
    87fc:	e0860000 	add	r0, r6, r0
    8800:	e1510007 	cmp	r1, r7
    8804:	e58d0000 	str	r0, [sp]
    8808:	9a00000d 	bls	8844 <inflate_fast+0x3e0>
    880c:	e0805007 	add	r5, r0, r7
    8810:	e1a06000 	mov	r6, r0
    8814:	e58da000 	str	sl, [sp]
    8818:	e0671001 	rsb	r1, r7, r1
    881c:	e1a0000b 	mov	r0, fp
    8820:	e1a0a005 	mov	sl, r5
    8824:	e5f65001 	ldrb	r5, [r6, #1]!
    8828:	e156000a 	cmp	r6, sl
    882c:	e5e05001 	strb	r5, [r0, #1]!
    8830:	1afffffb 	bne	8824 <inflate_fast+0x3c0>
    8834:	e59da000 	ldr	sl, [sp]
    8838:	e08bb007 	add	fp, fp, r7
    883c:	e068800b 	rsb	r8, r8, fp
    8840:	e58d8000 	str	r8, [sp]
    8844:	e59d5000 	ldr	r5, [sp]
    8848:	e3510002 	cmp	r1, #2
    884c:	858da034 	strhi	sl, [sp, #52]	; 0x34
    8850:	e1a0000b 	mov	r0, fp
    8854:	83a06000 	movhi	r6, #0
    8858:	81a0a005 	movhi	sl, r5
    885c:	9a00000e 	bls	889c <inflate_fast+0x438>
    8860:	e5d58001 	ldrb	r8, [r5, #1]
    8864:	e08a7006 	add	r7, sl, r6
    8868:	e5c08001 	strb	r8, [r0, #1]
    886c:	e5d58002 	ldrb	r8, [r5, #2]
    8870:	e2411003 	sub	r1, r1, #3
    8874:	e5c08002 	strb	r8, [r0, #2]
    8878:	e5d78003 	ldrb	r8, [r7, #3]
    887c:	e3510002 	cmp	r1, #2
    8880:	e08b7006 	add	r7, fp, r6
    8884:	e2800003 	add	r0, r0, #3
    8888:	e2855003 	add	r5, r5, #3
    888c:	e5c78003 	strb	r8, [r7, #3]
    8890:	e2866003 	add	r6, r6, #3
    8894:	8afffff1 	bhi	8860 <inflate_fast+0x3fc>
    8898:	e59da034 	ldr	sl, [sp, #52]	; 0x34
    889c:	e3510000 	cmp	r1, #0
    88a0:	01a0b000 	moveq	fp, r0
    88a4:	0affff77 	beq	8688 <inflate_fast+0x224>
    88a8:	e5d56001 	ldrb	r6, [r5, #1]
    88ac:	e3510002 	cmp	r1, #2
    88b0:	e5c06001 	strb	r6, [r0, #1]
    88b4:	05d51002 	ldrbeq	r1, [r5, #2]
    88b8:	1280b001 	addne	fp, r0, #1
    88bc:	0280b002 	addeq	fp, r0, #2
    88c0:	05c01002 	strbeq	r1, [r0, #2]
    88c4:	eaffff6f 	b	8688 <inflate_fast+0x224>
    88c8:	e1a0000b 	mov	r0, fp
    88cc:	e068500b 	rsb	r5, r8, fp
    88d0:	e5d56001 	ldrb	r6, [r5, #1]
    88d4:	e2411003 	sub	r1, r1, #3
    88d8:	e5c06001 	strb	r6, [r0, #1]
    88dc:	e5d56002 	ldrb	r6, [r5, #2]
    88e0:	e1a07005 	mov	r7, r5
    88e4:	e5c06002 	strb	r6, [r0, #2]
    88e8:	e5f58003 	ldrb	r8, [r5, #3]!
    88ec:	e1a06000 	mov	r6, r0
    88f0:	e3510002 	cmp	r1, #2
    88f4:	e2800003 	add	r0, r0, #3
    88f8:	e5c68003 	strb	r8, [r6, #3]
    88fc:	e1a0b000 	mov	fp, r0
    8900:	8afffff2 	bhi	88d0 <inflate_fast+0x46c>
    8904:	e3510000 	cmp	r1, #0
    8908:	0affff5e 	beq	8688 <inflate_fast+0x224>
    890c:	e5d70004 	ldrb	r0, [r7, #4]
    8910:	e3510002 	cmp	r1, #2
    8914:	e5c60004 	strb	r0, [r6, #4]
    8918:	05d71005 	ldrbeq	r1, [r7, #5]
    891c:	1286b004 	addne	fp, r6, #4
    8920:	0286b005 	addeq	fp, r6, #5
    8924:	05c61005 	strbeq	r1, [r6, #5]
    8928:	eaffff56 	b	8688 <inflate_fast+0x224>
    892c:	e59d5010 	ldr	r5, [sp, #16]
    8930:	e1550007 	cmp	r5, r7
    8934:	2a00001c 	bcs	89ac <inflate_fast+0x548>
    8938:	e59d0030 	ldr	r0, [sp, #48]	; 0x30
    893c:	e0656007 	rsb	r6, r5, r7
    8940:	e59d502c 	ldr	r5, [sp, #44]	; 0x2c
    8944:	e0677000 	rsb	r7, r7, r0
    8948:	e0857007 	add	r7, r5, r7
    894c:	e1510006 	cmp	r1, r6
    8950:	e58d6034 	str	r6, [sp, #52]	; 0x34
    8954:	e58d7000 	str	r7, [sp]
    8958:	9affffb9 	bls	8844 <inflate_fast+0x3e0>
    895c:	e0661001 	rsb	r1, r6, r1
    8960:	e1a0000b 	mov	r0, fp
    8964:	e0876006 	add	r6, r7, r6
    8968:	e5f75001 	ldrb	r5, [r7, #1]!
    896c:	e1570006 	cmp	r7, r6
    8970:	e5e05001 	strb	r5, [r0, #1]!
    8974:	1afffffb 	bne	8968 <inflate_fast+0x504>
    8978:	e59d6010 	ldr	r6, [sp, #16]
    897c:	e59d0034 	ldr	r0, [sp, #52]	; 0x34
    8980:	e1560001 	cmp	r6, r1
    8984:	e08bb000 	add	fp, fp, r0
    8988:	2a000019 	bcs	89f4 <inflate_fast+0x590>
    898c:	e59d002c 	ldr	r0, [sp, #44]	; 0x2c
    8990:	e0661001 	rsb	r1, r6, r1
    8994:	e08b6006 	add	r6, fp, r6
    8998:	e5f05001 	ldrb	r5, [r0, #1]!
    899c:	e5eb5001 	strb	r5, [fp, #1]!
    89a0:	e15b0006 	cmp	fp, r6
    89a4:	1afffffb 	bne	8998 <inflate_fast+0x534>
    89a8:	eaffffa3 	b	883c <inflate_fast+0x3d8>
    89ac:	e59d5010 	ldr	r5, [sp, #16]
    89b0:	e59d602c 	ldr	r6, [sp, #44]	; 0x2c
    89b4:	e0670005 	rsb	r0, r7, r5
    89b8:	e0860000 	add	r0, r6, r0
    89bc:	e1510007 	cmp	r1, r7
    89c0:	e58d0000 	str	r0, [sp]
    89c4:	9affff9e 	bls	8844 <inflate_fast+0x3e0>
    89c8:	e0805007 	add	r5, r0, r7
    89cc:	e1a06000 	mov	r6, r0
    89d0:	e58da000 	str	sl, [sp]
    89d4:	e0671001 	rsb	r1, r7, r1
    89d8:	e1a0000b 	mov	r0, fp
    89dc:	e1a0a005 	mov	sl, r5
    89e0:	e5f65001 	ldrb	r5, [r6, #1]!
    89e4:	e156000a 	cmp	r6, sl
    89e8:	e5e05001 	strb	r5, [r0, #1]!
    89ec:	1afffffb 	bne	89e0 <inflate_fast+0x57c>
    89f0:	eaffff8f 	b	8834 <inflate_fast+0x3d0>
    89f4:	e59d002c 	ldr	r0, [sp, #44]	; 0x2c
    89f8:	e58d0000 	str	r0, [sp]
    89fc:	eaffff90 	b	8844 <inflate_fast+0x3e0>
    8a00:	e59d001c 	ldr	r0, [sp, #28]
    8a04:	e59fc018 	ldr	ip, [pc, #24]	; 8a24 <inflate_fast+0x5c0>
    8a08:	e3a0101d 	mov	r1, #29
    8a0c:	e580c018 	str	ip, [r0, #24]
    8a10:	e58da000 	str	sl, [sp]
    8a14:	e5851000 	str	r1, [r5]
    8a18:	eaffff2c 	b	86d0 <inflate_fast+0x26c>
    8a1c:	0000cc2c 	andeq	ip, r0, ip, lsr #24
    8a20:	0000cc10 	andeq	ip, r0, r0, lsl ip
    8a24:	0000cc44 	andeq	ip, r0, r4, asr #24

Disassembly of section .rodata:

00008a28 <testdata>:
    8a28:	736f4d0a 	cmnvc	pc, #640	; 0x280
    8a2c:	666f2074 			; <UNDEFINED> instruction: 0x666f2074
    8a30:	65687420 	strbvs	r7, [r8, #-1056]!	; 0x420
    8a34:	72615020 	rsbvc	r5, r1, #32
    8a38:	6e656874 	mcrvs	8, 3, r6, cr5, cr4, {3}
    8a3c:	73276e6f 	teqvc	r7, #1776	; 0x6f0
    8a40:	706d6920 	rsbvc	r6, sp, r0, lsr #18
    8a44:	6e69736f 	cdpvs	3, 6, cr7, cr9, cr15, {3}
    8a48:	6f632067 	svcvs	0x00632067
    8a4c:	6e6d756c 	cdpvs	5, 6, cr7, cr13, cr12, {3}
    8a50:	72612073 	rsbvc	r2, r1, #115	; 0x73
    8a54:	74732065 	ldrbtvc	r2, [r3], #-101	; 0x65
    8a58:	206c6c69 	rsbcs	r6, ip, r9, ror #24
    8a5c:	6e617473 	mcrvs	4, 3, r7, cr1, cr3, {3}
    8a60:	676e6964 	strbvs	r6, [lr, -r4, ror #18]!
    8a64:	7562202c 	strbvc	r2, [r2, #-44]!	; 0x2c
    8a68:	68742074 	ldmdavs	r4!, {r2, r4, r5, r6, sp}^
    8a6c:	6f722065 	svcvs	0x00722065
    8a70:	690a666f 	stmdbvs	sl, {r0, r1, r2, r3, r5, r6, r9, sl, sp, lr}
    8a74:	6f672073 	svcvs	0x00672073
    8a78:	202e656e 	eorcs	r6, lr, lr, ror #10
    8a7c:	20744920 	rsbscs	r4, r4, r0, lsr #18
    8a80:	20736177 	rsbscs	r6, r3, r7, ror r1
    8a84:	65702061 	ldrbvs	r2, [r0, #-97]!	; 0x61
    8a88:	63656672 	cmnvs	r5, #119537664	; 0x7200000
    8a8c:	75622074 	strbvc	r2, [r2, #-116]!	; 0x74
    8a90:	69646c69 	stmdbvs	r4!, {r0, r3, r5, r6, sl, fp, sp, lr}^
    8a94:	7420676e 	strtvc	r6, [r0], #-1902	; 0x76e
    8a98:	68206f77 	stmdavs	r0!, {r0, r1, r2, r4, r5, r6, r8, r9, sl, fp, sp, lr}
    8a9c:	72646e75 	rsbvc	r6, r4, #1872	; 0x750
    8aa0:	61206465 	teqvs	r0, r5, ror #8
    8aa4:	6620646e 	strtvs	r6, [r0], -lr, ror #8
    8aa8:	79746669 	ldmdbvc	r4!, {r0, r3, r5, r6, r9, sl, sp, lr}^
    8aac:	61657920 	cmnvs	r5, r0, lsr #18
    8ab0:	61207372 	teqvs	r0, r2, ror r3
    8ab4:	202c6f67 	eorcs	r6, ip, r7, ror #30
    8ab8:	6e656877 	mcrvs	8, 3, r6, cr5, cr7, {3}
    8abc:	7320610a 	teqvc	r0, #-2147483646	; 0x80000002
    8ac0:	6c6c6568 	cfstr64vs	mvdx6, [ip], #-416	; 0xfffffe60
    8ac4:	6f726420 	svcvs	0x00726420
    8ac8:	64657070 	strbtvs	r7, [r5], #-112	; 0x70
    8acc:	746e6920 	strbtvc	r6, [lr], #-2336	; 0x920
    8ad0:	6874206f 	ldmdavs	r4!, {r0, r1, r2, r3, r5, r6, sp}^
    8ad4:	65562065 	ldrbvs	r2, [r6, #-101]	; 0x65
    8ad8:	6974656e 	ldmdbvs	r4!, {r1, r2, r3, r5, r6, r8, sl, sp, lr}^
    8adc:	6d206e61 	stcvs	14, cr6, [r0, #-388]!	; 0xfffffe7c
    8ae0:	7a616761 	bvc	186286c <complen+0x1850d74>
    8ae4:	20656e69 	rsbcs	r6, r5, r9, ror #28
    8ae8:	726f7473 	rsbvc	r7, pc, #1929379840	; 0x73000000
    8aec:	68206465 	stmdavs	r0!, {r0, r2, r5, r6, sl, sp, lr}
    8af0:	2c657265 	sfmcs	f7, 2, [r5], #-404	; 0xfffffe6c
    8af4:	646e6120 	strbtvs	r6, [lr], #-288	; 0x120
    8af8:	65687420 	strbvs	r7, [r8, #-1056]!	; 0x420
    8afc:	70786520 	rsbsvc	r6, r8, r0, lsr #10
    8b00:	69736f6c 	ldmdbvs	r3!, {r2, r3, r5, r6, r8, r9, sl, fp, sp, lr}^
    8b04:	770a6e6f 	strvc	r6, [sl, -pc, ror #28]
    8b08:	68636968 	stmdavs	r3!, {r3, r5, r6, r8, fp, sp, lr}^
    8b0c:	6c6f6620 	stclvs	6, cr6, [pc], #-128	; 8a94 <testdata+0x6c>
    8b10:	65776f6c 	ldrbvs	r6, [r7, #-3948]!	; 0xf6c
    8b14:	72772064 	rsbsvc	r2, r7, #100	; 0x64
    8b18:	656b6365 	strbvs	r6, [fp, #-869]!	; 0x365
    8b1c:	6e612064 	cdpvs	0, 6, cr2, cr1, cr4, {3}
    8b20:	6e752064 	cdpvs	0, 7, cr2, cr5, cr4, {3}
    8b24:	666f6f72 	uqsub16vs	r6, pc, r2	; <UNPREDICTABLE>
    8b28:	69206465 	stmdbvs	r0!, {r0, r2, r5, r6, sl, sp, lr}
    8b2c:	20202e74 	eorcs	r2, r0, r4, ror lr
    8b30:	65722049 	ldrbvs	r2, [r2, #-73]!	; 0x49
    8b34:	626d656d 	rsbvs	r6, sp, #457179136	; 0x1b400000
    8b38:	62207265 	eorvs	r7, r0, #1342177286	; 0x50000006
    8b3c:	6c207475 	cfstrsvs	mvf7, [r0], #-468	; 0xfffffe2c
    8b40:	6c747469 	cfldrdvs	mvd7, [r4], #-420	; 0xfffffe5c
    8b44:	62612065 	rsbvs	r2, r1, #101	; 0x65
    8b48:	2074756f 	rsbscs	r7, r4, pc, ror #10
    8b4c:	0a656874 	beq	1962d24 <complen+0x195122c>
    8b50:	74726150 	ldrbtvc	r6, [r2], #-336	; 0x150
    8b54:	6f6e6568 	svcvs	0x006e6568
    8b58:	61202c6e 	teqvs	r0, lr, ror #24
    8b5c:	4920646e 	stmdbmi	r0!, {r1, r2, r3, r5, r6, sl, sp, lr}
    8b60:	76616820 	strbtvc	r6, [r1], -r0, lsr #16
    8b64:	75702065 	ldrbvc	r2, [r0, #-101]!	; 0x65
    8b68:	6e692074 	mcrvs	0, 3, r2, cr9, cr4, {3}
    8b6c:	656e6f20 	strbvs	r6, [lr, #-3872]!	; 0xf20
    8b70:	20726f20 	rsbscs	r6, r2, r0, lsr #30
    8b74:	206f7774 	rsbcs	r7, pc, r4, ror r7	; <UNPREDICTABLE>
    8b78:	74636166 	strbtvc	r6, [r3], #-358	; 0x166
    8b7c:	6e612073 	mcrvs	0, 3, r2, cr1, cr3, {3}
    8b80:	69662064 	stmdbvs	r6!, {r2, r5, r6, sp}^
    8b84:	65727567 	ldrbvs	r7, [r2, #-1383]!	; 0x567
    8b88:	6f662073 	svcvs	0x00662073
    8b8c:	68742072 	ldmdavs	r4!, {r1, r4, r5, r6, sp}^
    8b90:	73752065 	cmnvc	r5, #101	; 0x65
    8b94:	666f2065 	strbtvs	r2, [pc], -r5, rrx
    8b98:	68746f0a 	ldmdavs	r4!, {r1, r3, r8, r9, sl, fp, sp, lr}^
    8b9c:	70207265 	eorvc	r7, r0, r5, ror #4
    8ba0:	6c706f65 	ldclvs	15, cr6, [r0], #-404	; 0xfffffe6c
    8ba4:	69772065 	ldmdbvs	r7!, {r0, r2, r5, r6, sp}^
    8ba8:	73206874 	teqvc	r0, #7602176	; 0x740000
    8bac:	74726f68 	ldrbtvc	r6, [r2], #-3944	; 0xf68
    8bb0:	6d656d20 	stclvs	13, cr6, [r5, #-128]!	; 0xffffff80
    8bb4:	6569726f 	strbvs	r7, [r9, #-623]!	; 0x26f
    8bb8:	20202e73 	eorcs	r2, r0, r3, ror lr
    8bbc:	20746f47 	rsbscs	r6, r4, r7, asr #30
    8bc0:	6d656874 	stclvs	8, cr6, [r5, #-464]!	; 0xfffffe30
    8bc4:	6f726620 	svcvs	0x00726620
    8bc8:	6874206d 	ldmdavs	r4!, {r0, r2, r3, r5, r6, sp}^
    8bcc:	75672065 	strbvc	r2, [r7, #-101]!	; 0x65
    8bd0:	2d656469 	cfstrdcs	mvd6, [r5, #-420]!	; 0xfffffe5c
    8bd4:	6b6f6f62 	blvs	1be4964 <complen+0x1bd2e6c>
    8bd8:	410a0a2e 	tstmi	sl, lr, lsr #20
    8bdc:	65772073 	ldrbvs	r2, [r7, #-115]!	; 0x73
    8be0:	6e617720 	cdpvs	7, 6, cr7, cr1, cr0, {1}
    8be4:	65726564 	ldrbvs	r6, [r2, #-1380]!	; 0x564
    8be8:	68742064 	ldmdavs	r4!, {r2, r5, r6, sp}^
    8bec:	6867756f 	stmdavs	r7!, {r0, r1, r2, r3, r5, r6, r8, sl, ip, sp, lr}^
    8bf0:	6c756674 	ldclvs	6, cr6, [r5], #-464	; 0xfffffe30
    8bf4:	6420796c 	strtvs	r7, [r0], #-2412	; 0x96c
    8bf8:	206e776f 	rsbcs	r7, lr, pc, ror #14
    8bfc:	20656874 	rsbcs	r6, r5, r4, ror r8
    8c00:	6272616d 	rsbsvs	r6, r2, #1073741851	; 0x4000001b
    8c04:	702d656c 	eorvc	r6, sp, ip, ror #10
    8c08:	64657661 	strbtvs	r7, [r5], #-1633	; 0x661
    8c0c:	6e656c20 	cdpvs	12, 6, cr6, cr5, cr0, {1}
    8c10:	20687467 	rsbcs	r7, r8, r7, ror #8
    8c14:	7420666f 	strtvc	r6, [r0], #-1647	; 0x66f
    8c18:	20736968 	rsbscs	r6, r3, r8, ror #18
    8c1c:	74617473 	strbtvc	r7, [r1], #-1139	; 0x473
    8c20:	0a796c65 	beq	1e63dbc <complen+0x1e522c4>
    8c24:	706d6574 	rsbvc	r6, sp, r4, ror r5
    8c28:	202c656c 	eorcs	r6, ip, ip, ror #10
    8c2c:	20656874 	rsbcs	r6, r5, r4, ror r8
    8c30:	6e656373 	mcrvs	3, 3, r6, cr5, cr3, {3}
    8c34:	62612065 	rsbvs	r2, r1, #101	; 0x65
    8c38:	2074756f 	rsbscs	r7, r4, pc, ror #10
    8c3c:	77207375 			; <UNDEFINED> instruction: 0x77207375
    8c40:	73207361 	teqvc	r0, #-2080374783	; 0x84000001
    8c44:	6e617274 	mcrvs	2, 3, r7, cr1, cr4, {3}
    8c48:	796c6567 	stmdbvc	ip!, {r0, r1, r2, r5, r6, r8, sl, sp, lr}^
    8c4c:	706d6920 	rsbvc	r6, sp, r0, lsr #18
    8c50:	73736572 	cmnvc	r3, #478150656	; 0x1c800000
    8c54:	2e657669 	cdpcs	6, 6, cr7, cr5, cr9, {3}
    8c58:	65482020 	strbvs	r2, [r8, #-32]
    8c5c:	61206572 	teqvs	r0, r2, ror r5
    8c60:	7420646e 	strtvc	r6, [r0], #-1134	; 0x46e
    8c64:	65726568 	ldrbvs	r6, [r2, #-1384]!	; 0x568
    8c68:	6e69202c 	cdpvs	0, 6, cr2, cr9, cr12, {1}
    8c6c:	76616c0a 	strbtvc	r6, [r1], -sl, lsl #24
    8c70:	20687369 	rsbcs	r7, r8, r9, ror #6
    8c74:	666f7270 			; <UNDEFINED> instruction: 0x666f7270
    8c78:	6f697375 	svcvs	0x00697375
    8c7c:	77202c6e 	strvc	r2, [r0, -lr, ror #24]!
    8c80:	20657265 	rsbcs	r7, r5, r5, ror #4
    8c84:	61656c67 	cmnvs	r5, r7, ror #24
    8c88:	676e696d 	strbvs	r6, [lr, -sp, ror #18]!
    8c8c:	69687720 	stmdbvs	r8!, {r5, r8, r9, sl, ip, sp, lr}^
    8c90:	73206574 	teqvc	r0, #486539264	; 0x1d000000
    8c94:	75746174 	ldrbvc	r6, [r4, #-372]!	; 0x174
    8c98:	6f207365 	svcvs	0x00207365
    8c9c:	656d2066 	strbvs	r2, [sp, #-102]!	; 0x66
    8ca0:	6e61206e 	cdpvs	0, 6, cr2, cr1, cr14, {3}
    8ca4:	6f772064 	svcvs	0x00772064
    8ca8:	2c6e656d 	cfstr64cs	mvdx6, [lr], #-436	; 0xfffffe4c
    8cac:	6f727020 	svcvs	0x00727020
    8cb0:	64657070 	strbtvs	r7, [r5], #-112	; 0x70
    8cb4:	6167610a 	cmnvs	r7, sl, lsl #2
    8cb8:	74736e69 	ldrbtvc	r6, [r3], #-3689	; 0xe69
    8cbc:	6f6c6220 	svcvs	0x006c6220
    8cc0:	20736b63 	rsbscs	r6, r3, r3, ror #22
    8cc4:	6d20666f 	stcvs	6, cr6, [r0, #-444]!	; 0xfffffe44
    8cc8:	6c627261 	sfmvs	f7, 2, [r2], #-388	; 0xfffffe7c
    8ccc:	73202c65 	teqvc	r0, #25856	; 0x6500
    8cd0:	20656d6f 	rsbcs	r6, r5, pc, ror #26
    8cd4:	7420666f 	strtvc	r6, [r0], #-1647	; 0x66f
    8cd8:	206d6568 	rsbcs	r6, sp, r8, ror #10
    8cdc:	6c6d7261 	sfmvs	f7, 2, [sp], #-388	; 0xfffffe7c
    8ce0:	2c737365 	ldclcs	3, cr7, [r3], #-404	; 0xfffffe6c
    8ce4:	6d6f7320 	stclvs	3, cr7, [pc, #-128]!	; 8c6c <testdata+0x244>
    8ce8:	69772065 	ldmdbvs	r7!, {r0, r2, r5, r6, sp}^
    8cec:	756f6874 	strbvc	r6, [pc, #-2164]!	; 8480 <inflate_fast+0x1c>
    8cf0:	656c2074 	strbvs	r2, [ip, #-116]!	; 0x74
    8cf4:	202c7367 	eorcs	r7, ip, r7, ror #6
    8cf8:	6568746f 	strbvs	r7, [r8, #-1135]!	; 0x46f
    8cfc:	680a7372 	stmdavs	sl, {r1, r4, r5, r6, r8, r9, ip, sp, lr}
    8d00:	6c646165 	stfvse	f6, [r4], #-404	; 0xfffffe6c
    8d04:	2d737365 	ldclcs	3, cr7, [r3, #-404]!	; 0xfffffe6c
    8d08:	7475622d 	ldrbtvc	r6, [r5], #-557	; 0x22d
    8d0c:	6c6c6120 	stfvse	f6, [ip], #-128	; 0xffffff80
    8d10:	6f6f6c20 	svcvs	0x006f6c20
    8d14:	676e696b 	strbvs	r6, [lr, -fp, ror #18]!
    8d18:	756f6d20 	strbvc	r6, [pc, #-3360]!	; 8000 <inflate_table+0x108>
    8d1c:	75666e72 	strbvc	r6, [r6, #-3698]!	; 0xe72
    8d20:	6e69206c 	cdpvs	0, 6, cr2, cr9, cr12, {3}
    8d24:	65687420 	strbvs	r7, [r8, #-1056]!	; 0x420
    8d28:	6f6f6d20 	svcvs	0x006f6d20
    8d2c:	67696c6e 	strbvs	r6, [r9, -lr, ror #24]!
    8d30:	202c7468 	eorcs	r7, ip, r8, ror #8
    8d34:	20646e61 	rsbcs	r6, r4, r1, ror #28
    8d38:	72617473 	rsbvc	r7, r1, #1929379840	; 0x73000000
    8d3c:	6e696c74 	mcrvs	12, 3, r6, cr9, cr4, {3}
    8d40:	0a796c67 	beq	1e63ee4 <complen+0x1e523ec>
    8d44:	616d7568 	cmnvs	sp, r8, ror #10
    8d48:	2020216e 	eorcs	r2, r0, lr, ror #2
    8d4c:	79656854 	stmdbvc	r5!, {r2, r4, r6, fp, sp, lr}^
    8d50:	736f7220 	cmnvc	pc, #2
    8d54:	70752065 	rsbsvc	r2, r5, r5, rrx
    8d58:	646e6120 	strbtvs	r6, [lr], #-288	; 0x120
    8d5c:	6e6f6320 	cdpvs	3, 6, cr6, cr15, cr0, {1}
    8d60:	6e6f7266 	cdpvs	2, 6, cr7, cr15, cr6, {3}
    8d64:	20646574 	rsbcs	r6, r4, r4, ror r5
    8d68:	20656874 	rsbcs	r6, r5, r4, ror r8
    8d6c:	6e64696d 	cdpvs	9, 6, cr6, cr4, cr13, {3}
    8d70:	74686769 	strbtvc	r6, [r8], #-1897	; 0x769
    8d74:	746e6920 	strbtvc	r6, [lr], #-2336	; 0x920
    8d78:	65647572 	strbvs	r7, [r4, #-1394]!	; 0x572
    8d7c:	6e6f2072 	mcrvs	0, 3, r2, cr15, cr2, {3}
    8d80:	65766520 	ldrbvs	r6, [r6, #-1312]!	; 0x520
    8d84:	73207972 	teqvc	r0, #1867776	; 0x1c8000
    8d88:	0a656469 	beq	1961f34 <complen+0x195043c>
    8d8c:	68742d2d 	ldmdavs	r4!, {r0, r2, r3, r5, r8, sl, fp, sp}^
    8d90:	73207965 	teqvc	r0, #1654784	; 0x194000
    8d94:	65726174 	ldrbvs	r6, [r2, #-372]!	; 0x174
    8d98:	74612064 	strbtvc	r2, [r1], #-100	; 0x64
    8d9c:	6d696820 	stclvs	8, cr6, [r9, #-128]!	; 0xffffff80
    8da0:	74697720 	strbtvc	r7, [r9], #-1824	; 0x720
    8da4:	74732068 	ldrbtvc	r2, [r3], #-104	; 0x68
    8da8:	20796e6f 	rsbscs	r6, r9, pc, ror #28
    8dac:	73657965 	cmnvc	r5, #1654784	; 0x194000
    8db0:	6f726620 	svcvs	0x00726620
    8db4:	6e75206d 	cdpvs	0, 7, cr2, cr5, cr13, {3}
    8db8:	6b6f6f6c 	blvs	1be4b70 <complen+0x1bd3078>
    8dbc:	662d6465 	strtvs	r6, [sp], -r5, ror #8
    8dc0:	6e20726f 	cdpvs	2, 2, cr7, cr0, cr15, {3}
    8dc4:	736b6f6f 	cmnvc	fp, #444	; 0x1bc
    8dc8:	646e6120 	strbtvs	r6, [lr], #-288	; 0x120
    8dcc:	63657220 	cmnvs	r5, #2
    8dd0:	65737365 	ldrbvs	r7, [r3, #-869]!	; 0x365
    8dd4:	740a3b73 	strvc	r3, [sl], #-2931	; 0xb73
    8dd8:	20796568 	rsbscs	r6, r9, r8, ror #10
    8ddc:	72656570 	rsbvc	r6, r5, #469762048	; 0x1c000000
    8de0:	61206465 	teqvs	r0, r5, ror #8
    8de4:	69682074 	stmdbvs	r8!, {r2, r4, r5, r6, sp}^
    8de8:	766f206d 	strbtvc	r2, [pc], -sp, rrx
    8dec:	66207265 	strtvs	r7, [r0], -r5, ror #4
    8df0:	6d676172 	stfvse	f6, [r7, #-456]!	; 0xfffffe38
    8df4:	61746e65 	cmnvs	r4, r5, ror #28
    8df8:	68207972 	stmdavs	r0!, {r1, r4, r5, r6, r8, fp, ip, sp, lr}
    8dfc:	73706165 	cmnvc	r0, #1073741849	; 0x40000019
    8e00:	72616620 	rsbvc	r6, r1, #33554432	; 0x2000000
    8e04:	776f6420 	strbvc	r6, [pc, -r0, lsr #8]!
    8e08:	6874206e 	ldmdavs	r4!, {r1, r2, r3, r5, r6, sp}^
    8e0c:	65642065 	strbvs	r2, [r4, #-101]!	; 0x65
    8e10:	616c6f73 	smcvs	50931	; 0xc6f3
    8e14:	630a6574 	movwvs	r6, #42356	; 0xa574
    8e18:	6972726f 	ldmdbvs	r2!, {r0, r1, r2, r3, r5, r6, r9, ip, sp, lr}^
    8e1c:	73726f64 	cmnvc	r2, #400	; 0x190
    8e20:	6874203b 	ldmdavs	r4!, {r0, r1, r3, r4, r5, sp}^
    8e24:	62207965 	eorvs	r7, r0, #1654784	; 0x194000
    8e28:	65727261 	ldrbvs	r7, [r2, #-609]!	; 0x261
    8e2c:	69682064 	stmdbvs	r8!, {r2, r5, r6, sp}^
    8e30:	61772073 	cmnvs	r7, r3, ror r0
    8e34:	6e692079 	mcrvs	0, 3, r2, cr9, cr9, {3}
    8e38:	65687420 	strbvs	r7, [r8, #-1056]!	; 0x420
    8e3c:	64696d20 	strbtvs	r6, [r9], #-3360	; 0xd20
    8e40:	6f207473 	svcvs	0x00207473
    8e44:	68742066 	ldmdavs	r4!, {r1, r2, r5, r6, sp}^
    8e48:	72622065 	rsbvc	r2, r2, #101	; 0x65
    8e4c:	2064616f 	rsbcs	r6, r4, pc, ror #2
    8e50:	75726f66 	ldrbvc	r6, [r2, #-3942]!	; 0xf66
    8e54:	61202c6d 	teqvs	r0, sp, ror #24
    8e58:	730a646e 	movwvc	r6, #42094	; 0xa46e
    8e5c:	6d656c6f 	stclvs	12, cr6, [r5, #-444]!	; 0xfffffe44
    8e60:	20796c6e 	rsbscs	r6, r9, lr, ror #24
    8e64:	6e696f70 	mcrvs	15, 3, r6, cr9, cr0, {3}
    8e68:	20646574 	rsbcs	r6, r4, r4, ror r5
    8e6c:	68746977 	ldmdavs	r4!, {r0, r1, r2, r4, r5, r6, r8, fp, sp, lr}^
    8e70:	6e616820 	cdpvs	8, 6, cr6, cr1, cr0, {1}
    8e74:	73656c64 	cmnvc	r5, #25600	; 0x6400
    8e78:	72612073 	rsbvc	r2, r1, #115	; 0x73
    8e7c:	7420736d 	strtvc	r7, [r0], #-877	; 0x36d
    8e80:	77206568 	strvc	r6, [r0, -r8, ror #10]!
    8e84:	66207961 	strtvs	r7, [r0], -r1, ror #18
    8e88:	206d6f72 	rsbcs	r6, sp, r2, ror pc
    8e8c:	20656874 	rsbcs	r6, r5, r4, ror r8
    8e90:	72636173 	rsbvc	r6, r3, #-1073741796	; 0xc000001c
    8e94:	66206465 	strtvs	r6, [r0], -r5, ror #8
    8e98:	3b656e61 	blcc	1964824 <complen+0x1952d2c>
    8e9c:	646e6120 	strbtvs	r6, [lr], #-288	; 0x120
    8ea0:	7268740a 	rsbvc	r7, r8, #167772160	; 0xa000000
    8ea4:	6867756f 	stmdavs	r7!, {r0, r1, r2, r3, r5, r6, r8, sl, ip, sp, lr}^
    8ea8:	65687420 	strbvs	r7, [r8, #-1056]!	; 0x420
    8eac:	6f6f7220 	svcvs	0x006f7220
    8eb0:	73656c66 	cmnvc	r5, #26112	; 0x6600
    8eb4:	65742073 	ldrbvs	r2, [r4, #-115]!	; 0x73
    8eb8:	656c706d 	strbvs	r7, [ip, #-109]!	; 0x6d
    8ebc:	65687420 	strbvs	r7, [r8, #-1056]!	; 0x420
    8ec0:	6f6f6d20 	svcvs	0x006f6d20
    8ec4:	6f6c206e 	svcvs	0x006c206e
    8ec8:	64656b6f 	strbtvs	r6, [r5], #-2927	; 0xb6f
    8ecc:	776f6420 	strbvc	r6, [pc, -r0, lsr #8]!
    8ed0:	61202c6e 	teqvs	r0, lr, ror #24
    8ed4:	6220646e 	eorvs	r6, r0, #1845493760	; 0x6e000000
    8ed8:	65646e61 	strbvs	r6, [r4, #-3681]!	; 0xe61
    8edc:	68742064 	ldmdavs	r4!, {r2, r5, r6, sp}^
    8ee0:	6c662065 	stclvs	0, cr2, [r6], #-404	; 0xfffffe6c
    8ee4:	0a726f6f 	beq	1ca4ca8 <complen+0x1c931b0>
    8ee8:	20646e61 	rsbcs	r6, r4, r1, ror #28
    8eec:	6b726164 	blvs	1ca1484 <complen+0x1c8f98c>
    8ef0:	64656e65 	strbtvs	r6, [r5], #-3685	; 0xe65
    8ef4:	65687420 	strbvs	r7, [r8, #-1056]!	; 0x420
    8ef8:	61637320 	cmnvs	r3, r0, lsr #6
    8efc:	72657474 	rsbvc	r7, r5, #1946157056	; 0x74000000
    8f00:	66206465 	strtvs	r6, [r0], -r5, ror #8
    8f04:	6d676172 	stfvse	f6, [r7, #-456]!	; 0xfffffe38
    8f08:	73746e65 	cmnvc	r4, #1616	; 0x650
    8f0c:	646e6120 	strbtvs	r6, [lr], #-288	; 0x120
    8f10:	6f726220 	svcvs	0x00726220
    8f14:	206e656b 	rsbcs	r6, lr, fp, ror #10
    8f18:	74617473 	strbtvc	r7, [r1], #-1139	; 0x473
    8f1c:	20736575 	rsbscs	r6, r3, r5, ror r5
    8f20:	68746977 	ldmdavs	r4!, {r0, r1, r2, r4, r5, r6, r8, fp, sp, lr}^
    8f24:	65687420 	strbvs	r7, [r8, #-1056]!	; 0x420
    8f28:	616c7320 	cmnvs	ip, r0, lsr #6
    8f2c:	6e69746e 	cdpvs	4, 6, cr7, cr9, cr14, {3}
    8f30:	68730a67 	ldmdavs	r3!, {r0, r1, r2, r5, r6, r9, fp}^
    8f34:	776f6461 	strbvc	r6, [pc, -r1, ror #8]!
    8f38:	666f2073 			; <UNDEFINED> instruction: 0x666f2073
    8f3c:	65687420 	strbvs	r7, [r8, #-1056]!	; 0x420
    8f40:	6c6f6320 	stclvs	3, cr6, [pc], #-128	; 8ec8 <testdata+0x4a0>
    8f44:	736e6d75 	cmnvc	lr, #7488	; 0x1d40
    8f48:	570a0a2e 	strpl	r0, [sl, -lr, lsr #20]
    8f4c:	20746168 	rsbscs	r6, r4, r8, ror #2
    8f50:	6f772061 	svcvs	0x00772061
    8f54:	20646c72 	rsbcs	r6, r4, r2, ror ip
    8f58:	7220666f 	eorvc	r6, r0, #116391936	; 0x6f00000
    8f5c:	656e6975 	strbvs	r6, [lr, #-2421]!	; 0x975
    8f60:	63732064 	cmnvs	r3, #100	; 0x64
    8f64:	74706c75 	ldrbtvc	r6, [r0], #-3189	; 0xc75
    8f68:	20657275 	rsbcs	r7, r5, r5, ror r2
    8f6c:	20736177 	rsbscs	r6, r3, r7, ror r1
    8f70:	756f6261 	strbvc	r6, [pc, #-609]!	; 8d17 <testdata+0x2ef>
    8f74:	73752074 	cmnvc	r5, #116	; 0x74
    8f78:	53202021 	teqpl	r0, #33	; 0x21
    8f7c:	75207465 	strvc	r7, [r0, #-1125]!	; 0x465
    8f80:	6e692070 	mcrvs	0, 3, r2, cr9, cr0, {3}
    8f84:	776f7220 	strbvc	r7, [pc, -r0, lsr #4]!
    8f88:	732d2d73 	teqvc	sp, #7360	; 0x1cc0
    8f8c:	6b636174 	blvs	18e1564 <complen+0x18cfa6c>
    8f90:	750a6465 	strvc	r6, [sl, #-1125]	; 0x465
    8f94:	6e692070 	mcrvs	0, 3, r2, cr9, cr0, {3}
    8f98:	6c697020 	stclvs	0, cr7, [r9], #-128	; 0xffffff80
    8f9c:	2d2d7365 	stccs	3, cr7, [sp, #-404]!	; 0xfffffe6c
    8fa0:	74616373 	strbtvc	r6, [r1], #-883	; 0x373
    8fa4:	65726574 	ldrbvs	r6, [r2, #-1396]!	; 0x574
    8fa8:	72622064 	rsbvc	r2, r2, #100	; 0x64
    8fac:	6364616f 	cmnvs	r4, #-1073741797	; 0xc000001b
    8fb0:	20747361 	rsbscs	r7, r4, r1, ror #6
    8fb4:	7265766f 	rsbvc	r7, r5, #116391936	; 0x6f00000
    8fb8:	65687420 	strbvs	r7, [r8, #-1056]!	; 0x420
    8fbc:	64697720 	strbtvs	r7, [r9], #-1824	; 0x720
    8fc0:	72612065 	rsbvc	r2, r1, #101	; 0x65
    8fc4:	6f206165 	svcvs	0x00206165
    8fc8:	68742066 	ldmdavs	r4!, {r1, r2, r5, r6, sp}^
    8fcc:	63412065 	movtvs	r2, #4197	; 0x1065
    8fd0:	6f706f72 	svcvs	0x00706f72
    8fd4:	0a73696c 	beq	1ce358c <complen+0x1cd1a94>
    8fd8:	65772d2d 	ldrbvs	r2, [r7, #-3373]!	; 0xd2d
    8fdc:	68206572 	stmdavs	r0!, {r1, r4, r5, r6, r8, sl, sp, lr}
    8fe0:	72646e75 	rsbvc	r6, r4, #1872	; 0x750
    8fe4:	20736465 	rsbscs	r6, r3, r5, ror #8
    8fe8:	6320666f 	teqvs	r0, #116391936	; 0x6f00000
    8fec:	70706972 	rsbsvc	r6, r0, r2, ror r9
    8ff0:	2064656c 	rsbcs	r6, r4, ip, ror #10
    8ff4:	74617473 	strbtvc	r7, [r1], #-1139	; 0x473
    8ff8:	20736575 	rsbscs	r6, r3, r5, ror r5
    8ffc:	6120666f 	teqvs	r0, pc, ror #12
    9000:	73206c6c 	teqvc	r0, #27648	; 0x6c00
    9004:	73657a69 	cmnvc	r5, #430080	; 0x69000
    9008:	646e6120 	strbtvs	r6, [lr], #-288	; 0x120
    900c:	20666f20 	rsbcs	r6, r6, r0, lsr #30
    9010:	20656874 	rsbcs	r6, r5, r4, ror r8
    9014:	74736f6d 	ldrbtvc	r6, [r3], #-3949	; 0xf6d
    9018:	71786520 	cmnvc	r8, r0, lsr #10
    901c:	69736975 	ldmdbvs	r3!, {r0, r2, r4, r5, r6, r8, fp, sp, lr}^
    9020:	770a6574 	smlsdxvc	sl, r4, r5, r6
    9024:	6d6b726f 	sfmvs	f7, 2, [fp, #-444]!	; 0xfffffe44
    9028:	68736e61 	ldmdavs	r3!, {r0, r5, r6, r9, sl, fp, sp, lr}^
    902c:	203b7069 	eorscs	r7, fp, r9, rrx
    9030:	20646e61 	rsbcs	r6, r4, r1, ror #28
    9034:	74736176 	ldrbtvc	r6, [r3], #-374	; 0x176
    9038:	61726620 	cmnvs	r2, r0, lsr #12
    903c:	6e656d67 	cdpvs	13, 6, cr6, cr5, cr7, {3}
    9040:	6f207374 	svcvs	0x00207374
    9044:	616d2066 	cmnvs	sp, r6, rrx
    9048:	656c6272 	strbvs	r6, [ip, #-626]!	; 0x272
    904c:	61687420 	cmnvs	r8, r0, lsr #8
    9050:	6e6f2074 	mcrvs	0, 3, r2, cr15, cr4, {3}
    9054:	62206563 	eorvs	r6, r0, #415236096	; 0x18c00000
    9058:	6e6f6c65 	cdpvs	12, 6, cr6, cr15, cr5, {3}
    905c:	20646567 	rsbcs	r6, r4, r7, ror #10
    9060:	74206f74 	strtvc	r6, [r0], #-3956	; 0xf74
    9064:	650a6568 	strvs	r6, [sl, #-1384]	; 0x568
    9068:	6261746e 	rsbvs	r7, r1, #1845493760	; 0x6e000000
    906c:	7574616c 	ldrbvc	r6, [r4, #-364]!	; 0x16c
    9070:	2c736572 	cfldr64cs	mvdx6, [r3], #-456	; 0xfffffe38
    9074:	766f6320 	strbtvc	r6, [pc], -r0, lsr #6
    9078:	64657265 	strbtvs	r7, [r5], #-613	; 0x265
    907c:	74697720 	strbtvc	r7, [r9], #-1824	; 0x720
    9080:	61622068 	cmnvs	r2, r8, rrx
    9084:	65722d73 	ldrbvs	r2, [r2, #-3443]!	; 0xd73
    9088:	6665696c 	strbtvs	r6, [r5], -ip, ror #18
    908c:	65722073 	ldrbvs	r2, [r2, #-115]!	; 0x73
    9090:	73657270 	cmnvc	r5, #7
    9094:	69746e65 	ldmdbvs	r4!, {r0, r2, r5, r6, r9, sl, fp, sp, lr}^
    9098:	6220676e 	eorvs	r6, r0, #28835840	; 0x1b80000
    909c:	6c747461 	cfldrdvs	mvd7, [r4], #-388	; 0xfffffe7c
    90a0:	61207365 	teqvs	r0, r5, ror #6
    90a4:	7320646e 	teqvc	r0, #1845493760	; 0x6e000000
    90a8:	65676569 	strbvs	r6, [r7, #-1385]!	; 0x569
    90ac:	730a2c73 	movwvc	r2, #44147	; 0xac73
    90b0:	73706968 	cmnvc	r0, #1703936	; 0x1a0000
    90b4:	20666f20 	rsbcs	r6, r6, r0, lsr #30
    90b8:	20726177 	rsbscs	r6, r2, r7, ror r1
    90bc:	68746977 	ldmdavs	r4!, {r0, r1, r2, r4, r5, r6, r8, fp, sp, lr}^
    90c0:	72687420 	rsbvc	r7, r8, #536870912	; 0x20000000
    90c4:	61206565 	teqvs	r0, r5, ror #10
    90c8:	6620646e 	strtvs	r6, [r0], -lr, ror #8
    90cc:	2072756f 	rsbscs	r7, r2, pc, ror #10
    90d0:	72656974 	rsbvc	r6, r5, #1900544	; 0x1d0000
    90d4:	666f2073 			; <UNDEFINED> instruction: 0x666f2073
    90d8:	72616f20 	rsbvc	r6, r1, #128	; 0x80
    90dc:	70202c73 	eorvc	r2, r0, r3, ror ip
    90e0:	61656761 	cmnvs	r5, r1, ror #14
    90e4:	2073746e 	rsbscs	r7, r3, lr, ror #8
    90e8:	20646e61 	rsbcs	r6, r4, r1, ror #28
    90ec:	636f7270 	cmnvs	pc, #7
    90f0:	69737365 	ldmdbvs	r3!, {r0, r2, r5, r6, r8, r9, ip, sp, lr}^
    90f4:	0a736e6f 	beq	1ce4ab8 <complen+0x1cd2fc0>
    90f8:	76652d2d 	strbtvc	r2, [r5], -sp, lsr #26
    90fc:	20797265 	rsbscs	r7, r9, r5, ror #4
    9100:	6e696874 	mcrvs	8, 3, r6, cr9, cr4, {3}
    9104:	6e6f2067 	cdpvs	0, 6, cr2, cr15, cr7, {3}
    9108:	6f632065 	svcvs	0x00632065
    910c:	20646c75 	rsbcs	r6, r4, r5, ror ip
    9110:	6e696874 	mcrvs	8, 3, r6, cr9, cr4, {3}
    9114:	666f206b 	strbtvs	r2, [pc], -fp, rrx
    9118:	4820202e 	stmdami	r0!, {r1, r2, r3, r5, sp}
    911c:	6f747369 	svcvs	0x00747369
    9120:	73207972 	teqvc	r0, #1867776	; 0x1c8000
    9124:	20737961 	rsbscs	r7, r3, r1, ror #18
    9128:	74616874 	strbtvc	r6, [r1], #-2164	; 0x874
    912c:	65687420 	strbvs	r7, [r8, #-1056]!	; 0x420
    9130:	6d657420 	cfstrdvs	mvd7, [r5, #-128]!	; 0xffffff80
    9134:	73656c70 	cmnvc	r5, #28672	; 0x7000
    9138:	20666f20 	rsbcs	r6, r6, r0, lsr #30
    913c:	0a656874 	beq	1963314 <complen+0x195181c>
    9140:	6f726341 	svcvs	0x00726341
    9144:	696c6f70 	stmdbvs	ip!, {r4, r5, r6, r8, r9, sl, fp, sp, lr}^
    9148:	65772073 	ldrbvs	r2, [r7, #-115]!	; 0x73
    914c:	66206572 			; <UNDEFINED> instruction: 0x66206572
    9150:	656c6c69 	strbvs	r6, [ip, #-3177]!	; 0xc69
    9154:	69772064 	ldmdbvs	r7!, {r2, r5, r6, sp}^
    9158:	74206874 	strtvc	r6, [r0], #-2164	; 0x874
    915c:	6e206568 	cfsh64vs	mvdx6, mvdx0, #56
    9160:	656c626f 	strbvs	r6, [ip, #-623]!	; 0x26f
    9164:	77207473 			; <UNDEFINED> instruction: 0x77207473
    9168:	736b726f 	cmnvc	fp, #-268435450	; 0xf0000006
    916c:	20666f20 	rsbcs	r6, r6, r0, lsr #30
    9170:	78617250 	stmdavc	r1!, {r4, r6, r9, ip, sp, lr}^
    9174:	6c657469 	cfstrdvs	mvd7, [r5], #-420	; 0xfffffe5c
    9178:	61207365 	teqvs	r0, r5, ror #6
    917c:	5020646e 	eorpl	r6, r0, lr, ror #8
    9180:	69646968 	stmdbvs	r4!, {r3, r5, r6, r8, fp, sp, lr}^
    9184:	0a2c7361 	beq	b25f10 <complen+0xb14418>
    9188:	20646e61 	rsbcs	r6, r4, r1, ror #28
    918c:	6d20666f 	stcvs	6, cr6, [r0, #-444]!	; 0xfffffe44
    9190:	20796e61 	rsbscs	r6, r9, r1, ror #28
    9194:	72672061 	rsbvc	r2, r7, #97	; 0x61
    9198:	20746165 	rsbscs	r6, r4, r5, ror #2
    919c:	7473616d 	ldrbtvc	r6, [r3], #-365	; 0x16d
    91a0:	69207265 	stmdbvs	r0!, {r0, r2, r5, r6, r9, ip, sp, lr}
    91a4:	6373206e 	cmnvs	r3, #110	; 0x6e
    91a8:	74706c75 	ldrbtvc	r6, [r0], #-3189	; 0xc75
    91ac:	20657275 	rsbcs	r7, r5, r5, ror r2
    91b0:	69736562 	ldmdbvs	r3!, {r1, r5, r6, r8, sl, sp, lr}^
    91b4:	2d736564 	cfldr64cs	mvdx6, [r3, #-400]!	; 0xfffffe70
    91b8:	646e612d 	strbtvs	r6, [lr], #-301	; 0x12d
    91bc:	72757320 	rsbsvc	r7, r5, #-2147483648	; 0x80000000
    91c0:	20796c65 	rsbscs	r6, r9, r5, ror #24
    91c4:	73656874 	cmnvc	r5, #7602176	; 0x740000
    91c8:	6c652065 	stclvs	0, cr2, [r5], #-404	; 0xfffffe6c
    91cc:	6e616765 	cdpvs	7, 6, cr6, cr1, cr5, {3}
    91d0:	72660a74 	rsbvc	r0, r6, #475136	; 0x74000
    91d4:	656d6761 	strbvs	r6, [sp, #-1889]!	; 0x761
    91d8:	2073746e 	rsbscs	r7, r3, lr, ror #8
    91dc:	65747461 	ldrbvs	r7, [r4, #-1121]!	; 0x461
    91e0:	69207473 	stmdbvs	r0!, {r0, r1, r4, r5, r6, sl, ip, sp, lr}
    91e4:	0a0a2e74 	beq	294bbc <complen+0x2830c4>
    91e8:	77206557 			; <UNDEFINED> instruction: 0x77206557
    91ec:	656b6c61 	strbvs	r6, [fp, #-3169]!	; 0xc61
    91f0:	756f2064 	strbvc	r2, [pc, #-100]!	; 9194 <testdata+0x76c>
    91f4:	6e692074 	mcrvs	0, 3, r2, cr9, cr4, {3}
    91f8:	74206f74 	strtvc	r6, [r0], #-3956	; 0xf74
    91fc:	67206568 	strvs	r6, [r0, -r8, ror #10]!
    9200:	73736172 	cmnvc	r3, #-2147483620	; 0x8000001c
    9204:	6f72672d 	svcvs	0x0072672d
    9208:	202c6e77 	eorcs	r6, ip, r7, ror lr
    920c:	67617266 	strbvs	r7, [r1, -r6, ror #4]!
    9210:	746e656d 	strbtvc	r6, [lr], #-1389	; 0x56d
    9214:	7274732d 	rsbsvc	r7, r4, #-1275068416	; 0xb4000000
    9218:	206e7765 	rsbcs	r7, lr, r5, ror #14
    921c:	72756f63 	rsbsvc	r6, r5, #396	; 0x18c
    9220:	65622074 	strbvs	r2, [r2, #-116]!	; 0x74
    9224:	646e6f79 	strbtvs	r6, [lr], #-3961	; 0xf79
    9228:	65687420 	strbvs	r7, [r8, #-1056]!	; 0x420
    922c:	7261500a 	rsbvc	r5, r1, #10
    9230:	6e656874 	mcrvs	8, 3, r6, cr5, cr4, {3}
    9234:	202e6e6f 	eorcs	r6, lr, pc, ror #28
    9238:	20744920 	rsbscs	r4, r4, r0, lsr #18
    923c:	72617473 	rsbvc	r7, r1, #1929379840	; 0x73000000
    9240:	64656c74 	strbtvs	r6, [r5], #-3188	; 0xc74
    9244:	2c737520 	cfldr64cs	mvdx7, [r3], #-128	; 0xffffff80
    9248:	65766520 	ldrbvs	r6, [r6, #-1312]!	; 0x520
    924c:	6e207972 	mcrvs	9, 1, r7, cr0, cr2, {3}
    9250:	6120776f 	teqvs	r0, pc, ror #14
    9254:	7420646e 	strtvc	r6, [r0], #-1134	; 0x46e
    9258:	2c6e6568 	cfstr64cs	mvdx6, [lr], #-416	; 0xfffffe60
    925c:	206f7420 	rsbcs	r7, pc, r0, lsr #8
    9260:	20656573 	rsbcs	r6, r5, r3, ror r5
    9264:	74732061 	ldrbtvc	r2, [r3], #-97	; 0x61
    9268:	20796e6f 	rsbscs	r6, r9, pc, ror #28
    926c:	74696877 	strbtvc	r6, [r9], #-2167	; 0x877
    9270:	61662065 	cmnvs	r6, r5, rrx
    9274:	730a6563 	movwvc	r6, #42339	; 0xa563
    9278:	65726174 	ldrbvs	r6, [r2, #-372]!	; 0x174
    927c:	64757320 	ldrbtvs	r7, [r5], #-800	; 0x320
    9280:	6c6e6564 	cfstr64vs	mvdx6, [lr], #-400	; 0xfffffe70
    9284:	70752079 	rsbsvc	r2, r5, r9, ror r0
    9288:	20746120 	rsbscs	r6, r4, r0, lsr #2
    928c:	6f207375 	svcvs	0x00207375
    9290:	6f207475 	svcvs	0x00207475
    9294:	68742066 	ldmdavs	r4!, {r1, r2, r5, r6, sp}^
    9298:	72672065 	rsbvc	r2, r7, #101	; 0x65
    929c:	20737361 	rsbscs	r7, r3, r1, ror #6
    92a0:	68746977 	ldmdavs	r4!, {r0, r1, r2, r4, r5, r6, r8, fp, sp, lr}^
    92a4:	73746920 	cmnvc	r4, #524288	; 0x80000
    92a8:	61656420 	cmnvs	r5, r0, lsr #8
    92ac:	79652064 	stmdbvc	r5!, {r2, r5, r6, sp}^
    92b0:	202e7365 	eorcs	r7, lr, r5, ror #6
    92b4:	65685420 	strbvs	r5, [r8, #-1056]!	; 0x420
    92b8:	616c7020 	cmnvs	ip, r0, lsr #32
    92bc:	730a6563 	movwvc	r6, #42339	; 0xa563
    92c0:	656d6565 	strbvs	r6, [sp, #-1381]!	; 0x565
    92c4:	6c612064 	stclvs	0, cr2, [r1], #-400	; 0xfffffe70
    92c8:	20657669 	rsbcs	r7, r5, r9, ror #12
    92cc:	68746977 	ldmdavs	r4!, {r0, r1, r2, r4, r5, r6, r8, fp, sp, lr}^
    92d0:	6f686720 	svcvs	0x00686720
    92d4:	2e737473 	mrccs	4, 3, r7, cr3, cr3, {3}
    92d8:	20492020 	subcs	r2, r9, r0, lsr #32
    92dc:	666c6168 	strbtvs	r6, [ip], -r8, ror #2
    92e0:	70786520 	rsbsvc	r6, r8, r0, lsr #10
    92e4:	65746365 	ldrbvs	r6, [r4, #-869]!	; 0x365
    92e8:	6f742064 	svcvs	0x00742064
    92ec:	65657320 	strbvs	r7, [r5, #-800]!	; 0x320
    92f0:	65687420 	strbvs	r7, [r8, #-1056]!	; 0x420
    92f4:	68744120 	ldmdavs	r4!, {r5, r8, lr}^
    92f8:	61696e65 	cmnvs	r9, r5, ror #28
    92fc:	6568206e 	strbvs	r2, [r8, #-110]!	; 0x6e
    9300:	73656f72 	cmnvc	r5, #456	; 0x1c8
    9304:	0a666f20 	beq	19a4f8c <complen+0x1993494>
    9308:	6e657774 	mcrvs	7, 3, r7, cr5, cr4, {3}
    930c:	63207974 	teqvs	r0, #1900544	; 0x1d0000
    9310:	75746e65 	ldrbvc	r6, [r4, #-3685]!	; 0xe65
    9314:	73656972 	cmnvc	r5, #1867776	; 0x1c8000
    9318:	6f676120 	svcvs	0x00676120
    931c:	696c6720 	stmdbvs	ip!, {r5, r8, r9, sl, sp, lr}^
    9320:	6f206564 	svcvs	0x00206564
    9324:	6f207475 	svcvs	0x00207475
    9328:	68742066 	ldmdavs	r4!, {r1, r2, r5, r6, sp}^
    932c:	68732065 	ldmdavs	r3!, {r0, r2, r5, r6, sp}^
    9330:	776f6461 	strbvc	r6, [pc, -r1, ror #8]!
    9334:	6e612073 	mcrvs	0, 3, r2, cr1, cr3, {3}
    9338:	74732064 	ldrbtvc	r2, [r3], #-100	; 0x64
    933c:	206c6165 	rsbcs	r6, ip, r5, ror #2
    9340:	6f746e69 	svcvs	0x00746e69
    9344:	65687420 	strbvs	r7, [r8, #-1056]!	; 0x420
    9348:	646c6f20 	strbtvs	r6, [ip], #-3872	; 0xf20
    934c:	6d65740a 	cfstrdvs	mvd7, [r5, #-40]!	; 0xffffffd8
    9350:	20656c70 	rsbcs	r6, r5, r0, ror ip
    9354:	79656874 	stmdbvc	r5!, {r2, r4, r5, r6, fp, sp, lr}^
    9358:	656e6b20 	strbvs	r6, [lr, #-2848]!	; 0xb20
    935c:	6f732077 	svcvs	0x00732077
    9360:	6c657720 	stclvs	7, cr7, [r5], #-128	; 0xffffff80
    9364:	6e61206c 	cdpvs	0, 6, cr2, cr1, cr12, {3}
    9368:	65722064 	ldrbvs	r2, [r2, #-100]!	; 0x64
    936c:	64726167 	ldrbtvs	r6, [r2], #-359	; 0x167
    9370:	77206465 	strvc	r6, [r0, -r5, ror #8]!
    9374:	20687469 	rsbcs	r7, r8, r9, ror #8
    9378:	68637573 	stmdavs	r3!, {r0, r1, r4, r5, r6, r8, sl, ip, sp, lr}^
    937c:	756f6220 	strbvc	r6, [pc, #-544]!	; 9164 <testdata+0x73c>
    9380:	656c646e 	strbvs	r6, [ip, #-1134]!	; 0x46e
    9384:	70207373 	eorvc	r7, r0, r3, ror r3
    9388:	65646972 	strbvs	r6, [r4, #-2418]!	; 0x972
    938c:	540a0a2e 	strpl	r0, [sl], #-2606	; 0xa2e
    9390:	66206568 	strtvs	r6, [r0], -r8, ror #10
    9394:	206c6c75 	rsbcs	r6, ip, r5, ror ip
    9398:	6e6f6f6d 	cdpvs	15, 6, cr6, cr15, cr13, {3}
    939c:	73617720 	cmnvc	r1, #8388608	; 0x800000
    93a0:	64697220 	strbtvs	r7, [r9], #-544	; 0x220
    93a4:	20676e69 	rsbcs	r6, r7, r9, ror #28
    93a8:	68676968 	stmdavs	r7!, {r3, r5, r6, r8, fp, sp, lr}^
    93ac:	206e6920 	rsbcs	r6, lr, r0, lsr #18
    93b0:	20656874 	rsbcs	r6, r5, r4, ror r8
    93b4:	756f6c63 	strbvc	r6, [pc, #-3171]!	; 8759 <inflate_fast+0x2f5>
    93b8:	73656c64 	cmnvc	r5, #25600	; 0x6400
    93bc:	65682073 	strbvs	r2, [r8, #-115]!	; 0x73
    93c0:	6e657661 	cdpvs	6, 6, cr7, cr5, cr1, {3}
    93c4:	6e202c73 	mcrvs	12, 1, r2, cr0, cr3, {3}
    93c8:	202e776f 	eorcs	r7, lr, pc, ror #14
    93cc:	0a655720 	beq	195f054 <complen+0x194d55c>
    93d0:	6e756173 	mrcvs	1, 3, r6, cr5, cr3, {3}
    93d4:	65726574 	ldrbvs	r6, [r2, #-1396]!	; 0x574
    93d8:	61632064 	cmnvs	r3, r4, rrx
    93dc:	656c6572 	strbvs	r6, [ip, #-1394]!	; 0x572
    93e0:	796c7373 	stmdbvc	ip!, {r0, r1, r4, r5, r6, r8, r9, ip, sp, lr}^
    93e4:	646e6120 	strbtvs	r6, [lr], #-288	; 0x120
    93e8:	746e7520 	strbtvc	r7, [lr], #-1312	; 0x520
    93ec:	6b6e6968 	blvs	1ba3994 <complen+0x1b91e9c>
    93f0:	6c676e69 	stclvs	14, cr6, [r7], #-420	; 0xfffffe5c
    93f4:	6f742079 	svcvs	0x00742079
    93f8:	65687420 	strbvs	r7, [r8, #-1056]!	; 0x420
    93fc:	67646520 	strbvs	r6, [r4, -r0, lsr #10]!
    9400:	666f2065 	strbtvs	r2, [pc], -r5, rrx
    9404:	65687420 	strbvs	r7, [r8, #-1056]!	; 0x420
    9408:	666f6c20 	strbtvs	r6, [pc], -r0, lsr #24
    940c:	620a7974 	andvs	r7, sl, #1900544	; 0x1d0000
    9410:	6c747461 	cfldrdvs	mvd7, [r4], #-388	; 0xfffffe7c
    9414:	6e656d65 	cdpvs	13, 6, cr6, cr5, cr5, {3}
    9418:	6f207374 	svcvs	0x00207374
    941c:	68742066 	ldmdavs	r4!, {r1, r2, r5, r6, sp}^
    9420:	69632065 	stmdbvs	r3!, {r0, r2, r5, r6, sp}^
    9424:	65646174 	strbvs	r6, [r4, #-372]!	; 0x174
    9428:	61202c6c 	teqvs	r0, ip, ror #24
    942c:	6c20646e 	cfstrsvs	mvf6, [r0], #-440	; 0xfffffe48
    9430:	656b6f6f 	strbvs	r6, [fp, #-3951]!	; 0xf6f
    9434:	6f642064 	svcvs	0x00642064
    9438:	2d2d6e77 	stccs	14, cr6, [sp, #-476]!	; 0xfffffe24
    943c:	69762061 	ldmdbvs	r6!, {r0, r5, r6, sp}^
    9440:	6e6f6973 	mcrvs	9, 3, r6, cr15, cr3, {3}
    9444:	41202021 	teqmi	r0, r1, lsr #32
    9448:	7320646e 	teqvc	r0, #1845493760	; 0x6e000000
    944c:	20686375 	rsbcs	r6, r8, r5, ror r3
    9450:	69760a61 	ldmdbvs	r6!, {r0, r5, r6, r9, fp}^
    9454:	6e6f6973 	mcrvs	9, 3, r6, cr15, cr3, {3}
    9458:	41202021 	teqmi	r0, r1, lsr #32
    945c:	6e656874 	mcrvs	8, 3, r6, cr5, cr4, {3}
    9460:	79622073 	stmdbvc	r2!, {r0, r1, r4, r5, r6, sp}^
    9464:	6f6f6d20 	svcvs	0x006f6d20
    9468:	67696c6e 	strbvs	r6, [r9, -lr, ror #24]!
    946c:	20217468 	eorcs	r7, r1, r8, ror #8
    9470:	65685420 	strbvs	r5, [r8, #-1056]!	; 0x420
    9474:	6f727020 	svcvs	0x00727020
    9478:	74656870 	strbtvc	r6, [r5], #-2160	; 0x870
    947c:	61687420 	cmnvs	r8, r0, lsr #8
    9480:	68742074 	ldmdavs	r4!, {r2, r4, r5, r6, sp}^
    9484:	6867756f 	stmdavs	r7!, {r0, r1, r2, r3, r5, r6, r8, sl, ip, sp, lr}^
    9488:	68742074 	ldmdavs	r4!, {r2, r4, r5, r6, sp}^
    948c:	70732065 	rsbsvc	r2, r3, r5, rrx
    9490:	646e656c 	strbtvs	r6, [lr], #-1388	; 0x56c
    9494:	2073726f 	rsbscs	r7, r3, pc, ror #4
    9498:	740a666f 	strvc	r6, [sl], #-1647	; 0x66f
    949c:	4e206568 	cfsh64mi	mvdx6, mvdx0, #56
    94a0:	4a207765 	bmi	82723c <complen+0x815744>
    94a4:	73757265 	cmnvc	r5, #1342177286	; 0x50000006
    94a8:	6d656c61 	stclvs	12, cr6, [r5, #-388]!	; 0xfffffe7c
    94ac:	72657720 	rsbvc	r7, r5, #8388608	; 0x800000
    94b0:	65722065 	ldrbvs	r2, [r2, #-101]!	; 0x65
    94b4:	6c616576 	cfstr64vs	mvdx6, [r1], #-472	; 0xfffffe28
    94b8:	74206465 	strtvc	r6, [r0], #-1125	; 0x465
    94bc:	6968206f 	stmdbvs	r8!, {r0, r1, r2, r3, r5, r6, sp}^
    94c0:	73202c6d 	teqvc	r0, #27904	; 0x6d00
    94c4:	6c657275 	sfmvs	f7, 2, [r5], #-468	; 0xfffffe2c
    94c8:	61732079 	cmnvs	r3, r9, ror r0
    94cc:	68742077 	ldmdavs	r4!, {r0, r1, r2, r4, r5, r6, sp}^
    94d0:	69207369 	stmdbvs	r0!, {r0, r3, r5, r6, r8, r9, ip, sp, lr}
    94d4:	6574736e 	ldrbvs	r7, [r4, #-878]!	; 0x36e
    94d8:	20216461 	eorcs	r6, r1, r1, ror #8
    94dc:	20744920 	rsbscs	r4, r4, r0, lsr #18
    94e0:	0a79616c 	beq	1e61a98 <complen+0x1e4ffa0>
    94e4:	74206e69 	strtvc	r6, [r0], #-3689	; 0xe69
    94e8:	6c206568 	cfstr32vs	mvfx6, [r0], #-416	; 0xfffffe60
    94ec:	6c657665 	stclvs	6, cr7, [r5], #-404	; 0xfffffe6c
    94f0:	616c7020 	cmnvs	ip, r0, lsr #32
    94f4:	72206e69 	eorvc	r6, r0, #1680	; 0x690
    94f8:	74686769 	strbtvc	r6, [r8], #-1897	; 0x769
    94fc:	646e7520 	strbtvs	r7, [lr], #-1312	; 0x520
    9500:	6f207265 	svcvs	0x00207265
    9504:	66207275 			; <UNDEFINED> instruction: 0x66207275
    9508:	2d746565 	cfldr64cs	mvdx6, [r4, #-404]!	; 0xfffffe6c
    950c:	6c6c612d 	stfvse	f6, [ip], #-180	; 0xffffff4c
    9510:	72707320 	rsbsvc	r7, r0, #-2147483648	; 0x80000000
    9514:	20646165 	rsbcs	r6, r4, r5, ror #2
    9518:	6f726261 	svcvs	0x00726261
    951c:	6c206461 	cfstrsvs	mvf6, [r0], #-388	; 0xfffffe7c
    9520:	20656b69 	rsbcs	r6, r5, r9, ror #22
    9524:	69700a61 	ldmdbvs	r0!, {r0, r5, r6, r9, fp}^
    9528:	72757463 	rsbsvc	r7, r5, #1660944384	; 0x63000000
    952c:	612d2d65 	teqvs	sp, r5, ror #26
    9530:	7720646e 	strvc	r6, [r0, -lr, ror #8]!
    9534:	6f6c2065 	svcvs	0x006c2065
    9538:	64656b6f 	strbtvs	r6, [r5], #-2927	; 0xb6f
    953c:	776f6420 	strbvc	r6, [pc, -r0, lsr #8]!
    9540:	7075206e 	rsbsvc	r2, r5, lr, rrx
    9544:	69206e6f 	stmdbvs	r0!, {r0, r1, r2, r3, r5, r6, r9, sl, fp, sp, lr}
    9548:	73612074 	cmnvc	r1, #116	; 0x74
    954c:	20657720 	rsbcs	r7, r5, r0, lsr #14
    9550:	6867696d 	stmdavs	r7!, {r0, r2, r3, r5, r6, r8, fp, sp, lr}^
    9554:	61682074 	smcvs	33284	; 0x8204
    9558:	6c206576 	cfstr32vs	mvfx6, [r0], #-472	; 0xfffffe28
    955c:	656b6f6f 	strbvs	r6, [fp, #-3951]!	; 0xf6f
    9560:	72662064 	rsbvc	r2, r6, #100	; 0x64
    9564:	61206d6f 	teqvs	r0, pc, ror #26
    9568:	6c61620a 	sfmvs	f6, 2, [r1], #-40	; 0xffffffd8
    956c:	6e6f6f6c 	cdpvs	15, 6, cr6, cr15, cr12, {3}
    9570:	5720202e 	strpl	r2, [r0, -lr, lsr #32]!
    9574:	61732065 	cmnvs	r3, r5, rrx
    9578:	6f6e2077 	svcvs	0x006e2077
    957c:	6d657320 	stclvs	3, cr7, [r5, #-128]!	; 0xffffff80
    9580:	6e616c62 	cdpvs	12, 6, cr6, cr1, cr2, {3}
    9584:	6f206563 	svcvs	0x00206563
    9588:	20612066 	rsbcs	r2, r1, r6, rrx
    958c:	65727473 	ldrbvs	r7, [r2, #-1139]!	; 0x473
    9590:	202c7465 	eorcs	r7, ip, r5, ror #8
    9594:	20747562 	rsbscs	r7, r4, r2, ror #10
    9598:	72657665 	rsbvc	r7, r5, #105906176	; 0x6500000
    959c:	6f682079 	svcvs	0x00682079
    95a0:	2c657375 	stclcs	3, cr7, [r5], #-468	; 0xfffffe2c
    95a4:	65766520 	ldrbvs	r6, [r6, #-1312]!	; 0x520
    95a8:	77207972 			; <UNDEFINED> instruction: 0x77207972
    95ac:	6f646e69 	svcvs	0x00646e69
    95b0:	650a2c77 	strvs	r2, [sl, #-3191]	; 0xc77
    95b4:	79726576 	ldmdbvc	r2!, {r1, r2, r4, r5, r6, r8, sl, sp, lr}^
    95b8:	696c6320 	stmdbvs	ip!, {r5, r8, r9, sp, lr}^
    95bc:	6e69676e 	cdpvs	7, 6, cr6, cr9, cr14, {3}
    95c0:	69762067 	ldmdbvs	r6!, {r0, r1, r2, r5, r6, sp}^
    95c4:	202c656e 	eorcs	r6, ip, lr, ror #10
    95c8:	72657665 	rsbvc	r7, r5, #105906176	; 0x6500000
    95cc:	72702079 	rsbsvc	r2, r0, #121	; 0x79
    95d0:	63656a6f 	cmnvs	r5, #454656	; 0x6f000
    95d4:	6e6f6974 	mcrvs	9, 3, r6, cr15, cr4, {3}
    95d8:	73617720 	cmnvc	r1, #8388608	; 0x800000
    95dc:	20736120 	rsbscs	r6, r3, r0, lsr #2
    95e0:	74736964 	ldrbtvc	r6, [r3], #-2404	; 0x964
    95e4:	74636e69 	strbtvc	r6, [r3], #-3689	; 0xe69
    95e8:	646e6120 	strbtvs	r6, [lr], #-288	; 0x120
    95ec:	61687320 	cmnvs	r8, r0, lsr #6
    95f0:	796c7072 	stmdbvc	ip!, {r1, r4, r5, r6, ip, sp, lr}^
    95f4:	72616d20 	rsbvc	r6, r1, #2048	; 0x800
    95f8:	0a64656b 	beq	1922bac <complen+0x19110b4>
    95fc:	69207361 	stmdbvs	r0!, {r0, r5, r6, r8, r9, ip, sp, lr}
    9600:	68742066 	ldmdavs	r4!, {r1, r2, r5, r6, sp}^
    9604:	69742065 	ldmdbvs	r4!, {r0, r2, r5, r6, sp}^
    9608:	7720656d 	strvc	r6, [r0, -sp, ror #10]!
    960c:	20657265 	rsbcs	r7, r5, r5, ror #4
    9610:	6e6f6f6e 	cdpvs	15, 6, cr6, cr15, cr14, {3}
    9614:	7961642d 	stmdbvc	r1!, {r0, r2, r3, r5, sl, sp, lr}^
    9618:	6e61203b 	mcrvs	0, 3, r2, cr1, cr11, {1}
    961c:	65792064 	ldrbvs	r2, [r9, #-100]!	; 0x64
    9620:	68742074 	ldmdavs	r4!, {r2, r4, r5, r6, sp}^
    9624:	20657265 	rsbcs	r7, r5, r5, ror #4
    9628:	20736177 	rsbscs	r6, r3, r7, ror r1
    962c:	67206f6e 	strvs	r6, [r0, -lr, ror #30]!
    9630:	6572616c 	ldrbvs	r6, [r2, #-364]!	; 0x16c
    9634:	6f6e202c 	svcvs	0x006e202c
    9638:	696c6720 	stmdbvs	ip!, {r5, r8, r9, sl, sp, lr}^
    963c:	72657474 	rsbvc	r7, r5, #1946157056	; 0x74000000
    9640:	6f6e0a2c 	svcvs	0x006e0a2c
    9644:	6e696874 	mcrvs	8, 3, r6, cr9, cr4, {3}
    9648:	61682067 	cmnvs	r8, r7, rrx
    964c:	20687372 	rsbcs	r7, r8, r2, ror r3
    9650:	7220726f 	eorvc	r7, r0, #-268435450	; 0xf0000006
    9654:	6c757065 	ldclvs	0, cr7, [r5], #-404	; 0xfffffe6c
    9658:	65766973 	ldrbvs	r6, [r6, #-2419]!	; 0x973
    965c:	68742d2d 	ldmdavs	r4!, {r0, r2, r3, r5, r8, sl, fp, sp}^
    9660:	6f6e2065 	svcvs	0x006e2065
    9664:	6c657369 	stclvs	3, cr7, [r5], #-420	; 0xfffffe5c
    9668:	20737365 	rsbscs	r7, r3, r5, ror #6
    966c:	79746963 	ldmdbvc	r4!, {r0, r1, r5, r6, r8, fp, sp, lr}^
    9670:	73617720 	cmnvc	r1, #8388608	; 0x800000
    9674:	6f6c6620 	svcvs	0x006c6620
    9678:	6465646f 	strbtvs	r6, [r5], #-1135	; 0x46f
    967c:	74697720 	strbtvc	r7, [r9], #-1824	; 0x720
    9680:	68742068 	ldmdavs	r4!, {r3, r5, r6, sp}^
    9684:	656d0a65 	strbvs	r0, [sp, #-2661]!	; 0xa65
    9688:	776f6c6c 	strbvc	r6, [pc, -ip, ror #24]!
    968c:	20747365 	rsbscs	r7, r4, r5, ror #6
    9690:	6867696c 	stmdavs	r7!, {r2, r3, r5, r6, r8, fp, sp, lr}^
    9694:	68742074 	ldmdavs	r4!, {r2, r4, r5, r6, sp}^
    9698:	65207461 	strvs	r7, [r0, #-1121]!	; 0x461
    969c:	20726576 	rsbscs	r6, r2, r6, ror r5
    96a0:	65727473 	ldrbvs	r7, [r2, #-1139]!	; 0x473
    96a4:	64656d61 	strbtvs	r6, [r5], #-3425	; 0xd61
    96a8:	6f726620 	svcvs	0x00726620
    96ac:	6874206d 	ldmdavs	r4!, {r0, r2, r3, r5, r6, sp}^
    96b0:	6f6d2065 	svcvs	0x006d2065
    96b4:	202c6e6f 	eorcs	r6, ip, pc, ror #28
    96b8:	20646e61 	rsbcs	r6, r4, r1, ror #28
    96bc:	6d656573 	cfstr64vs	mvdx6, [r5, #-460]!	; 0xfffffe34
    96c0:	6c206465 	cfstrsvs	mvf6, [r0], #-404	; 0xfffffe6c
    96c4:	20656b69 	rsbcs	r6, r5, r9, ror #22
    96c8:	656d6f73 	strbvs	r6, [sp, #-3955]!	; 0xf73
    96cc:	76696c0a 	strbtvc	r6, [r9], -sl, lsl #24
    96d0:	20676e69 	rsbcs	r6, r7, r9, ror #28
    96d4:	61657263 	cmnvs	r5, r3, ror #4
    96d8:	65727574 	ldrbvs	r7, [r2, #-1396]!	; 0x574
    96dc:	61727720 	cmnvs	r2, r0, lsr #14
    96e0:	64657070 	strbtvs	r7, [r5], #-112	; 0x70
    96e4:	206e6920 	rsbcs	r6, lr, r0, lsr #18
    96e8:	63616570 	cmnvs	r1, #469762048	; 0x1c000000
    96ec:	6c756665 	ldclvs	6, cr6, [r5], #-404	; 0xfffffe6c
    96f0:	756c7320 	strbvc	r7, [ip, #-800]!	; 0x320
    96f4:	7265626d 	rsbvc	r6, r5, #-805306362	; 0xd0000006
    96f8:	4f20202e 	svcmi	0x0020202e
    96fc:	7469206e 	strbtvc	r2, [r9], #-110	; 0x6e
    9700:	75662073 	strbvc	r2, [r6, #-115]!	; 0x73
    9704:	65687472 	strbvs	r7, [r8, #-1138]!	; 0x472
    9708:	69732072 	ldmdbvs	r3!, {r1, r4, r5, r6, sp}^
    970c:	77206564 	strvc	r6, [r0, -r4, ror #10]!
    9710:	61207361 	teqvs	r0, r1, ror #6
    9714:	74696c0a 	strbtvc	r6, [r9], #-3082	; 0xc0a
    9718:	20656c74 	rsbcs	r6, r5, r4, ror ip
    971c:	706d6574 	rsbvc	r6, sp, r4, ror r5
    9720:	202c656c 	eorcs	r6, ip, ip, ror #10
    9724:	736f6877 	cmnvc	pc, #7798784	; 0x770000
    9728:	65642065 	strbvs	r2, [r4, #-101]!	; 0x65
    972c:	6163696c 	cmnvs	r3, ip, ror #18
    9730:	70206574 	eorvc	r6, r0, r4, ror r5
    9734:	616c6c69 	cmnvs	ip, r9, ror #24
    9738:	61207372 	teqvs	r0, r2, ror r3
    973c:	6f20646e 	svcvs	0x0020646e
    9740:	74616e72 	strbtvc	r6, [r1], #-3698	; 0xe72
    9744:	72662065 	rsbvc	r2, r6, #101	; 0x65
    9748:	20746e6f 	rsbscs	r6, r4, pc, ror #28
    974c:	776f6c67 	strbvc	r6, [pc, -r7, ror #24]!
    9750:	77206465 	strvc	r6, [r0, -r5, ror #8]!
    9754:	20687469 	rsbcs	r7, r8, r9, ror #8
    9758:	69722061 	ldmdbvs	r2!, {r0, r5, r6, sp}^
    975c:	6c0a6863 	stcvs	8, cr6, [sl], {99}	; 0x63
    9760:	72747375 	rsbsvc	r7, r4, #-738197503	; 0xd4000001
    9764:	68742065 	ldmdavs	r4!, {r0, r2, r5, r6, sp}^
    9768:	63207461 	teqvs	r0, #1627389952	; 0x61000000
    976c:	6e696168 	powvsez	f6, f1, #0.0
    9770:	74206465 	strtvc	r6, [r0], #-1125	; 0x465
    9774:	65206568 	strvs	r6, [r0, #-1384]!	; 0x568
    9778:	6c206579 	cfstr32vs	mvfx6, [r0], #-484	; 0xfffffe1c
    977c:	20656b69 	rsbcs	r6, r5, r9, ror #22
    9780:	70732061 	rsbsvc	r2, r3, r1, rrx
    9784:	3b6c6c65 	blcc	1b24920 <complen+0x1b12e28>
    9788:	646e6120 	strbtvs	r6, [lr], #-288	; 0x120
    978c:	61656e20 	cmnvs	r5, r0, lsr #28
    9790:	20726572 	rsbscs	r6, r2, r2, ror r5
    9794:	202c7962 	eorcs	r7, ip, r2, ror #18
    9798:	20656874 	rsbcs	r6, r5, r4, ror r8
    979c:	616c6170 	smcvs	50704	; 0xc610
    97a0:	6f206563 	svcvs	0x00206563
    97a4:	68740a66 	ldmdavs	r4!, {r1, r2, r5, r6, r9, fp}^
    97a8:	696b2065 	stmdbvs	fp!, {r0, r2, r5, r6, sp}^
    97ac:	7220676e 	eorvc	r6, r0, #28835840	; 0x1b80000
    97b0:	65726165 	ldrbvs	r6, [r2, #-357]!	; 0x165
    97b4:	74692064 	strbtvc	r2, [r9], #-100	; 0x64
    97b8:	72632073 	rsbvc	r2, r3, #115	; 0x73
    97bc:	796d6165 	stmdbvc	sp!, {r0, r2, r5, r6, r8, sp, lr}^
    97c0:	6c617720 	stclvs	7, cr7, [r1], #-128	; 0xffffff80
    97c4:	6f20736c 	svcvs	0x0020736c
    97c8:	6f207475 	svcvs	0x00207475
    97cc:	68742066 	ldmdavs	r4!, {r1, r2, r5, r6, sp}^
    97d0:	696d2065 	stmdbvs	sp!, {r0, r2, r5, r6, sp}^
    97d4:	20747364 	rsbscs	r7, r4, r4, ror #6
    97d8:	6120666f 	teqvs	r0, pc, ror #12
    97dc:	65726720 	ldrbvs	r6, [r2, #-1824]!	; 0x720
    97e0:	67207461 	strvs	r7, [r0, -r1, ror #8]!
    97e4:	65647261 	strbvs	r7, [r4, #-609]!	; 0x261
    97e8:	666f206e 	strbtvs	r2, [pc], -lr, rrx
    97ec:	7268730a 	rsbvc	r7, r8, #671088640	; 0x28000000
    97f0:	65626275 	strbvs	r6, [r2, #-629]!	; 0x275
    97f4:	74207972 	strtvc	r7, [r0], #-2418	; 0x972
    97f8:	20746168 	rsbscs	r6, r4, r8, ror #2
    97fc:	20736177 	rsbscs	r6, r3, r7, ror r1
    9800:	63656c66 	cmnvs	r5, #26112	; 0x6600
    9804:	2064656b 	rsbcs	r6, r4, fp, ror #10
    9808:	206c6c61 	rsbcs	r6, ip, r1, ror #24
    980c:	7265766f 	rsbvc	r7, r5, #116391936	; 0x6f00000
    9810:	74697720 	strbtvc	r7, [r9], #-1824	; 0x720
    9814:	20612068 	rsbcs	r2, r1, r8, rrx
    9818:	646e6172 	strbtvs	r6, [lr], #-370	; 0x172
    981c:	73206d6f 	teqvc	r0, #7104	; 0x1bc0
    9820:	65776f68 	ldrbvs	r6, [r7, #-3944]!	; 0xf68
    9824:	666f2072 			; <UNDEFINED> instruction: 0x666f2072
    9828:	626d6120 	rsbvs	r6, sp, #8
    982c:	6c207265 	sfmvs	f7, 4, [r0], #-404	; 0xfffffe6c
    9830:	74686769 	strbtvc	r6, [r8], #-1897	; 0x769
    9834:	2d2d0a73 	vpushcs	{s0-s114}
    9838:	70732061 	rsbsvc	r2, r3, r1, rrx
    983c:	20796172 	rsbscs	r6, r9, r2, ror r1
    9840:	6720666f 	strvs	r6, [r0, -pc, ror #12]!
    9844:	65646c6f 	strbvs	r6, [r4, #-3183]!	; 0xc6f
    9848:	7073206e 	rsbsvc	r2, r3, lr, rrx
    984c:	736b7261 	cmnvc	fp, #268435462	; 0x10000006
    9850:	61687420 	cmnvs	r8, r0, lsr #8
    9854:	6f6c2074 	svcvs	0x006c2074
    9858:	74207473 	strtvc	r7, [r0], #-1139	; 0x473
    985c:	72696568 	rsbvc	r6, r9, #436207616	; 0x1a000000
    9860:	69726220 	ldmdbvs	r2!, {r5, r9, sp, lr}^
    9864:	6e746867 	cdpvs	8, 7, cr6, cr4, cr7, {3}
    9868:	20737365 	rsbscs	r7, r3, r5, ror #6
    986c:	74206e69 	strtvc	r6, [r0], #-3689	; 0xe69
    9870:	67206568 	strvs	r6, [r0, -r8, ror #10]!
    9874:	79726f6c 	ldmdbvc	r2!, {r2, r3, r5, r6, r8, r9, sl, fp, sp, lr}^
    9878:	20666f20 	rsbcs	r6, r6, r0, lsr #30
    987c:	0a656874 	beq	1963a54 <complen+0x1951f5c>
    9880:	6e6f6f6d 	cdpvs	15, 6, cr6, cr15, cr13, {3}
    9884:	6e61202c 	cdpvs	0, 6, cr2, cr1, cr12, {1}
    9888:	6c672064 	stclvs	0, cr2, [r7], #-400	; 0xfffffe70
    988c:	65746e69 	ldrbvs	r6, [r4, #-3689]!	; 0xe69
    9890:	6f732064 	svcvs	0x00732064
    9894:	796c7466 	stmdbvc	ip!, {r1, r2, r5, r6, sl, ip, sp, lr}^
    9898:	6f707520 	svcvs	0x00707520
    989c:	6874206e 	ldmdavs	r4!, {r1, r2, r3, r5, r6, sp}^
    98a0:	65732065 	ldrbvs	r2, [r3, #-101]!	; 0x65
    98a4:	666f2061 	strbtvs	r2, [pc], -r1, rrx
    98a8:	72616420 	rsbvc	r6, r1, #536870912	; 0x20000000
    98ac:	6f66206b 	svcvs	0x0066206b
    98b0:	6761696c 	strbvs	r6, [r1, -ip, ror #18]!
    98b4:	696c2065 	stmdbvs	ip!, {r0, r2, r5, r6, sp}^
    98b8:	7420656b 	strtvc	r6, [r0], #-1387	; 0x56b
    98bc:	70206568 	eorvc	r6, r0, r8, ror #10
    98c0:	696c6c61 	stmdbvs	ip!, {r0, r5, r6, sl, fp, sp, lr}^
    98c4:	74730a64 	ldrbtvc	r0, [r3], #-2660	; 0xa64
    98c8:	20737261 	rsbscs	r7, r3, r1, ror #4
    98cc:	7420666f 	strtvc	r6, [r0], #-1647	; 0x66f
    98d0:	6d206568 	cfstr32vs	mvfx6, [r0, #-416]!	; 0xfffffe60
    98d4:	796b6c69 	stmdbvc	fp!, {r0, r3, r5, r6, sl, fp, sp, lr}^
    98d8:	7961772d 	stmdbvc	r1!, {r0, r2, r3, r5, r8, r9, sl, ip, sp, lr}^
    98dc:	4f20202e 	svcmi	0x0020202e
    98e0:	68726576 	ldmdavs	r2!, {r1, r2, r4, r5, r6, r8, sl, sp, lr}^
    98e4:	20646165 	rsbcs	r6, r4, r5, ror #2
    98e8:	20656874 	rsbcs	r6, r5, r4, ror r8
    98ec:	74617473 	strbtvc	r7, [r1], #-1139	; 0x473
    98f0:	20796c65 	rsbscs	r6, r9, r5, ror #24
    98f4:	756c6f63 	strbvc	r6, [ip, #-3939]!	; 0xf63
    98f8:	2c736e6d 	ldclcs	14, cr6, [r3], #-436	; 0xfffffe4c
    98fc:	6a616d20 	bvs	1864d84 <complen+0x185328c>
    9900:	69747365 	ldmdbvs	r4!, {r0, r2, r5, r6, r8, r9, ip, sp, lr}^
    9904:	74732063 	ldrbtvc	r2, [r3], #-99	; 0x63
    9908:	206c6c69 	rsbcs	r6, ip, r9, ror #24
    990c:	740a6e69 	strvc	r6, [sl], #-3689	; 0xe69
    9910:	72696568 	rsbvc	r6, r9, #436207616	; 0x1a000000
    9914:	69757220 	ldmdbvs	r5!, {r5, r9, ip, sp, lr}^
    9918:	752d2d6e 	strvc	r2, [sp, #-3438]!	; 0xd6e
    991c:	7265646e 	rsbvc	r6, r5, #1845493760	; 0x6e000000
    9920:	6f6f6620 	svcvs	0x006f6620
    9924:	68742074 	ldmdavs	r4!, {r2, r4, r5, r6, sp}^
    9928:	72642065 	rsbvc	r2, r4, #101	; 0x65
    992c:	696d6165 	stmdbvs	sp!, {r0, r2, r5, r6, r8, sp, lr}^
    9930:	6320676e 	teqvs	r0, #28835840	; 0x1b80000
    9934:	2d797469 	cfldrdcs	mvd7, [r9, #-420]!	; 0xfffffe5c
    9938:	206e692d 	rsbcs	r6, lr, sp, lsr #18
    993c:	20656874 	rsbcs	r6, r5, r4, ror r8
    9940:	74736964 	ldrbtvc	r6, [r3], #-2404	; 0x964
    9944:	65636e61 	strbvs	r6, [r3, #-3681]!	; 0xe61
    9948:	65687420 	strbvs	r7, [r8, #-1056]!	; 0x420
    994c:	6c697320 	stclvs	3, cr7, [r9], #-128	; 0xffffff80
    9950:	20726576 	rsbscs	r6, r2, r6, ror r5
    9954:	0a616573 	beq	1862f28 <complen+0x1851430>
    9958:	6f6e2d2d 	svcvs	0x006e2d2d
    995c:	6e6f2074 	mcrvs	0, 3, r2, cr15, cr4, {3}
    9960:	65687420 	strbvs	r7, [r8, #-1056]!	; 0x420
    9964:	6f726220 	svcvs	0x00726220
    9968:	65206461 	strvs	r6, [r0, #-1121]!	; 0x461
    996c:	68747261 	ldmdavs	r4!, {r0, r5, r6, r9, ip, sp, lr}^
    9970:	20736920 	rsbscs	r6, r3, r0, lsr #18
    9974:	72656874 	rsbvc	r6, r5, #7602176	; 0x740000
    9978:	6e612065 	cdpvs	0, 6, cr2, cr1, cr5, {3}
    997c:	68746f20 	ldmdavs	r4!, {r5, r8, r9, sl, fp, sp, lr}^
    9980:	70207265 	eorvc	r7, r0, r5, ror #4
    9984:	75746369 	ldrbvc	r6, [r4, #-873]!	; 0x369
    9988:	68206572 	stmdavs	r0!, {r1, r4, r5, r6, r8, sl, sp, lr}
    998c:	20666c61 	rsbcs	r6, r6, r1, ror #24
    9990:	62206f73 	eorvs	r6, r0, #460	; 0x1cc
    9994:	74756165 	ldrbtvc	r6, [r5], #-357	; 0x165
    9998:	6c756669 	ldclvs	6, cr6, [r5], #-420	; 0xfffffe5c
    999c:	410a0a21 	tstmi	sl, r1, lsr #20
    99a0:	65772073 	ldrbvs	r2, [r7, #-115]!	; 0x73
    99a4:	72757420 	rsbsvc	r7, r5, #536870912	; 0x20000000
    99a8:	2064656e 	rsbcs	r6, r4, lr, ror #10
    99ac:	20646e61 	rsbcs	r6, r4, r1, ror #28
    99b0:	65766f6d 	ldrbvs	r6, [r6, #-3949]!	; 0xf6d
    99b4:	67612064 	strbvs	r2, [r1, -r4, rrx]!
    99b8:	206e6961 	rsbcs	r6, lr, r1, ror #18
    99bc:	6f726874 	svcvs	0x00726874
    99c0:	20686775 	rsbcs	r6, r8, r5, ror r7
    99c4:	20656874 	rsbcs	r6, r5, r4, ror r8
    99c8:	706d6574 	rsbvc	r6, sp, r4, ror r5
    99cc:	202c656c 	eorcs	r6, ip, ip, ror #10
    99d0:	69772049 	ldmdbvs	r7!, {r0, r3, r6, sp}^
    99d4:	64656873 	strbtvs	r6, [r5], #-2163	; 0x873
    99d8:	61687420 	cmnvs	r8, r0, lsr #8
    99dc:	68742074 	ldmdavs	r4!, {r2, r4, r5, r6, sp}^
    99e0:	6c690a65 	stclvs	10, cr0, [r9], #-404	; 0xfffffe6c
    99e4:	7473756c 	ldrbtvc	r7, [r3], #-1388	; 0x56c
    99e8:	756f6972 	strbvc	r6, [pc, #-2418]!	; 907e <testdata+0x656>
    99ec:	656d2073 	strbvs	r2, [sp, #-115]!	; 0x73
    99f0:	6877206e 	ldmdavs	r7!, {r1, r2, r3, r5, r6, sp}^
    99f4:	6168206f 	cmnvs	r8, pc, rrx
    99f8:	61732064 	cmnvs	r3, r4, rrx
    99fc:	6e692074 	mcrvs	0, 3, r2, cr9, cr4, {3}
    9a00:	20746920 	rsbscs	r6, r4, r0, lsr #18
    9a04:	74206e69 	strtvc	r6, [r0], #-3689	; 0xe69
    9a08:	72206568 	eorvc	r6, r0, #436207616	; 0x1a000000
    9a0c:	746f6d65 	strbtvc	r6, [pc], #-3429	; 9a14 <testdata+0xfec>
    9a10:	67612065 	strbvs	r2, [r1, -r5, rrx]!
    9a14:	63207365 	teqvs	r0, #-1811939327	; 0x94000001
    9a18:	646c756f 	strbtvs	r7, [ip], #-1391	; 0x56f
    9a1c:	73697620 	cmnvc	r9, #33554432	; 0x2000000
    9a20:	69207469 	stmdbvs	r0!, {r0, r3, r5, r6, sl, ip, sp, lr}
    9a24:	67612074 			; <UNDEFINED> instruction: 0x67612074
    9a28:	0a6e6961 	beq	1ba3fb4 <complen+0x1b924bc>
    9a2c:	20646e61 	rsbcs	r6, r4, r1, ror #28
    9a30:	65766572 	ldrbvs	r6, [r6, #-1394]!	; 0x572
    9a34:	74206c61 	strtvc	r6, [r0], #-3169	; 0xc61
    9a38:	736d6568 	cmnvc	sp, #436207616	; 0x1a000000
    9a3c:	65766c65 	ldrbvs	r6, [r6, #-3173]!	; 0xc65
    9a40:	6f742073 	svcvs	0x00742073
    9a44:	72756f20 	rsbsvc	r6, r5, #128	; 0x80
    9a48:	72756320 	rsbsvc	r6, r5, #-2147483648	; 0x80000000
    9a4c:	73756f69 	cmnvc	r5, #420	; 0x1a4
    9a50:	65796520 	ldrbvs	r6, [r9, #-1312]!	; 0x520
    9a54:	502d2d73 	eorpl	r2, sp, r3, ror sp
    9a58:	6f74616c 	svcvs	0x0074616c
    9a5c:	7241202c 	subvc	r2, r1, #44	; 0x2c
    9a60:	6f747369 	svcvs	0x00747369
    9a64:	2c656c74 	stclcs	12, cr6, [r5], #-464	; 0xfffffe30
    9a68:	6d654420 	cfstrdvs	mvd4, [r5, #-128]!	; 0xffffff80
    9a6c:	6874736f 	ldmdavs	r4!, {r0, r1, r2, r3, r5, r6, r8, r9, ip, sp, lr}^
    9a70:	73656e65 	cmnvc	r5, #1616	; 0x650
    9a74:	6f530a2c 	svcvs	0x00530a2c
    9a78:	74617263 	strbtvc	r7, [r1], #-611	; 0x263
    9a7c:	202c7365 	eorcs	r7, ip, r5, ror #6
    9a80:	636f6850 	cmnvs	pc, #5242880	; 0x500000
    9a84:	2c6e6f69 	stclcs	15, cr6, [lr], #-420	; 0xfffffe5c
    9a88:	74795020 	ldrbtvc	r5, [r9], #-32
    9a8c:	6f676168 	svcvs	0x00676168
    9a90:	2c736172 	ldfcse	f6, [r3], #-456	; 0xfffffe38
    9a94:	63754520 	cmnvs	r5, #134217728	; 0x8000000
    9a98:	2c64696c 	stclcs	9, cr6, [r4], #-432	; 0xfffffe50
    9a9c:	6e695020 	cdpvs	0, 6, cr5, cr9, cr0, {1}
    9aa0:	2c726164 	ldfcse	f6, [r2], #-400	; 0xfffffe70
    9aa4:	6e655820 	cdpvs	8, 6, cr5, cr5, cr0, {1}
    9aa8:	6f68706f 	svcvs	0x0068706f
    9aac:	48202c6e 	stmdami	r0!, {r1, r2, r3, r5, r6, sl, fp, sp}
    9ab0:	646f7265 	strbtvs	r7, [pc], #-613	; 9ab8 <testdata+0x1090>
    9ab4:	7375746f 	cmnvc	r5, #1862270976	; 0x6f000000
    9ab8:	72500a2c 	subsvc	r0, r0, #180224	; 0x2c000
    9abc:	74697861 	strbtvc	r7, [r9], #-2145	; 0x861
    9ac0:	73656c65 	cmnvc	r5, #25856	; 0x6500
    9ac4:	646e6120 	strbtvs	r6, [lr], #-288	; 0x120
    9ac8:	69685020 	stmdbvs	r8!, {r5, ip, lr}^
    9acc:	73616964 	cmnvc	r1, #1638400	; 0x190000
    9ad0:	655a202c 	ldrbvs	r2, [sl, #-44]	; 0x2c
    9ad4:	73697875 	cmnvc	r9, #7667712	; 0x750000
    9ad8:	65687420 	strbvs	r7, [r8, #-1056]!	; 0x420
    9adc:	69617020 	stmdbvs	r1!, {r5, ip, sp, lr}^
    9ae0:	7265746e 	rsbvc	r7, r5, #1845493760	; 0x6e000000
    9ae4:	5720202e 	strpl	r2, [r0, -lr, lsr #32]!
    9ae8:	20746168 	rsbscs	r6, r4, r8, ror #2
    9aec:	6f632061 	svcvs	0x00632061
    9af0:	6574736e 	ldrbvs	r7, [r4, #-878]!	; 0x36e
    9af4:	74616c6c 	strbtvc	r6, [r1], #-3180	; 0xc6c
    9af8:	206e6f69 	rsbcs	r6, lr, r9, ror #30
    9afc:	630a666f 	movwvs	r6, #42607	; 0xa66f
    9b00:	62656c65 	rsbvs	r6, r5, #25856	; 0x6500
    9b04:	65746172 	ldrbvs	r6, [r4, #-370]!	; 0x172
    9b08:	616e2064 	cmnvs	lr, r4, rrx
    9b0c:	2173656d 	cmncs	r3, sp, ror #10
    9b10:	75422020 	strbvc	r2, [r2, #-32]
    9b14:	6f6d2074 	svcvs	0x006d2074
    9b18:	74206572 	strtvc	r6, [r0], #-1394	; 0x572
    9b1c:	206e6168 	rsbcs	r6, lr, r8, ror #2
    9b20:	2c6c6c61 	stclcs	12, cr6, [ip], #-388	; 0xfffffe7c
    9b24:	77204920 	strvc	r4, [r0, -r0, lsr #18]!
    9b28:	65687369 	strbvs	r7, [r8, #-873]!	; 0x369
    9b2c:	68742064 	ldmdavs	r4!, {r2, r5, r6, sp}^
    9b30:	6f207461 	svcvs	0x00207461
    9b34:	4420646c 	strtmi	r6, [r0], #-1132	; 0x46c
    9b38:	65676f69 	strbvs	r6, [r7, #-3945]!	; 0xf69
    9b3c:	2c73656e 	cfldr64cs	mvdx6, [r3], #-440	; 0xfffffe48
    9b40:	6f726720 	svcvs	0x00726720
    9b44:	676e6970 			; <UNDEFINED> instruction: 0x676e6970
    9b48:	206f730a 	rsbcs	r7, pc, sl, lsl #6
    9b4c:	69746170 	ldmdbvs	r4!, {r4, r5, r6, r8, sp, lr}^
    9b50:	6c746e65 	ldclvs	14, cr6, [r4], #-404	; 0xfffffe6c
    9b54:	69772079 	ldmdbvs	r7!, {r0, r3, r4, r5, r6, sp}^
    9b58:	68206874 	stmdavs	r0!, {r2, r4, r5, r6, fp, sp, lr}
    9b5c:	6c207369 	stcvs	3, cr7, [r0], #-420	; 0xfffffe5c
    9b60:	65746e61 	ldrbvs	r6, [r4, #-3681]!	; 0xe61
    9b64:	202c6e72 	eorcs	r6, ip, r2, ror lr
    9b68:	72616573 	rsbvc	r6, r1, #482344960	; 0x1cc00000
    9b6c:	6e696863 	cdpvs	8, 6, cr6, cr9, cr3, {3}
    9b70:	6f732067 	svcvs	0x00732067
    9b74:	61657a20 	cmnvs	r5, r0, lsr #20
    9b78:	73756f6c 	cmnvc	r5, #432	; 0x1b0
    9b7c:	6620796c 	strtvs	r7, [r0], -ip, ror #18
    9b80:	6f20726f 	svcvs	0x0020726f
    9b84:	7320656e 	teqvc	r0, #461373440	; 0x1b800000
    9b88:	74696c6f 	strbtvc	r6, [r9], #-3183	; 0xc6f
    9b8c:	0a797261 	beq	1e66518 <complen+0x1e54a20>
    9b90:	656e6f68 	strbvs	r6, [lr, #-3944]!	; 0xf68
    9b94:	6d207473 	cfstrsvs	mvf7, [r0, #-460]!	; 0xfffffe34
    9b98:	69206e61 	stmdbvs	r0!, {r0, r5, r6, r9, sl, fp, sp, lr}
    9b9c:	6c61206e 	stclvs	0, cr2, [r1], #-440	; 0xfffffe48
    9ba0:	6874206c 	ldmdavs	r4!, {r2, r3, r5, r6, sp}^
    9ba4:	6f772065 	svcvs	0x00772065
    9ba8:	2c646c72 	stclcs	12, cr6, [r4], #-456	; 0xfffffe38
    9bac:	67696d20 	strbvs	r6, [r9, -r0, lsr #26]!
    9bb0:	6d207468 	cfstrsvs	mvf7, [r0, #-416]!	; 0xfffffe60
    9bb4:	646e6165 	strbtvs	r6, [lr], #-357	; 0x165
    9bb8:	61207265 	teqvs	r0, r5, ror #4
    9bbc:	676e6f6c 	strbvs	r6, [lr, -ip, ror #30]!
    9bc0:	646e6120 	strbtvs	r6, [lr], #-288	; 0x120
    9bc4:	75747320 	ldrbvc	r7, [r4, #-800]!	; 0x320
    9bc8:	656c626d 	strbvs	r6, [ip, #-621]!	; 0x26d
    9bcc:	206e6f20 	rsbcs	r6, lr, r0, lsr #30
    9bd0:	0a72756f 	beq	1ca7194 <complen+0x1c9569c>
    9bd4:	74726170 	ldrbtvc	r6, [r2], #-368	; 0x170
    9bd8:	20202e79 	eorcs	r2, r0, r9, ror lr
    9bdc:	756f2049 	strbvc	r2, [pc, #-73]!	; 9b9b <testdata+0x1173>
    9be0:	20746867 	rsbscs	r6, r4, r7, ror #16
    9be4:	20746f6e 	rsbscs	r6, r4, lr, ror #30
    9be8:	73206f74 	teqvc	r0, #464	; 0x1d0
    9bec:	69207961 	stmdbvs	r0!, {r0, r5, r6, r8, fp, ip, sp, lr}
    9bf0:	6d202c74 	stcvs	12, cr2, [r0, #-464]!	; 0xfffffe30
    9bf4:	62207961 	eorvs	r7, r0, #1589248	; 0x184000
    9bf8:	62202c65 	eorvs	r2, r0, #25856	; 0x6500
    9bfc:	73207475 	teqvc	r0, #1962934272	; 0x75000000
    9c00:	6c6c6974 	stclvs	9, cr6, [ip], #-464	; 0xfffffe30
    9c04:	73204920 	teqvc	r0, #524288	; 0x80000
    9c08:	6f707075 	svcvs	0x00707075
    9c0c:	68206573 	stmdavs	r0!, {r0, r1, r4, r5, r6, r8, sl, sp, lr}
    9c10:	6f772065 	svcvs	0x00772065
    9c14:	20646c75 	rsbcs	r6, r4, r5, ror ip
    9c18:	65766168 	ldrbvs	r6, [r6, #-360]!	; 0x168
    9c1c:	7475700a 	ldrbtvc	r7, [r5], #-10
    9c20:	74756f20 	ldrbtvc	r6, [r5], #-3872	; 0xf20
    9c24:	73696820 	cmnvc	r9, #2097152	; 0x200000
    9c28:	67696c20 	strbvs	r6, [r9, -r0, lsr #24]!
    9c2c:	0a2e7468 	beq	ba6dd4 <complen+0xb952dc>
    9c30:	2065570a 	rsbcs	r5, r5, sl, lsl #14
    9c34:	7466656c 	strbtvc	r6, [r6], #-1388	; 0x56c
    9c38:	65687420 	strbvs	r7, [r8, #-1056]!	; 0x420
    9c3c:	72615020 	rsbvc	r5, r1, #32
    9c40:	6e656874 	mcrvs	8, 3, r6, cr5, cr4, {3}
    9c44:	74206e6f 	strtvc	r6, [r0], #-3695	; 0xe6f
    9c48:	656b206f 	strbvs	r2, [fp, #-111]!	; 0x6f
    9c4c:	69207065 	stmdbvs	r0!, {r0, r2, r5, r6, ip, sp, lr}
    9c50:	77207374 			; <UNDEFINED> instruction: 0x77207374
    9c54:	68637461 	stmdavs	r3!, {r0, r5, r6, sl, ip, sp, lr}^
    9c58:	65766f20 	ldrbvs	r6, [r6, #-3872]!	; 0xf20
    9c5c:	6c6f2072 	stclvs	0, cr2, [pc], #-456	; 9a9c <testdata+0x1074>
    9c60:	74412064 	strbvc	r2, [r1], #-100	; 0x64
    9c64:	736e6568 	cmnvc	lr, #436207616	; 0x1a000000
    9c68:	7361202c 	cmnvc	r1, #44	; 0x2c
    9c6c:	20746920 	rsbscs	r6, r4, r0, lsr #18
    9c70:	20646168 	rsbcs	r6, r4, r8, ror #2
    9c74:	7470656b 	ldrbtvc	r6, [r0], #-1387	; 0x56b
    9c78:	2074690a 	rsbscs	r6, r4, sl, lsl #18
    9c7c:	20726f66 	rsbscs	r6, r2, r6, ror #30
    9c80:	6e657774 	mcrvs	7, 3, r7, cr5, cr4, {3}
    9c84:	742d7974 	strtvc	r7, [sp], #-2420	; 0x974
    9c88:	65657268 	strbvs	r7, [r5, #-616]!	; 0x268
    9c8c:	6e756820 	cdpvs	8, 7, cr6, cr5, cr0, {1}
    9c90:	64657264 	strbtvs	r7, [r5], #-612	; 0x264
    9c94:	61657920 	cmnvs	r5, r0, lsr #18
    9c98:	202c7372 	eorcs	r7, ip, r2, ror r3
    9c9c:	20646e61 	rsbcs	r6, r4, r1, ror #28
    9ca0:	746e6577 	strbtvc	r6, [lr], #-1399	; 0x577
    9ca4:	646e6120 	strbtvs	r6, [lr], #-288	; 0x120
    9ca8:	6f747320 	svcvs	0x00747320
    9cac:	6f20646f 	svcvs	0x0020646f
    9cb0:	69737475 	ldmdbvs	r3!, {r0, r2, r4, r5, r6, sl, ip, sp, lr}^
    9cb4:	74206564 	strtvc	r6, [r0], #-1380	; 0x564
    9cb8:	77206568 	strvc	r6, [r0, -r8, ror #10]!
    9cbc:	736c6c61 	cmnvc	ip, #24832	; 0x6100
    9cc0:	20666f0a 	rsbcs	r6, r6, sl, lsl #30
    9cc4:	20656874 	rsbcs	r6, r5, r4, ror r8
    9cc8:	61746963 	cmnvs	r4, r3, ror #18
    9ccc:	2e6c6564 	cdpcs	5, 6, cr6, cr12, cr4, {3}
    9cd0:	6e492020 	cdpvs	0, 4, cr2, cr9, cr0, {1}
    9cd4:	65687420 	strbvs	r7, [r8, #-1056]!	; 0x420
    9cd8:	73696420 	cmnvc	r9, #536870912	; 0x20000000
    9cdc:	636e6174 	cmnvs	lr, #29
    9ce0:	61772065 	cmnvs	r7, r5, rrx
    9ce4:	68742073 	ldmdavs	r4!, {r0, r1, r4, r5, r6, sp}^
    9ce8:	6e612065 	cdpvs	0, 6, cr2, cr1, cr5, {3}
    9cec:	6e656963 	cdpvs	9, 6, cr6, cr5, cr3, {3}
    9cf0:	62202c74 	eorvs	r2, r0, #29696	; 0x7400
    9cf4:	73207475 	teqvc	r0, #1962934272	; 0x75000000
    9cf8:	6c6c6974 	stclvs	9, cr6, [ip], #-464	; 0xfffffe30
    9cfc:	6d6c6120 	stfvse	f6, [ip, #-128]!	; 0xffffff80
    9d00:	0a74736f 	beq	1d26ac4 <complen+0x1d14fcc>
    9d04:	66726570 			; <UNDEFINED> instruction: 0x66726570
    9d08:	20746365 	rsbscs	r6, r4, r5, ror #6
    9d0c:	706d6554 	rsbvc	r6, sp, r4, asr r5
    9d10:	6f20656c 	svcvs	0x0020656c
    9d14:	68542066 	ldmdavs	r4, {r1, r2, r5, r6, sp}^
    9d18:	75657365 	strbvc	r7, [r5, #-869]!	; 0x365
    9d1c:	61202c73 	teqvs	r0, r3, ror ip
    9d20:	6320646e 	teqvs	r0, #1845493760	; 0x6e000000
    9d24:	65736f6c 	ldrbvs	r6, [r3, #-3948]!	; 0xf6c
    9d28:	2c796220 	lfmcs	f6, 2, [r9], #-128	; 0xffffff80
    9d2c:	6f6f6c20 	svcvs	0x006f6c20
    9d30:	676e696b 	strbvs	r6, [lr, -fp, ror #18]!
    9d34:	206f7420 	rsbcs	r7, pc, r0, lsr #8
    9d38:	20656874 	rsbcs	r6, r5, r4, ror r8
    9d3c:	74736577 	ldrbtvc	r6, [r3], #-1399	; 0x577
    9d40:	6177202c 	cmnvs	r7, ip, lsr #32
    9d44:	68742073 	ldmdavs	r4!, {r0, r1, r4, r5, r6, sp}^
    9d48:	65420a65 	strbvs	r0, [r2, #-2661]	; 0xa65
    9d4c:	202c616d 	eorcs	r6, ip, sp, ror #2
    9d50:	6d6f7266 	sfmvs	f7, 2, [pc, #-408]!	; 9bc0 <testdata+0x1198>
    9d54:	65687720 	strbvs	r7, [r8, #-1824]!	; 0x720
    9d58:	2065636e 	rsbcs	r6, r5, lr, ror #6
    9d5c:	6f6d6544 	svcvs	0x006d6544
    9d60:	65687473 	strbvs	r7, [r8, #-1139]!	; 0x473
    9d64:	2073656e 	rsbscs	r6, r3, lr, ror #10
    9d68:	6e756874 	mrcvs	8, 3, r6, cr5, cr4, {3}
    9d6c:	65726564 	ldrbvs	r6, [r2, #-1380]!	; 0x564
    9d70:	69682064 	stmdbvs	r8!, {r2, r5, r6, sp}^
    9d74:	68702073 	ldmdavs	r0!, {r0, r1, r4, r5, r6, sp}^
    9d78:	70696c69 	rsbvc	r6, r9, r9, ror #24
    9d7c:	73636970 	cmnvc	r3, #1835008	; 0x1c0000
    9d80:	646e6120 	strbtvs	r6, [lr], #-288	; 0x120
    9d84:	72696620 	rsbvc	r6, r9, #33554432	; 0x2000000
    9d88:	74206465 	strtvc	r6, [r0], #-1125	; 0x465
    9d8c:	770a6568 	strvc	r6, [sl, -r8, ror #10]
    9d90:	72657661 	rsbvc	r7, r5, #101711872	; 0x6100000
    9d94:	20676e69 	rsbcs	r6, r7, r9, ror #28
    9d98:	72746170 	rsbsvc	r6, r4, #28
    9d9c:	69746f69 	ldmdbvs	r4!, {r0, r3, r5, r6, r8, r9, sl, fp, sp, lr}^
    9da0:	6f206d73 	svcvs	0x00206d73
    9da4:	69682066 	stmdbvs	r8!, {r1, r2, r5, r6, sp}^
    9da8:	6f632073 	svcvs	0x00632073
    9dac:	72746e75 	rsbsvc	r6, r4, #1872	; 0x750
    9db0:	6e656d79 	mcrvs	13, 3, r6, cr5, cr9, {3}
    9db4:	5420202e 	strtpl	r2, [r0], #-46	; 0x2e
    9db8:	6874206f 	ldmdavs	r4!, {r0, r1, r2, r3, r5, r6, sp}^
    9dbc:	69722065 	ldmdbvs	r2!, {r0, r2, r5, r6, sp}^
    9dc0:	20746867 	rsbscs	r6, r4, r7, ror #16
    9dc4:	20736177 	rsbscs	r6, r3, r7, ror r1
    9dc8:	7372614d 	cmnvc	r2, #1073741843	; 0x40000013
    9dcc:	6c694820 	stclvs	8, cr4, [r9], #-128	; 0xffffff80
    9dd0:	77202c6c 	strvc	r2, [r0, -ip, ror #24]!
    9dd4:	65726568 	ldrbvs	r6, [r2, #-1384]!	; 0x568
    9dd8:	6568740a 	strbvs	r7, [r8, #-1034]!	; 0x40a
    9ddc:	65724120 	ldrbvs	r4, [r2, #-288]!	; 0x120
    9de0:	6761706f 	strbvs	r7, [r1, -pc, rrx]!
    9de4:	73207375 	teqvc	r0, #-738197503	; 0xd4000001
    9de8:	69207461 	stmdbvs	r0!, {r0, r5, r6, sl, ip, sp, lr}
    9dec:	6e61206e 	cdpvs	0, 6, cr2, cr1, cr14, {3}
    9df0:	6e656963 	cdpvs	9, 6, cr6, cr5, cr3, {3}
    9df4:	69742074 	ldmdbvs	r4!, {r2, r4, r5, r6, sp}^
    9df8:	2073656d 	rsbscs	r6, r3, sp, ror #10
    9dfc:	20646e61 	rsbcs	r6, r4, r1, ror #28
    9e00:	72656877 	rsbvc	r6, r5, #7798784	; 0x770000
    9e04:	74532065 	ldrbvc	r2, [r3], #-101	; 0x65
    9e08:	6150202e 	cmpvs	r0, lr, lsr #32
    9e0c:	64206c75 	strtvs	r6, [r0], #-3189	; 0xc75
    9e10:	6e696665 	cdpvs	6, 6, cr6, cr9, cr5, {3}
    9e14:	68206465 	stmdavs	r0!, {r0, r2, r5, r6, sl, sp, lr}
    9e18:	700a7369 	andvc	r7, sl, r9, ror #6
    9e1c:	7469736f 	strbtvc	r7, [r9], #-879	; 0x36f
    9e20:	2c6e6f69 	stclcs	15, cr6, [lr], #-420	; 0xfffffe5c
    9e24:	646e6120 	strbtvs	r6, [lr], #-288	; 0x120
    9e28:	6c656220 	sfmvs	f6, 2, [r5], #-128	; 0xffffff80
    9e2c:	7720776f 	strvc	r7, [r0, -pc, ror #14]!
    9e30:	74207361 	strtvc	r7, [r0], #-865	; 0x361
    9e34:	6d206568 	cfstr32vs	mvfx6, [r0, #-416]!	; 0xfffffe60
    9e38:	656b7261 	strbvs	r7, [fp, #-609]!	; 0x261
    9e3c:	6c702d74 	ldclvs	13, cr2, [r0], #-464	; 0xfffffe30
    9e40:	20656361 	rsbcs	r6, r5, r1, ror #6
    9e44:	72656877 	rsbvc	r6, r5, #7798784	; 0x770000
    9e48:	65682065 	strbvs	r2, [r8, #-101]!	; 0x65
    9e4c:	69642220 	stmdbvs	r4!, {r5, r9, sp}^
    9e50:	74757073 	ldrbtvc	r7, [r5], #-115	; 0x73
    9e54:	64206465 	strtvs	r6, [r0], #-1125	; 0x465
    9e58:	796c6961 	stmdbvc	ip!, {r0, r5, r6, r8, fp, sp, lr}^
    9e5c:	69772022 	ldmdbvs	r7!, {r1, r5, sp}^
    9e60:	740a6874 	strvc	r6, [sl], #-2164	; 0x874
    9e64:	67206568 	strvs	r6, [r0, -r8, ror #10]!
    9e68:	6973736f 	ldmdbvs	r3!, {r0, r1, r2, r3, r5, r6, r8, r9, ip, sp, lr}^
    9e6c:	6f6c2d70 	svcvs	0x006c2d70
    9e70:	676e6976 			; <UNDEFINED> instruction: 0x676e6976
    9e74:	68744120 	ldmdavs	r4!, {r5, r8, lr}^
    9e78:	61696e65 	cmnvs	r9, r5, ror #28
    9e7c:	202e736e 	eorcs	r7, lr, lr, ror #6
    9e80:	20655720 	rsbcs	r5, r5, r0, lsr #14
    9e84:	6d696c63 	stclvs	12, cr6, [r9, #-396]!	; 0xfffffe74
    9e88:	20646562 	rsbcs	r6, r4, r2, ror #10
    9e8c:	20656874 	rsbcs	r6, r5, r4, ror r8
    9e90:	6e6f7473 	mcrvs	4, 3, r7, cr15, cr3, {3}
    9e94:	74732065 	ldrbtvc	r2, [r3], #-101	; 0x65
    9e98:	20737065 	rsbscs	r7, r3, r5, rrx
    9e9c:	202e7453 	eorcs	r7, lr, r3, asr r4
    9ea0:	6c756150 	ldfvse	f6, [r5], #-320	; 0xfffffec0
    9ea4:	6373610a 	cmnvs	r3, #-2147483646	; 0x80000002
    9ea8:	65646e65 	strbvs	r6, [r4, #-3685]!	; 0xe65
    9eac:	61202c64 	teqvs	r0, r4, ror #24
    9eb0:	7320646e 	teqvc	r0, #1845493760	; 0x6e000000
    9eb4:	646f6f74 	strbtvs	r6, [pc], #-3956	; 9ebc <testdata+0x1494>
    9eb8:	206e6920 	rsbcs	r6, lr, r0, lsr #18
    9ebc:	20656874 	rsbcs	r6, r5, r4, ror r8
    9ec0:	61757173 	cmnvs	r5, r3, ror r1
    9ec4:	632d6572 	teqvs	sp, #478150656	; 0x1c800000
    9ec8:	70207475 	eorvc	r7, r0, r5, ror r4
    9ecc:	6563616c 	strbvs	r6, [r3, #-364]!	; 0x16c
    9ed0:	20656820 	rsbcs	r6, r5, r0, lsr #16
    9ed4:	6f6f7473 	svcvs	0x006f7473
    9ed8:	6e692064 	cdpvs	0, 6, cr2, cr9, cr4, {3}
    9edc:	6e61202c 	cdpvs	0, 6, cr2, cr1, cr12, {1}
    9ee0:	72742064 	rsbsvc	r2, r4, #100	; 0x64
    9ee4:	20646569 	rsbcs	r6, r4, r9, ror #10
    9ee8:	720a6f74 	andvc	r6, sl, #464	; 0x1d0
    9eec:	6c6f6365 	stclvs	3, cr6, [pc], #-404	; 9d60 <testdata+0x1338>
    9ef0:	7463656c 	strbtvc	r6, [r3], #-1388	; 0x56c
    9ef4:	65687420 	strbvs	r7, [r8, #-1056]!	; 0x420
    9ef8:	62694220 	rsbvs	r4, r9, #2
    9efc:	6120656c 	teqvs	r0, ip, ror #10
    9f00:	756f6363 	strbvc	r6, [pc, #-867]!	; 9ba5 <testdata+0x117d>
    9f04:	6f20746e 	svcvs	0x0020746e
    9f08:	68742066 	ldmdavs	r4!, {r1, r2, r5, r6, sp}^
    9f0c:	616d2065 	cmnvs	sp, r5, rrx
    9f10:	72657474 	rsbvc	r7, r5, #1946157056	; 0x74000000
    9f14:	75622d2d 	strbvc	r2, [r2, #-3373]!	; 0xd2d
    9f18:	6f662074 	svcvs	0x00662074
    9f1c:	65632072 	strbvs	r2, [r3, #-114]!	; 0x72
    9f20:	69617472 	stmdbvs	r1!, {r1, r4, r5, r6, sl, ip, sp, lr}^
    9f24:	6572206e 	ldrbvs	r2, [r2, #-110]!	; 0x6e
    9f28:	6e6f7361 	cdpvs	3, 6, cr7, cr15, cr1, {3}
    9f2c:	49202c73 	stmdbmi	r0!, {r0, r1, r4, r5, r6, sl, fp, sp}
    9f30:	756f630a 	strbvc	r6, [pc, #-778]!	; 9c2e <testdata+0x1206>
    9f34:	6e20646c 	cdpvs	4, 2, cr6, cr0, cr12, {3}
    9f38:	7220746f 	eorvc	r7, r0, #1862270976	; 0x6f000000
    9f3c:	6c616365 	stclvs	3, cr6, [r1], #-404	; 0xfffffe6c
    9f40:	6874206c 	ldmdavs	r4!, {r2, r3, r5, r6, sp}^
    9f44:	6f772065 	svcvs	0x00772065
    9f48:	2e736472 	mrccs	4, 3, r6, cr3, cr2, {3}
    9f4c:	20492020 	subcs	r2, r9, r0, lsr #32
    9f50:	65766168 	ldrbvs	r6, [r6, #-360]!	; 0x168
    9f54:	756f6620 	strbvc	r6, [pc, #-1568]!	; 993c <testdata+0xf14>
    9f58:	7420646e 	strtvc	r6, [r0], #-1134	; 0x46e
    9f5c:	206d6568 	rsbcs	r6, sp, r8, ror #10
    9f60:	636e6973 	cmnvs	lr, #1884160	; 0x1cc000
    9f64:	0a0a3a65 	beq	298900 <complen+0x286e08>
    9f68:	20202020 	eorcs	r2, r0, r0, lsr #32
    9f6c:	6f4e2220 	svcvs	0x004e2220
    9f70:	68772077 	ldmdavs	r7!, {r0, r1, r2, r4, r5, r6, sp}^
    9f74:	20656c69 	rsbcs	r6, r5, r9, ror #24
    9f78:	6c756150 	ldfvse	f6, [r5], #-320	; 0xfffffec0
    9f7c:	69617720 	stmdbvs	r1!, {r5, r8, r9, sl, ip, sp, lr}^
    9f80:	20646574 	rsbcs	r6, r4, r4, ror r5
    9f84:	20726f66 	rsbscs	r6, r2, r6, ror #30
    9f88:	6d656874 	stclvs	8, cr6, [r5, #-464]!	; 0xfffffe30
    9f8c:	20746120 	rsbscs	r6, r4, r0, lsr #2
    9f90:	65687441 	strbvs	r7, [r8, #-1089]!	; 0x441
    9f94:	202c736e 	eorcs	r7, ip, lr, ror #6
    9f98:	20736968 	rsbscs	r6, r3, r8, ror #18
    9f9c:	72697073 	rsbvc	r7, r9, #115	; 0x73
    9fa0:	77207469 	strvc	r7, [r0, -r9, ror #8]!
    9fa4:	73207361 	teqvc	r0, #-2080374783	; 0x84000001
    9fa8:	72726974 	rsbsvc	r6, r2, #1900544	; 0x1d0000
    9fac:	69206465 	stmdbvs	r0!, {r0, r2, r5, r6, sl, sp, lr}
    9fb0:	20200a6e 	eorcs	r0, r0, lr, ror #20
    9fb4:	68202020 	stmdavs	r0!, {r5, sp}
    9fb8:	202c6d69 	eorcs	r6, ip, r9, ror #26
    9fbc:	6e656877 	mcrvs	8, 3, r6, cr5, cr7, {3}
    9fc0:	20656820 	rsbcs	r6, r5, r0, lsr #16
    9fc4:	20776173 	rsbscs	r6, r7, r3, ror r1
    9fc8:	20656874 	rsbcs	r6, r5, r4, ror r8
    9fcc:	79746963 	ldmdbvc	r4!, {r0, r1, r5, r6, r8, fp, sp, lr}^
    9fd0:	6f687720 	svcvs	0x00687720
    9fd4:	20796c6c 	rsbscs	r6, r9, ip, ror #24
    9fd8:	65766967 	ldrbvs	r6, [r6, #-2407]!	; 0x967
    9fdc:	7075206e 	rsbsvc	r2, r5, lr, rrx
    9fe0:	206f7420 	rsbcs	r7, pc, r0, lsr #8
    9fe4:	6c6f6469 	cfstrdvs	mvd6, [pc], #-420	; 9e48 <testdata+0x1420>
    9fe8:	79727461 	ldmdbvc	r2!, {r0, r5, r6, sl, ip, sp, lr}^
    9fec:	5420202e 	strtpl	r2, [r0], #-46	; 0x2e
    9ff0:	65726568 	ldrbvs	r6, [r2, #-1384]!	; 0x568
    9ff4:	65726f66 	ldrbvs	r6, [r2, #-3942]!	; 0xf66
    9ff8:	2020200a 	eorcs	r2, r0, sl
    9ffc:	69642020 	stmdbvs	r4!, {r5, sp}^
    a000:	74757073 	ldrbtvc	r7, [r5], #-115	; 0x73
    a004:	68206465 	stmdavs	r0!, {r0, r2, r5, r6, sl, sp, lr}
    a008:	6e692065 	cdpvs	0, 6, cr2, cr9, cr5, {3}
    a00c:	65687420 	strbvs	r7, [r8, #-1056]!	; 0x420
    a010:	6e797320 	cdpvs	3, 7, cr7, cr9, cr0, {1}
    a014:	676f6761 	strbvs	r6, [pc, -r1, ror #14]!
    a018:	77206575 			; <UNDEFINED> instruction: 0x77206575
    a01c:	20687469 	rsbcs	r7, r8, r9, ror #8
    a020:	20656874 	rsbcs	r6, r5, r4, ror r8
    a024:	7377654a 	cmnvc	r7, #310378496	; 0x12800000
    a028:	6e61202c 	cdpvs	0, 6, cr2, cr1, cr12, {1}
    a02c:	69772064 	ldmdbvs	r7!, {r2, r5, r6, sp}^
    a030:	74206874 	strtvc	r6, [r0], #-2164	; 0x874
    a034:	64206568 	strtvs	r6, [r0], #-1384	; 0x568
    a038:	756f7665 	strbvc	r7, [pc, #-1637]!	; 99db <testdata+0xfb3>
    a03c:	20200a74 	eorcs	r0, r0, r4, ror sl
    a040:	70202020 	eorvc	r2, r0, r0, lsr #32
    a044:	6f737265 	svcvs	0x00737265
    a048:	202c736e 	eorcs	r7, ip, lr, ror #6
    a04c:	20646e61 	rsbcs	r6, r4, r1, ror #28
    a050:	74206e69 	strtvc	r6, [r0], #-3689	; 0xe69
    a054:	6d206568 	cfstr32vs	mvfx6, [r0, #-416]!	; 0xfffffe60
    a058:	656b7261 	strbvs	r7, [fp, #-609]!	; 0x261
    a05c:	61642074 	smcvs	16900	; 0x4204
    a060:	20796c69 	rsbscs	r6, r9, r9, ror #24
    a064:	68746977 	ldmdavs	r4!, {r0, r1, r2, r4, r5, r6, r8, fp, sp, lr}^
    a068:	65687420 	strbvs	r7, [r8, #-1056]!	; 0x420
    a06c:	6874206d 	ldmdavs	r4!, {r0, r2, r3, r5, r6, sp}^
    a070:	6d207461 	cfstrsvs	mvf7, [r0, #-388]!	; 0xfffffe7c
    a074:	77207465 	strvc	r7, [r0, -r5, ror #8]!
    a078:	20687469 	rsbcs	r7, r8, r9, ror #8
    a07c:	2e6d6968 	cdpcs	9, 6, cr6, cr13, cr8, {3}
    a080:	2020200a 	eorcs	r2, r0, sl
    a084:	20202020 	eorcs	r2, r0, r0, lsr #32
    a088:	20202020 	eorcs	r2, r0, r0, lsr #32
    a08c:	20202020 	eorcs	r2, r0, r0, lsr #32
    a090:	20202020 	eorcs	r2, r0, r0, lsr #32
    a094:	20202020 	eorcs	r2, r0, r0, lsr #32
    a098:	202a2020 	eorcs	r2, sl, r0, lsr #32
    a09c:	202a202a 	eorcs	r2, sl, sl, lsr #32
    a0a0:	202a202a 	eorcs	r2, sl, sl, lsr #32
    a0a4:	202a202a 	eorcs	r2, sl, sl, lsr #32
    a0a8:	0a2a202a 	beq	a92158 <complen+0xa80660>
    a0ac:	20202020 	eorcs	r2, r0, r0, lsr #32
    a0b0:	6e412220 	cdpvs	2, 4, cr2, cr1, cr0, {1}
    a0b4:	68742064 	ldmdavs	r4!, {r2, r5, r6, sp}^
    a0b8:	74207965 	strtvc	r7, [r0], #-2405	; 0x965
    a0bc:	206b6f6f 	rsbcs	r6, fp, pc, ror #30
    a0c0:	206d6968 	rsbcs	r6, sp, r8, ror #18
    a0c4:	20646e61 	rsbcs	r6, r4, r1, ror #28
    a0c8:	756f7262 	strbvc	r7, [pc, #-610]!	; 9e6e <testdata+0x1446>
    a0cc:	20746867 	rsbscs	r6, r4, r7, ror #16
    a0d0:	206d6968 	rsbcs	r6, sp, r8, ror #18
    a0d4:	6f746e75 	svcvs	0x00746e75
    a0d8:	65724120 	ldrbvs	r4, [r2, #-288]!	; 0x120
    a0dc:	6761706f 	strbvs	r7, [r1, -pc, rrx]!
    a0e0:	202c7375 	eorcs	r7, ip, r5, ror r3
    a0e4:	69796173 	ldmdbvs	r9!, {r0, r1, r4, r5, r6, r8, sp, lr}^
    a0e8:	202c676e 	eorcs	r6, ip, lr, ror #14
    a0ec:	2079614d 	rsbscs	r6, r9, sp, asr #2
    a0f0:	200a6577 	andcs	r6, sl, r7, ror r5
    a0f4:	20202020 	eorcs	r2, r0, r0, lsr #32
    a0f8:	776f6e6b 	strbvc	r6, [pc, -fp, ror #28]!
    a0fc:	61687720 	cmnvs	r8, r0, lsr #14
    a100:	68742074 	ldmdavs	r4!, {r2, r4, r5, r6, sp}^
    a104:	6e207369 	cdpvs	3, 2, cr7, cr0, cr9, {3}
    a108:	64207765 	strtvs	r7, [r0], #-1893	; 0x765
    a10c:	7274636f 	rsbsvc	r6, r4, #-1140850687	; 0xbc000001
    a110:	20656e69 	rsbcs	r6, r5, r9, ror #28
    a114:	72656877 	rsbvc	r6, r5, #7798784	; 0x770000
    a118:	20666f65 	rsbcs	r6, r6, r5, ror #30
    a11c:	756f6874 	strbvc	r6, [pc, #-2164]!	; 98b0 <testdata+0xe88>
    a120:	65707320 	ldrbvs	r7, [r0, #-800]!	; 0x320
    a124:	73656b61 	cmnvc	r5, #99328	; 0x18400
    a128:	73692074 	cmnvc	r9, #116	; 0x74
    a12c:	20200a3f 	eorcs	r0, r0, pc, lsr sl
    a130:	20202020 	eorcs	r2, r0, r0, lsr #32
    a134:	20202020 	eorcs	r2, r0, r0, lsr #32
    a138:	20202020 	eorcs	r2, r0, r0, lsr #32
    a13c:	20202020 	eorcs	r2, r0, r0, lsr #32
    a140:	20202020 	eorcs	r2, r0, r0, lsr #32
    a144:	2a202020 	bcs	8121cc <complen+0x8006d4>
    a148:	2a202a20 	bcs	8149d0 <complen+0x802ed8>
    a14c:	2a202a20 	bcs	8149d4 <complen+0x802edc>
    a150:	2a202a20 	bcs	8149d8 <complen+0x802ee0>
    a154:	2a202a20 	bcs	8149dc <complen+0x802ee4>
    a158:	2020200a 	eorcs	r2, r0, sl
    a15c:	54222020 	strtpl	r2, [r2], #-32
    a160:	206e6568 	rsbcs	r6, lr, r8, ror #10
    a164:	6c756150 	ldfvse	f6, [r5], #-320	; 0xfffffec0
    a168:	6f747320 	svcvs	0x00747320
    a16c:	6920646f 	stmdbvs	r0!, {r0, r1, r2, r3, r5, r6, sl, sp, lr}
    a170:	6874206e 	ldmdavs	r4!, {r1, r2, r3, r5, r6, sp}^
    a174:	696d2065 	stmdbvs	sp!, {r0, r2, r5, r6, sp}^
    a178:	20747364 	rsbscs	r7, r4, r4, ror #6
    a17c:	4d20666f 	stcmi	6, cr6, [r0, #-444]!	; 0xfffffe44
    a180:	20737261 	rsbscs	r7, r3, r1, ror #4
    a184:	6c6c6968 	stclvs	9, cr6, [ip], #-416	; 0xfffffe60
    a188:	6e61202c 	cdpvs	0, 6, cr2, cr1, cr12, {1}
    a18c:	61732064 	cmnvs	r3, r4, rrx
    a190:	202c6469 	eorcs	r6, ip, r9, ror #8
    a194:	6d206559 	cfstr32vs	mvfx6, [r0, #-356]!	; 0xfffffe9c
    a198:	6f206e65 	svcvs	0x00206e65
    a19c:	20200a66 	eorcs	r0, r0, r6, ror #20
    a1a0:	41202020 	teqmi	r0, r0, lsr #32
    a1a4:	6e656874 	mcrvs	8, 3, r6, cr5, cr4, {3}
    a1a8:	49202c73 	stmdbmi	r0!, {r0, r1, r4, r5, r6, sl, fp, sp}
    a1ac:	72657020 	rsbvc	r7, r5, #32
    a1b0:	76696563 	strbtvc	r6, [r9], -r3, ror #10
    a1b4:	68742065 	ldmdavs	r4!, {r0, r2, r5, r6, sp}^
    a1b8:	69207461 	stmdbvs	r0!, {r0, r5, r6, sl, ip, sp, lr}
    a1bc:	6c61206e 	stclvs	0, cr2, [r1], #-440	; 0xfffffe48
    a1c0:	6874206c 	ldmdavs	r4!, {r2, r3, r5, r6, sp}^
    a1c4:	73676e69 	cmnvc	r7, #1680	; 0x690
    a1c8:	20657920 	rsbcs	r7, r5, r0, lsr #18
    a1cc:	20657261 	rsbcs	r7, r5, r1, ror #4
    a1d0:	206f6f74 	rsbcs	r6, pc, r4, ror pc	; <UNPREDICTABLE>
    a1d4:	65707573 	ldrbvs	r7, [r0, #-1395]!	; 0x573
    a1d8:	69747372 	ldmdbvs	r4!, {r1, r4, r5, r6, r8, r9, ip, sp, lr}^
    a1dc:	756f6974 	strbvc	r6, [pc, #-2420]!	; 9870 <testdata+0xe48>
    a1e0:	46203b73 			; <UNDEFINED> instruction: 0x46203b73
    a1e4:	200a726f 	andcs	r7, sl, pc, ror #4
    a1e8:	20202020 	eorcs	r2, r0, r0, lsr #32
    a1ec:	49207361 	stmdbmi	r0!, {r0, r5, r6, r8, r9, ip, sp, lr}
    a1f0:	73617020 	cmnvc	r1, #32
    a1f4:	20646573 	rsbcs	r6, r4, r3, ror r5
    a1f8:	61207962 	teqvs	r0, r2, ror #18
    a1fc:	6220646e 	eorvs	r6, r0, #1845493760	; 0x6e000000
    a200:	6c656865 	stclvs	8, cr6, [r5], #-404	; 0xfffffe6c
    a204:	6f792064 	svcvs	0x00792064
    a208:	64207275 	strtvs	r7, [r0], #-629	; 0x275
    a20c:	746f7665 	strbtvc	r7, [pc], #-1637	; a214 <testdata+0x17ec>
    a210:	736e6f69 	cmnvc	lr, #420	; 0x1a4
    a214:	2049202c 	subcs	r2, r9, ip, lsr #32
    a218:	6e756f66 	cdpvs	15, 7, cr6, cr5, cr6, {3}
    a21c:	6e612064 	cdpvs	0, 6, cr2, cr1, cr4, {3}
    a220:	746c6120 	strbtvc	r6, [ip], #-288	; 0x120
    a224:	77207261 	strvc	r7, [r0, -r1, ror #4]!
    a228:	20687469 	rsbcs	r7, r8, r9, ror #8
    a22c:	73696874 	cmnvc	r9, #7602176	; 0x740000
    a230:	2020200a 	eorcs	r2, r0, sl
    a234:	6e692020 	cdpvs	0, 6, cr2, cr9, cr0, {1}
    a238:	69726373 	ldmdbvs	r2!, {r0, r1, r4, r5, r6, r8, r9, sp, lr}^
    a23c:	6f697470 	svcvs	0x00697470
    a240:	54203a6e 	strtpl	r3, [r0], #-2670	; 0xa6e
    a244:	4854206f 	ldmdami	r4, {r0, r1, r2, r3, r5, r6, sp}^
    a248:	4e552045 	cdpmi	0, 5, cr2, cr5, cr5, {2}
    a24c:	574f4e4b 	strbpl	r4, [pc, -fp, asr #28]
    a250:	4f47204e 	svcmi	0x0047204e
    a254:	20202e44 	eorcs	r2, r0, r4, asr #28
    a258:	6d6f6857 	stclvs	8, cr6, [pc, #-348]!	; a104 <testdata+0x16dc>
    a25c:	6874202c 	ldmdavs	r4!, {r2, r3, r5, sp}^
    a260:	66657265 	strbtvs	r7, [r5], -r5, ror #4
    a264:	2c65726f 	sfmcs	f7, 2, [r5], #-444	; 0xfffffe44
    a268:	20657920 	rsbcs	r7, r5, r0, lsr #18
    a26c:	6f6e6769 	svcvs	0x006e6769
    a270:	746e6172 	strbtvc	r6, [lr], #-370	; 0x172
    a274:	200a796c 	andcs	r7, sl, ip, ror #18
    a278:	20202020 	eorcs	r2, r0, r0, lsr #32
    a27c:	73726f77 	cmnvc	r2, #476	; 0x1dc
    a280:	2c706968 	ldclcs	9, cr6, [r0], #-416	; 0xfffffe60
    a284:	6d696820 	stclvs	8, cr6, [r9, #-128]!	; 0xffffff80
    a288:	63656420 	cmnvs	r5, #536870912	; 0x20000000
    a28c:	6572616c 	ldrbvs	r6, [r2, #-364]!	; 0x16c
    a290:	75204920 	strvc	r4, [r0, #-2336]!	; 0x920
    a294:	206f746e 	rsbcs	r7, pc, lr, ror #8
    a298:	2e756f79 	mrccs	15, 3, r6, cr5, cr9, {3}
    a29c:	412d2d22 	teqmi	sp, r2, lsr #26
    a2a0:	2c737463 	cfldrdcs	mvd7, [r3], #-396	; 0xfffffe74
    a2a4:	2e686320 	cdpcs	3, 6, cr6, cr8, cr0, {1}
    a2a8:	69767820 	ldmdbvs	r6!, {r5, fp, ip, sp, lr}^
    a2ac:	0a222e69 	beq	895c58 <complen+0x884160>
    a2b0:	2074490a 	rsbscs	r4, r4, sl, lsl #18
    a2b4:	7563636f 	strbvc	r6, [r3, #-879]!	; 0x36f
    a2b8:	64657272 	strbtvs	r7, [r5], #-626	; 0x272
    a2bc:	206f7420 	rsbcs	r7, pc, r0, lsr #8
    a2c0:	202c7375 	eorcs	r7, ip, r5, ror r3
    a2c4:	65746661 	ldrbvs	r6, [r4, #-1633]!	; 0x661
    a2c8:	20612072 	rsbcs	r2, r1, r2, ror r0
    a2cc:	6c696877 	stclvs	8, cr6, [r9], #-476	; 0xfffffe24
    a2d0:	74202c65 	strtvc	r2, [r0], #-3173	; 0xc65
    a2d4:	20746168 	rsbscs	r6, r4, r8, ror #2
    a2d8:	77206669 	strvc	r6, [r0, -r9, ror #12]!
    a2dc:	61772065 	cmnvs	r7, r5, rrx
    a2e0:	6465746e 	strbtvs	r7, [r5], #-1134	; 0x46e
    a2e4:	206f7420 	rsbcs	r7, pc, r0, lsr #8
    a2e8:	20746567 	rsbscs	r6, r4, r7, ror #10
    a2ec:	656d6f68 	strbvs	r6, [sp, #-3944]!	; 0xf68
    a2f0:	66656220 	strbtvs	r6, [r5], -r0, lsr #4
    a2f4:	0a65726f 	beq	1966cb8 <complen+0x19551c0>
    a2f8:	6c796164 	ldfvse	f6, [r9], #-400	; 0xfffffe70
    a2fc:	74686769 	strbtvc	r6, [r8], #-1897	; 0x769
    a300:	74656220 	strbtvc	r6, [r5], #-544	; 0x220
    a304:	65796172 	ldrbvs	r6, [r9, #-370]!	; 0x172
    a308:	73752064 	cmnvc	r5, #100	; 0x64
    a30c:	6577202c 	ldrbvs	r2, [r7, #-44]!	; 0x2c
    a310:	64616820 	strbtvs	r6, [r1], #-2080	; 0x820
    a314:	74656220 	strbtvc	r6, [r5], #-544	; 0x220
    a318:	20726574 	rsbscs	r6, r2, r4, ror r5
    a31c:	6d206562 	cfstr32vs	mvfx6, [r0, #-392]!	; 0xfffffe78
    a320:	6e69766f 	cdpvs	6, 6, cr7, cr9, cr15, {3}
    a324:	20202e67 	eorcs	r2, r0, r7, ror #28
    a328:	77206f53 			; <UNDEFINED> instruction: 0x77206f53
    a32c:	75682065 	strbvc	r2, [r8, #-101]!	; 0x65
    a330:	65697272 	strbvs	r7, [r9, #-626]!	; 0x272
    a334:	77612064 	strbvc	r2, [r1, -r4, rrx]!
    a338:	202e7961 	eorcs	r7, lr, r1, ror #18
    a33c:	65685720 	strbvs	r5, [r8, #-1824]!	; 0x720
    a340:	61660a6e 	cmnvs	r6, lr, ror #20
    a344:	6e6f2072 	mcrvs	0, 3, r2, cr15, cr2, {3}
    a348:	72756f20 	rsbsvc	r6, r5, #128	; 0x80
    a34c:	616f7220 	cmnvs	pc, r0, lsr #4
    a350:	77202c64 	strvc	r2, [r0, -r4, ror #24]!
    a354:	61682065 	cmnvs	r8, r5, rrx
    a358:	20612064 	rsbcs	r2, r1, r4, rrx
    a35c:	74726170 	ldrbtvc	r6, [r2], #-368	; 0x170
    a360:	20676e69 	rsbcs	r6, r7, r9, ror #28
    a364:	77656976 			; <UNDEFINED> instruction: 0x77656976
    a368:	20666f20 	rsbcs	r6, r6, r0, lsr #30
    a36c:	20656874 	rsbcs	r6, r5, r4, ror r8
    a370:	74726150 	ldrbtvc	r6, [r2], #-336	; 0x150
    a374:	6f6e6568 	svcvs	0x006e6568
    a378:	77202c6e 	strvc	r2, [r0, -lr, ror #24]!
    a37c:	20687469 	rsbcs	r7, r8, r9, ror #8
    a380:	0a656874 	beq	1964558 <complen+0x1952a60>
    a384:	6e6f6f6d 	cdpvs	15, 6, cr6, cr15, cr13, {3}
    a388:	6867696c 	stmdavs	r7!, {r2, r3, r5, r6, r8, fp, sp, lr}^
    a38c:	74732074 	ldrbtvc	r2, [r3], #-116	; 0x74
    a390:	6d616572 	cfstr64vs	mvdx6, [r1, #-456]!	; 0xfffffe38
    a394:	20676e69 	rsbcs	r6, r7, r9, ror #28
    a398:	6f726874 	svcvs	0x00726874
    a39c:	20686775 	rsbcs	r6, r8, r5, ror r7
    a3a0:	20737469 	rsbscs	r7, r3, r9, ror #8
    a3a4:	6e65706f 	cdpvs	0, 6, cr7, cr5, cr15, {3}
    a3a8:	6c6f6320 	stclvs	3, cr6, [pc], #-128	; a330 <testdata+0x1908>
    a3ac:	616e6e6f 	cmnvs	lr, pc, ror #28
    a3b0:	20736564 	rsbscs	r6, r3, r4, ror #10
    a3b4:	20646e61 	rsbcs	r6, r4, r1, ror #28
    a3b8:	63756f74 	cmnvs	r5, #464	; 0x1d0
    a3bc:	676e6968 	strbvs	r6, [lr, -r8, ror #18]!
    a3c0:	73746920 	cmnvc	r4, #524288	; 0x80000
    a3c4:	70616320 	rsbvc	r6, r1, r0, lsr #6
    a3c8:	6c617469 	cfstrdvs	mvd7, [r1], #-420	; 0xfffffe5c
    a3cc:	69770a73 	ldmdbvs	r7!, {r0, r1, r4, r5, r6, r9, fp}^
    a3d0:	73206874 	teqvc	r0, #7602176	; 0x740000
    a3d4:	65766c69 	ldrbvs	r6, [r6, #-3177]!	; 0xc69
    a3d8:	20202e72 	eorcs	r2, r0, r2, ror lr
    a3dc:	69207341 	stmdbvs	r0!, {r0, r6, r8, r9, ip, sp, lr}
    a3e0:	6f6c2074 	svcvs	0x006c2074
    a3e4:	64656b6f 	strbtvs	r6, [r5], #-2927	; 0xb6f
    a3e8:	65687420 	strbvs	r7, [r8, #-1056]!	; 0x420
    a3ec:	73202c6e 	teqvc	r0, #28160	; 0x6e00
    a3f0:	6d656c6f 	stclvs	12, cr6, [r5, #-444]!	; 0xfffffe44
    a3f4:	67202c6e 	strvs	r2, [r0, -lr, ror #24]!
    a3f8:	646e6172 	strbtvs	r6, [lr], #-370	; 0x172
    a3fc:	6e61202c 	cdpvs	0, 6, cr2, cr1, cr12, {1}
    a400:	65622064 	strbvs	r2, [r2, #-100]!	; 0x64
    a404:	69747561 	ldmdbvs	r4!, {r0, r5, r6, r8, sl, ip, sp, lr}^
    a408:	206c7566 	rsbcs	r7, ip, r6, ror #10
    a40c:	77207469 	strvc	r7, [r0, -r9, ror #8]!
    a410:	0a6c6c69 	beq	1b255bc <complen+0x1b13ac4>
    a414:	61776c61 	cmnvs	r7, r1, ror #24
    a418:	72207379 	eorvc	r7, r0, #-469762047	; 0xe4000001
    a41c:	69616d65 	stmdbvs	r1!, {r0, r2, r5, r6, r8, sl, fp, sp, lr}^
    a420:	6e69206e 	cdpvs	0, 6, cr2, cr9, cr14, {3}
    a424:	72756f20 	rsbsvc	r6, r5, #128	; 0x80
    a428:	6d656d20 	stclvs	13, cr6, [r5, #-128]!	; 0xffffff80
    a42c:	6569726f 	strbvs	r7, [r9, #-623]!	; 0x26f
    a430:	0a0a2e73 	beq	295e04 <complen+0x28430c>
    a434:	77207341 	strvc	r7, [r0, -r1, asr #6]!
    a438:	616d2065 	cmnvs	sp, r5, rrx
    a43c:	65686372 	strbvs	r6, [r8, #-882]!	; 0x372
    a440:	6c612064 	stclvs	0, cr2, [r1], #-400	; 0xfffffe70
    a444:	2c676e6f 	stclcs	14, cr6, [r7], #-444	; 0xfffffe44
    a448:	20657720 	rsbcs	r7, r5, r0, lsr #14
    a44c:	61676562 	cmnvs	r7, r2, ror #10
    a450:	6f74206e 	svcvs	0x0074206e
    a454:	74656720 	strbtvc	r6, [r5], #-1824	; 0x720
    a458:	65766f20 	ldrbvs	r6, [r6, #-3872]!	; 0xf20
    a45c:	756f2072 	strbvc	r2, [pc, #-114]!	; a3f2 <testdata+0x19ca>
    a460:	65662072 	strbvs	r2, [r6, #-114]!	; 0x72
    a464:	2c737261 	lfmcs	f7, 2, [r3], #-388	; 0xfffffe7c
    a468:	646e6120 	strbtvs	r6, [lr], #-288	; 0x120
    a46c:	61656320 	cmnvs	r5, r0, lsr #6
    a470:	20646573 	rsbcs	r6, r4, r3, ror r5
    a474:	63206f74 	teqvs	r0, #464	; 0x1d0
    a478:	0a657261 	beq	1966e04 <complen+0x195530c>
    a47c:	6863756d 	stmdavs	r3!, {r0, r2, r3, r5, r6, r8, sl, ip, sp, lr}^
    a480:	6f626120 	svcvs	0x00626120
    a484:	71207475 	teqvc	r0, r5, ror r4
    a488:	61726175 	cmnvs	r2, r5, ror r1
    a48c:	6e69746e 	cdpvs	4, 6, cr7, cr9, cr14, {3}
    a490:	63732065 	cmnvs	r3, #101	; 0x65
    a494:	7374756f 	cmnvc	r4, #465567744	; 0x1bc00000
    a498:	20726f20 	rsbscs	r6, r2, r0, lsr #30
    a49c:	20796e61 	rsbscs	r6, r9, r1, ror #28
    a4a0:	79646f62 	stmdbvc	r4!, {r1, r5, r6, r8, r9, sl, fp, sp, lr}^
    a4a4:	736c6520 	cmnvc	ip, #134217728	; 0x8000000
    a4a8:	20202e65 	eorcs	r2, r0, r5, ror #28
    a4ac:	67206557 			; <UNDEFINED> instruction: 0x67206557
    a4b0:	20776572 	rsbscs	r6, r7, r2, ror r5
    a4b4:	646c6f62 	strbtvs	r6, [ip], #-3938	; 0xf62
    a4b8:	646e6120 	strbtvs	r6, [lr], #-288	; 0x120
    a4bc:	6365720a 	cmnvs	r5, #-1610612736	; 0xa0000000
    a4c0:	73656c6b 	cmnvc	r5, #27392	; 0x6b00
    a4c4:	61203b73 	teqvs	r0, r3, ror fp
    a4c8:	6f20646e 	svcvs	0x0020646e
    a4cc:	2c65636e 	stclcs	3, cr6, [r5], #-440	; 0xfffffe48
    a4d0:	206e6920 	rsbcs	r6, lr, r0, lsr #18
    a4d4:	75732061 	ldrbvc	r2, [r3, #-97]!	; 0x61
    a4d8:	6e656464 	cdpvs	4, 6, cr6, cr5, cr4, {3}
    a4dc:	72756220 	rsbsvc	r6, r5, #2
    a4e0:	6f207473 	svcvs	0x00207473
    a4e4:	6f632066 	svcvs	0x00632066
    a4e8:	67617275 			; <UNDEFINED> instruction: 0x67617275
    a4ec:	49202c65 	stmdbmi	r0!, {r0, r2, r5, r6, sl, fp, sp}
    a4f0:	65766520 	ldrbvs	r6, [r6, #-1312]!	; 0x520
    a4f4:	6874206e 	ldmdavs	r4!, {r1, r2, r3, r5, r6, sp}^
    a4f8:	20776572 	rsbscs	r6, r7, r2, ror r5
    a4fc:	74732061 	ldrbtvc	r2, [r3], #-97	; 0x61
    a500:	20656e6f 	rsbcs	r6, r5, pc, ror #28
    a504:	610a7461 	tstvs	sl, r1, ror #8
    a508:	676f6420 	strbvs	r6, [pc, -r0, lsr #8]!
    a50c:	4920202e 	stmdbmi	r0!, {r1, r2, r3, r5, sp}
    a510:	61772074 	cmnvs	r7, r4, ror r0
    a514:	20612073 	rsbcs	r2, r1, r3, ror r0
    a518:	61656c70 	smcvs	22208	; 0x56c0
    a51c:	746e6173 	strbtvc	r6, [lr], #-371	; 0x173
    a520:	66657220 	strbtvs	r7, [r5], -r0, lsr #4
    a524:	7463656c 	strbtvc	r6, [r3], #-1388	; 0x56c
    a528:	2c6e6f69 	stclcs	15, cr6, [lr], #-420	; 0xfffffe5c
    a52c:	6f687420 	svcvs	0x00687420
    a530:	2c686775 	stclcs	7, cr6, [r8], #-468	; 0xfffffe2c
    a534:	61687420 	cmnvs	r8, r0, lsr #8
    a538:	20492074 	subcs	r2, r9, r4, ror r0
    a53c:	20646964 	rsbcs	r6, r4, r4, ror #18
    a540:	20746f6e 	rsbscs	r6, r4, lr, ror #30
    a544:	20746968 	rsbscs	r6, r4, r8, ror #18
    a548:	2c6d6968 	stclcs	9, cr6, [sp], #-416	; 0xfffffe60
    a54c:	6365620a 	cmnvs	r5, #-1610612736	; 0xa0000000
    a550:	65737561 	ldrbvs	r7, [r3, #-1377]!	; 0x561
    a554:	73696820 	cmnvc	r9, #2097152	; 0x200000
    a558:	73616d20 	cmnvc	r1, #2048	; 0x800
    a55c:	20726574 	rsbscs	r6, r2, r4, ror r5
    a560:	6867696d 	stmdavs	r7!, {r0, r2, r3, r5, r6, r8, fp, sp, lr}^
    a564:	756a2074 	strbvc	r2, [sl, #-116]!	; 0x74
    a568:	70207473 	eorvc	r7, r0, r3, ror r4
    a56c:	6973736f 	ldmdbvs	r3!, {r0, r1, r2, r3, r5, r6, r8, r9, ip, sp, lr}^
    a570:	20796c62 	rsbscs	r6, r9, r2, ror #24
    a574:	65766168 	ldrbvs	r6, [r6, #-360]!	; 0x168
    a578:	65656220 	strbvs	r6, [r5, #-544]!	; 0x220
    a57c:	2061206e 	rsbcs	r2, r1, lr, rrx
    a580:	696c6f70 	stmdbvs	ip!, {r4, r5, r6, r8, r9, sl, fp, sp, lr}^
    a584:	616d6563 	cmnvs	sp, r3, ror #10
    a588:	20202e6e 	eorcs	r2, r0, lr, ror #28
    a58c:	70736e49 	rsbsvc	r6, r3, r9, asr #28
    a590:	64657269 	strbtvs	r7, [r5], #-617	; 0x269
    a594:	2079620a 	rsbscs	r6, r9, sl, lsl #4
    a598:	73696874 	cmnvc	r9, #7602176	; 0x740000
    a59c:	70616820 	rsbvc	r6, r1, r0, lsr #16
    a5a0:	66207970 			; <UNDEFINED> instruction: 0x66207970
    a5a4:	756c6961 	strbvc	r6, [ip, #-2401]!	; 0x961
    a5a8:	202c6572 	eorcs	r6, ip, r2, ror r5
    a5ac:	7620796d 	strtvc	r7, [r0], -sp, ror #18
    a5b0:	726f6c61 	rsbvc	r6, pc, #24832	; 0x6100
    a5b4:	63656220 	cmnvs	r5, #2
    a5b8:	20656d61 	rsbcs	r6, r5, r1, ror #26
    a5bc:	65747475 	ldrbvs	r7, [r4, #-1141]!	; 0x475
    a5c0:	20796c72 	rsbscs	r6, r9, r2, ror ip
    a5c4:	6f636e75 	svcvs	0x00636e75
    a5c8:	6f72746e 	svcvs	0x0072746e
    a5cc:	62616c6c 	rsbvs	r6, r1, #27648	; 0x6c00
    a5d0:	202c656c 	eorcs	r6, ip, ip, ror #10
    a5d4:	20646e61 	rsbcs	r6, r4, r1, ror #28
    a5d8:	690a7461 	stmdbvs	sl, {r0, r5, r6, sl, ip, sp, lr}
    a5dc:	7265746e 	rsbvc	r7, r5, #1845493760	; 0x6e000000
    a5e0:	736c6176 	cmnvc	ip, #-2147483619	; 0x8000001d
    a5e4:	61204920 	teqvs	r0, r0, lsr #18
    a5e8:	6c6f7362 	stclvs	3, cr7, [pc], #-392	; a468 <testdata+0x1a40>
    a5ec:	6c657475 	cfstrdvs	mvd7, [r5], #-468	; 0xfffffe2c
    a5f0:	68772079 	ldmdavs	r7!, {r0, r3, r4, r5, r6, sp}^
    a5f4:	6c747369 	ldclvs	3, cr7, [r4], #-420	; 0xfffffe5c
    a5f8:	202c6465 	eorcs	r6, ip, r5, ror #8
    a5fc:	756f6874 	strbvc	r6, [pc, #-2164]!	; 9d90 <testdata+0x1368>
    a600:	6f206867 	svcvs	0x00206867
    a604:	2061206e 	rsbcs	r2, r1, lr, rrx
    a608:	65646f6d 	strbvs	r6, [r4, #-3949]!	; 0xf6d
    a60c:	65746172 	ldrbvs	r6, [r4, #-370]!	; 0x172
    a610:	79656b20 	stmdbvc	r5!, {r5, r8, r9, fp, sp, lr}^
    a614:	4220202e 	eormi	r2, r0, #46	; 0x2e
    a618:	62207475 	eorvs	r7, r0, #1962934272	; 0x75000000
    a61c:	6e646c6f 	cdpvs	12, 6, cr6, cr4, cr15, {3}
    a620:	0a737365 	beq	1ce73bc <complen+0x1cd58c4>
    a624:	65657262 	strbvs	r7, [r5, #-610]!	; 0x262
    a628:	62207364 	eorvs	r7, r0, #-1879048191	; 0x90000001
    a62c:	6e646c6f 	cdpvs	12, 6, cr6, cr4, cr15, {3}
    a630:	2c737365 	ldclcs	3, cr7, [r3], #-404	; 0xfffffe6c
    a634:	646e6120 	strbtvs	r6, [lr], #-288	; 0x120
    a638:	6f687320 	svcvs	0x00687320
    a63c:	796c7472 	stmdbvc	ip!, {r1, r4, r5, r6, sl, ip, sp, lr}^
    a640:	70204920 	eorvc	r4, r0, r0, lsr #18
    a644:	676e756c 	strbvs	r7, [lr, -ip, ror #10]!
    a648:	69206465 	stmdbvs	r0!, {r0, r2, r5, r6, sl, sp, lr}
    a64c:	206f746e 	rsbcs	r7, pc, lr, ror #8
    a650:	69562061 	ldmdbvs	r6, {r0, r5, r6, sp}^
    a654:	6179656e 	cmnvs	r9, lr, ror #10
    a658:	202c6472 	eorcs	r6, ip, r2, ror r4
    a65c:	74206e69 	strtvc	r6, [r0], #-3689	; 0xe69
    a660:	66206568 	strtvs	r6, [r0], -r8, ror #10
    a664:	206c6c75 	rsbcs	r6, ip, r5, ror ip
    a668:	6867696c 	stmdavs	r7!, {r2, r3, r5, r6, r8, fp, sp, lr}^
    a66c:	666f0a74 			; <UNDEFINED> instruction: 0x666f0a74
    a670:	65687420 	strbvs	r7, [r8, #-1056]!	; 0x420
    a674:	6f6f6d20 	svcvs	0x006f6d20
    a678:	61202c6e 	teqvs	r0, lr, ror #24
    a67c:	6320646e 	teqvs	r0, #1845493760	; 0x6e000000
    a680:	75747061 	ldrbvc	r7, [r4, #-97]!	; 0x61
    a684:	20646572 	rsbcs	r6, r4, r2, ror r5
    a688:	61672061 	cmnvs	r7, r1, rrx
    a68c:	6e6f6c6c 	cdpvs	12, 6, cr6, cr15, cr12, {3}
    a690:	20666f20 	rsbcs	r6, r6, r0, lsr #30
    a694:	65707573 	ldrbvs	r7, [r0, #-1395]!	; 0x573
    a698:	67206272 			; <UNDEFINED> instruction: 0x67206272
    a69c:	65706172 	ldrbvs	r6, [r0, #-370]!	; 0x172
    a6a0:	6e202c73 	mcrvs	12, 1, r2, cr0, cr3, {3}
    a6a4:	6520746f 	strvs	r7, [r0, #-1135]!	; 0x46f
    a6a8:	206e6576 	rsbcs	r6, lr, r6, ror r5
    a6ac:	646e696d 	strbtvs	r6, [lr], #-2413	; 0x96d
    a6b0:	20676e69 	rsbcs	r6, r7, r9, ror #28
    a6b4:	0a656874 	beq	196488c <complen+0x1952d94>
    a6b8:	73657270 	cmnvc	r5, #7
    a6bc:	65636e65 	strbvs	r6, [r3, #-3685]!	; 0xe65
    a6c0:	20666f20 	rsbcs	r6, r6, r0, lsr #30
    a6c4:	65702061 	ldrbvs	r2, [r0, #-97]!	; 0x61
    a6c8:	6e617361 	cdpvs	3, 6, cr7, cr1, cr1, {3}
    a6cc:	68772074 	ldmdavs	r7!, {r2, r4, r5, r6, sp}^
    a6d0:	6f72206f 	svcvs	0x0072206f
    a6d4:	62206564 	eorvs	r6, r0, #419430400	; 0x19000000
    a6d8:	6e6f2079 	mcrvs	0, 3, r2, cr15, cr9, {3}
    a6dc:	6d206120 	stfvss	f6, [r0, #-128]!	; 0xffffff80
    a6e0:	2e656c75 	mcrcs	12, 3, r6, cr5, cr5, {3}
    a6e4:	65442020 	strbvs	r2, [r4, #-32]
    a6e8:	20796e6e 	rsbscs	r6, r9, lr, ror #28
    a6ec:	20646e61 	rsbcs	r6, r4, r1, ror #28
    a6f0:	63726942 	cmnvs	r2, #1081344	; 0x108000
    a6f4:	6f662068 	svcvs	0x00662068
    a6f8:	776f6c6c 	strbvc	r6, [pc, -ip, ror #24]!
    a6fc:	6d206465 	cfstrsvs	mvf6, [r0, #-404]!	; 0xfffffe6c
    a700:	78650a79 	stmdavc	r5!, {r0, r3, r4, r5, r6, r9, fp}^
    a704:	6c706d61 	ldclvs	13, cr6, [r0], #-388	; 0xfffffe7c
    a708:	0a0a2e65 	beq	2960a4 <complen+0x2845ac>
    a70c:	20776f4e 	rsbscs	r6, r7, lr, asr #30
    a710:	61682049 	cmnvs	r8, r9, asr #32
    a714:	72672064 	rsbvc	r2, r7, #100	; 0x64
    a718:	73657061 	cmnvc	r5, #97	; 0x61
    a71c:	6f6e6520 	svcvs	0x006e6520
    a720:	20686775 	rsbcs	r6, r8, r5, ror r7
    a724:	20726f66 	rsbscs	r6, r2, r6, ror #30
    a728:	6f642061 	svcvs	0x00642061
    a72c:	2c6e657a 	cfstr64cs	mvdx6, [lr], #-488	; 0xfffffe18
    a730:	74756220 	ldrbtvc	r6, [r5], #-544	; 0x220
    a734:	65687420 	strbvs	r7, [r8, #-1056]!	; 0x420
    a738:	614a206e 	cmpvs	sl, lr, rrx
    a73c:	6f736b63 	svcvs	0x00736b63
    a740:	6177206e 	cmnvs	r7, lr, rrx
    a744:	6c612073 	stclvs	0, cr2, [r1], #-460	; 0xfffffe34
    a748:	7773206c 	ldrbvc	r2, [r3, -ip, rrx]!
    a74c:	656c6c6f 	strbvs	r6, [ip, #-3183]!	; 0xc6f
    a750:	7075206e 	rsbsvc	r2, r5, lr, rrx
    a754:	7469770a 	strbtvc	r7, [r9], #-1802	; 0x70a
    a758:	6f632068 	svcvs	0x00632068
    a75c:	67617275 			; <UNDEFINED> instruction: 0x67617275
    a760:	74202c65 	strtvc	r2, [r0], #-3173	; 0xc65
    a764:	202c6f6f 	eorcs	r6, ip, pc, ror #30
    a768:	20646e61 	rsbcs	r6, r4, r1, ror #28
    a76c:	77206568 	strvc	r6, [r0, -r8, ror #10]!
    a770:	6f207361 	svcvs	0x00207361
    a774:	67696c62 	strbvs	r6, [r9, -r2, ror #24]!
    a778:	74206465 	strtvc	r6, [r0], #-1125	; 0x465
    a77c:	6e65206f 	cdpvs	0, 6, cr2, cr5, cr15, {3}
    a780:	20726574 	rsbscs	r6, r2, r4, ror r5
    a784:	69762061 	ldmdbvs	r6!, {r0, r5, r6, sp}^
    a788:	6179656e 	cmnvs	r9, lr, ror #10
    a78c:	70206472 	eorvc	r6, r0, r2, ror r4
    a790:	65736572 	ldrbvs	r6, [r3, #-1394]!	; 0x572
    a794:	796c746e 	stmdbvc	ip!, {r1, r2, r3, r5, r6, sl, ip, sp, lr}^
    a798:	5420202e 	strtpl	r2, [r0], #-46	; 0x2e
    a79c:	660a6568 	strvs	r6, [sl], -r8, ror #10
    a7a0:	74737269 	ldrbtvc	r7, [r3], #-617	; 0x269
    a7a4:	6e756220 	cdpvs	2, 7, cr6, cr5, cr0, {1}
    a7a8:	68206863 	stmdavs	r0!, {r0, r1, r5, r6, fp, sp, lr}
    a7ac:	65732065 	ldrbvs	r2, [r3, #-101]!	; 0x65
    a7b0:	64657a69 	strbtvs	r7, [r5], #-2665	; 0xa69
    a7b4:	6f726220 	svcvs	0x00726220
    a7b8:	74686775 	strbtvc	r6, [r8], #-1909	; 0x775
    a7bc:	6f727420 	svcvs	0x00727420
    a7c0:	656c6275 	strbvs	r6, [ip, #-629]!	; 0x275
    a7c4:	4120202e 	teqmi	r0, lr, lsr #32
    a7c8:	6f726620 	svcvs	0x00726620
    a7cc:	2c797377 	ldclcs	3, cr7, [r9], #-476	; 0xfffffe24
    a7d0:	61656220 	cmnvs	r5, r0, lsr #4
    a7d4:	64656472 	strbtvs	r6, [r5], #-1138	; 0x472
    a7d8:	69726220 	ldmdbvs	r2!, {r5, r9, sp, lr}^
    a7dc:	646e6167 	strbtvs	r6, [lr], #-359	; 0x167
    a7e0:	72707320 	rsbsvc	r7, r0, #-2147483648	; 0x80000000
    a7e4:	0a676e61 	beq	19e6170 <complen+0x19d4678>
    a7e8:	6f746e69 	svcvs	0x00746e69
    a7ec:	65687420 	strbvs	r7, [r8, #-1056]!	; 0x420
    a7f0:	616f7220 	cmnvs	pc, r0, lsr #4
    a7f4:	69772064 	ldmdbvs	r7!, {r2, r5, r6, sp}^
    a7f8:	61206874 	teqvs	r0, r4, ror r8
    a7fc:	6f687320 	svcvs	0x00687320
    a800:	202c7475 	eorcs	r7, ip, r5, ror r4
    a804:	20646e61 	rsbcs	r6, r4, r1, ror #28
    a808:	756f6c66 	strbvc	r6, [pc, #-3174]!	; 9baa <testdata+0x1182>
    a80c:	68736972 	ldmdavs	r3!, {r1, r4, r5, r6, r8, fp, sp, lr}^
    a810:	61206465 	teqvs	r0, r5, ror #8
    a814:	73756d20 	cmnvc	r5, #2048	; 0x800
    a818:	2074656b 	rsbscs	r6, r4, fp, ror #10
    a81c:	74206e69 	strtvc	r6, [r0], #-3689	; 0xe69
    a820:	6c206568 	cfstr32vs	mvfx6, [r0], #-416	; 0xfffffe60
    a824:	74686769 	strbtvc	r6, [r8], #-1897	; 0x769
    a828:	20666f20 	rsbcs	r6, r6, r0, lsr #30
    a82c:	0a656874 	beq	1964a04 <complen+0x1952f0c>
    a830:	6e6f6f6d 	cdpvs	15, 6, cr6, cr15, cr13, {3}
    a834:	57202021 	strpl	r2, [r0, -r1, lsr #32]!
    a838:	69732065 	ldmdbvs	r3!, {r0, r2, r5, r6, sp}^
    a83c:	64656c64 	strbtvs	r6, [r5], #-3172	; 0xc64
    a840:	776f7420 	strbvc	r7, [pc, -r0, lsr #8]!
    a844:	20647261 	rsbcs	r7, r4, r1, ror #4
    a848:	20656874 	rsbcs	r6, r5, r4, ror r8
    a84c:	61726950 	cmnvs	r2, r0, asr r9
    a850:	2d737565 	cfldr64cs	mvdx7, [r3, #-404]!	; 0xfffffe6c
    a854:	746f6e2d 	strbtvc	r6, [pc], #-3629	; a85c <testdata+0x1e34>
    a858:	6e757220 	cdpvs	2, 7, cr7, cr5, cr0, {1}
    a85c:	676e696e 	strbvs	r6, [lr, -lr, ror #18]!
    a860:	756f7920 	strbvc	r7, [pc, #-2336]!	; 9f48 <testdata+0x1520>
    a864:	646e7520 	strbtvs	r7, [lr], #-1312	; 0x520
    a868:	74737265 	ldrbtvc	r7, [r3], #-613	; 0x265
    a86c:	2c646e61 	stclcs	14, cr6, [r4], #-388	; 0xfffffe7c
    a870:	74756220 	ldrbtvc	r6, [r5], #-544	; 0x220
    a874:	6c6e6f20 	stclvs	15, cr6, [lr], #-128	; 0xffffff80
    a878:	64610a79 	strbtvs	r0, [r1], #-2681	; 0xa79
    a87c:	636e6176 	cmnvs	lr, #-2147483619	; 0x8000001d
    a880:	20676e69 	rsbcs	r6, r7, r9, ror #28
    a884:	68746977 	ldmdavs	r4!, {r0, r1, r2, r4, r5, r6, r8, fp, sp, lr}^
    a888:	6c656320 	stclvs	3, cr6, [r5], #-128	; 0xffffff80
    a88c:	74697265 	strbtvc	r7, [r9], #-613	; 0x265
    a890:	20202e79 	eorcs	r2, r0, r9, ror lr
    a894:	20656854 	rsbcs	r6, r5, r4, asr r8
    a898:	67697262 	strbvs	r7, [r9, -r2, ror #4]!
    a89c:	20646e61 	rsbcs	r6, r4, r1, ror #28
    a8a0:	756f6873 	strbvc	r6, [pc, #-2163]!	; a035 <testdata+0x160d>
    a8a4:	20646574 	rsbcs	r6, r4, r4, ror r5
    a8a8:	69616761 	stmdbvs	r1!, {r0, r5, r6, r8, r9, sl, sp, lr}^
    a8ac:	62202c6e 	eorvs	r2, r0, #28160	; 0x6e00
    a8b0:	73207475 	teqvc	r0, #1962934272	; 0x75000000
    a8b4:	6c6c6974 	stclvs	9, cr6, [ip], #-464	; 0xfffffe30
    a8b8:	0a657720 	beq	1968540 <complen+0x1956a48>
    a8bc:	61766461 	cmnvs	r6, r1, ror #8
    a8c0:	6465636e 	strbtvs	r6, [r5], #-878	; 0x36e
    a8c4:	4920202e 	stmdbmi	r0!, {r1, r2, r3, r5, sp}
    a8c8:	61772074 	cmnvs	r7, r4, ror r0
    a8cc:	65672073 	strbvs	r2, [r7, #-115]!	; 0x73
    a8d0:	6e697474 	mcrvs	4, 3, r7, cr9, cr4, {3}
    a8d4:	616c2067 	cmnvs	ip, r7, rrx
    a8d8:	202c6574 	eorcs	r6, ip, r4, ror r5
    a8dc:	20646e61 	rsbcs	r6, r4, r1, ror #28
    a8e0:	68206577 	stmdavs	r0!, {r0, r1, r2, r4, r5, r6, r8, sl, sp, lr}
    a8e4:	6e206461 	cdpvs	4, 2, cr6, cr0, cr1, {3}
    a8e8:	6974206f 	ldmdbvs	r4!, {r0, r1, r2, r3, r5, r6, sp}^
    a8ec:	7420656d 	strtvc	r6, [r0], #-1389	; 0x56d
    a8f0:	6f66206f 	svcvs	0x0066206f
    a8f4:	61206c6f 	teqvs	r0, pc, ror #24
    a8f8:	20796177 	rsbscs	r6, r9, r7, ror r1
    a8fc:	65206e6f 	strvs	r6, [r0, #-3695]!	; 0xe6f
    a900:	79726576 	ldmdbvc	r2!, {r1, r2, r4, r5, r6, r8, sl, sp, lr}^
    a904:	7373610a 	cmnvc	r3, #-2147483646	; 0x80000002
    a908:	61687420 	cmnvs	r8, r0, lsr #8
    a90c:	61772074 	cmnvs	r7, r4, ror r0
    a910:	6465746e 	strbtvs	r7, [r5], #-1134	; 0x46e
    a914:	206f7420 	rsbcs	r7, pc, r0, lsr #8
    a918:	76697264 	strbtvc	r7, [r9], -r4, ror #4
    a91c:	47206c65 	strmi	r6, [r0, -r5, ror #24]!
    a920:	6b656572 	blvs	1963ef0 <complen+0x19523f8>
    a924:	616c7020 	cmnvs	ip, r0, lsr #32
    a928:	75746974 	ldrbvc	r6, [r4, #-2420]!	; 0x974
    a92c:	20736564 	rsbscs	r6, r3, r4, ror #10
    a930:	75206f74 	strvc	r6, [r0, #-3956]!	; 0xf74
    a934:	20202e73 	eorcs	r2, r0, r3, ror lr
    a938:	77206557 			; <UNDEFINED> instruction: 0x77206557
    a93c:	646c756f 	strbtvs	r7, [ip], #-1391	; 0x56f
    a940:	73756a20 	cmnvc	r5, #131072	; 0x20000
    a944:	73612074 	cmnvc	r1, #116	; 0x74
    a948:	6f6f7320 	svcvs	0x006f7320
    a94c:	61680a6e 	cmnvs	r8, lr, ror #20
    a950:	74206576 	strtvc	r6, [r0], #-1398	; 0x576
    a954:	656b6c61 	strbvs	r6, [fp, #-3169]!	; 0xc61
    a958:	69772064 	ldmdbvs	r7!, {r2, r5, r6, sp}^
    a95c:	68206874 	stmdavs	r0!, {r2, r4, r5, r6, fp, sp, lr}
    a960:	61206d69 	teqvs	r0, r9, ror #26
    a964:	6f6e2073 	svcvs	0x006e2073
    a968:	66692074 			; <UNDEFINED> instruction: 0x66692074
    a96c:	20657720 	rsbcs	r7, r5, r0, lsr #14
    a970:	20646168 	rsbcs	r6, r4, r8, ror #2
    a974:	20746f6e 	rsbscs	r6, r4, lr, ror #30
    a978:	6e656562 	cdpvs	5, 6, cr6, cr5, cr2, {3}
    a97c:	206e6920 	rsbcs	r6, lr, r0, lsr #18
    a980:	75682061 	strbvc	r2, [r8, #-97]!	; 0x61
    a984:	2e797272 	mrccs	2, 3, r7, cr9, cr2, {3}
    a988:	72502020 	subsvc	r2, r0, #32
    a98c:	6e657365 	cdpvs	3, 6, cr7, cr5, cr5, {3}
    a990:	0a796c74 	beq	1e65b68 <complen+0x1e54070>
    a994:	6e6e6544 	cdpvs	5, 6, cr6, cr14, cr4, {2}
    a998:	61732079 	cmnvs	r3, r9, ror r0
    a99c:	202c6469 	eorcs	r6, ip, r9, ror #8
    a9a0:	6f685422 	svcvs	0x00685422
    a9a4:	66206573 			; <UNDEFINED> instruction: 0x66206573
    a9a8:	6f6c6c65 	svcvs	0x006c6c65
    a9ac:	61207377 	teqvs	r0, r7, ror r3
    a9b0:	66206572 			; <UNDEFINED> instruction: 0x66206572
    a9b4:	6f6c6c6f 	svcvs	0x006c6c6f
    a9b8:	676e6977 			; <UNDEFINED> instruction: 0x676e6977
    a9bc:	21737520 	cmncs	r3, r0, lsr #10
    a9c0:	570a0a22 	strpl	r0, [sl, -r2, lsr #20]
    a9c4:	75742065 	ldrbvc	r2, [r4, #-101]!	; 0x65
    a9c8:	64656e72 	strbtvs	r6, [r5], #-3698	; 0xe72
    a9cc:	6e61202c 	cdpvs	0, 6, cr2, cr1, cr12, {1}
    a9d0:	73202c64 	teqvc	r0, #25600	; 0x6400
    a9d4:	20657275 	rsbcs	r7, r5, r5, ror r2
    a9d8:	756f6e65 	strbvc	r6, [pc, #-3685]!	; 9b7b <testdata+0x1153>
    a9dc:	202c6867 	eorcs	r6, ip, r7, ror #16
    a9e0:	72656874 	rsbvc	r6, r5, #7602176	; 0x740000
    a9e4:	68742065 	ldmdavs	r4!, {r0, r2, r5, r6, sp}^
    a9e8:	77207965 	strvc	r7, [r0, -r5, ror #18]!
    a9ec:	2d657265 	sfmcs	f7, 2, [r5, #-404]!	; 0xfffffe6c
    a9f0:	7268742d 	rsbvc	r7, r8, #754974720	; 0x2d000000
    a9f4:	66206565 	strtvs	r6, [r0], -r5, ror #10
    a9f8:	61746e61 	cmnvs	r4, r1, ror #28
    a9fc:	63697473 	cmnvs	r9, #1929379840	; 0x73000000
    aa00:	72697020 	rsbvc	r7, r9, #32
    aa04:	73657461 	cmnvc	r5, #1627389952	; 0x61000000
    aa08:	6d72610a 	ldfvse	f6, [r2, #-40]!	; 0xffffffd8
    aa0c:	77206465 	strvc	r6, [r0, -r5, ror #8]!
    aa10:	20687469 	rsbcs	r7, r8, r9, ror #8
    aa14:	736e7567 	cmnvc	lr, #432013312	; 0x19c00000
    aa18:	5720202e 	strpl	r2, [r0, -lr, lsr #32]!
    aa1c:	6c732065 	ldclvs	0, cr2, [r3], #-404	; 0xfffffe6c
    aa20:	656b6361 	strbvs	r6, [fp, #-865]!	; 0x361
    aa24:	2064656e 	rsbcs	r6, r4, lr, ror #10
    aa28:	2072756f 	rsbscs	r7, r2, pc, ror #10
    aa2c:	65636170 	strbvs	r6, [r3, #-368]!	; 0x170
    aa30:	206f7420 	rsbcs	r7, pc, r0, lsr #8
    aa34:	2074656c 	rsbscs	r6, r4, ip, ror #10
    aa38:	6d656874 	stclvs	8, cr6, [r5, #-464]!	; 0xfffffe30
    aa3c:	6d6f6320 	stclvs	3, cr6, [pc, #-128]!	; a9c4 <testdata+0x1f9c>
    aa40:	70752065 	rsbsvc	r2, r5, r5, rrx
    aa44:	6e61202c 	cdpvs	0, 6, cr2, cr1, cr12, {1}
    aa48:	6e692064 	cdpvs	0, 6, cr2, cr9, cr4, {3}
    aa4c:	65687420 	strbvs	r7, [r8, #-1056]!	; 0x420
    aa50:	61656d0a 	cmnvs	r5, sl, lsl #26
    aa54:	6d69746e 	cfstrdvs	mvd7, [r9, #-440]!	; 0xfffffe48
    aa58:	20492065 	subcs	r2, r9, r5, rrx
    aa5c:	20746f67 	rsbscs	r6, r4, r7, ror #30
    aa60:	2074756f 	rsbscs	r7, r4, pc, ror #10
    aa64:	6320796d 	teqvs	r0, #1785856	; 0x1b4000
    aa68:	6f677261 	svcvs	0x00677261
    aa6c:	20666f20 	rsbcs	r6, r6, r0, lsr #30
    aa70:	70617267 	rsbvc	r7, r1, r7, ror #4
    aa74:	61207365 	teqvs	r0, r5, ror #6
    aa78:	6420646e 	strtvs	r6, [r0], #-1134	; 0x46e
    aa7c:	70706f72 	rsbsvc	r6, r0, r2, ror pc
    aa80:	74206465 	strtvc	r6, [r0], #-1125	; 0x465
    aa84:	206d6568 	rsbcs	r6, sp, r8, ror #10
    aa88:	6d726966 	ldclvs	9, cr6, [r2, #-408]!	; 0xfffffe68
    aa8c:	6220796c 	eorvs	r7, r0, #1769472	; 0x1b0000
    aa90:	720a7475 	andvc	r7, sl, #1962934272	; 0x75000000
    aa94:	63756c65 	cmnvs	r5, #25856	; 0x6500
    aa98:	746e6174 	strbtvc	r6, [lr], #-372	; 0x174
    aa9c:	6920796c 	stmdbvs	r0!, {r2, r3, r5, r6, r8, fp, ip, sp, lr}
    aaa0:	206f746e 	rsbcs	r7, pc, lr, ror #8
    aaa4:	20656874 	rsbcs	r6, r5, r4, ror r8
    aaa8:	64616873 	strbtvs	r6, [r1], #-2163	; 0x873
    aaac:	2073776f 	rsbscs	r7, r3, pc, ror #14
    aab0:	74207962 	strtvc	r7, [r0], #-2402	; 0x962
    aab4:	77206568 	strvc	r6, [r0, -r8, ror #10]!
    aab8:	69737961 	ldmdbvs	r3!, {r0, r5, r6, r8, fp, ip, sp, lr}^
    aabc:	202e6564 	eorcs	r6, lr, r4, ror #10
    aac0:	74754220 	ldrbtvc	r4, [r5], #-544	; 0x220
    aac4:	77204920 	strvc	r4, [r0, -r0, lsr #18]!
    aac8:	6e207361 	cdpvs	3, 2, cr7, cr0, cr1, {3}
    aacc:	6120746f 	teqvs	r0, pc, ror #8
    aad0:	69617266 	stmdbvs	r1!, {r1, r2, r5, r6, r9, ip, sp, lr}^
    aad4:	20202e64 	eorcs	r2, r0, r4, ror #28
    aad8:	6e6f0a49 	vnmulvs.f32	s1, s30, s18
    aadc:	6620796c 	strtvs	r7, [r0], -ip, ror #18
    aae0:	20746c65 	rsbscs	r6, r4, r5, ror #24
    aae4:	74616874 	strbtvc	r6, [r1], #-2164	; 0x874
    aae8:	20746920 	rsbscs	r6, r4, r0, lsr #18
    aaec:	20736177 	rsbscs	r6, r3, r7, ror r1
    aaf0:	20746f6e 	rsbscs	r6, r4, lr, ror #30
    aaf4:	68676972 	stmdavs	r7!, {r1, r4, r5, r6, r8, fp, sp, lr}^
    aaf8:	6f742074 	svcvs	0x00742074
    aafc:	65747320 	ldrbvs	r7, [r4, #-800]!	; 0x320
    ab00:	67206c61 	strvs	r6, [r0, -r1, ror #24]!
    ab04:	65706172 	ldrbvs	r6, [r0, #-370]!	; 0x172
    ab08:	20202e73 	eorcs	r2, r0, r3, ror lr
    ab0c:	20646e41 	rsbcs	r6, r4, r1, asr #28
    ab10:	206c6c61 	rsbcs	r6, ip, r1, ror #24
    ab14:	20656874 	rsbcs	r6, r5, r4, ror r8
    ab18:	65726f6d 	ldrbvs	r6, [r2, #-3949]!	; 0xf6d
    ab1c:	0a6f7320 	beq	1be77a4 <complen+0x1bd5cac>
    ab20:	6e656877 	mcrvs	8, 3, r6, cr5, cr7, {3}
    ab24:	65687420 	strbvs	r7, [r8, #-1056]!	; 0x420
    ab28:	6e776f20 	cdpvs	15, 7, cr6, cr7, cr0, {1}
    ab2c:	77207265 	strvc	r7, [r0, -r5, ror #4]!
    ab30:	61207361 	teqvs	r0, r1, ror #6
    ab34:	6e756f72 	mrcvs	15, 3, r6, cr5, cr2, {3}
    ab38:	612d2d64 	teqvs	sp, r4, ror #26
    ab3c:	6e20646e 	cdpvs	4, 2, cr6, cr0, cr14, {3}
    ab40:	6f20746f 	svcvs	0x0020746f
    ab44:	20796c6e 	rsbscs	r6, r9, lr, ror #24
    ab48:	756f7261 	strbvc	r7, [pc, #-609]!	; a8ef <testdata+0x1ec7>
    ab4c:	202c646e 	eorcs	r6, ip, lr, ror #8
    ab50:	20747562 	rsbscs	r7, r4, r2, ror #10
    ab54:	68746977 	ldmdavs	r4!, {r0, r1, r2, r4, r5, r6, r8, fp, sp, lr}^
    ab58:	73696820 	cmnvc	r9, #2097152	; 0x200000
    ab5c:	69726620 	ldmdbvs	r2!, {r5, r9, sl, sp, lr}^
    ab60:	73646e65 	cmnvc	r4, #1616	; 0x650
    ab64:	6f72610a 	svcvs	0x0072610a
    ab68:	20646e75 	rsbcs	r6, r4, r5, ror lr
    ab6c:	6f736c61 	svcvs	0x00736c61
    ab70:	5420202e 	strtpl	r2, [r0], #-46	; 0x2e
    ab74:	76206568 	strtvc	r6, [r0], -r8, ror #10
    ab78:	616c6c69 	cmnvs	ip, r9, ror #24
    ab7c:	20736e69 	rsbscs	r6, r3, r9, ror #28
    ab80:	656d6163 	strbvs	r6, [sp, #-355]!	; 0x163
    ab84:	20707520 	rsbscs	r7, r0, r0, lsr #10
    ab88:	20646e61 	rsbcs	r6, r4, r1, ror #28
    ab8c:	72616573 	rsbvc	r6, r1, #482344960	; 0x1cc00000
    ab90:	64656863 	strbtvs	r6, [r5], #-2147	; 0x863
    ab94:	62206120 	eorvs	r6, r0, #8
    ab98:	6c646e75 	stclvs	14, cr6, [r4], #-468	; 0xfffffe2c
    ab9c:	72442065 	subvc	r2, r4, #101	; 0x65
    aba0:	6942202e 	stmdbvs	r2, {r1, r2, r3, r5, sp}^
    aba4:	20686372 	rsbcs	r6, r8, r2, ror r3
    aba8:	20646168 	rsbcs	r6, r4, r8, ror #2
    abac:	680a6e69 	stmdavs	sl, {r0, r3, r5, r6, r9, sl, fp, sp, lr}
    abb0:	68207369 	stmdavs	r0!, {r0, r3, r5, r6, r8, r9, ip, sp, lr}
    abb4:	2c646e61 	stclcs	14, cr6, [r4], #-388	; 0xfffffe7c
    abb8:	646e6120 	strbtvs	r6, [lr], #-288	; 0x120
    abbc:	6f637320 	svcvs	0x00637320
    abc0:	64656c77 	strbtvs	r6, [r5], #-3191	; 0xc77
    abc4:	6f707520 	svcvs	0x00707520
    abc8:	6968206e 	stmdbvs	r8!, {r1, r2, r3, r5, r6, sp}^
    abcc:	6877206d 	ldmdavs	r7!, {r0, r2, r3, r5, r6, sp}^
    abd0:	74206e65 	strtvc	r6, [r0], #-3685	; 0xe65
    abd4:	20796568 	rsbscs	r6, r9, r8, ror #10
    abd8:	6e756f66 	cdpvs	15, 7, cr6, cr5, cr6, {3}
    abdc:	74692064 	strbtvc	r2, [r9], #-100	; 0x64
    abe0:	64616820 	strbtvs	r6, [r1], #-2080	; 0x820
    abe4:	746f6e20 	strbtvc	r6, [pc], #-3616	; abec <testdata+0x21c4>
    abe8:	676e6968 	strbvs	r6, [lr, -r8, ror #18]!
    abec:	206e6920 	rsbcs	r6, lr, r0, lsr #18
    abf0:	62207469 	eorvs	r7, r0, #1761607680	; 0x69000000
    abf4:	730a7475 	movwvc	r7, #42101	; 0xa475
    abf8:	20656d6f 	rsbcs	r6, r5, pc, ror #26
    abfc:	796c6f68 	stmdbvc	ip!, {r3, r5, r6, r8, r9, sl, fp, sp, lr}^
    ac00:	636f7220 	cmnvs	pc, #2
    ac04:	6620736b 	strtvs	r7, [r0], -fp, ror #6
    ac08:	206d6f72 	rsbcs	r6, sp, r2, ror pc
    ac0c:	7372614d 	cmnvc	r2, #1073741843	; 0x40000013
    ac10:	6c694820 	stclvs	8, cr4, [r9], #-128	; 0xffffff80
    ac14:	61202c6c 	teqvs	r0, ip, ror #24
    ac18:	7420646e 	strtvc	r6, [r0], #-1134	; 0x46e
    ac1c:	65736568 	ldrbvs	r6, [r3, #-1384]!	; 0x568
    ac20:	72657720 	rsbvc	r7, r5, #8388608	; 0x800000
    ac24:	6f6e2065 	svcvs	0x006e2065
    ac28:	6f632074 	svcvs	0x00632074
    ac2c:	6172746e 	cmnvs	r2, lr, ror #8
    ac30:	646e6162 	strbtvs	r6, [lr], #-354	; 0x162
    ac34:	5420202e 	strtpl	r2, [r0], #-46	; 0x2e
    ac38:	0a796568 	beq	1e641e0 <complen+0x1e526e8>
    ac3c:	64697665 	strbtvs	r7, [r9], #-1637	; 0x665
    ac40:	6c746e65 	ldclvs	14, cr6, [r4], #-404	; 0xfffffe6c
    ac44:	75732079 	ldrbvc	r2, [r3, #-121]!	; 0x79
    ac48:	63657073 	cmnvs	r5, #115	; 0x73
    ac4c:	20646574 	rsbcs	r6, r4, r4, ror r5
    ac50:	206d6968 	rsbcs	r6, sp, r8, ror #18
    ac54:	7020666f 	eorvc	r6, r0, pc, ror #12
    ac58:	6979616c 	ldmdbvs	r9!, {r2, r3, r5, r6, r8, sp, lr}^
    ac5c:	7320676e 	teqvc	r0, #28835840	; 0x1b80000
    ac60:	20656d6f 	rsbcs	r6, r5, pc, ror #26
    ac64:	74657277 	strbtvc	r7, [r5], #-631	; 0x277
    ac68:	64656863 	strbtvs	r6, [r5], #-2147	; 0x863
    ac6c:	61726620 	cmnvs	r2, r0, lsr #12
    ac70:	75206475 	strvc	r6, [r0, #-1141]!	; 0x475
    ac74:	206e6f70 	rsbcs	r6, lr, r0, ror pc
    ac78:	6d656874 	stclvs	8, cr6, [r5, #-464]!	; 0xfffffe30
    ac7c:	6e61202c 	cdpvs	0, 6, cr2, cr1, cr12, {1}
    ac80:	65730a64 	ldrbvs	r0, [r3, #-2660]!	; 0xa64
    ac84:	64656d65 	strbtvs	r6, [r5], #-3429	; 0xd65
    ac88:	6c616820 	stclvs	8, cr6, [r1], #-128	; 0xffffff80
    ac8c:	6e692066 	cdpvs	0, 6, cr2, cr9, cr6, {3}
    ac90:	6e696c63 	cdpvs	12, 6, cr6, cr9, cr3, {3}
    ac94:	74206465 	strtvc	r6, [r0], #-1125	; 0x465
    ac98:	6373206f 	cmnvs	r3, #111	; 0x6f
    ac9c:	20706c61 	rsbscs	r6, r0, r1, ror #24
    aca0:	20656874 	rsbcs	r6, r5, r4, ror r8
    aca4:	74726170 	ldrbtvc	r6, [r2], #-368	; 0x170
    aca8:	20202e79 	eorcs	r2, r0, r9, ror lr
    acac:	20747542 	rsbscs	r7, r4, r2, asr #10
    acb0:	616e6966 	cmnvs	lr, r6, ror #18
    acb4:	20796c6c 	rsbscs	r6, r9, ip, ror #24
    acb8:	79656874 	stmdbvc	r5!, {r2, r4, r5, r6, fp, sp, lr}^
    acbc:	73696420 	cmnvc	r9, #536870912	; 0x20000000
    acc0:	7373696d 	cmnvc	r3, #1785856	; 0x1b4000
    acc4:	75206465 	strvc	r6, [r0, #-1125]!	; 0x465
    acc8:	69770a73 	ldmdbvs	r7!, {r0, r1, r4, r5, r6, r9, fp}^
    accc:	61206874 	teqvs	r0, r4, ror r8
    acd0:	72617720 	rsbvc	r7, r1, #8388608	; 0x800000
    acd4:	676e696e 	strbvs	r6, [lr, -lr, ror #18]!
    acd8:	6f63202c 	svcvs	0x0063202c
    acdc:	65686375 	strbvs	r6, [r8, #-885]!	; 0x375
    ace0:	6e692064 	cdpvs	0, 6, cr2, cr9, cr4, {3}
    ace4:	63786520 	cmnvs	r8, #134217728	; 0x8000000
    ace8:	656c6c65 	strbvs	r6, [ip, #-3173]!	; 0xc65
    acec:	4720746e 	strmi	r7, [r0, -lr, ror #8]!
    acf0:	6b656572 	blvs	19642c0 <complen+0x19527c8>
    acf4:	2049202c 	subcs	r2, r9, ip, lsr #32
    acf8:	70707573 	rsbsvc	r7, r0, r3, ror r5
    acfc:	2c65736f 	stclcs	3, cr7, [r5], #-444	; 0xfffffe44
    ad00:	646e6120 	strbtvs	r6, [lr], #-288	; 0x120
    ad04:	6f726420 	svcvs	0x00726420
    ad08:	64657070 	strbtvs	r7, [r5], #-112	; 0x70
    ad0c:	6172740a 	cmnvs	r2, sl, lsl #8
    ad10:	6975716e 	ldmdbvs	r5!, {r1, r2, r3, r5, r6, r8, ip, sp, lr}^
    ad14:	20796c6c 	rsbscs	r6, r9, ip, ror #24
    ad18:	6f206e69 	svcvs	0x00206e69
    ad1c:	77207275 			; <UNDEFINED> instruction: 0x77207275
    ad20:	2e656b61 	vnmulcs.f64	d22, d5, d17
    ad24:	68572020 	ldmdavs	r7, {r5, sp}^
    ad28:	74206e65 	strtvc	r6, [r0], #-3685	; 0xe65
    ad2c:	20796568 	rsbscs	r6, r9, r8, ror #10
    ad30:	20646168 	rsbcs	r6, r4, r8, ror #2
    ad34:	656e6f67 	strbvs	r6, [lr, #-3943]!	; 0xf67
    ad38:	72687420 	rsbvc	r7, r8, #536870912	; 0x20000000
    ad3c:	68206565 	stmdavs	r0!, {r0, r2, r5, r6, r8, sl, sp, lr}
    ad40:	72646e75 	rsbvc	r6, r4, #1872	; 0x750
    ad44:	79206465 	stmdbvc	r0!, {r0, r2, r5, r6, sl, sp, lr}
    ad48:	73647261 	cmnvc	r4, #268435462	; 0x10000006
    ad4c:	65687420 	strbvs	r7, [r8, #-1056]!	; 0x420
    ad50:	74730a79 	ldrbtvc	r0, [r3], #-2681	; 0xa79
    ad54:	6570706f 	ldrbvs	r7, [r0, #-111]!	; 0x6f
    ad58:	61202c64 	teqvs	r0, r4, ror #24
    ad5c:	7720646e 	strvc	r6, [r0, -lr, ror #8]!
    ad60:	65772065 	ldrbvs	r2, [r7, #-101]!	; 0x65
    ad64:	6f20746e 	svcvs	0x0020746e
    ad68:	6572206e 	ldrbvs	r2, [r2, #-110]!	; 0x6e
    ad6c:	63696f6a 	cmnvs	r9, #424	; 0x1a8
    ad70:	202e6465 	eorcs	r6, lr, r5, ror #8
    ad74:	74754220 	ldrbtvc	r4, [r5], #-544	; 0x220
    ad78:	68656220 	stmdavs	r5!, {r5, r9, sp, lr}^
    ad7c:	2c646c6f 	stclcs	12, cr6, [r4], #-444	; 0xfffffe44
    ad80:	6f6e6120 	svcvs	0x006e6120
    ad84:	72656874 	rsbvc	r6, r5, #7602176	; 0x740000
    ad88:	6d726120 	ldfvse	f6, [r2, #-128]!	; 0xffffff80
    ad8c:	72206465 	eorvc	r6, r0, #1694498816	; 0x65000000
    ad90:	61637361 	cmnvs	r3, r1, ror #6
    ad94:	6163206c 	cmnvs	r3, ip, rrx
    ad98:	6f0a656d 	svcvs	0x000a656d
    ad9c:	6f207475 	svcvs	0x00207475
    ada0:	68742066 	ldmdavs	r4!, {r1, r2, r5, r6, sp}^
    ada4:	68732065 	ldmdavs	r3!, {r0, r2, r5, r6, sp}^
    ada8:	776f6461 	strbvc	r6, [pc, -r1, ror #8]!
    adac:	6e612073 	mcrvs	0, 3, r2, cr1, cr3, {3}
    adb0:	6f742064 	svcvs	0x00742064
    adb4:	74206b6f 	strtvc	r6, [r0], #-2927	; 0xb6f
    adb8:	72696568 	rsbvc	r6, r9, #436207616	; 0x1a000000
    adbc:	616c7020 	cmnvs	ip, r0, lsr #32
    adc0:	202c6563 	eorcs	r6, ip, r3, ror #10
    adc4:	20646e61 	rsbcs	r6, r4, r1, ror #28
    adc8:	6c6c6f66 	stclvs	15, cr6, [ip], #-408	; 0xfffffe68
    adcc:	6465776f 	strbtvs	r7, [r5], #-1903	; 0x76f
    add0:	20737520 	rsbscs	r7, r3, r0, lsr #10
    add4:	206f7774 	rsbcs	r7, pc, r4, ror r7	; <UNPREDICTABLE>
    add8:	646e7568 	strbtvs	r7, [lr], #-1384	; 0x568
    addc:	0a646572 	beq	19243ac <complen+0x19128b4>
    ade0:	64726179 	ldrbtvs	r6, [r2], #-377	; 0x179
    ade4:	20202e73 	eorcs	r2, r0, r3, ror lr
    ade8:	6e656854 	mcrvs	8, 3, r6, cr5, cr4, {2}
    adec:	20656820 	rsbcs	r6, r5, r0, lsr #16
    adf0:	696c6564 	stmdbvs	ip!, {r2, r5, r6, r8, sl, sp, lr}^
    adf4:	65726576 	ldrbvs	r6, [r2, #-1398]!	; 0x576
    adf8:	73752064 	cmnvc	r5, #100	; 0x64
    adfc:	65766f20 	ldrbvs	r6, [r6, #-3872]!	; 0xf20
    ae00:	6f742072 	svcvs	0x00742072
    ae04:	6f6e6120 	svcvs	0x006e6120
    ae08:	72656874 	rsbvc	r6, r5, #7602176	; 0x740000
    ae0c:	73696d20 	cmnvc	r9, #2048	; 0x800
    ae10:	61657263 	cmnvs	r5, r3, ror #4
    ae14:	202c746e 	eorcs	r7, ip, lr, ror #8
    ae18:	206f6877 	rsbcs	r6, pc, r7, ror r8	; <UNPREDICTABLE>
    ae1c:	72656d65 	rsbvc	r6, r5, #6464	; 0x1940
    ae20:	20646567 	rsbcs	r6, r4, r7, ror #10
    ae24:	6d6f7266 	sfmvs	f7, 2, [pc, #-408]!	; ac94 <testdata+0x226c>
    ae28:	6d6f730a 	stclvs	3, cr7, [pc, #-40]!	; ae08 <testdata+0x23e0>
    ae2c:	796d2065 	stmdbvc	sp!, {r0, r2, r5, r6, sp}^
    ae30:	72657473 	rsbvc	r7, r5, #1929379840	; 0x73000000
    ae34:	73756f69 	cmnvc	r5, #420	; 0x1a4
    ae38:	616c7020 	cmnvs	ip, r0, lsr #32
    ae3c:	202c6563 	eorcs	r6, ip, r3, ror #10
    ae40:	20646e61 	rsbcs	r6, r4, r1, ror #28
    ae44:	69206568 	stmdbvs	r0!, {r3, r5, r6, r8, sl, sp, lr}
    ae48:	7574206e 	ldrbvc	r2, [r4, #-110]!	; 0x6e
    ae4c:	74206e72 	strtvc	r6, [r0], #-3698	; 0xe72
    ae50:	6e61206f 	cdpvs	0, 6, cr2, cr1, cr15, {3}
    ae54:	6568746f 	strbvs	r7, [r8, #-1135]!	; 0x46f
    ae58:	20202172 	eorcs	r2, r0, r2, ror r1
    ae5c:	20726f46 	rsbscs	r6, r2, r6, asr #30
    ae60:	696d2061 	stmdbvs	sp!, {r0, r5, r6, sp}^
    ae64:	6120656c 	teqvs	r0, ip, ror #10
    ae68:	6120646e 	teqvs	r0, lr, ror #8
    ae6c:	6c616820 	stclvs	8, cr6, [r1], #-128	; 0xffffff80
    ae70:	756f0a66 	strbvc	r0, [pc, #-2662]!	; a412 <testdata+0x19ea>
    ae74:	65722072 	ldrbvs	r2, [r2, #-114]!	; 0x72
    ae78:	77207261 	strvc	r7, [r0, -r1, ror #4]!
    ae7c:	67207361 	strvs	r7, [r0, -r1, ror #6]!
    ae80:	64726175 	ldrbtvs	r6, [r2], #-373	; 0x175
    ae84:	61206465 	teqvs	r0, r5, ror #8
    ae88:	74206c6c 	strtvc	r6, [r0], #-3180	; 0xc6c
    ae8c:	77206568 	strvc	r6, [r0, -r8, ror #10]!
    ae90:	656c6968 	strbvs	r6, [ip, #-2408]!	; 0x968
    ae94:	20796220 	rsbscs	r6, r9, r0, lsr #4
    ae98:	656d7261 	strbvs	r7, [sp, #-609]!	; 0x261
    ae9c:	656d2064 	strbvs	r2, [sp, #-100]!	; 0x64
    aea0:	20202e6e 	eorcs	r2, r0, lr, ror #28
    aea4:	656e2049 	strbvs	r2, [lr, #-73]!	; 0x49
    aea8:	20726576 	rsbscs	r6, r2, r6, ror r5
    aeac:	76617274 			; <UNDEFINED> instruction: 0x76617274
    aeb0:	64656c65 	strbtvs	r6, [r5], #-3173	; 0xc65
    aeb4:	206e6920 	rsbcs	r6, lr, r0, lsr #18
    aeb8:	6d0a6f73 	stcvs	15, cr6, [sl, #-460]	; 0xfffffe34
    aebc:	20686375 	rsbcs	r6, r8, r5, ror r3
    aec0:	74617473 	strbtvc	r7, [r1], #-1139	; 0x473
    aec4:	65622065 	strbvs	r2, [r2, #-101]!	; 0x65
    aec8:	65726f66 	ldrbvs	r6, [r2, #-3942]!	; 0xf66
    aecc:	206e6920 	rsbcs	r6, lr, r0, lsr #18
    aed0:	206c6c61 	rsbcs	r6, ip, r1, ror #24
    aed4:	6c20796d 	stcvs	9, cr7, [r0], #-436	; 0xfffffe4c
    aed8:	2e656669 	cdpcs	6, 6, cr6, cr5, cr9, {3}
    aedc:	74490a0a 	strbvc	r0, [r9], #-2570	; 0xa0a
    aee0:	73617720 	cmnvc	r1, #8388608	; 0x800000
    aee4:	67206120 	strvs	r6, [r0, -r0, lsr #2]!
    aee8:	20646f6f 	rsbcs	r6, r4, pc, ror #30
    aeec:	6c696877 	stclvs	8, cr6, [r9], #-476	; 0xfffffe24
    aef0:	66612065 	strbtvs	r2, [r1], -r5, rrx
    aef4:	20726574 	rsbscs	r6, r2, r4, ror r5
    aef8:	74616874 	strbtvc	r6, [r1], #-2164	; 0x874
    aefc:	66656220 	strbtvs	r6, [r5], -r0, lsr #4
    af00:	2065726f 	rsbcs	r7, r5, pc, ror #4
    af04:	76206577 			; <UNDEFINED> instruction: 0x76206577
    af08:	75746e65 	ldrbvc	r6, [r4, #-3685]!	; 0xe65
    af0c:	20646572 	rsbcs	r6, r4, r2, ror r5
    af10:	73206f74 	teqvc	r0, #464	; 0x1d0
    af14:	6c616574 	cfstr64vs	mvdx6, [r1], #-464	; 0xfffffe30
    af18:	796e6120 	stmdbvc	lr!, {r5, r8, sp, lr}^
    af1c:	726f6d20 	rsbvc	r6, pc, #2048	; 0x800
    af20:	72670a65 	rsbvc	r0, r7, #413696	; 0x65000
    af24:	73657061 	cmnvc	r5, #97	; 0x61
    af28:	6e61202c 	cdpvs	0, 6, cr2, cr1, cr12, {1}
    af2c:	68772064 	ldmdavs	r7!, {r2, r5, r6, sp}^
    af30:	77206e65 	strvc	r6, [r0, -r5, ror #28]!
    af34:	69642065 	stmdbvs	r4!, {r0, r2, r5, r6, sp}^
    af38:	65772064 	ldrbvs	r2, [r7, #-100]!	; 0x64
    af3c:	69747320 	ldmdbvs	r4!, {r5, r8, r9, ip, sp, lr}^
    af40:	64657272 	strbtvs	r7, [r5], #-626	; 0x272
    af44:	20707520 	rsbscs	r7, r0, r0, lsr #10
    af48:	746f6e61 	strbtvc	r6, [pc], #-3681	; af50 <testdata+0x2528>
    af4c:	20726568 	rsbscs	r6, r2, r8, ror #10
    af50:	756f7274 	strbvc	r7, [pc, #-628]!	; ace4 <testdata+0x22bc>
    af54:	73656c62 	cmnvc	r5, #25088	; 0x6200
    af58:	20656d6f 	rsbcs	r6, r5, pc, ror #26
    af5c:	67697262 	strbvs	r7, [r9, -r2, ror #4]!
    af60:	2c646e61 	stclcs	14, cr6, [r4], #-388	; 0xfffffe7c
    af64:	646e6120 	strbtvs	r6, [lr], #-288	; 0x120
    af68:	6568740a 	strbvs	r7, [r8, #-1034]!	; 0x40a
    af6c:	6577206e 	ldrbvs	r2, [r7, #-110]!	; 0x6e
    af70:	61656320 	cmnvs	r5, r0, lsr #6
    af74:	20646573 	rsbcs	r6, r4, r3, ror r5
    af78:	206c6c61 	rsbcs	r6, ip, r1, ror #24
    af7c:	74727566 	ldrbtvc	r7, [r2], #-1382	; 0x566
    af80:	20726568 	rsbscs	r6, r2, r8, ror #10
    af84:	63657073 	cmnvs	r5, #115	; 0x73
    af88:	74616c75 	strbtvc	r6, [r1], #-3189	; 0xc75
    af8c:	206e6f69 	rsbcs	r6, lr, r9, ror #30
    af90:	74206e69 	strtvc	r6, [r0], #-3689	; 0xe69
    af94:	20746168 	rsbscs	r6, r4, r8, ror #2
    af98:	656e696c 	strbvs	r6, [lr, #-2412]!	; 0x96c
    af9c:	4920202e 	stmdbmi	r0!, {r1, r2, r3, r5, sp}
    afa0:	70757320 	rsbsvc	r7, r5, r0, lsr #6
    afa4:	65736f70 	ldrbvs	r6, [r3, #-3952]!	; 0xf70
    afa8:	61687420 	cmnvs	r8, r0, lsr #8
    afac:	65660a74 	strbvs	r0, [r6, #-2676]!	; 0xa74
    afb0:	776f6c6c 	strbvc	r6, [pc, -ip, ror #24]!
    afb4:	61687420 	cmnvs	r8, r0, lsr #8
    afb8:	6f722074 	svcvs	0x00722074
    afbc:	62206564 	eorvs	r6, r0, #419430400	; 0x19000000
    afc0:	6e6f2079 	mcrvs	0, 3, r2, cr15, cr9, {3}
    afc4:	65687420 	strbvs	r7, [r8, #-1056]!	; 0x420
    afc8:	6c756d20 	ldclvs	13, cr6, [r5], #-128	; 0xffffff80
    afcc:	6f702065 	svcvs	0x00702065
    afd0:	64657473 	strbtvs	r7, [r5], #-1139	; 0x473
    afd4:	6c6c6120 	stfvse	f6, [ip], #-128	; 0xffffff80
    afd8:	65687420 	strbvs	r7, [r8, #-1056]!	; 0x420
    afdc:	6e657320 	cdpvs	3, 6, cr7, cr5, cr0, {1}
    afe0:	656e6974 	strbvs	r6, [lr, #-2420]!	; 0x974
    afe4:	202c736c 	eorcs	r7, ip, ip, ror #6
    afe8:	6d6f7266 	sfmvs	f7, 2, [pc, #-408]!	; ae58 <testdata+0x2430>
    afec:	68744120 	ldmdavs	r4!, {r5, r8, lr}^
    aff0:	20736e65 	rsbscs	r6, r3, r5, ror #28
    aff4:	740a6f74 	strvc	r6, [sl], #-3956	; 0xf74
    aff8:	50206568 	eorpl	r6, r0, r8, ror #10
    affc:	65617269 	strbvs	r7, [r1, #-617]!	; 0x269
    b000:	202c7375 	eorcs	r7, ip, r5, ror r3
    b004:	756f6261 	strbvc	r6, [pc, #-609]!	; adab <testdata+0x2383>
    b008:	73752074 	cmnvc	r5, #116	; 0x74
    b00c:	450a0a2e 	strmi	r0, [sl, #-2606]	; 0xa2e
    b010:	79726576 	ldmdbvc	r2!, {r1, r2, r4, r5, r6, r8, sl, sp, lr}^
    b014:	65696620 	strbvs	r6, [r9, #-1568]!	; 0x620
    b018:	6f20646c 	svcvs	0x0020646c
    b01c:	6874206e 	ldmdavs	r4!, {r1, r2, r3, r5, r6, sp}^
    b020:	6c207461 	cfstrsvs	mvf7, [r0], #-388	; 0xfffffe7c
    b024:	20676e6f 	rsbcs	r6, r7, pc, ror #28
    b028:	74756f72 	ldrbtvc	r6, [r5], #-3954	; 0xf72
    b02c:	61772065 	cmnvs	r7, r5, rrx
    b030:	61772073 	cmnvs	r7, r3, ror r0
    b034:	65686374 	strbvs	r6, [r8, #-884]!	; 0x374
    b038:	79622064 	stmdbvc	r2!, {r2, r5, r6, sp}^
    b03c:	206e6120 	rsbcs	r6, lr, r0, lsr #2
    b040:	656d7261 	strbvs	r7, [sp, #-609]!	; 0x261
    b044:	65732064 	ldrbvs	r2, [r3, #-100]!	; 0x64
    b048:	6e69746e 	cdpvs	4, 6, cr7, cr9, cr14, {3}
    b04c:	202c6c65 	eorcs	r6, ip, r5, ror #24
    b050:	656d6f73 	strbvs	r6, [sp, #-3955]!	; 0xf73
    b054:	0a666f20 	beq	19a6cdc <complen+0x19951e4>
    b058:	6d6f6877 	stclvs	8, cr6, [pc, #-476]!	; ae84 <testdata+0x245c>
    b05c:	64616820 	strbtvs	r6, [r1], #-2080	; 0x820
    b060:	6c616620 	stclvs	6, cr6, [r1], #-128	; 0xffffff80
    b064:	206e656c 	rsbcs	r6, lr, ip, ror #10
    b068:	656c7361 	strbvs	r7, [ip, #-865]!	; 0x361
    b06c:	202c7065 	eorcs	r7, ip, r5, rrx
    b070:	64206f6e 	strtvs	r6, [r0], #-3950	; 0xf6e
    b074:	7462756f 	strbtvc	r7, [r2], #-1391	; 0x56f
    b078:	7562202c 	strbvc	r2, [r2, #-44]!	; 0x2c
    b07c:	65772074 	ldrbvs	r2, [r7, #-116]!	; 0x74
    b080:	6f206572 	svcvs	0x00206572
    b084:	6168206e 	cmnvs	r8, lr, rrx
    b088:	202c646e 	eorcs	r6, ip, lr, ror #8
    b08c:	6576656e 	ldrbvs	r6, [r6, #-1390]!	; 0x56e
    b090:	65687472 	strbvs	r7, [r8, #-1138]!	; 0x472
    b094:	7373656c 	cmnvc	r3, #452984832	; 0x1b000000
    b098:	5420202e 	strtpl	r2, [r0], #-46	; 0x2e
    b09c:	0a736968 	beq	1ce5644 <complen+0x1cd3b4c>
    b0a0:	776f6873 			; <UNDEFINED> instruction: 0x776f6873
    b0a4:	68772073 	ldmdavs	r7!, {r0, r1, r4, r5, r6, sp}^
    b0a8:	73207461 	teqvc	r0, #1627389952	; 0x61000000
    b0ac:	2074726f 	rsbscs	r7, r4, pc, ror #4
    b0b0:	6120666f 	teqvs	r0, pc, ror #12
    b0b4:	756f6320 	strbvc	r6, [pc, #-800]!	; ad9c <testdata+0x2374>
    b0b8:	7972746e 	ldmdbvc	r2!, {r1, r2, r3, r5, r6, sl, ip, sp, lr}^
    b0bc:	646f6d20 	strbtvs	r6, [pc], #-3360	; b0c4 <testdata+0x269c>
    b0c0:	206e7265 	rsbcs	r7, lr, r5, ror #4
    b0c4:	69747441 	ldmdbvs	r4!, {r0, r6, sl, ip, sp, lr}^
    b0c8:	69206163 	stmdbvs	r0!, {r0, r1, r5, r6, r8, sp, lr}
    b0cc:	612d2d73 	teqvs	sp, r3, ror sp
    b0d0:	6d6f6320 	stclvs	3, cr6, [pc, #-128]!	; b058 <testdata+0x2630>
    b0d4:	696e756d 	stmdbvs	lr!, {r0, r2, r3, r5, r6, r8, sl, ip, sp, lr}^
    b0d8:	6f207974 	svcvs	0x00207974
    b0dc:	75710a66 	ldrbvc	r0, [r1, #-2662]!	; 0xa66
    b0e0:	69747365 	ldmdbvs	r4!, {r0, r2, r5, r6, r8, r9, ip, sp, lr}^
    b0e4:	62616e6f 	rsbvs	r6, r1, #1776	; 0x6f0
    b0e8:	6320656c 	teqvs	r0, #452984832	; 0x1b000000
    b0ec:	61726168 	cmnvs	r2, r8, ror #2
    b0f0:	72657463 	rsbvc	r7, r5, #1660944384	; 0x63000000
    b0f4:	20202e73 	eorcs	r2, r0, r3, ror lr
    b0f8:	73656854 	cmnvc	r5, #5505024	; 0x540000
    b0fc:	656d2065 	strbvs	r2, [sp, #-101]!	; 0x65
    b100:	6577206e 	ldrbvs	r2, [r7, #-110]!	; 0x6e
    b104:	6e206572 	mcrvs	5, 1, r6, cr0, cr2, {3}
    b108:	7420746f 	strtvc	r7, [r0], #-1135	; 0x46f
    b10c:	65726568 	ldrbvs	r6, [r2, #-1384]!	; 0x568
    b110:	206f7420 	rsbcs	r7, pc, r0, lsr #8
    b114:	72617567 	rsbvc	r7, r1, #432013312	; 0x19c00000
    b118:	68742064 	ldmdavs	r4!, {r2, r5, r6, sp}^
    b11c:	0a726965 	beq	1ca56b8 <complen+0x1c93bc0>
    b120:	73736f70 	cmnvc	r3, #448	; 0x1c0
    b124:	69737365 	ldmdbvs	r3!, {r0, r2, r5, r6, r8, r9, ip, sp, lr}^
    b128:	20736e6f 	rsbscs	r6, r3, pc, ror #28
    b12c:	69616761 	stmdbvs	r1!, {r0, r5, r6, r8, r9, sl, sp, lr}^
    b130:	2074736e 	rsbscs	r7, r4, lr, ror #6
    b134:	61727473 	cmnvs	r2, r3, ror r4

0000b138 <configuration_table>:
	...
    b140:	00001570 	andeq	r1, r0, r0, ror r5
    b144:	00040004 	andeq	r0, r4, r4
    b148:	00040008 	andeq	r0, r4, r8
    b14c:	000010d8 	ldrdeq	r1, [r0], -r8
    b150:	00050004 	andeq	r0, r5, r4
    b154:	00080010 	andeq	r0, r8, r0, lsl r0
    b158:	000010d8 	ldrdeq	r1, [r0], -r8
    b15c:	00060004 	andeq	r0, r6, r4
    b160:	00200020 	eoreq	r0, r0, r0, lsr #32
    b164:	000010d8 	ldrdeq	r1, [r0], -r8
    b168:	00040004 	andeq	r0, r4, r4
    b16c:	00100010 	andseq	r0, r0, r0, lsl r0
    b170:	00000b54 	andeq	r0, r0, r4, asr fp
    b174:	00100008 	andseq	r0, r0, r8
    b178:	00200020 	eoreq	r0, r0, r0, lsr #32
    b17c:	00000b54 	andeq	r0, r0, r4, asr fp
    b180:	00100008 	andseq	r0, r0, r8
    b184:	00800080 	addeq	r0, r0, r0, lsl #1
    b188:	00000b54 	andeq	r0, r0, r4, asr fp
    b18c:	00200008 	eoreq	r0, r0, r8
    b190:	01000080 	smlabbeq	r0, r0, r0, r0
    b194:	00000b54 	andeq	r0, r0, r4, asr fp
    b198:	00800020 	addeq	r0, r0, r0, lsr #32
    b19c:	04000102 	streq	r0, [r0], #-258	; 0x102
    b1a0:	00000b54 	andeq	r0, r0, r4, asr fp
    b1a4:	01020020 	tsteq	r2, r0, lsr #32
    b1a8:	10000102 	andne	r0, r0, r2, lsl #2
    b1ac:	00000b54 	andeq	r0, r0, r4, asr fp

0000b1b0 <deflate_copyright>:
    b1b0:	66656420 	strbtvs	r6, [r5], -r0, lsr #8
    b1b4:	6574616c 	ldrbvs	r6, [r4, #-364]!	; 0x16c
    b1b8:	322e3120 	eorcc	r3, lr, #8
    b1bc:	4320372e 	teqmi	r0, #12058624	; 0xb80000
    b1c0:	7279706f 	rsbsvc	r7, r9, #111	; 0x6f
    b1c4:	74686769 	strbtvc	r6, [r8], #-1897	; 0x769
    b1c8:	39393120 	ldmdbcc	r9!, {r5, r8, ip, sp}
    b1cc:	30322d35 	eorscc	r2, r2, r5, lsr sp
    b1d0:	4a203231 	bmi	817a9c <complen+0x805fa4>
    b1d4:	2d6e6165 	stfcse	f6, [lr, #-404]!	; 0xfffffe6c
    b1d8:	70756f6c 	rsbsvc	r6, r5, ip, ror #30
    b1dc:	69614720 	stmdbvs	r1!, {r5, r8, r9, sl, lr}^
    b1e0:	20796c6c 	rsbscs	r6, r9, ip, ror #24
    b1e4:	20646e61 	rsbcs	r6, r4, r1, ror #28
    b1e8:	6b72614d 	blvs	1ca3724 <complen+0x1c91c2c>
    b1ec:	6c644120 	stfvse	f4, [r4], #-128	; 0xffffff80
    b1f0:	00207265 	eoreq	r7, r0, r5, ror #4

0000b1f4 <z_errmsg>:
    b1f4:	0000ca2c 	andeq	ip, r0, ip, lsr #20
    b1f8:	0000ca3c 	andeq	ip, r0, ip, lsr sl
    b1fc:	0000cc78 	andeq	ip, r0, r8, ror ip
    b200:	0000ca48 	andeq	ip, r0, r8, asr #20
    b204:	0000ca54 	andeq	ip, r0, r4, asr sl
    b208:	0000ca64 	andeq	ip, r0, r4, ror #20
    b20c:	0000ca70 	andeq	ip, r0, r0, ror sl
    b210:	0000ca84 	andeq	ip, r0, r4, lsl #21
    b214:	0000ca94 	muleq	r0, r4, sl
    b218:	0000cc78 	andeq	ip, r0, r8, ror ip

0000b21c <crc_table>:
    b21c:	00000000 	andeq	r0, r0, r0
    b220:	77073096 			; <UNDEFINED> instruction: 0x77073096
    b224:	ee0e612c 	adfep	f6, f6, #4.0
    b228:	990951ba 	stmdbls	r9, {r1, r3, r4, r5, r7, r8, ip, lr}
    b22c:	076dc419 			; <UNDEFINED> instruction: 0x076dc419
    b230:	706af48f 	rsbvc	pc, sl, pc, lsl #9
    b234:	e963a535 	stmdb	r3!, {r0, r2, r4, r5, r8, sl, sp, pc}^
    b238:	9e6495a3 	cdpls	5, 6, cr9, cr4, cr3, {5}
    b23c:	0edb8832 	mrceq	8, 6, r8, cr11, cr2, {1}
    b240:	79dcb8a4 	ldmibvc	ip, {r2, r5, r7, fp, ip, sp, pc}^
    b244:	e0d5e91e 	sbcs	lr, r5, lr, lsl r9
    b248:	97d2d988 	ldrbls	sp, [r2, r8, lsl #19]
    b24c:	09b64c2b 	ldmibeq	r6!, {r0, r1, r3, r5, sl, fp, lr}
    b250:	7eb17cbd 	mrcvc	12, 5, r7, cr1, cr13, {5}
    b254:	e7b82d07 	ldr	r2, [r8, r7, lsl #26]!
    b258:	90bf1d91 	umlalsls	r1, pc, r1, sp	; <UNPREDICTABLE>
    b25c:	1db71064 	ldcne	0, cr1, [r7, #400]!	; 0x190
    b260:	6ab020f2 	bvs	fec13630 <complen+0xfec01b38>
    b264:	f3b97148 	vceq.i32	<illegal reg q3.5>, q4, #0
    b268:	84be41de 	ldrthi	r4, [lr], #478	; 0x1de
    b26c:	1adad47d 	bne	ff6c0468 <complen+0xff6ae970>
    b270:	6ddde4eb 	cfldrdvs	mvd14, [sp, #940]	; 0x3ac
    b274:	f4d4b551 			; <UNDEFINED> instruction: 0xf4d4b551
    b278:	83d385c7 	bicshi	r8, r3, #834666496	; 0x31c00000
    b27c:	136c9856 	cmnne	ip, #5636096	; 0x560000
    b280:	646ba8c0 	strbtvs	sl, [fp], #-2240	; 0x8c0
    b284:	fd62f97a 	stc2l	9, cr15, [r2, #-488]!	; 0xfffffe18
    b288:	8a65c9ec 	bhi	197da40 <complen+0x196bf48>
    b28c:	14015c4f 	strne	r5, [r1], #-3151	; 0xc4f
    b290:	63066cd9 	movwvs	r6, #27865	; 0x6cd9
    b294:	fa0f3d63 	blx	3da828 <complen+0x3c8d30>
    b298:	8d080df5 	stchi	13, cr0, [r8, #-980]	; 0xfffffc2c
    b29c:	3b6e20c8 	blcc	1b935c4 <complen+0x1b81acc>
    b2a0:	4c69105e 	stclmi	0, cr1, [r9], #-376	; 0xfffffe88
    b2a4:	d56041e4 	strble	r4, [r0, #-484]!	; 0x1e4
    b2a8:	a2677172 	rsbge	r7, r7, #-2147483620	; 0x8000001c
    b2ac:	3c03e4d1 	cfstrscc	mvf14, [r3], {209}	; 0xd1
    b2b0:	4b04d447 	blmi	1403d4 <complen+0x12e8dc>
    b2b4:	d20d85fd 	andle	r8, sp, #1061158912	; 0x3f400000
    b2b8:	a50ab56b 	strge	fp, [sl, #-1387]	; 0x56b
    b2bc:	35b5a8fa 	ldrcc	sl, [r5, #2298]!	; 0x8fa
    b2c0:	42b2986c 	adcsmi	r9, r2, #7077888	; 0x6c0000
    b2c4:	dbbbc9d6 	blle	feefda24 <complen+0xfeeebf2c>
    b2c8:	acbcf940 	ldcge	9, cr15, [ip], #256	; 0x100
    b2cc:	32d86ce3 	sbcscc	r6, r8, #58112	; 0xe300
    b2d0:	45df5c75 	ldrbmi	r5, [pc, #3189]	; bf4d <static_ltree+0x445>
    b2d4:	dcd60dcf 	ldclle	13, cr0, [r6], {207}	; 0xcf
    b2d8:	abd13d59 	blge	ff45a844 <complen+0xff448d4c>
    b2dc:	26d930ac 	ldrbcs	r3, [r9], ip, lsr #1
    b2e0:	51de003a 	bicspl	r0, lr, sl, lsr r0
    b2e4:	c8d75180 	ldmgt	r7, {r7, r8, ip, lr}^
    b2e8:	bfd06116 	svclt	0x00d06116
    b2ec:	21b4f4b5 			; <UNDEFINED> instruction: 0x21b4f4b5
    b2f0:	56b3c423 	ldrtpl	ip, [r3], r3, lsr #8
    b2f4:	cfba9599 	svcgt	0x00ba9599
    b2f8:	b8bda50f 	poplt	{r0, r1, r2, r3, r8, sl, sp, pc}
    b2fc:	2802b89e 	stmdacs	r2, {r1, r2, r3, r4, r7, fp, ip, sp, pc}
    b300:	5f058808 	svcpl	0x00058808
    b304:	c60cd9b2 			; <UNDEFINED> instruction: 0xc60cd9b2
    b308:	b10be924 	tstlt	fp, r4, lsr #18
    b30c:	2f6f7c87 	svccs	0x006f7c87
    b310:	58684c11 	stmdapl	r8!, {r0, r4, sl, fp, lr}^
    b314:	c1611dab 	cmngt	r1, fp, lsr #27
    b318:	b6662d3d 			; <UNDEFINED> instruction: 0xb6662d3d
    b31c:	76dc4190 			; <UNDEFINED> instruction: 0x76dc4190
    b320:	01db7106 	bicseq	r7, fp, r6, lsl #2
    b324:	98d220bc 	ldmls	r2, {r2, r3, r4, r5, r7, sp}^
    b328:	efd5102a 	svc	0x00d5102a
    b32c:	71b18589 			; <UNDEFINED> instruction: 0x71b18589
    b330:	06b6b51f 	ssateq	fp, #23, pc, lsl #10	; <UNPREDICTABLE>
    b334:	9fbfe4a5 	svcls	0x00bfe4a5
    b338:	e8b8d433 	ldm	r8!, {r0, r1, r4, r5, sl, ip, lr, pc}
    b33c:	7807c9a2 	stmdavc	r7, {r1, r5, r7, r8, fp, lr, pc}
    b340:	0f00f934 	svceq	0x0000f934
    b344:	9609a88e 	strls	sl, [r9], -lr, lsl #17
    b348:	e10e9818 	tst	lr, r8, lsl r8
    b34c:	7f6a0dbb 	svcvc	0x006a0dbb
    b350:	086d3d2d 	stmdaeq	sp!, {r0, r2, r3, r5, r8, sl, fp, ip, sp}^
    b354:	91646c97 			; <UNDEFINED> instruction: 0x91646c97
    b358:	e6635c01 	strbt	r5, [r3], -r1, lsl #24
    b35c:	6b6b51f4 	blvs	1adfb34 <complen+0x1ace03c>
    b360:	1c6c6162 	stfnee	f6, [ip], #-392	; 0xfffffe78
    b364:	856530d8 	strbhi	r3, [r5, #-216]!	; 0xd8
    b368:	f262004e 	vhadd.s32	q8, q1, q7
    b36c:	6c0695ed 	cfstr32vs	mvfx9, [r6], {237}	; 0xed
    b370:	1b01a57b 	blne	74964 <complen+0x62e6c>
    b374:	8208f4c1 	andhi	pc, r8, #-1056964608	; 0xc1000000
    b378:	f50fc457 			; <UNDEFINED> instruction: 0xf50fc457
    b37c:	65b0d9c6 	ldrvs	sp, [r0, #2502]!	; 0x9c6
    b380:	12b7e950 	adcsne	lr, r7, #1310720	; 0x140000
    b384:	8bbeb8ea 	blhi	fefb9734 <complen+0xfefa7c3c>
    b388:	fcb9887c 	ldc2	8, cr8, [r9], #496	; 0x1f0
    b38c:	62dd1ddf 	sbcsvs	r1, sp, #14272	; 0x37c0
    b390:	15da2d49 	ldrbne	r2, [sl, #3401]	; 0xd49
    b394:	8cd37cf3 	ldclhi	12, cr7, [r3], {243}	; 0xf3
    b398:	fbd44c65 	blx	ff51e536 <complen+0xff50ca3e>
    b39c:	4db26158 	ldfmis	f6, [r2, #352]!	; 0x160
    b3a0:	3ab551ce 	bcc	fed5fae0 <complen+0xfed4dfe8>
    b3a4:	a3bc0074 			; <UNDEFINED> instruction: 0xa3bc0074
    b3a8:	d4bb30e2 	ldrtle	r3, [fp], #226	; 0xe2
    b3ac:	4adfa541 	bmi	ff7f48b8 <complen+0xff7e2dc0>
    b3b0:	3dd895d7 	cfldr64cc	mvdx9, [r8, #860]	; 0x35c
    b3b4:	a4d1c46d 	ldrbge	ip, [r1], #1133	; 0x46d
    b3b8:	d3d6f4fb 	bicsle	pc, r6, #-83886080	; 0xfb000000
    b3bc:	4369e96a 	cmnmi	r9, #1736704	; 0x1a8000
    b3c0:	346ed9fc 	strbtcc	sp, [lr], #-2556	; 0x9fc
    b3c4:	ad678846 	stclge	8, cr8, [r7, #-280]!	; 0xfffffee8
    b3c8:	da60b8d0 	ble	1839710 <complen+0x1827c18>
    b3cc:	44042d73 	strmi	r2, [r4], #-3443	; 0xd73
    b3d0:	33031de5 	movwcc	r1, #15845	; 0x3de5
    b3d4:	aa0a4c5f 	bge	29e558 <complen+0x28ca60>
    b3d8:	dd0d7cc9 	stcle	12, cr7, [sp, #-804]	; 0xfffffcdc
    b3dc:	5005713c 	andpl	r7, r5, ip, lsr r1
    b3e0:	270241aa 	strcs	r4, [r2, -sl, lsr #3]
    b3e4:	be0b1010 	mcrlt	0, 0, r1, cr11, cr0, {0}
    b3e8:	c90c2086 	stmdbgt	ip, {r1, r2, r7, sp}
    b3ec:	5768b525 	strbpl	fp, [r8, -r5, lsr #10]!
    b3f0:	206f85b3 	strhtcs	r8, [pc], #-83
    b3f4:	b966d409 	stmdblt	r6!, {r0, r3, sl, ip, lr, pc}^
    b3f8:	ce61e49f 	mcrgt	4, 3, lr, cr1, cr15, {4}
    b3fc:	5edef90e 	cdppl	9, 13, cr15, cr14, cr14, {0}
    b400:	29d9c998 	ldmibcs	r9, {r3, r4, r7, r8, fp, lr, pc}^
    b404:	b0d09822 	sbcslt	r9, r0, r2, lsr #16
    b408:	c7d7a8b4 			; <UNDEFINED> instruction: 0xc7d7a8b4
    b40c:	59b33d17 	ldmibpl	r3!, {r0, r1, r2, r4, r8, sl, fp, ip, sp}
    b410:	2eb40d81 	cdpcs	13, 11, cr0, cr4, cr1, {4}
    b414:	b7bd5c3b 			; <UNDEFINED> instruction: 0xb7bd5c3b
    b418:	c0ba6cad 	adcsgt	r6, sl, sp, lsr #25
    b41c:	edb88320 	ldc	3, cr8, [r8, #128]!	; 0x80
    b420:	9abfb3b6 	bls	feff8300 <complen+0xfefe6808>
    b424:	03b6e20c 			; <UNDEFINED> instruction: 0x03b6e20c
    b428:	74b1d29a 	ldrtvc	sp, [r1], #666	; 0x29a
    b42c:	ead54739 	b	ff55d118 <complen+0xff54b620>
    b430:	9dd277af 	ldclls	7, cr7, [r2, #700]	; 0x2bc
    b434:	04db2615 	ldrbeq	r2, [fp], #1557	; 0x615
    b438:	73dc1683 	bicsvc	r1, ip, #137363456	; 0x8300000
    b43c:	e3630b12 	cmn	r3, #18432	; 0x4800
    b440:	94643b84 	strbtls	r3, [r4], #-2948	; 0xb84
    b444:	0d6d6a3e 	vpusheq	{s13-s74}
    b448:	7a6a5aa8 	bvc	1aa1ef0 <complen+0x1a903f8>
    b44c:	e40ecf0b 	str	ip, [lr], #-3851	; 0xf0b
    b450:	9309ff9d 	movwls	pc, #40861	; 0x9f9d	; <UNPREDICTABLE>
    b454:	0a00ae27 	beq	36cf8 <complen+0x25200>
    b458:	7d079eb1 	stcvc	14, cr9, [r7, #-708]	; 0xfffffd3c
    b45c:	f00f9344 			; <UNDEFINED> instruction: 0xf00f9344
    b460:	8708a3d2 			; <UNDEFINED> instruction: 0x8708a3d2
    b464:	1e01f268 	cdpne	2, 0, cr15, cr1, cr8, {3}
    b468:	6906c2fe 	stmdbvs	r6, {r1, r2, r3, r4, r5, r6, r7, r9, lr, pc}
    b46c:	f762575d 			; <UNDEFINED> instruction: 0xf762575d
    b470:	806567cb 	rsbhi	r6, r5, fp, asr #15
    b474:	196c3671 	stmdbne	ip!, {r0, r4, r5, r6, r9, sl, ip, sp}^
    b478:	6e6b06e7 	cdpvs	6, 6, cr0, cr11, cr7, {7}
    b47c:	fed41b76 	mrc2	11, 6, r1, cr4, cr6, {3}
    b480:	89d32be0 	ldmibhi	r3, {r5, r6, r7, r8, r9, fp, sp}^
    b484:	10da7a5a 	sbcsne	r7, sl, sl, asr sl
    b488:	67dd4acc 	ldrbvs	r4, [sp, ip, asr #21]
    b48c:	f9b9df6f 			; <UNDEFINED> instruction: 0xf9b9df6f
    b490:	8ebeeff9 	mrchi	15, 5, lr, cr14, cr9, {7}
    b494:	17b7be43 	ldrne	fp, [r7, r3, asr #28]!
    b498:	60b08ed5 	ldrsbtvs	r8, [r0], r5
    b49c:	d6d6a3e8 	ldrble	sl, [r6], r8, ror #7
    b4a0:	a1d1937e 	bicsge	r9, r1, lr, ror r3
    b4a4:	38d8c2c4 	ldmcc	r8, {r2, r6, r7, r9, lr, pc}^
    b4a8:	4fdff252 	svcmi	0x00dff252
    b4ac:	d1bb67f1 			; <UNDEFINED> instruction: 0xd1bb67f1
    b4b0:	a6bc5767 	ldrtge	r5, [ip], r7, ror #14
    b4b4:	3fb506dd 	svccc	0x00b506dd
    b4b8:	48b2364b 	ldmmi	r2!, {r0, r1, r3, r6, r9, sl, ip, sp}
    b4bc:	d80d2bda 	stmdale	sp, {r1, r3, r4, r6, r7, r8, r9, fp, sp}
    b4c0:	af0a1b4c 	svcge	0x000a1b4c
    b4c4:	36034af6 			; <UNDEFINED> instruction: 0x36034af6
    b4c8:	41047a60 	tstmi	r4, r0, ror #20
    b4cc:	df60efc3 	svcle	0x0060efc3
    b4d0:	a867df55 	stmdage	r7!, {r0, r2, r4, r6, r8, r9, sl, fp, ip, lr, pc}^
    b4d4:	316e8eef 	cmncc	lr, pc, ror #29
    b4d8:	4669be79 			; <UNDEFINED> instruction: 0x4669be79
    b4dc:	cb61b38c 	blgt	1878314 <complen+0x186681c>
    b4e0:	bc66831a 	stcllt	3, cr8, [r6], #-104	; 0xffffff98
    b4e4:	256fd2a0 	strbcs	sp, [pc, #-672]!	; b24c <crc_table+0x30>
    b4e8:	5268e236 	rsbpl	lr, r8, #1610612739	; 0x60000003
    b4ec:	cc0c7795 	stcgt	7, cr7, [ip], {149}	; 0x95
    b4f0:	bb0b4703 	bllt	2dd104 <complen+0x2cb60c>
    b4f4:	220216b9 	andcs	r1, r2, #193986560	; 0xb900000
    b4f8:	5505262f 	strpl	r2, [r5, #-1583]	; 0x62f
    b4fc:	c5ba3bbe 	ldrgt	r3, [sl, #3006]!	; 0xbbe
    b500:	b2bd0b28 	adcslt	r0, sp, #40960	; 0xa000
    b504:	2bb45a92 	blcs	fed21f54 <complen+0xfed1045c>
    b508:	5cb36a04 	vldmiapl	r3!, {s12-s15}
    b50c:	c2d7ffa7 	sbcsgt	pc, r7, #668	; 0x29c
    b510:	b5d0cf31 	ldrblt	ip, [r0, #3889]	; 0xf31
    b514:	2cd99e8b 	ldclcs	14, cr9, [r9], {139}	; 0x8b
    b518:	5bdeae1d 	blpl	ff7b6d94 <complen+0xff7a529c>
    b51c:	9b64c2b0 	blls	193bfe4 <complen+0x192a4ec>
    b520:	ec63f226 	sfm	f7, 3, [r3], #-152	; 0xffffff68
    b524:	756aa39c 	strbvc	sl, [sl, #-924]!	; 0x39c
    b528:	026d930a 	rsbeq	r9, sp, #671088640	; 0x28000000
    b52c:	9c0906a9 	stcls	6, cr0, [r9], {169}	; 0xa9
    b530:	eb0e363f 	bl	398e34 <complen+0x38733c>
    b534:	72076785 	andvc	r6, r7, #34865152	; 0x2140000
    b538:	05005713 	streq	r5, [r0, #-1811]	; 0x713
    b53c:	95bf4a82 	ldrls	r4, [pc, #2690]!	; bfc6 <static_dtree+0x3e>
    b540:	e2b87a14 	adcs	r7, r8, #81920	; 0x14000
    b544:	7bb12bae 	blvc	fec56404 <complen+0xfec4490c>
    b548:	0cb61b38 	vldmiaeq	r6!, {d1-d28}
    b54c:	92d28e9b 	sbcsls	r8, r2, #2480	; 0x9b0
    b550:	e5d5be0d 	ldrb	fp, [r5, #3597]	; 0xe0d
    b554:	7cdcefb7 	ldclvc	15, cr14, [ip], {183}	; 0xb7
    b558:	0bdbdf21 	bleq	ff7031e4 <complen+0xff6f16ec>
    b55c:	86d3d2d4 			; <UNDEFINED> instruction: 0x86d3d2d4
    b560:	f1d4e242 			; <UNDEFINED> instruction: 0xf1d4e242
    b564:	68ddb3f8 	ldmvs	sp, {r3, r4, r5, r6, r7, r8, r9, ip, sp, pc}^
    b568:	1fda836e 	svcne	0x00da836e
    b56c:	81be16cd 			; <UNDEFINED> instruction: 0x81be16cd
    b570:	f6b9265b 			; <UNDEFINED> instruction: 0xf6b9265b
    b574:	6fb077e1 	svcvs	0x00b077e1
    b578:	18b74777 	ldmne	r7!, {r0, r1, r2, r4, r5, r6, r8, r9, sl, lr}
    b57c:	88085ae6 	stmdahi	r8, {r1, r2, r5, r6, r7, r9, fp, ip, lr}
    b580:	ff0f6a70 			; <UNDEFINED> instruction: 0xff0f6a70
    b584:	66063bca 	strvs	r3, [r6], -sl, asr #23
    b588:	11010b5c 	tstne	r1, ip, asr fp
    b58c:	8f659eff 	svchi	0x00659eff
    b590:	f862ae69 			; <UNDEFINED> instruction: 0xf862ae69
    b594:	616bffd3 	ldrdvs	pc, [fp, #-243]!	; 0xffffff0d
    b598:	166ccf45 	strbtne	ip, [ip], -r5, asr #30
    b59c:	a00ae278 	andge	lr, sl, r8, ror r2
    b5a0:	d70dd2ee 	strle	sp, [sp, -lr, ror #5]
    b5a4:	4e048354 	mcrmi	3, 0, r8, cr4, cr4, {2}
    b5a8:	3903b3c2 	stmdbcc	r3, {r1, r6, r7, r8, r9, ip, sp, pc}
    b5ac:	a7672661 	strbge	r2, [r7, -r1, ror #12]!
    b5b0:	d06016f7 	strdle	r1, [r0], #-103	; 0xffffff99	; <UNPREDICTABLE>
    b5b4:	4969474d 	stmdbmi	r9!, {r0, r2, r3, r6, r8, r9, sl, lr}^
    b5b8:	3e6e77db 	mcrcc	7, 3, r7, cr14, cr11, {6}
    b5bc:	aed16a4a 	vfnmage.f32	s13, s2, s20
    b5c0:	d9d65adc 	ldmible	r6, {r2, r3, r4, r6, r7, r9, fp, ip, lr}^
    b5c4:	40df0b66 	sbcsmi	r0, pc, r6, ror #22
    b5c8:	37d83bf0 			; <UNDEFINED> instruction: 0x37d83bf0
    b5cc:	a9bcae53 	ldmibge	ip!, {r0, r1, r4, r6, r9, sl, fp, sp, pc}
    b5d0:	debb9ec5 	cdple	14, 11, cr9, cr11, cr5, {6}
    b5d4:	47b2cf7f 			; <UNDEFINED> instruction: 0x47b2cf7f
    b5d8:	30b5ffe9 	adcscc	pc, r5, r9, ror #31
    b5dc:	bdbdf21c 	lfmlt	f7, 1, [sp, #112]!	; 0x70
    b5e0:	cabac28a 	bgt	feebc010 <complen+0xfeeaa518>
    b5e4:	53b39330 			; <UNDEFINED> instruction: 0x53b39330
    b5e8:	24b4a3a6 	ldrtcs	sl, [r4], #934	; 0x3a6
    b5ec:	bad03605 	blt	ff418e08 <complen+0xff407310>
    b5f0:	cdd70693 	ldclgt	6, cr0, [r7, #588]	; 0x24c
    b5f4:	54de5729 	ldrbpl	r5, [lr], #1833	; 0x729
    b5f8:	23d967bf 	bicscs	r6, r9, #50069504	; 0x2fc0000
    b5fc:	b3667a2e 	cmnlt	r6, #188416	; 0x2e000
    b600:	c4614ab8 	strbtgt	r4, [r1], #-2744	; 0xab8
    b604:	5d681b02 	vstmdbpl	r8!, {d17}
    b608:	2a6f2b94 	bcs	1bd6460 <complen+0x1bc4968>
    b60c:	b40bbe37 	strlt	fp, [fp], #-3639	; 0xe37
    b610:	c30c8ea1 	movwgt	r8, #52897	; 0xcea1
    b614:	5a05df1b 	bpl	183288 <complen+0x171790>
    b618:	2d02ef8d 	stccs	15, cr14, [r2, #-564]	; 0xfffffdcc

0000b61c <_length_code>:
    b61c:	03020100 	movweq	r0, #8448	; 0x2100
    b620:	07060504 	streq	r0, [r6, -r4, lsl #10]
    b624:	09090808 	stmdbeq	r9, {r3, fp}
    b628:	0b0b0a0a 	bleq	2cde58 <complen+0x2bc360>
    b62c:	0c0c0c0c 	stceq	12, cr0, [ip], {12}
    b630:	0d0d0d0d 	stceq	13, cr0, [sp, #-52]	; 0xffffffcc
    b634:	0e0e0e0e 	cdpeq	14, 0, cr0, cr14, cr14, {0}
    b638:	0f0f0f0f 	svceq	0x000f0f0f
    b63c:	10101010 	andsne	r1, r0, r0, lsl r0
    b640:	10101010 	andsne	r1, r0, r0, lsl r0
    b644:	11111111 	tstne	r1, r1, lsl r1
    b648:	11111111 	tstne	r1, r1, lsl r1
    b64c:	12121212 	andsne	r1, r2, #536870913	; 0x20000001
    b650:	12121212 	andsne	r1, r2, #536870913	; 0x20000001
    b654:	13131313 	tstne	r3, #1275068416	; 0x4c000000
    b658:	13131313 	tstne	r3, #1275068416	; 0x4c000000
    b65c:	14141414 	ldrne	r1, [r4], #-1044	; 0x414
    b660:	14141414 	ldrne	r1, [r4], #-1044	; 0x414
    b664:	14141414 	ldrne	r1, [r4], #-1044	; 0x414
    b668:	14141414 	ldrne	r1, [r4], #-1044	; 0x414
    b66c:	15151515 	ldrne	r1, [r5, #-1301]	; 0x515
    b670:	15151515 	ldrne	r1, [r5, #-1301]	; 0x515
    b674:	15151515 	ldrne	r1, [r5, #-1301]	; 0x515
    b678:	15151515 	ldrne	r1, [r5, #-1301]	; 0x515
    b67c:	16161616 			; <UNDEFINED> instruction: 0x16161616
    b680:	16161616 			; <UNDEFINED> instruction: 0x16161616
    b684:	16161616 			; <UNDEFINED> instruction: 0x16161616
    b688:	16161616 			; <UNDEFINED> instruction: 0x16161616
    b68c:	17171717 			; <UNDEFINED> instruction: 0x17171717
    b690:	17171717 			; <UNDEFINED> instruction: 0x17171717
    b694:	17171717 			; <UNDEFINED> instruction: 0x17171717
    b698:	17171717 			; <UNDEFINED> instruction: 0x17171717
    b69c:	18181818 	ldmdane	r8, {r3, r4, fp, ip}
    b6a0:	18181818 	ldmdane	r8, {r3, r4, fp, ip}
    b6a4:	18181818 	ldmdane	r8, {r3, r4, fp, ip}
    b6a8:	18181818 	ldmdane	r8, {r3, r4, fp, ip}
    b6ac:	18181818 	ldmdane	r8, {r3, r4, fp, ip}
    b6b0:	18181818 	ldmdane	r8, {r3, r4, fp, ip}
    b6b4:	18181818 	ldmdane	r8, {r3, r4, fp, ip}
    b6b8:	18181818 	ldmdane	r8, {r3, r4, fp, ip}
    b6bc:	19191919 	ldmdbne	r9, {r0, r3, r4, r8, fp, ip}
    b6c0:	19191919 	ldmdbne	r9, {r0, r3, r4, r8, fp, ip}
    b6c4:	19191919 	ldmdbne	r9, {r0, r3, r4, r8, fp, ip}
    b6c8:	19191919 	ldmdbne	r9, {r0, r3, r4, r8, fp, ip}
    b6cc:	19191919 	ldmdbne	r9, {r0, r3, r4, r8, fp, ip}
    b6d0:	19191919 	ldmdbne	r9, {r0, r3, r4, r8, fp, ip}
    b6d4:	19191919 	ldmdbne	r9, {r0, r3, r4, r8, fp, ip}
    b6d8:	19191919 	ldmdbne	r9, {r0, r3, r4, r8, fp, ip}
    b6dc:	1a1a1a1a 	bne	691f4c <complen+0x680454>
    b6e0:	1a1a1a1a 	bne	691f50 <complen+0x680458>
    b6e4:	1a1a1a1a 	bne	691f54 <complen+0x68045c>
    b6e8:	1a1a1a1a 	bne	691f58 <complen+0x680460>
    b6ec:	1a1a1a1a 	bne	691f5c <complen+0x680464>
    b6f0:	1a1a1a1a 	bne	691f60 <complen+0x680468>
    b6f4:	1a1a1a1a 	bne	691f64 <complen+0x68046c>
    b6f8:	1a1a1a1a 	bne	691f68 <complen+0x680470>
    b6fc:	1b1b1b1b 	blne	6d2370 <complen+0x6c0878>
    b700:	1b1b1b1b 	blne	6d2374 <complen+0x6c087c>
    b704:	1b1b1b1b 	blne	6d2378 <complen+0x6c0880>
    b708:	1b1b1b1b 	blne	6d237c <complen+0x6c0884>
    b70c:	1b1b1b1b 	blne	6d2380 <complen+0x6c0888>
    b710:	1b1b1b1b 	blne	6d2384 <complen+0x6c088c>
    b714:	1b1b1b1b 	blne	6d2388 <complen+0x6c0890>
    b718:	1c1b1b1b 	ldcne	11, cr1, [fp], {27}

0000b71c <extra_lbits>:
	...
    b73c:	00000001 	andeq	r0, r0, r1
    b740:	00000001 	andeq	r0, r0, r1
    b744:	00000001 	andeq	r0, r0, r1
    b748:	00000001 	andeq	r0, r0, r1
    b74c:	00000002 	andeq	r0, r0, r2
    b750:	00000002 	andeq	r0, r0, r2
    b754:	00000002 	andeq	r0, r0, r2
    b758:	00000002 	andeq	r0, r0, r2
    b75c:	00000003 	andeq	r0, r0, r3
    b760:	00000003 	andeq	r0, r0, r3
    b764:	00000003 	andeq	r0, r0, r3
    b768:	00000003 	andeq	r0, r0, r3
    b76c:	00000004 	andeq	r0, r0, r4
    b770:	00000004 	andeq	r0, r0, r4
    b774:	00000004 	andeq	r0, r0, r4
    b778:	00000004 	andeq	r0, r0, r4
    b77c:	00000005 	andeq	r0, r0, r5
    b780:	00000005 	andeq	r0, r0, r5
    b784:	00000005 	andeq	r0, r0, r5
    b788:	00000005 	andeq	r0, r0, r5
    b78c:	00000000 	andeq	r0, r0, r0

0000b790 <base_length>:
    b790:	00000000 	andeq	r0, r0, r0
    b794:	00000001 	andeq	r0, r0, r1
    b798:	00000002 	andeq	r0, r0, r2
    b79c:	00000003 	andeq	r0, r0, r3
    b7a0:	00000004 	andeq	r0, r0, r4
    b7a4:	00000005 	andeq	r0, r0, r5
    b7a8:	00000006 	andeq	r0, r0, r6
    b7ac:	00000007 	andeq	r0, r0, r7
    b7b0:	00000008 	andeq	r0, r0, r8
    b7b4:	0000000a 	andeq	r0, r0, sl
    b7b8:	0000000c 	andeq	r0, r0, ip
    b7bc:	0000000e 	andeq	r0, r0, lr
    b7c0:	00000010 	andeq	r0, r0, r0, lsl r0
    b7c4:	00000014 	andeq	r0, r0, r4, lsl r0
    b7c8:	00000018 	andeq	r0, r0, r8, lsl r0
    b7cc:	0000001c 	andeq	r0, r0, ip, lsl r0
    b7d0:	00000020 	andeq	r0, r0, r0, lsr #32
    b7d4:	00000028 	andeq	r0, r0, r8, lsr #32
    b7d8:	00000030 	andeq	r0, r0, r0, lsr r0
    b7dc:	00000038 	andeq	r0, r0, r8, lsr r0
    b7e0:	00000040 	andeq	r0, r0, r0, asr #32
    b7e4:	00000050 	andeq	r0, r0, r0, asr r0
    b7e8:	00000060 	andeq	r0, r0, r0, rrx
    b7ec:	00000070 	andeq	r0, r0, r0, ror r0
    b7f0:	00000080 	andeq	r0, r0, r0, lsl #1
    b7f4:	000000a0 	andeq	r0, r0, r0, lsr #1
    b7f8:	000000c0 	andeq	r0, r0, r0, asr #1
    b7fc:	000000e0 	andeq	r0, r0, r0, ror #1
    b800:	00000000 	andeq	r0, r0, r0

0000b804 <_dist_code>:
    b804:	03020100 	movweq	r0, #8448	; 0x2100
    b808:	05050404 	streq	r0, [r5, #-1028]	; 0x404
    b80c:	06060606 	streq	r0, [r6], -r6, lsl #12
    b810:	07070707 	streq	r0, [r7, -r7, lsl #14]
    b814:	08080808 	stmdaeq	r8, {r3, fp}
    b818:	08080808 	stmdaeq	r8, {r3, fp}
    b81c:	09090909 	stmdbeq	r9, {r0, r3, r8, fp}
    b820:	09090909 	stmdbeq	r9, {r0, r3, r8, fp}
    b824:	0a0a0a0a 	beq	28e054 <complen+0x27c55c>
    b828:	0a0a0a0a 	beq	28e058 <complen+0x27c560>
    b82c:	0a0a0a0a 	beq	28e05c <complen+0x27c564>
    b830:	0a0a0a0a 	beq	28e060 <complen+0x27c568>
    b834:	0b0b0b0b 	bleq	2ce468 <complen+0x2bc970>
    b838:	0b0b0b0b 	bleq	2ce46c <complen+0x2bc974>
    b83c:	0b0b0b0b 	bleq	2ce470 <complen+0x2bc978>
    b840:	0b0b0b0b 	bleq	2ce474 <complen+0x2bc97c>
    b844:	0c0c0c0c 	stceq	12, cr0, [ip], {12}
    b848:	0c0c0c0c 	stceq	12, cr0, [ip], {12}
    b84c:	0c0c0c0c 	stceq	12, cr0, [ip], {12}
    b850:	0c0c0c0c 	stceq	12, cr0, [ip], {12}
    b854:	0c0c0c0c 	stceq	12, cr0, [ip], {12}
    b858:	0c0c0c0c 	stceq	12, cr0, [ip], {12}
    b85c:	0c0c0c0c 	stceq	12, cr0, [ip], {12}
    b860:	0c0c0c0c 	stceq	12, cr0, [ip], {12}
    b864:	0d0d0d0d 	stceq	13, cr0, [sp, #-52]	; 0xffffffcc
    b868:	0d0d0d0d 	stceq	13, cr0, [sp, #-52]	; 0xffffffcc
    b86c:	0d0d0d0d 	stceq	13, cr0, [sp, #-52]	; 0xffffffcc
    b870:	0d0d0d0d 	stceq	13, cr0, [sp, #-52]	; 0xffffffcc
    b874:	0d0d0d0d 	stceq	13, cr0, [sp, #-52]	; 0xffffffcc
    b878:	0d0d0d0d 	stceq	13, cr0, [sp, #-52]	; 0xffffffcc
    b87c:	0d0d0d0d 	stceq	13, cr0, [sp, #-52]	; 0xffffffcc
    b880:	0d0d0d0d 	stceq	13, cr0, [sp, #-52]	; 0xffffffcc
    b884:	0e0e0e0e 	cdpeq	14, 0, cr0, cr14, cr14, {0}
    b888:	0e0e0e0e 	cdpeq	14, 0, cr0, cr14, cr14, {0}
    b88c:	0e0e0e0e 	cdpeq	14, 0, cr0, cr14, cr14, {0}
    b890:	0e0e0e0e 	cdpeq	14, 0, cr0, cr14, cr14, {0}
    b894:	0e0e0e0e 	cdpeq	14, 0, cr0, cr14, cr14, {0}
    b898:	0e0e0e0e 	cdpeq	14, 0, cr0, cr14, cr14, {0}
    b89c:	0e0e0e0e 	cdpeq	14, 0, cr0, cr14, cr14, {0}
    b8a0:	0e0e0e0e 	cdpeq	14, 0, cr0, cr14, cr14, {0}
    b8a4:	0e0e0e0e 	cdpeq	14, 0, cr0, cr14, cr14, {0}
    b8a8:	0e0e0e0e 	cdpeq	14, 0, cr0, cr14, cr14, {0}
    b8ac:	0e0e0e0e 	cdpeq	14, 0, cr0, cr14, cr14, {0}
    b8b0:	0e0e0e0e 	cdpeq	14, 0, cr0, cr14, cr14, {0}
    b8b4:	0e0e0e0e 	cdpeq	14, 0, cr0, cr14, cr14, {0}
    b8b8:	0e0e0e0e 	cdpeq	14, 0, cr0, cr14, cr14, {0}
    b8bc:	0e0e0e0e 	cdpeq	14, 0, cr0, cr14, cr14, {0}
    b8c0:	0e0e0e0e 	cdpeq	14, 0, cr0, cr14, cr14, {0}
    b8c4:	0f0f0f0f 	svceq	0x000f0f0f
    b8c8:	0f0f0f0f 	svceq	0x000f0f0f
    b8cc:	0f0f0f0f 	svceq	0x000f0f0f
    b8d0:	0f0f0f0f 	svceq	0x000f0f0f
    b8d4:	0f0f0f0f 	svceq	0x000f0f0f
    b8d8:	0f0f0f0f 	svceq	0x000f0f0f
    b8dc:	0f0f0f0f 	svceq	0x000f0f0f
    b8e0:	0f0f0f0f 	svceq	0x000f0f0f
    b8e4:	0f0f0f0f 	svceq	0x000f0f0f
    b8e8:	0f0f0f0f 	svceq	0x000f0f0f
    b8ec:	0f0f0f0f 	svceq	0x000f0f0f
    b8f0:	0f0f0f0f 	svceq	0x000f0f0f
    b8f4:	0f0f0f0f 	svceq	0x000f0f0f
    b8f8:	0f0f0f0f 	svceq	0x000f0f0f
    b8fc:	0f0f0f0f 	svceq	0x000f0f0f
    b900:	0f0f0f0f 	svceq	0x000f0f0f
    b904:	11100000 	tstne	r0, r0
    b908:	13131212 	tstne	r3, #536870913	; 0x20000001
    b90c:	14141414 	ldrne	r1, [r4], #-1044	; 0x414
    b910:	15151515 	ldrne	r1, [r5, #-1301]	; 0x515
    b914:	16161616 			; <UNDEFINED> instruction: 0x16161616
    b918:	16161616 			; <UNDEFINED> instruction: 0x16161616
    b91c:	17171717 			; <UNDEFINED> instruction: 0x17171717
    b920:	17171717 			; <UNDEFINED> instruction: 0x17171717
    b924:	18181818 	ldmdane	r8, {r3, r4, fp, ip}
    b928:	18181818 	ldmdane	r8, {r3, r4, fp, ip}
    b92c:	18181818 	ldmdane	r8, {r3, r4, fp, ip}
    b930:	18181818 	ldmdane	r8, {r3, r4, fp, ip}
    b934:	19191919 	ldmdbne	r9, {r0, r3, r4, r8, fp, ip}
    b938:	19191919 	ldmdbne	r9, {r0, r3, r4, r8, fp, ip}
    b93c:	19191919 	ldmdbne	r9, {r0, r3, r4, r8, fp, ip}
    b940:	19191919 	ldmdbne	r9, {r0, r3, r4, r8, fp, ip}
    b944:	1a1a1a1a 	bne	6921b4 <complen+0x6806bc>
    b948:	1a1a1a1a 	bne	6921b8 <complen+0x6806c0>
    b94c:	1a1a1a1a 	bne	6921bc <complen+0x6806c4>
    b950:	1a1a1a1a 	bne	6921c0 <complen+0x6806c8>
    b954:	1a1a1a1a 	bne	6921c4 <complen+0x6806cc>
    b958:	1a1a1a1a 	bne	6921c8 <complen+0x6806d0>
    b95c:	1a1a1a1a 	bne	6921cc <complen+0x6806d4>
    b960:	1a1a1a1a 	bne	6921d0 <complen+0x6806d8>
    b964:	1b1b1b1b 	blne	6d25d8 <complen+0x6c0ae0>
    b968:	1b1b1b1b 	blne	6d25dc <complen+0x6c0ae4>
    b96c:	1b1b1b1b 	blne	6d25e0 <complen+0x6c0ae8>
    b970:	1b1b1b1b 	blne	6d25e4 <complen+0x6c0aec>
    b974:	1b1b1b1b 	blne	6d25e8 <complen+0x6c0af0>
    b978:	1b1b1b1b 	blne	6d25ec <complen+0x6c0af4>
    b97c:	1b1b1b1b 	blne	6d25f0 <complen+0x6c0af8>
    b980:	1b1b1b1b 	blne	6d25f4 <complen+0x6c0afc>
    b984:	1c1c1c1c 	ldcne	12, cr1, [ip], {28}
    b988:	1c1c1c1c 	ldcne	12, cr1, [ip], {28}
    b98c:	1c1c1c1c 	ldcne	12, cr1, [ip], {28}
    b990:	1c1c1c1c 	ldcne	12, cr1, [ip], {28}
    b994:	1c1c1c1c 	ldcne	12, cr1, [ip], {28}
    b998:	1c1c1c1c 	ldcne	12, cr1, [ip], {28}
    b99c:	1c1c1c1c 	ldcne	12, cr1, [ip], {28}
    b9a0:	1c1c1c1c 	ldcne	12, cr1, [ip], {28}
    b9a4:	1c1c1c1c 	ldcne	12, cr1, [ip], {28}
    b9a8:	1c1c1c1c 	ldcne	12, cr1, [ip], {28}
    b9ac:	1c1c1c1c 	ldcne	12, cr1, [ip], {28}
    b9b0:	1c1c1c1c 	ldcne	12, cr1, [ip], {28}
    b9b4:	1c1c1c1c 	ldcne	12, cr1, [ip], {28}
    b9b8:	1c1c1c1c 	ldcne	12, cr1, [ip], {28}
    b9bc:	1c1c1c1c 	ldcne	12, cr1, [ip], {28}
    b9c0:	1c1c1c1c 	ldcne	12, cr1, [ip], {28}
    b9c4:	1d1d1d1d 	ldcne	13, cr1, [sp, #-116]	; 0xffffff8c
    b9c8:	1d1d1d1d 	ldcne	13, cr1, [sp, #-116]	; 0xffffff8c
    b9cc:	1d1d1d1d 	ldcne	13, cr1, [sp, #-116]	; 0xffffff8c
    b9d0:	1d1d1d1d 	ldcne	13, cr1, [sp, #-116]	; 0xffffff8c
    b9d4:	1d1d1d1d 	ldcne	13, cr1, [sp, #-116]	; 0xffffff8c
    b9d8:	1d1d1d1d 	ldcne	13, cr1, [sp, #-116]	; 0xffffff8c
    b9dc:	1d1d1d1d 	ldcne	13, cr1, [sp, #-116]	; 0xffffff8c
    b9e0:	1d1d1d1d 	ldcne	13, cr1, [sp, #-116]	; 0xffffff8c
    b9e4:	1d1d1d1d 	ldcne	13, cr1, [sp, #-116]	; 0xffffff8c
    b9e8:	1d1d1d1d 	ldcne	13, cr1, [sp, #-116]	; 0xffffff8c
    b9ec:	1d1d1d1d 	ldcne	13, cr1, [sp, #-116]	; 0xffffff8c
    b9f0:	1d1d1d1d 	ldcne	13, cr1, [sp, #-116]	; 0xffffff8c
    b9f4:	1d1d1d1d 	ldcne	13, cr1, [sp, #-116]	; 0xffffff8c
    b9f8:	1d1d1d1d 	ldcne	13, cr1, [sp, #-116]	; 0xffffff8c
    b9fc:	1d1d1d1d 	ldcne	13, cr1, [sp, #-116]	; 0xffffff8c
    ba00:	1d1d1d1d 	ldcne	13, cr1, [sp, #-116]	; 0xffffff8c

0000ba04 <extra_dbits>:
	...
    ba14:	00000001 	andeq	r0, r0, r1
    ba18:	00000001 	andeq	r0, r0, r1
    ba1c:	00000002 	andeq	r0, r0, r2
    ba20:	00000002 	andeq	r0, r0, r2
    ba24:	00000003 	andeq	r0, r0, r3
    ba28:	00000003 	andeq	r0, r0, r3
    ba2c:	00000004 	andeq	r0, r0, r4
    ba30:	00000004 	andeq	r0, r0, r4
    ba34:	00000005 	andeq	r0, r0, r5
    ba38:	00000005 	andeq	r0, r0, r5
    ba3c:	00000006 	andeq	r0, r0, r6
    ba40:	00000006 	andeq	r0, r0, r6
    ba44:	00000007 	andeq	r0, r0, r7
    ba48:	00000007 	andeq	r0, r0, r7
    ba4c:	00000008 	andeq	r0, r0, r8
    ba50:	00000008 	andeq	r0, r0, r8
    ba54:	00000009 	andeq	r0, r0, r9
    ba58:	00000009 	andeq	r0, r0, r9
    ba5c:	0000000a 	andeq	r0, r0, sl
    ba60:	0000000a 	andeq	r0, r0, sl
    ba64:	0000000b 	andeq	r0, r0, fp
    ba68:	0000000b 	andeq	r0, r0, fp
    ba6c:	0000000c 	andeq	r0, r0, ip
    ba70:	0000000c 	andeq	r0, r0, ip
    ba74:	0000000d 	andeq	r0, r0, sp
    ba78:	0000000d 	andeq	r0, r0, sp

0000ba7c <base_dist>:
    ba7c:	00000000 	andeq	r0, r0, r0
    ba80:	00000001 	andeq	r0, r0, r1
    ba84:	00000002 	andeq	r0, r0, r2
    ba88:	00000003 	andeq	r0, r0, r3
    ba8c:	00000004 	andeq	r0, r0, r4
    ba90:	00000006 	andeq	r0, r0, r6
    ba94:	00000008 	andeq	r0, r0, r8
    ba98:	0000000c 	andeq	r0, r0, ip
    ba9c:	00000010 	andeq	r0, r0, r0, lsl r0
    baa0:	00000018 	andeq	r0, r0, r8, lsl r0
    baa4:	00000020 	andeq	r0, r0, r0, lsr #32
    baa8:	00000030 	andeq	r0, r0, r0, lsr r0
    baac:	00000040 	andeq	r0, r0, r0, asr #32
    bab0:	00000060 	andeq	r0, r0, r0, rrx
    bab4:	00000080 	andeq	r0, r0, r0, lsl #1
    bab8:	000000c0 	andeq	r0, r0, r0, asr #1
    babc:	00000100 	andeq	r0, r0, r0, lsl #2
    bac0:	00000180 	andeq	r0, r0, r0, lsl #3
    bac4:	00000200 	andeq	r0, r0, r0, lsl #4
    bac8:	00000300 	andeq	r0, r0, r0, lsl #6
    bacc:	00000400 	andeq	r0, r0, r0, lsl #8
    bad0:	00000600 	andeq	r0, r0, r0, lsl #12
    bad4:	00000800 	andeq	r0, r0, r0, lsl #16
    bad8:	00000c00 	andeq	r0, r0, r0, lsl #24
    badc:	00001000 	andeq	r1, r0, r0
    bae0:	00001800 	andeq	r1, r0, r0, lsl #16
    bae4:	00002000 	andeq	r2, r0, r0
    bae8:	00003000 	andeq	r3, r0, r0
    baec:	00004000 	andeq	r4, r0, r0
    baf0:	00006000 	andeq	r6, r0, r0

0000baf4 <bl_order>:
    baf4:	00121110 	andseq	r1, r2, r0, lsl r1
    baf8:	06090708 	streq	r0, [r9], -r8, lsl #14
    bafc:	040b050a 	streq	r0, [fp], #-1290	; 0x50a
    bb00:	020d030c 	andeq	r0, sp, #805306368	; 0x30000000
    bb04:	000f010e 	andeq	r0, pc, lr, lsl #2

0000bb08 <static_ltree>:
    bb08:	0008000c 	andeq	r0, r8, ip
    bb0c:	0008008c 	andeq	r0, r8, ip, lsl #1
    bb10:	0008004c 	andeq	r0, r8, ip, asr #32
    bb14:	000800cc 	andeq	r0, r8, ip, asr #1
    bb18:	0008002c 	andeq	r0, r8, ip, lsr #32
    bb1c:	000800ac 	andeq	r0, r8, ip, lsr #1
    bb20:	0008006c 	andeq	r0, r8, ip, rrx
    bb24:	000800ec 	andeq	r0, r8, ip, ror #1
    bb28:	0008001c 	andeq	r0, r8, ip, lsl r0
    bb2c:	0008009c 	muleq	r8, ip, r0
    bb30:	0008005c 	andeq	r0, r8, ip, asr r0
    bb34:	000800dc 	ldrdeq	r0, [r8], -ip
    bb38:	0008003c 	andeq	r0, r8, ip, lsr r0
    bb3c:	000800bc 	strheq	r0, [r8], -ip
    bb40:	0008007c 	andeq	r0, r8, ip, ror r0
    bb44:	000800fc 	strdeq	r0, [r8], -ip
    bb48:	00080002 	andeq	r0, r8, r2
    bb4c:	00080082 	andeq	r0, r8, r2, lsl #1
    bb50:	00080042 	andeq	r0, r8, r2, asr #32
    bb54:	000800c2 	andeq	r0, r8, r2, asr #1
    bb58:	00080022 	andeq	r0, r8, r2, lsr #32
    bb5c:	000800a2 	andeq	r0, r8, r2, lsr #1
    bb60:	00080062 	andeq	r0, r8, r2, rrx
    bb64:	000800e2 	andeq	r0, r8, r2, ror #1
    bb68:	00080012 	andeq	r0, r8, r2, lsl r0
    bb6c:	00080092 	muleq	r8, r2, r0
    bb70:	00080052 	andeq	r0, r8, r2, asr r0
    bb74:	000800d2 	ldrdeq	r0, [r8], -r2
    bb78:	00080032 	andeq	r0, r8, r2, lsr r0
    bb7c:	000800b2 	strheq	r0, [r8], -r2
    bb80:	00080072 	andeq	r0, r8, r2, ror r0
    bb84:	000800f2 	strdeq	r0, [r8], -r2
    bb88:	0008000a 	andeq	r0, r8, sl
    bb8c:	0008008a 	andeq	r0, r8, sl, lsl #1
    bb90:	0008004a 	andeq	r0, r8, sl, asr #32
    bb94:	000800ca 	andeq	r0, r8, sl, asr #1
    bb98:	0008002a 	andeq	r0, r8, sl, lsr #32
    bb9c:	000800aa 	andeq	r0, r8, sl, lsr #1
    bba0:	0008006a 	andeq	r0, r8, sl, rrx
    bba4:	000800ea 	andeq	r0, r8, sl, ror #1
    bba8:	0008001a 	andeq	r0, r8, sl, lsl r0
    bbac:	0008009a 	muleq	r8, sl, r0
    bbb0:	0008005a 	andeq	r0, r8, sl, asr r0
    bbb4:	000800da 	ldrdeq	r0, [r8], -sl
    bbb8:	0008003a 	andeq	r0, r8, sl, lsr r0
    bbbc:	000800ba 	strheq	r0, [r8], -sl
    bbc0:	0008007a 	andeq	r0, r8, sl, ror r0
    bbc4:	000800fa 	strdeq	r0, [r8], -sl
    bbc8:	00080006 	andeq	r0, r8, r6
    bbcc:	00080086 	andeq	r0, r8, r6, lsl #1
    bbd0:	00080046 	andeq	r0, r8, r6, asr #32
    bbd4:	000800c6 	andeq	r0, r8, r6, asr #1
    bbd8:	00080026 	andeq	r0, r8, r6, lsr #32
    bbdc:	000800a6 	andeq	r0, r8, r6, lsr #1
    bbe0:	00080066 	andeq	r0, r8, r6, rrx
    bbe4:	000800e6 	andeq	r0, r8, r6, ror #1
    bbe8:	00080016 	andeq	r0, r8, r6, lsl r0
    bbec:	00080096 	muleq	r8, r6, r0
    bbf0:	00080056 	andeq	r0, r8, r6, asr r0
    bbf4:	000800d6 	ldrdeq	r0, [r8], -r6
    bbf8:	00080036 	andeq	r0, r8, r6, lsr r0
    bbfc:	000800b6 	strheq	r0, [r8], -r6
    bc00:	00080076 	andeq	r0, r8, r6, ror r0
    bc04:	000800f6 	strdeq	r0, [r8], -r6
    bc08:	0008000e 	andeq	r0, r8, lr
    bc0c:	0008008e 	andeq	r0, r8, lr, lsl #1
    bc10:	0008004e 	andeq	r0, r8, lr, asr #32
    bc14:	000800ce 	andeq	r0, r8, lr, asr #1
    bc18:	0008002e 	andeq	r0, r8, lr, lsr #32
    bc1c:	000800ae 	andeq	r0, r8, lr, lsr #1
    bc20:	0008006e 	andeq	r0, r8, lr, rrx
    bc24:	000800ee 	andeq	r0, r8, lr, ror #1
    bc28:	0008001e 	andeq	r0, r8, lr, lsl r0
    bc2c:	0008009e 	muleq	r8, lr, r0
    bc30:	0008005e 	andeq	r0, r8, lr, asr r0
    bc34:	000800de 	ldrdeq	r0, [r8], -lr
    bc38:	0008003e 	andeq	r0, r8, lr, lsr r0
    bc3c:	000800be 	strheq	r0, [r8], -lr
    bc40:	0008007e 	andeq	r0, r8, lr, ror r0
    bc44:	000800fe 	strdeq	r0, [r8], -lr
    bc48:	00080001 	andeq	r0, r8, r1
    bc4c:	00080081 	andeq	r0, r8, r1, lsl #1
    bc50:	00080041 	andeq	r0, r8, r1, asr #32
    bc54:	000800c1 	andeq	r0, r8, r1, asr #1
    bc58:	00080021 	andeq	r0, r8, r1, lsr #32
    bc5c:	000800a1 	andeq	r0, r8, r1, lsr #1
    bc60:	00080061 	andeq	r0, r8, r1, rrx
    bc64:	000800e1 	andeq	r0, r8, r1, ror #1
    bc68:	00080011 	andeq	r0, r8, r1, lsl r0
    bc6c:	00080091 	muleq	r8, r1, r0
    bc70:	00080051 	andeq	r0, r8, r1, asr r0
    bc74:	000800d1 	ldrdeq	r0, [r8], -r1
    bc78:	00080031 	andeq	r0, r8, r1, lsr r0
    bc7c:	000800b1 	strheq	r0, [r8], -r1
    bc80:	00080071 	andeq	r0, r8, r1, ror r0
    bc84:	000800f1 	strdeq	r0, [r8], -r1
    bc88:	00080009 	andeq	r0, r8, r9
    bc8c:	00080089 	andeq	r0, r8, r9, lsl #1
    bc90:	00080049 	andeq	r0, r8, r9, asr #32
    bc94:	000800c9 	andeq	r0, r8, r9, asr #1
    bc98:	00080029 	andeq	r0, r8, r9, lsr #32
    bc9c:	000800a9 	andeq	r0, r8, r9, lsr #1
    bca0:	00080069 	andeq	r0, r8, r9, rrx
    bca4:	000800e9 	andeq	r0, r8, r9, ror #1
    bca8:	00080019 	andeq	r0, r8, r9, lsl r0
    bcac:	00080099 	muleq	r8, r9, r0
    bcb0:	00080059 	andeq	r0, r8, r9, asr r0
    bcb4:	000800d9 	ldrdeq	r0, [r8], -r9
    bcb8:	00080039 	andeq	r0, r8, r9, lsr r0
    bcbc:	000800b9 	strheq	r0, [r8], -r9
    bcc0:	00080079 	andeq	r0, r8, r9, ror r0
    bcc4:	000800f9 	strdeq	r0, [r8], -r9
    bcc8:	00080005 	andeq	r0, r8, r5
    bccc:	00080085 	andeq	r0, r8, r5, lsl #1
    bcd0:	00080045 	andeq	r0, r8, r5, asr #32
    bcd4:	000800c5 	andeq	r0, r8, r5, asr #1
    bcd8:	00080025 	andeq	r0, r8, r5, lsr #32
    bcdc:	000800a5 	andeq	r0, r8, r5, lsr #1
    bce0:	00080065 	andeq	r0, r8, r5, rrx
    bce4:	000800e5 	andeq	r0, r8, r5, ror #1
    bce8:	00080015 	andeq	r0, r8, r5, lsl r0
    bcec:	00080095 	muleq	r8, r5, r0
    bcf0:	00080055 	andeq	r0, r8, r5, asr r0
    bcf4:	000800d5 	ldrdeq	r0, [r8], -r5
    bcf8:	00080035 	andeq	r0, r8, r5, lsr r0
    bcfc:	000800b5 	strheq	r0, [r8], -r5
    bd00:	00080075 	andeq	r0, r8, r5, ror r0
    bd04:	000800f5 	strdeq	r0, [r8], -r5
    bd08:	0008000d 	andeq	r0, r8, sp
    bd0c:	0008008d 	andeq	r0, r8, sp, lsl #1
    bd10:	0008004d 	andeq	r0, r8, sp, asr #32
    bd14:	000800cd 	andeq	r0, r8, sp, asr #1
    bd18:	0008002d 	andeq	r0, r8, sp, lsr #32
    bd1c:	000800ad 	andeq	r0, r8, sp, lsr #1
    bd20:	0008006d 	andeq	r0, r8, sp, rrx
    bd24:	000800ed 	andeq	r0, r8, sp, ror #1
    bd28:	0008001d 	andeq	r0, r8, sp, lsl r0
    bd2c:	0008009d 	muleq	r8, sp, r0
    bd30:	0008005d 	andeq	r0, r8, sp, asr r0
    bd34:	000800dd 	ldrdeq	r0, [r8], -sp
    bd38:	0008003d 	andeq	r0, r8, sp, lsr r0
    bd3c:	000800bd 	strheq	r0, [r8], -sp
    bd40:	0008007d 	andeq	r0, r8, sp, ror r0
    bd44:	000800fd 	strdeq	r0, [r8], -sp
    bd48:	00090013 	andeq	r0, r9, r3, lsl r0
    bd4c:	00090113 	andeq	r0, r9, r3, lsl r1
    bd50:	00090093 	muleq	r9, r3, r0
    bd54:	00090193 	muleq	r9, r3, r1
    bd58:	00090053 	andeq	r0, r9, r3, asr r0
    bd5c:	00090153 	andeq	r0, r9, r3, asr r1
    bd60:	000900d3 	ldrdeq	r0, [r9], -r3
    bd64:	000901d3 	ldrdeq	r0, [r9], -r3
    bd68:	00090033 	andeq	r0, r9, r3, lsr r0
    bd6c:	00090133 	andeq	r0, r9, r3, lsr r1
    bd70:	000900b3 	strheq	r0, [r9], -r3
    bd74:	000901b3 			; <UNDEFINED> instruction: 0x000901b3
    bd78:	00090073 	andeq	r0, r9, r3, ror r0
    bd7c:	00090173 	andeq	r0, r9, r3, ror r1
    bd80:	000900f3 	strdeq	r0, [r9], -r3
    bd84:	000901f3 	strdeq	r0, [r9], -r3
    bd88:	0009000b 	andeq	r0, r9, fp
    bd8c:	0009010b 	andeq	r0, r9, fp, lsl #2
    bd90:	0009008b 	andeq	r0, r9, fp, lsl #1
    bd94:	0009018b 	andeq	r0, r9, fp, lsl #3
    bd98:	0009004b 	andeq	r0, r9, fp, asr #32
    bd9c:	0009014b 	andeq	r0, r9, fp, asr #2
    bda0:	000900cb 	andeq	r0, r9, fp, asr #1
    bda4:	000901cb 	andeq	r0, r9, fp, asr #3
    bda8:	0009002b 	andeq	r0, r9, fp, lsr #32
    bdac:	0009012b 	andeq	r0, r9, fp, lsr #2
    bdb0:	000900ab 	andeq	r0, r9, fp, lsr #1
    bdb4:	000901ab 	andeq	r0, r9, fp, lsr #3
    bdb8:	0009006b 	andeq	r0, r9, fp, rrx
    bdbc:	0009016b 	andeq	r0, r9, fp, ror #2
    bdc0:	000900eb 	andeq	r0, r9, fp, ror #1
    bdc4:	000901eb 	andeq	r0, r9, fp, ror #3
    bdc8:	0009001b 	andeq	r0, r9, fp, lsl r0
    bdcc:	0009011b 	andeq	r0, r9, fp, lsl r1
    bdd0:	0009009b 	muleq	r9, fp, r0
    bdd4:	0009019b 	muleq	r9, fp, r1
    bdd8:	0009005b 	andeq	r0, r9, fp, asr r0
    bddc:	0009015b 	andeq	r0, r9, fp, asr r1
    bde0:	000900db 	ldrdeq	r0, [r9], -fp
    bde4:	000901db 	ldrdeq	r0, [r9], -fp
    bde8:	0009003b 	andeq	r0, r9, fp, lsr r0
    bdec:	0009013b 	andeq	r0, r9, fp, lsr r1
    bdf0:	000900bb 	strheq	r0, [r9], -fp
    bdf4:	000901bb 			; <UNDEFINED> instruction: 0x000901bb
    bdf8:	0009007b 	andeq	r0, r9, fp, ror r0
    bdfc:	0009017b 	andeq	r0, r9, fp, ror r1
    be00:	000900fb 	strdeq	r0, [r9], -fp
    be04:	000901fb 	strdeq	r0, [r9], -fp
    be08:	00090007 	andeq	r0, r9, r7
    be0c:	00090107 	andeq	r0, r9, r7, lsl #2
    be10:	00090087 	andeq	r0, r9, r7, lsl #1
    be14:	00090187 	andeq	r0, r9, r7, lsl #3
    be18:	00090047 	andeq	r0, r9, r7, asr #32
    be1c:	00090147 	andeq	r0, r9, r7, asr #2
    be20:	000900c7 	andeq	r0, r9, r7, asr #1
    be24:	000901c7 	andeq	r0, r9, r7, asr #3
    be28:	00090027 	andeq	r0, r9, r7, lsr #32
    be2c:	00090127 	andeq	r0, r9, r7, lsr #2
    be30:	000900a7 	andeq	r0, r9, r7, lsr #1
    be34:	000901a7 	andeq	r0, r9, r7, lsr #3
    be38:	00090067 	andeq	r0, r9, r7, rrx
    be3c:	00090167 	andeq	r0, r9, r7, ror #2
    be40:	000900e7 	andeq	r0, r9, r7, ror #1
    be44:	000901e7 	andeq	r0, r9, r7, ror #3
    be48:	00090017 	andeq	r0, r9, r7, lsl r0
    be4c:	00090117 	andeq	r0, r9, r7, lsl r1
    be50:	00090097 	muleq	r9, r7, r0
    be54:	00090197 	muleq	r9, r7, r1
    be58:	00090057 	andeq	r0, r9, r7, asr r0
    be5c:	00090157 	andeq	r0, r9, r7, asr r1
    be60:	000900d7 	ldrdeq	r0, [r9], -r7
    be64:	000901d7 	ldrdeq	r0, [r9], -r7
    be68:	00090037 	andeq	r0, r9, r7, lsr r0
    be6c:	00090137 	andeq	r0, r9, r7, lsr r1
    be70:	000900b7 	strheq	r0, [r9], -r7
    be74:	000901b7 			; <UNDEFINED> instruction: 0x000901b7
    be78:	00090077 	andeq	r0, r9, r7, ror r0
    be7c:	00090177 	andeq	r0, r9, r7, ror r1
    be80:	000900f7 	strdeq	r0, [r9], -r7
    be84:	000901f7 	strdeq	r0, [r9], -r7
    be88:	0009000f 	andeq	r0, r9, pc
    be8c:	0009010f 	andeq	r0, r9, pc, lsl #2
    be90:	0009008f 	andeq	r0, r9, pc, lsl #1
    be94:	0009018f 	andeq	r0, r9, pc, lsl #3
    be98:	0009004f 	andeq	r0, r9, pc, asr #32
    be9c:	0009014f 	andeq	r0, r9, pc, asr #2
    bea0:	000900cf 	andeq	r0, r9, pc, asr #1
    bea4:	000901cf 	andeq	r0, r9, pc, asr #3
    bea8:	0009002f 	andeq	r0, r9, pc, lsr #32
    beac:	0009012f 	andeq	r0, r9, pc, lsr #2
    beb0:	000900af 	andeq	r0, r9, pc, lsr #1
    beb4:	000901af 	andeq	r0, r9, pc, lsr #3
    beb8:	0009006f 	andeq	r0, r9, pc, rrx
    bebc:	0009016f 	andeq	r0, r9, pc, ror #2
    bec0:	000900ef 	andeq	r0, r9, pc, ror #1
    bec4:	000901ef 	andeq	r0, r9, pc, ror #3
    bec8:	0009001f 	andeq	r0, r9, pc, lsl r0
    becc:	0009011f 	andeq	r0, r9, pc, lsl r1
    bed0:	0009009f 	muleq	r9, pc, r0	; <UNPREDICTABLE>
    bed4:	0009019f 	muleq	r9, pc, r1	; <UNPREDICTABLE>
    bed8:	0009005f 	andeq	r0, r9, pc, asr r0
    bedc:	0009015f 	andeq	r0, r9, pc, asr r1
    bee0:	000900df 	ldrdeq	r0, [r9], -pc	; <UNPREDICTABLE>
    bee4:	000901df 	ldrdeq	r0, [r9], -pc	; <UNPREDICTABLE>
    bee8:	0009003f 	andeq	r0, r9, pc, lsr r0
    beec:	0009013f 	andeq	r0, r9, pc, lsr r1
    bef0:	000900bf 	strheq	r0, [r9], -pc	; <UNPREDICTABLE>
    bef4:	000901bf 			; <UNDEFINED> instruction: 0x000901bf
    bef8:	0009007f 	andeq	r0, r9, pc, ror r0
    befc:	0009017f 	andeq	r0, r9, pc, ror r1
    bf00:	000900ff 	strdeq	r0, [r9], -pc	; <UNPREDICTABLE>
    bf04:	000901ff 	strdeq	r0, [r9], -pc	; <UNPREDICTABLE>
    bf08:	00070000 	andeq	r0, r7, r0
    bf0c:	00070040 	andeq	r0, r7, r0, asr #32
    bf10:	00070020 	andeq	r0, r7, r0, lsr #32
    bf14:	00070060 	andeq	r0, r7, r0, rrx
    bf18:	00070010 	andeq	r0, r7, r0, lsl r0
    bf1c:	00070050 	andeq	r0, r7, r0, asr r0
    bf20:	00070030 	andeq	r0, r7, r0, lsr r0
    bf24:	00070070 	andeq	r0, r7, r0, ror r0
    bf28:	00070008 	andeq	r0, r7, r8
    bf2c:	00070048 	andeq	r0, r7, r8, asr #32
    bf30:	00070028 	andeq	r0, r7, r8, lsr #32
    bf34:	00070068 	andeq	r0, r7, r8, rrx
    bf38:	00070018 	andeq	r0, r7, r8, lsl r0
    bf3c:	00070058 	andeq	r0, r7, r8, asr r0
    bf40:	00070038 	andeq	r0, r7, r8, lsr r0
    bf44:	00070078 	andeq	r0, r7, r8, ror r0
    bf48:	00070004 	andeq	r0, r7, r4
    bf4c:	00070044 	andeq	r0, r7, r4, asr #32
    bf50:	00070024 	andeq	r0, r7, r4, lsr #32
    bf54:	00070064 	andeq	r0, r7, r4, rrx
    bf58:	00070014 	andeq	r0, r7, r4, lsl r0
    bf5c:	00070054 	andeq	r0, r7, r4, asr r0
    bf60:	00070034 	andeq	r0, r7, r4, lsr r0
    bf64:	00070074 	andeq	r0, r7, r4, ror r0
    bf68:	00080003 	andeq	r0, r8, r3
    bf6c:	00080083 	andeq	r0, r8, r3, lsl #1
    bf70:	00080043 	andeq	r0, r8, r3, asr #32
    bf74:	000800c3 	andeq	r0, r8, r3, asr #1
    bf78:	00080023 	andeq	r0, r8, r3, lsr #32
    bf7c:	000800a3 	andeq	r0, r8, r3, lsr #1
    bf80:	00080063 	andeq	r0, r8, r3, rrx
    bf84:	000800e3 	andeq	r0, r8, r3, ror #1

0000bf88 <static_dtree>:
    bf88:	00050000 	andeq	r0, r5, r0
    bf8c:	00050010 	andeq	r0, r5, r0, lsl r0
    bf90:	00050008 	andeq	r0, r5, r8
    bf94:	00050018 	andeq	r0, r5, r8, lsl r0
    bf98:	00050004 	andeq	r0, r5, r4
    bf9c:	00050014 	andeq	r0, r5, r4, lsl r0
    bfa0:	0005000c 	andeq	r0, r5, ip
    bfa4:	0005001c 	andeq	r0, r5, ip, lsl r0
    bfa8:	00050002 	andeq	r0, r5, r2
    bfac:	00050012 	andeq	r0, r5, r2, lsl r0
    bfb0:	0005000a 	andeq	r0, r5, sl
    bfb4:	0005001a 	andeq	r0, r5, sl, lsl r0
    bfb8:	00050006 	andeq	r0, r5, r6
    bfbc:	00050016 	andeq	r0, r5, r6, lsl r0
    bfc0:	0005000e 	andeq	r0, r5, lr
    bfc4:	0005001e 	andeq	r0, r5, lr, lsl r0
    bfc8:	00050001 	andeq	r0, r5, r1
    bfcc:	00050011 	andeq	r0, r5, r1, lsl r0
    bfd0:	00050009 	andeq	r0, r5, r9
    bfd4:	00050019 	andeq	r0, r5, r9, lsl r0
    bfd8:	00050005 	andeq	r0, r5, r5
    bfdc:	00050015 	andeq	r0, r5, r5, lsl r0
    bfe0:	0005000d 	andeq	r0, r5, sp
    bfe4:	0005001d 	andeq	r0, r5, sp, lsl r0
    bfe8:	00050003 	andeq	r0, r5, r3
    bfec:	00050013 	andeq	r0, r5, r3, lsl r0
    bff0:	0005000b 	andeq	r0, r5, fp
    bff4:	0005001b 	andeq	r0, r5, fp, lsl r0
    bff8:	00050007 	andeq	r0, r5, r7
    bffc:	00050017 	andeq	r0, r5, r7, lsl r0

0000c000 <extra_blbits>:
	...
    c040:	00000002 	andeq	r0, r0, r2
    c044:	00000003 	andeq	r0, r0, r3
    c048:	00000007 	andeq	r0, r0, r7

0000c04c <lenfix.4118>:
    c04c:	00000760 	andeq	r0, r0, r0, ror #14
    c050:	00500800 	subseq	r0, r0, r0, lsl #16
    c054:	00100800 	andseq	r0, r0, r0, lsl #16
    c058:	00730814 	rsbseq	r0, r3, r4, lsl r8
    c05c:	001f0712 	andseq	r0, pc, r2, lsl r7	; <UNPREDICTABLE>
    c060:	00700800 	rsbseq	r0, r0, r0, lsl #16
    c064:	00300800 	eorseq	r0, r0, r0, lsl #16
    c068:	00c00900 	sbceq	r0, r0, r0, lsl #18
    c06c:	000a0710 	andeq	r0, sl, r0, lsl r7
    c070:	00600800 	rsbeq	r0, r0, r0, lsl #16
    c074:	00200800 	eoreq	r0, r0, r0, lsl #16
    c078:	00a00900 	adceq	r0, r0, r0, lsl #18
    c07c:	00000800 	andeq	r0, r0, r0, lsl #16
    c080:	00800800 	addeq	r0, r0, r0, lsl #16
    c084:	00400800 	subeq	r0, r0, r0, lsl #16
    c088:	00e00900 	rsceq	r0, r0, r0, lsl #18
    c08c:	00060710 	andeq	r0, r6, r0, lsl r7
    c090:	00580800 	subseq	r0, r8, r0, lsl #16
    c094:	00180800 	andseq	r0, r8, r0, lsl #16
    c098:	00900900 	addseq	r0, r0, r0, lsl #18
    c09c:	003b0713 	eorseq	r0, fp, r3, lsl r7
    c0a0:	00780800 	rsbseq	r0, r8, r0, lsl #16
    c0a4:	00380800 	eorseq	r0, r8, r0, lsl #16
    c0a8:	00d00900 	sbcseq	r0, r0, r0, lsl #18
    c0ac:	00110711 	andseq	r0, r1, r1, lsl r7
    c0b0:	00680800 	rsbeq	r0, r8, r0, lsl #16
    c0b4:	00280800 	eoreq	r0, r8, r0, lsl #16
    c0b8:	00b00900 	adcseq	r0, r0, r0, lsl #18
    c0bc:	00080800 	andeq	r0, r8, r0, lsl #16
    c0c0:	00880800 	addeq	r0, r8, r0, lsl #16
    c0c4:	00480800 	subeq	r0, r8, r0, lsl #16
    c0c8:	00f00900 	rscseq	r0, r0, r0, lsl #18
    c0cc:	00040710 	andeq	r0, r4, r0, lsl r7
    c0d0:	00540800 	subseq	r0, r4, r0, lsl #16
    c0d4:	00140800 	andseq	r0, r4, r0, lsl #16
    c0d8:	00e30815 	rsceq	r0, r3, r5, lsl r8
    c0dc:	002b0713 	eoreq	r0, fp, r3, lsl r7
    c0e0:	00740800 	rsbseq	r0, r4, r0, lsl #16
    c0e4:	00340800 	eorseq	r0, r4, r0, lsl #16
    c0e8:	00c80900 	sbceq	r0, r8, r0, lsl #18
    c0ec:	000d0711 	andeq	r0, sp, r1, lsl r7
    c0f0:	00640800 	rsbeq	r0, r4, r0, lsl #16
    c0f4:	00240800 	eoreq	r0, r4, r0, lsl #16
    c0f8:	00a80900 	adceq	r0, r8, r0, lsl #18
    c0fc:	00040800 	andeq	r0, r4, r0, lsl #16
    c100:	00840800 	addeq	r0, r4, r0, lsl #16
    c104:	00440800 	subeq	r0, r4, r0, lsl #16
    c108:	00e80900 	rsceq	r0, r8, r0, lsl #18
    c10c:	00080710 	andeq	r0, r8, r0, lsl r7
    c110:	005c0800 	subseq	r0, ip, r0, lsl #16
    c114:	001c0800 	andseq	r0, ip, r0, lsl #16
    c118:	00980900 	addseq	r0, r8, r0, lsl #18
    c11c:	00530714 	subseq	r0, r3, r4, lsl r7
    c120:	007c0800 	rsbseq	r0, ip, r0, lsl #16
    c124:	003c0800 	eorseq	r0, ip, r0, lsl #16
    c128:	00d80900 	sbcseq	r0, r8, r0, lsl #18
    c12c:	00170712 	andseq	r0, r7, r2, lsl r7
    c130:	006c0800 	rsbeq	r0, ip, r0, lsl #16
    c134:	002c0800 	eoreq	r0, ip, r0, lsl #16
    c138:	00b80900 	adcseq	r0, r8, r0, lsl #18
    c13c:	000c0800 	andeq	r0, ip, r0, lsl #16
    c140:	008c0800 	addeq	r0, ip, r0, lsl #16
    c144:	004c0800 	subeq	r0, ip, r0, lsl #16
    c148:	00f80900 	rscseq	r0, r8, r0, lsl #18
    c14c:	00030710 	andeq	r0, r3, r0, lsl r7
    c150:	00520800 	subseq	r0, r2, r0, lsl #16
    c154:	00120800 	andseq	r0, r2, r0, lsl #16
    c158:	00a30815 	adceq	r0, r3, r5, lsl r8
    c15c:	00230713 	eoreq	r0, r3, r3, lsl r7
    c160:	00720800 	rsbseq	r0, r2, r0, lsl #16
    c164:	00320800 	eorseq	r0, r2, r0, lsl #16
    c168:	00c40900 	sbceq	r0, r4, r0, lsl #18
    c16c:	000b0711 	andeq	r0, fp, r1, lsl r7
    c170:	00620800 	rsbeq	r0, r2, r0, lsl #16
    c174:	00220800 	eoreq	r0, r2, r0, lsl #16
    c178:	00a40900 	adceq	r0, r4, r0, lsl #18
    c17c:	00020800 	andeq	r0, r2, r0, lsl #16
    c180:	00820800 	addeq	r0, r2, r0, lsl #16
    c184:	00420800 	subeq	r0, r2, r0, lsl #16
    c188:	00e40900 	rsceq	r0, r4, r0, lsl #18
    c18c:	00070710 	andeq	r0, r7, r0, lsl r7
    c190:	005a0800 	subseq	r0, sl, r0, lsl #16
    c194:	001a0800 	andseq	r0, sl, r0, lsl #16
    c198:	00940900 	addseq	r0, r4, r0, lsl #18
    c19c:	00430714 	subeq	r0, r3, r4, lsl r7
    c1a0:	007a0800 	rsbseq	r0, sl, r0, lsl #16
    c1a4:	003a0800 	eorseq	r0, sl, r0, lsl #16
    c1a8:	00d40900 	sbcseq	r0, r4, r0, lsl #18
    c1ac:	00130712 	andseq	r0, r3, r2, lsl r7
    c1b0:	006a0800 	rsbeq	r0, sl, r0, lsl #16
    c1b4:	002a0800 	eoreq	r0, sl, r0, lsl #16
    c1b8:	00b40900 	adcseq	r0, r4, r0, lsl #18
    c1bc:	000a0800 	andeq	r0, sl, r0, lsl #16
    c1c0:	008a0800 	addeq	r0, sl, r0, lsl #16
    c1c4:	004a0800 	subeq	r0, sl, r0, lsl #16
    c1c8:	00f40900 	rscseq	r0, r4, r0, lsl #18
    c1cc:	00050710 	andeq	r0, r5, r0, lsl r7
    c1d0:	00560800 	subseq	r0, r6, r0, lsl #16
    c1d4:	00160800 	andseq	r0, r6, r0, lsl #16
    c1d8:	00000840 	andeq	r0, r0, r0, asr #16
    c1dc:	00330713 	eorseq	r0, r3, r3, lsl r7
    c1e0:	00760800 	rsbseq	r0, r6, r0, lsl #16
    c1e4:	00360800 	eorseq	r0, r6, r0, lsl #16
    c1e8:	00cc0900 	sbceq	r0, ip, r0, lsl #18
    c1ec:	000f0711 	andeq	r0, pc, r1, lsl r7	; <UNPREDICTABLE>
    c1f0:	00660800 	rsbeq	r0, r6, r0, lsl #16
    c1f4:	00260800 	eoreq	r0, r6, r0, lsl #16
    c1f8:	00ac0900 	adceq	r0, ip, r0, lsl #18
    c1fc:	00060800 	andeq	r0, r6, r0, lsl #16
    c200:	00860800 	addeq	r0, r6, r0, lsl #16
    c204:	00460800 	subeq	r0, r6, r0, lsl #16
    c208:	00ec0900 	rsceq	r0, ip, r0, lsl #18
    c20c:	00090710 	andeq	r0, r9, r0, lsl r7
    c210:	005e0800 	subseq	r0, lr, r0, lsl #16
    c214:	001e0800 	andseq	r0, lr, r0, lsl #16
    c218:	009c0900 	addseq	r0, ip, r0, lsl #18
    c21c:	00630714 	rsbeq	r0, r3, r4, lsl r7
    c220:	007e0800 	rsbseq	r0, lr, r0, lsl #16
    c224:	003e0800 	eorseq	r0, lr, r0, lsl #16
    c228:	00dc0900 	sbcseq	r0, ip, r0, lsl #18
    c22c:	001b0712 	andseq	r0, fp, r2, lsl r7
    c230:	006e0800 	rsbeq	r0, lr, r0, lsl #16
    c234:	002e0800 	eoreq	r0, lr, r0, lsl #16
    c238:	00bc0900 	adcseq	r0, ip, r0, lsl #18
    c23c:	000e0800 	andeq	r0, lr, r0, lsl #16
    c240:	008e0800 	addeq	r0, lr, r0, lsl #16
    c244:	004e0800 	subeq	r0, lr, r0, lsl #16
    c248:	00fc0900 	rscseq	r0, ip, r0, lsl #18
    c24c:	00000760 	andeq	r0, r0, r0, ror #14
    c250:	00510800 	subseq	r0, r1, r0, lsl #16
    c254:	00110800 	andseq	r0, r1, r0, lsl #16
    c258:	00830815 	addeq	r0, r3, r5, lsl r8
    c25c:	001f0712 	andseq	r0, pc, r2, lsl r7	; <UNPREDICTABLE>
    c260:	00710800 	rsbseq	r0, r1, r0, lsl #16
    c264:	00310800 	eorseq	r0, r1, r0, lsl #16
    c268:	00c20900 	sbceq	r0, r2, r0, lsl #18
    c26c:	000a0710 	andeq	r0, sl, r0, lsl r7
    c270:	00610800 	rsbeq	r0, r1, r0, lsl #16
    c274:	00210800 	eoreq	r0, r1, r0, lsl #16
    c278:	00a20900 	adceq	r0, r2, r0, lsl #18
    c27c:	00010800 	andeq	r0, r1, r0, lsl #16
    c280:	00810800 	addeq	r0, r1, r0, lsl #16
    c284:	00410800 	subeq	r0, r1, r0, lsl #16
    c288:	00e20900 	rsceq	r0, r2, r0, lsl #18
    c28c:	00060710 	andeq	r0, r6, r0, lsl r7
    c290:	00590800 	subseq	r0, r9, r0, lsl #16
    c294:	00190800 	andseq	r0, r9, r0, lsl #16
    c298:	00920900 	addseq	r0, r2, r0, lsl #18
    c29c:	003b0713 	eorseq	r0, fp, r3, lsl r7
    c2a0:	00790800 	rsbseq	r0, r9, r0, lsl #16
    c2a4:	00390800 	eorseq	r0, r9, r0, lsl #16
    c2a8:	00d20900 	sbcseq	r0, r2, r0, lsl #18
    c2ac:	00110711 	andseq	r0, r1, r1, lsl r7
    c2b0:	00690800 	rsbeq	r0, r9, r0, lsl #16
    c2b4:	00290800 	eoreq	r0, r9, r0, lsl #16
    c2b8:	00b20900 	adcseq	r0, r2, r0, lsl #18
    c2bc:	00090800 	andeq	r0, r9, r0, lsl #16
    c2c0:	00890800 	addeq	r0, r9, r0, lsl #16
    c2c4:	00490800 	subeq	r0, r9, r0, lsl #16
    c2c8:	00f20900 	rscseq	r0, r2, r0, lsl #18
    c2cc:	00040710 	andeq	r0, r4, r0, lsl r7
    c2d0:	00550800 	subseq	r0, r5, r0, lsl #16
    c2d4:	00150800 	andseq	r0, r5, r0, lsl #16
    c2d8:	01020810 	tsteq	r2, r0, lsl r8
    c2dc:	002b0713 	eoreq	r0, fp, r3, lsl r7
    c2e0:	00750800 	rsbseq	r0, r5, r0, lsl #16
    c2e4:	00350800 	eorseq	r0, r5, r0, lsl #16
    c2e8:	00ca0900 	sbceq	r0, sl, r0, lsl #18
    c2ec:	000d0711 	andeq	r0, sp, r1, lsl r7
    c2f0:	00650800 	rsbeq	r0, r5, r0, lsl #16
    c2f4:	00250800 	eoreq	r0, r5, r0, lsl #16
    c2f8:	00aa0900 	adceq	r0, sl, r0, lsl #18
    c2fc:	00050800 	andeq	r0, r5, r0, lsl #16
    c300:	00850800 	addeq	r0, r5, r0, lsl #16
    c304:	00450800 	subeq	r0, r5, r0, lsl #16
    c308:	00ea0900 	rsceq	r0, sl, r0, lsl #18
    c30c:	00080710 	andeq	r0, r8, r0, lsl r7
    c310:	005d0800 	subseq	r0, sp, r0, lsl #16
    c314:	001d0800 	andseq	r0, sp, r0, lsl #16
    c318:	009a0900 	addseq	r0, sl, r0, lsl #18
    c31c:	00530714 	subseq	r0, r3, r4, lsl r7
    c320:	007d0800 	rsbseq	r0, sp, r0, lsl #16
    c324:	003d0800 	eorseq	r0, sp, r0, lsl #16
    c328:	00da0900 	sbcseq	r0, sl, r0, lsl #18
    c32c:	00170712 	andseq	r0, r7, r2, lsl r7
    c330:	006d0800 	rsbeq	r0, sp, r0, lsl #16
    c334:	002d0800 	eoreq	r0, sp, r0, lsl #16
    c338:	00ba0900 	adcseq	r0, sl, r0, lsl #18
    c33c:	000d0800 	andeq	r0, sp, r0, lsl #16
    c340:	008d0800 	addeq	r0, sp, r0, lsl #16
    c344:	004d0800 	subeq	r0, sp, r0, lsl #16
    c348:	00fa0900 	rscseq	r0, sl, r0, lsl #18
    c34c:	00030710 	andeq	r0, r3, r0, lsl r7
    c350:	00530800 	subseq	r0, r3, r0, lsl #16
    c354:	00130800 	andseq	r0, r3, r0, lsl #16
    c358:	00c30815 	sbceq	r0, r3, r5, lsl r8
    c35c:	00230713 	eoreq	r0, r3, r3, lsl r7
    c360:	00730800 	rsbseq	r0, r3, r0, lsl #16
    c364:	00330800 	eorseq	r0, r3, r0, lsl #16
    c368:	00c60900 	sbceq	r0, r6, r0, lsl #18
    c36c:	000b0711 	andeq	r0, fp, r1, lsl r7
    c370:	00630800 	rsbeq	r0, r3, r0, lsl #16
    c374:	00230800 	eoreq	r0, r3, r0, lsl #16
    c378:	00a60900 	adceq	r0, r6, r0, lsl #18
    c37c:	00030800 	andeq	r0, r3, r0, lsl #16
    c380:	00830800 	addeq	r0, r3, r0, lsl #16
    c384:	00430800 	subeq	r0, r3, r0, lsl #16
    c388:	00e60900 	rsceq	r0, r6, r0, lsl #18
    c38c:	00070710 	andeq	r0, r7, r0, lsl r7
    c390:	005b0800 	subseq	r0, fp, r0, lsl #16
    c394:	001b0800 	andseq	r0, fp, r0, lsl #16
    c398:	00960900 	addseq	r0, r6, r0, lsl #18
    c39c:	00430714 	subeq	r0, r3, r4, lsl r7
    c3a0:	007b0800 	rsbseq	r0, fp, r0, lsl #16
    c3a4:	003b0800 	eorseq	r0, fp, r0, lsl #16
    c3a8:	00d60900 	sbcseq	r0, r6, r0, lsl #18
    c3ac:	00130712 	andseq	r0, r3, r2, lsl r7
    c3b0:	006b0800 	rsbeq	r0, fp, r0, lsl #16
    c3b4:	002b0800 	eoreq	r0, fp, r0, lsl #16
    c3b8:	00b60900 	adcseq	r0, r6, r0, lsl #18
    c3bc:	000b0800 	andeq	r0, fp, r0, lsl #16
    c3c0:	008b0800 	addeq	r0, fp, r0, lsl #16
    c3c4:	004b0800 	subeq	r0, fp, r0, lsl #16
    c3c8:	00f60900 	rscseq	r0, r6, r0, lsl #18
    c3cc:	00050710 	andeq	r0, r5, r0, lsl r7
    c3d0:	00570800 	subseq	r0, r7, r0, lsl #16
    c3d4:	00170800 	andseq	r0, r7, r0, lsl #16
    c3d8:	00000840 	andeq	r0, r0, r0, asr #16
    c3dc:	00330713 	eorseq	r0, r3, r3, lsl r7
    c3e0:	00770800 	rsbseq	r0, r7, r0, lsl #16
    c3e4:	00370800 	eorseq	r0, r7, r0, lsl #16
    c3e8:	00ce0900 	sbceq	r0, lr, r0, lsl #18
    c3ec:	000f0711 	andeq	r0, pc, r1, lsl r7	; <UNPREDICTABLE>
    c3f0:	00670800 	rsbeq	r0, r7, r0, lsl #16
    c3f4:	00270800 	eoreq	r0, r7, r0, lsl #16
    c3f8:	00ae0900 	adceq	r0, lr, r0, lsl #18
    c3fc:	00070800 	andeq	r0, r7, r0, lsl #16
    c400:	00870800 	addeq	r0, r7, r0, lsl #16
    c404:	00470800 	subeq	r0, r7, r0, lsl #16
    c408:	00ee0900 	rsceq	r0, lr, r0, lsl #18
    c40c:	00090710 	andeq	r0, r9, r0, lsl r7
    c410:	005f0800 	subseq	r0, pc, r0, lsl #16
    c414:	001f0800 	andseq	r0, pc, r0, lsl #16
    c418:	009e0900 	addseq	r0, lr, r0, lsl #18
    c41c:	00630714 	rsbeq	r0, r3, r4, lsl r7
    c420:	007f0800 	rsbseq	r0, pc, r0, lsl #16
    c424:	003f0800 	eorseq	r0, pc, r0, lsl #16
    c428:	00de0900 	sbcseq	r0, lr, r0, lsl #18
    c42c:	001b0712 	andseq	r0, fp, r2, lsl r7
    c430:	006f0800 	rsbeq	r0, pc, r0, lsl #16
    c434:	002f0800 	eoreq	r0, pc, r0, lsl #16
    c438:	00be0900 	adcseq	r0, lr, r0, lsl #18
    c43c:	000f0800 	andeq	r0, pc, r0, lsl #16
    c440:	008f0800 	addeq	r0, pc, r0, lsl #16
    c444:	004f0800 	subeq	r0, pc, r0, lsl #16
    c448:	00fe0900 	rscseq	r0, lr, r0, lsl #18
    c44c:	00000760 	andeq	r0, r0, r0, ror #14
    c450:	00500800 	subseq	r0, r0, r0, lsl #16
    c454:	00100800 	andseq	r0, r0, r0, lsl #16
    c458:	00730814 	rsbseq	r0, r3, r4, lsl r8
    c45c:	001f0712 	andseq	r0, pc, r2, lsl r7	; <UNPREDICTABLE>
    c460:	00700800 	rsbseq	r0, r0, r0, lsl #16
    c464:	00300800 	eorseq	r0, r0, r0, lsl #16
    c468:	00c10900 	sbceq	r0, r1, r0, lsl #18
    c46c:	000a0710 	andeq	r0, sl, r0, lsl r7
    c470:	00600800 	rsbeq	r0, r0, r0, lsl #16
    c474:	00200800 	eoreq	r0, r0, r0, lsl #16
    c478:	00a10900 	adceq	r0, r1, r0, lsl #18
    c47c:	00000800 	andeq	r0, r0, r0, lsl #16
    c480:	00800800 	addeq	r0, r0, r0, lsl #16
    c484:	00400800 	subeq	r0, r0, r0, lsl #16
    c488:	00e10900 	rsceq	r0, r1, r0, lsl #18
    c48c:	00060710 	andeq	r0, r6, r0, lsl r7
    c490:	00580800 	subseq	r0, r8, r0, lsl #16
    c494:	00180800 	andseq	r0, r8, r0, lsl #16
    c498:	00910900 	addseq	r0, r1, r0, lsl #18
    c49c:	003b0713 	eorseq	r0, fp, r3, lsl r7
    c4a0:	00780800 	rsbseq	r0, r8, r0, lsl #16
    c4a4:	00380800 	eorseq	r0, r8, r0, lsl #16
    c4a8:	00d10900 	sbcseq	r0, r1, r0, lsl #18
    c4ac:	00110711 	andseq	r0, r1, r1, lsl r7
    c4b0:	00680800 	rsbeq	r0, r8, r0, lsl #16
    c4b4:	00280800 	eoreq	r0, r8, r0, lsl #16
    c4b8:	00b10900 	adcseq	r0, r1, r0, lsl #18
    c4bc:	00080800 	andeq	r0, r8, r0, lsl #16
    c4c0:	00880800 	addeq	r0, r8, r0, lsl #16
    c4c4:	00480800 	subeq	r0, r8, r0, lsl #16
    c4c8:	00f10900 	rscseq	r0, r1, r0, lsl #18
    c4cc:	00040710 	andeq	r0, r4, r0, lsl r7
    c4d0:	00540800 	subseq	r0, r4, r0, lsl #16
    c4d4:	00140800 	andseq	r0, r4, r0, lsl #16
    c4d8:	00e30815 	rsceq	r0, r3, r5, lsl r8
    c4dc:	002b0713 	eoreq	r0, fp, r3, lsl r7
    c4e0:	00740800 	rsbseq	r0, r4, r0, lsl #16
    c4e4:	00340800 	eorseq	r0, r4, r0, lsl #16
    c4e8:	00c90900 	sbceq	r0, r9, r0, lsl #18
    c4ec:	000d0711 	andeq	r0, sp, r1, lsl r7
    c4f0:	00640800 	rsbeq	r0, r4, r0, lsl #16
    c4f4:	00240800 	eoreq	r0, r4, r0, lsl #16
    c4f8:	00a90900 	adceq	r0, r9, r0, lsl #18
    c4fc:	00040800 	andeq	r0, r4, r0, lsl #16
    c500:	00840800 	addeq	r0, r4, r0, lsl #16
    c504:	00440800 	subeq	r0, r4, r0, lsl #16
    c508:	00e90900 	rsceq	r0, r9, r0, lsl #18
    c50c:	00080710 	andeq	r0, r8, r0, lsl r7
    c510:	005c0800 	subseq	r0, ip, r0, lsl #16
    c514:	001c0800 	andseq	r0, ip, r0, lsl #16
    c518:	00990900 	addseq	r0, r9, r0, lsl #18
    c51c:	00530714 	subseq	r0, r3, r4, lsl r7
    c520:	007c0800 	rsbseq	r0, ip, r0, lsl #16
    c524:	003c0800 	eorseq	r0, ip, r0, lsl #16
    c528:	00d90900 	sbcseq	r0, r9, r0, lsl #18
    c52c:	00170712 	andseq	r0, r7, r2, lsl r7
    c530:	006c0800 	rsbeq	r0, ip, r0, lsl #16
    c534:	002c0800 	eoreq	r0, ip, r0, lsl #16
    c538:	00b90900 	adcseq	r0, r9, r0, lsl #18
    c53c:	000c0800 	andeq	r0, ip, r0, lsl #16
    c540:	008c0800 	addeq	r0, ip, r0, lsl #16
    c544:	004c0800 	subeq	r0, ip, r0, lsl #16
    c548:	00f90900 	rscseq	r0, r9, r0, lsl #18
    c54c:	00030710 	andeq	r0, r3, r0, lsl r7
    c550:	00520800 	subseq	r0, r2, r0, lsl #16
    c554:	00120800 	andseq	r0, r2, r0, lsl #16
    c558:	00a30815 	adceq	r0, r3, r5, lsl r8
    c55c:	00230713 	eoreq	r0, r3, r3, lsl r7
    c560:	00720800 	rsbseq	r0, r2, r0, lsl #16
    c564:	00320800 	eorseq	r0, r2, r0, lsl #16
    c568:	00c50900 	sbceq	r0, r5, r0, lsl #18
    c56c:	000b0711 	andeq	r0, fp, r1, lsl r7
    c570:	00620800 	rsbeq	r0, r2, r0, lsl #16
    c574:	00220800 	eoreq	r0, r2, r0, lsl #16
    c578:	00a50900 	adceq	r0, r5, r0, lsl #18
    c57c:	00020800 	andeq	r0, r2, r0, lsl #16
    c580:	00820800 	addeq	r0, r2, r0, lsl #16
    c584:	00420800 	subeq	r0, r2, r0, lsl #16
    c588:	00e50900 	rsceq	r0, r5, r0, lsl #18
    c58c:	00070710 	andeq	r0, r7, r0, lsl r7
    c590:	005a0800 	subseq	r0, sl, r0, lsl #16
    c594:	001a0800 	andseq	r0, sl, r0, lsl #16
    c598:	00950900 	addseq	r0, r5, r0, lsl #18
    c59c:	00430714 	subeq	r0, r3, r4, lsl r7
    c5a0:	007a0800 	rsbseq	r0, sl, r0, lsl #16
    c5a4:	003a0800 	eorseq	r0, sl, r0, lsl #16
    c5a8:	00d50900 	sbcseq	r0, r5, r0, lsl #18
    c5ac:	00130712 	andseq	r0, r3, r2, lsl r7
    c5b0:	006a0800 	rsbeq	r0, sl, r0, lsl #16
    c5b4:	002a0800 	eoreq	r0, sl, r0, lsl #16
    c5b8:	00b50900 	adcseq	r0, r5, r0, lsl #18
    c5bc:	000a0800 	andeq	r0, sl, r0, lsl #16
    c5c0:	008a0800 	addeq	r0, sl, r0, lsl #16
    c5c4:	004a0800 	subeq	r0, sl, r0, lsl #16
    c5c8:	00f50900 	rscseq	r0, r5, r0, lsl #18
    c5cc:	00050710 	andeq	r0, r5, r0, lsl r7
    c5d0:	00560800 	subseq	r0, r6, r0, lsl #16
    c5d4:	00160800 	andseq	r0, r6, r0, lsl #16
    c5d8:	00000840 	andeq	r0, r0, r0, asr #16
    c5dc:	00330713 	eorseq	r0, r3, r3, lsl r7
    c5e0:	00760800 	rsbseq	r0, r6, r0, lsl #16
    c5e4:	00360800 	eorseq	r0, r6, r0, lsl #16
    c5e8:	00cd0900 	sbceq	r0, sp, r0, lsl #18
    c5ec:	000f0711 	andeq	r0, pc, r1, lsl r7	; <UNPREDICTABLE>
    c5f0:	00660800 	rsbeq	r0, r6, r0, lsl #16
    c5f4:	00260800 	eoreq	r0, r6, r0, lsl #16
    c5f8:	00ad0900 	adceq	r0, sp, r0, lsl #18
    c5fc:	00060800 	andeq	r0, r6, r0, lsl #16
    c600:	00860800 	addeq	r0, r6, r0, lsl #16
    c604:	00460800 	subeq	r0, r6, r0, lsl #16
    c608:	00ed0900 	rsceq	r0, sp, r0, lsl #18
    c60c:	00090710 	andeq	r0, r9, r0, lsl r7
    c610:	005e0800 	subseq	r0, lr, r0, lsl #16
    c614:	001e0800 	andseq	r0, lr, r0, lsl #16
    c618:	009d0900 	addseq	r0, sp, r0, lsl #18
    c61c:	00630714 	rsbeq	r0, r3, r4, lsl r7
    c620:	007e0800 	rsbseq	r0, lr, r0, lsl #16
    c624:	003e0800 	eorseq	r0, lr, r0, lsl #16
    c628:	00dd0900 	sbcseq	r0, sp, r0, lsl #18
    c62c:	001b0712 	andseq	r0, fp, r2, lsl r7
    c630:	006e0800 	rsbeq	r0, lr, r0, lsl #16
    c634:	002e0800 	eoreq	r0, lr, r0, lsl #16
    c638:	00bd0900 	adcseq	r0, sp, r0, lsl #18
    c63c:	000e0800 	andeq	r0, lr, r0, lsl #16
    c640:	008e0800 	addeq	r0, lr, r0, lsl #16
    c644:	004e0800 	subeq	r0, lr, r0, lsl #16
    c648:	00fd0900 	rscseq	r0, sp, r0, lsl #18
    c64c:	00000760 	andeq	r0, r0, r0, ror #14
    c650:	00510800 	subseq	r0, r1, r0, lsl #16
    c654:	00110800 	andseq	r0, r1, r0, lsl #16
    c658:	00830815 	addeq	r0, r3, r5, lsl r8
    c65c:	001f0712 	andseq	r0, pc, r2, lsl r7	; <UNPREDICTABLE>
    c660:	00710800 	rsbseq	r0, r1, r0, lsl #16
    c664:	00310800 	eorseq	r0, r1, r0, lsl #16
    c668:	00c30900 	sbceq	r0, r3, r0, lsl #18
    c66c:	000a0710 	andeq	r0, sl, r0, lsl r7
    c670:	00610800 	rsbeq	r0, r1, r0, lsl #16
    c674:	00210800 	eoreq	r0, r1, r0, lsl #16
    c678:	00a30900 	adceq	r0, r3, r0, lsl #18
    c67c:	00010800 	andeq	r0, r1, r0, lsl #16
    c680:	00810800 	addeq	r0, r1, r0, lsl #16
    c684:	00410800 	subeq	r0, r1, r0, lsl #16
    c688:	00e30900 	rsceq	r0, r3, r0, lsl #18
    c68c:	00060710 	andeq	r0, r6, r0, lsl r7
    c690:	00590800 	subseq	r0, r9, r0, lsl #16
    c694:	00190800 	andseq	r0, r9, r0, lsl #16
    c698:	00930900 	addseq	r0, r3, r0, lsl #18
    c69c:	003b0713 	eorseq	r0, fp, r3, lsl r7
    c6a0:	00790800 	rsbseq	r0, r9, r0, lsl #16
    c6a4:	00390800 	eorseq	r0, r9, r0, lsl #16
    c6a8:	00d30900 	sbcseq	r0, r3, r0, lsl #18
    c6ac:	00110711 	andseq	r0, r1, r1, lsl r7
    c6b0:	00690800 	rsbeq	r0, r9, r0, lsl #16
    c6b4:	00290800 	eoreq	r0, r9, r0, lsl #16
    c6b8:	00b30900 	adcseq	r0, r3, r0, lsl #18
    c6bc:	00090800 	andeq	r0, r9, r0, lsl #16
    c6c0:	00890800 	addeq	r0, r9, r0, lsl #16
    c6c4:	00490800 	subeq	r0, r9, r0, lsl #16
    c6c8:	00f30900 	rscseq	r0, r3, r0, lsl #18
    c6cc:	00040710 	andeq	r0, r4, r0, lsl r7
    c6d0:	00550800 	subseq	r0, r5, r0, lsl #16
    c6d4:	00150800 	andseq	r0, r5, r0, lsl #16
    c6d8:	01020810 	tsteq	r2, r0, lsl r8
    c6dc:	002b0713 	eoreq	r0, fp, r3, lsl r7
    c6e0:	00750800 	rsbseq	r0, r5, r0, lsl #16
    c6e4:	00350800 	eorseq	r0, r5, r0, lsl #16
    c6e8:	00cb0900 	sbceq	r0, fp, r0, lsl #18
    c6ec:	000d0711 	andeq	r0, sp, r1, lsl r7
    c6f0:	00650800 	rsbeq	r0, r5, r0, lsl #16
    c6f4:	00250800 	eoreq	r0, r5, r0, lsl #16
    c6f8:	00ab0900 	adceq	r0, fp, r0, lsl #18
    c6fc:	00050800 	andeq	r0, r5, r0, lsl #16
    c700:	00850800 	addeq	r0, r5, r0, lsl #16
    c704:	00450800 	subeq	r0, r5, r0, lsl #16
    c708:	00eb0900 	rsceq	r0, fp, r0, lsl #18
    c70c:	00080710 	andeq	r0, r8, r0, lsl r7
    c710:	005d0800 	subseq	r0, sp, r0, lsl #16
    c714:	001d0800 	andseq	r0, sp, r0, lsl #16
    c718:	009b0900 	addseq	r0, fp, r0, lsl #18
    c71c:	00530714 	subseq	r0, r3, r4, lsl r7
    c720:	007d0800 	rsbseq	r0, sp, r0, lsl #16
    c724:	003d0800 	eorseq	r0, sp, r0, lsl #16
    c728:	00db0900 	sbcseq	r0, fp, r0, lsl #18
    c72c:	00170712 	andseq	r0, r7, r2, lsl r7
    c730:	006d0800 	rsbeq	r0, sp, r0, lsl #16
    c734:	002d0800 	eoreq	r0, sp, r0, lsl #16
    c738:	00bb0900 	adcseq	r0, fp, r0, lsl #18
    c73c:	000d0800 	andeq	r0, sp, r0, lsl #16
    c740:	008d0800 	addeq	r0, sp, r0, lsl #16
    c744:	004d0800 	subeq	r0, sp, r0, lsl #16
    c748:	00fb0900 	rscseq	r0, fp, r0, lsl #18
    c74c:	00030710 	andeq	r0, r3, r0, lsl r7
    c750:	00530800 	subseq	r0, r3, r0, lsl #16
    c754:	00130800 	andseq	r0, r3, r0, lsl #16
    c758:	00c30815 	sbceq	r0, r3, r5, lsl r8
    c75c:	00230713 	eoreq	r0, r3, r3, lsl r7
    c760:	00730800 	rsbseq	r0, r3, r0, lsl #16
    c764:	00330800 	eorseq	r0, r3, r0, lsl #16
    c768:	00c70900 	sbceq	r0, r7, r0, lsl #18
    c76c:	000b0711 	andeq	r0, fp, r1, lsl r7
    c770:	00630800 	rsbeq	r0, r3, r0, lsl #16
    c774:	00230800 	eoreq	r0, r3, r0, lsl #16
    c778:	00a70900 	adceq	r0, r7, r0, lsl #18
    c77c:	00030800 	andeq	r0, r3, r0, lsl #16
    c780:	00830800 	addeq	r0, r3, r0, lsl #16
    c784:	00430800 	subeq	r0, r3, r0, lsl #16
    c788:	00e70900 	rsceq	r0, r7, r0, lsl #18
    c78c:	00070710 	andeq	r0, r7, r0, lsl r7
    c790:	005b0800 	subseq	r0, fp, r0, lsl #16
    c794:	001b0800 	andseq	r0, fp, r0, lsl #16
    c798:	00970900 	addseq	r0, r7, r0, lsl #18
    c79c:	00430714 	subeq	r0, r3, r4, lsl r7
    c7a0:	007b0800 	rsbseq	r0, fp, r0, lsl #16
    c7a4:	003b0800 	eorseq	r0, fp, r0, lsl #16
    c7a8:	00d70900 	sbcseq	r0, r7, r0, lsl #18
    c7ac:	00130712 	andseq	r0, r3, r2, lsl r7
    c7b0:	006b0800 	rsbeq	r0, fp, r0, lsl #16
    c7b4:	002b0800 	eoreq	r0, fp, r0, lsl #16
    c7b8:	00b70900 	adcseq	r0, r7, r0, lsl #18
    c7bc:	000b0800 	andeq	r0, fp, r0, lsl #16
    c7c0:	008b0800 	addeq	r0, fp, r0, lsl #16
    c7c4:	004b0800 	subeq	r0, fp, r0, lsl #16
    c7c8:	00f70900 	rscseq	r0, r7, r0, lsl #18
    c7cc:	00050710 	andeq	r0, r5, r0, lsl r7
    c7d0:	00570800 	subseq	r0, r7, r0, lsl #16
    c7d4:	00170800 	andseq	r0, r7, r0, lsl #16
    c7d8:	00000840 	andeq	r0, r0, r0, asr #16
    c7dc:	00330713 	eorseq	r0, r3, r3, lsl r7
    c7e0:	00770800 	rsbseq	r0, r7, r0, lsl #16
    c7e4:	00370800 	eorseq	r0, r7, r0, lsl #16
    c7e8:	00cf0900 	sbceq	r0, pc, r0, lsl #18
    c7ec:	000f0711 	andeq	r0, pc, r1, lsl r7	; <UNPREDICTABLE>
    c7f0:	00670800 	rsbeq	r0, r7, r0, lsl #16
    c7f4:	00270800 	eoreq	r0, r7, r0, lsl #16
    c7f8:	00af0900 	adceq	r0, pc, r0, lsl #18
    c7fc:	00070800 	andeq	r0, r7, r0, lsl #16
    c800:	00870800 	addeq	r0, r7, r0, lsl #16
    c804:	00470800 	subeq	r0, r7, r0, lsl #16
    c808:	00ef0900 	rsceq	r0, pc, r0, lsl #18
    c80c:	00090710 	andeq	r0, r9, r0, lsl r7
    c810:	005f0800 	subseq	r0, pc, r0, lsl #16
    c814:	001f0800 	andseq	r0, pc, r0, lsl #16
    c818:	009f0900 	addseq	r0, pc, r0, lsl #18
    c81c:	00630714 	rsbeq	r0, r3, r4, lsl r7
    c820:	007f0800 	rsbseq	r0, pc, r0, lsl #16
    c824:	003f0800 	eorseq	r0, pc, r0, lsl #16
    c828:	00df0900 	sbcseq	r0, pc, r0, lsl #18
    c82c:	001b0712 	andseq	r0, fp, r2, lsl r7
    c830:	006f0800 	rsbeq	r0, pc, r0, lsl #16
    c834:	002f0800 	eoreq	r0, pc, r0, lsl #16
    c838:	00bf0900 	adcseq	r0, pc, r0, lsl #18
    c83c:	000f0800 	andeq	r0, pc, r0, lsl #16
    c840:	008f0800 	addeq	r0, pc, r0, lsl #16
    c844:	004f0800 	subeq	r0, pc, r0, lsl #16
    c848:	00ff0900 	rscseq	r0, pc, r0, lsl #18

0000c84c <distfix.4119>:
    c84c:	00010510 	andeq	r0, r1, r0, lsl r5
    c850:	01010517 	tsteq	r1, r7, lsl r5
    c854:	00110513 	andseq	r0, r1, r3, lsl r5
    c858:	1001051b 	andne	r0, r1, fp, lsl r5
    c85c:	00050511 	andeq	r0, r5, r1, lsl r5
    c860:	04010519 	streq	r0, [r1], #-1305	; 0x519
    c864:	00410515 	subeq	r0, r1, r5, lsl r5
    c868:	4001051d 	andmi	r0, r1, sp, lsl r5
    c86c:	00030510 	andeq	r0, r3, r0, lsl r5
    c870:	02010518 	andeq	r0, r1, #100663296	; 0x6000000
    c874:	00210514 	eoreq	r0, r1, r4, lsl r5
    c878:	2001051c 	andcs	r0, r1, ip, lsl r5
    c87c:	00090512 	andeq	r0, r9, r2, lsl r5
    c880:	0801051a 	stmdaeq	r1, {r1, r3, r4, r8, sl}
    c884:	00810516 	addeq	r0, r1, r6, lsl r5
    c888:	00000540 	andeq	r0, r0, r0, asr #10
    c88c:	00020510 	andeq	r0, r2, r0, lsl r5
    c890:	01810517 	orreq	r0, r1, r7, lsl r5
    c894:	00190513 	andseq	r0, r9, r3, lsl r5
    c898:	1801051b 	stmdane	r1, {r0, r1, r3, r4, r8, sl}
    c89c:	00070511 	andeq	r0, r7, r1, lsl r5
    c8a0:	06010519 			; <UNDEFINED> instruction: 0x06010519
    c8a4:	00610515 	rsbeq	r0, r1, r5, lsl r5
    c8a8:	6001051d 	andvs	r0, r1, sp, lsl r5
    c8ac:	00040510 	andeq	r0, r4, r0, lsl r5
    c8b0:	03010518 	movweq	r0, #5400	; 0x1518
    c8b4:	00310514 	eorseq	r0, r1, r4, lsl r5
    c8b8:	3001051c 	andcc	r0, r1, ip, lsl r5
    c8bc:	000d0512 	andeq	r0, sp, r2, lsl r5
    c8c0:	0c01051a 	cfstr32eq	mvfx0, [r1], {26}
    c8c4:	00c10516 	sbceq	r0, r1, r6, lsl r5
    c8c8:	00000540 	andeq	r0, r0, r0, asr #10

0000c8cc <order.4147>:
    c8cc:	00110010 	andseq	r0, r1, r0, lsl r0
    c8d0:	00000012 	andeq	r0, r0, r2, lsl r0
    c8d4:	00070008 	andeq	r0, r7, r8
    c8d8:	00060009 	andeq	r0, r6, r9
    c8dc:	0005000a 	andeq	r0, r5, sl
    c8e0:	0004000b 	andeq	r0, r4, fp
    c8e4:	0003000c 	andeq	r0, r3, ip
    c8e8:	0002000d 	andeq	r0, r2, sp
    c8ec:	0001000e 	andeq	r0, r1, lr
    c8f0:	0000000f 	andeq	r0, r0, pc

0000c8f4 <lext.4032>:
    c8f4:	00100010 	andseq	r0, r0, r0, lsl r0
    c8f8:	00100010 	andseq	r0, r0, r0, lsl r0
    c8fc:	00100010 	andseq	r0, r0, r0, lsl r0
    c900:	00100010 	andseq	r0, r0, r0, lsl r0
    c904:	00110011 	andseq	r0, r1, r1, lsl r0
    c908:	00110011 	andseq	r0, r1, r1, lsl r0
    c90c:	00120012 	andseq	r0, r2, r2, lsl r0
    c910:	00120012 	andseq	r0, r2, r2, lsl r0
    c914:	00130013 	andseq	r0, r3, r3, lsl r0
    c918:	00130013 	andseq	r0, r3, r3, lsl r0
    c91c:	00140014 	andseq	r0, r4, r4, lsl r0
    c920:	00140014 	andseq	r0, r4, r4, lsl r0
    c924:	00150015 	andseq	r0, r5, r5, lsl r0
    c928:	00150015 	andseq	r0, r5, r5, lsl r0
    c92c:	004e0010 	subeq	r0, lr, r0, lsl r0
    c930:	00000044 	andeq	r0, r0, r4, asr #32

0000c934 <lbase.4031>:
    c934:	00040003 	andeq	r0, r4, r3
    c938:	00060005 	andeq	r0, r6, r5
    c93c:	00080007 	andeq	r0, r8, r7
    c940:	000a0009 	andeq	r0, sl, r9
    c944:	000d000b 	andeq	r0, sp, fp
    c948:	0011000f 	andseq	r0, r1, pc
    c94c:	00170013 	andseq	r0, r7, r3, lsl r0
    c950:	001f001b 	andseq	r0, pc, fp, lsl r0	; <UNPREDICTABLE>
    c954:	002b0023 	eoreq	r0, fp, r3, lsr #32
    c958:	003b0033 	eorseq	r0, fp, r3, lsr r0
    c95c:	00530043 	subseq	r0, r3, r3, asr #32
    c960:	00730063 	rsbseq	r0, r3, r3, rrx
    c964:	00a30083 	adceq	r0, r3, r3, lsl #1
    c968:	00e300c3 	rsceq	r0, r3, r3, asr #1
    c96c:	00000102 	andeq	r0, r0, r2, lsl #2
    c970:	00000000 	andeq	r0, r0, r0

0000c974 <dext.4034>:
    c974:	00100010 	andseq	r0, r0, r0, lsl r0
    c978:	00100010 	andseq	r0, r0, r0, lsl r0
    c97c:	00110011 	andseq	r0, r1, r1, lsl r0
    c980:	00120012 	andseq	r0, r2, r2, lsl r0
    c984:	00130013 	andseq	r0, r3, r3, lsl r0
    c988:	00140014 	andseq	r0, r4, r4, lsl r0
    c98c:	00150015 	andseq	r0, r5, r5, lsl r0
    c990:	00160016 	andseq	r0, r6, r6, lsl r0
    c994:	00170017 	andseq	r0, r7, r7, lsl r0
    c998:	00180018 	andseq	r0, r8, r8, lsl r0
    c99c:	00190019 	andseq	r0, r9, r9, lsl r0
    c9a0:	001a001a 	andseq	r0, sl, sl, lsl r0
    c9a4:	001b001b 	andseq	r0, fp, fp, lsl r0
    c9a8:	001c001c 	andseq	r0, ip, ip, lsl r0
    c9ac:	001d001d 	andseq	r0, sp, sp, lsl r0
    c9b0:	00400040 	subeq	r0, r0, r0, asr #32

0000c9b4 <dbase.4033>:
    c9b4:	00020001 	andeq	r0, r2, r1
    c9b8:	00040003 	andeq	r0, r4, r3
    c9bc:	00070005 	andeq	r0, r7, r5
    c9c0:	000d0009 	andeq	r0, sp, r9
    c9c4:	00190011 	andseq	r0, r9, r1, lsl r0
    c9c8:	00310021 	eorseq	r0, r1, r1, lsr #32
    c9cc:	00610041 	rsbeq	r0, r1, r1, asr #32
    c9d0:	00c10081 	sbceq	r0, r1, r1, lsl #1
    c9d4:	01810101 	orreq	r0, r1, r1, lsl #2
    c9d8:	03010201 	movweq	r0, #4609	; 0x1201
    c9dc:	06010401 	streq	r0, [r1], -r1, lsl #8
    c9e0:	0c010801 	stceq	8, cr0, [r1], {1}
    c9e4:	18011001 	stmdane	r1, {r0, ip}
    c9e8:	30012001 	andcc	r2, r1, r1
    c9ec:	60014001 	andvs	r4, r1, r1
    c9f0:	00000000 	andeq	r0, r0, r0

0000c9f4 <inflate_copyright>:
    c9f4:	666e6920 	strbtvs	r6, [lr], -r0, lsr #18
    c9f8:	6574616c 	ldrbvs	r6, [r4, #-364]!	; 0x16c
    c9fc:	322e3120 	eorcc	r3, lr, #8
    ca00:	4320372e 	teqmi	r0, #12058624	; 0xb80000
    ca04:	7279706f 	rsbsvc	r7, r9, #111	; 0x6f
    ca08:	74686769 	strbtvc	r6, [r8], #-1897	; 0x769
    ca0c:	39393120 	ldmdbcc	r9!, {r5, r8, ip, sp}
    ca10:	30322d35 	eorscc	r2, r2, r5, lsr sp
    ca14:	4d203231 	sfmmi	f3, 4, [r0, #-196]!	; 0xffffff3c
    ca18:	206b7261 	rsbcs	r7, fp, r1, ror #4
    ca1c:	656c6441 	strbvs	r6, [ip, #-1089]!	; 0x441
    ca20:	00002072 	andeq	r2, r0, r2, ror r0

Disassembly of section .rodata.str1.4:

0000ca24 <.rodata.str1.4>:
    ca24:	2e322e31 	mrccs	14, 1, r2, cr2, cr1, {1}
    ca28:	00000037 	andeq	r0, r0, r7, lsr r0
    ca2c:	6465656e 	strbtvs	r6, [r5], #-1390	; 0x56e
    ca30:	63696420 	cmnvs	r9, #536870912	; 0x20000000
    ca34:	6e6f6974 	mcrvs	9, 3, r6, cr15, cr4, {3}
    ca38:	00797261 	rsbseq	r7, r9, r1, ror #4
    ca3c:	65727473 	ldrbvs	r7, [r2, #-1139]!	; 0x473
    ca40:	65206d61 	strvs	r6, [r0, #-3425]!	; 0xd61
    ca44:	0000646e 	andeq	r6, r0, lr, ror #8
    ca48:	656c6966 	strbvs	r6, [ip, #-2406]!	; 0x966
    ca4c:	72726520 	rsbsvc	r6, r2, #134217728	; 0x8000000
    ca50:	0000726f 	andeq	r7, r0, pc, ror #4
    ca54:	65727473 	ldrbvs	r7, [r2, #-1139]!	; 0x473
    ca58:	65206d61 	strvs	r6, [r0, #-3425]!	; 0xd61
    ca5c:	726f7272 	rsbvc	r7, pc, #536870919	; 0x20000007
    ca60:	00000000 	andeq	r0, r0, r0
    ca64:	61746164 	cmnvs	r4, r4, ror #2
    ca68:	72726520 	rsbsvc	r6, r2, #134217728	; 0x8000000
    ca6c:	0000726f 	andeq	r7, r0, pc, ror #4
    ca70:	75736e69 	ldrbvc	r6, [r3, #-3689]!	; 0xe69
    ca74:	63696666 	cmnvs	r9, #106954752	; 0x6600000
    ca78:	746e6569 	strbtvc	r6, [lr], #-1385	; 0x569
    ca7c:	6d656d20 	stclvs	13, cr6, [r5, #-128]!	; 0xffffff80
    ca80:	0079726f 	rsbseq	r7, r9, pc, ror #4
    ca84:	66667562 	strbtvs	r7, [r6], -r2, ror #10
    ca88:	65207265 	strvs	r7, [r0, #-613]!	; 0x265
    ca8c:	726f7272 	rsbvc	r7, pc, #536870919	; 0x20000007
    ca90:	00000000 	andeq	r0, r0, r0
    ca94:	6f636e69 	svcvs	0x00636e69
    ca98:	7461706d 	strbtvc	r7, [r1], #-109	; 0x6d
    ca9c:	656c6269 	strbvs	r6, [ip, #-617]!	; 0x269
    caa0:	72657620 	rsbvc	r7, r5, #33554432	; 0x2000000
    caa4:	6e6f6973 	mcrvs	9, 3, r6, cr15, cr3, {3}
    caa8:	00000000 	andeq	r0, r0, r0
    caac:	6f636e69 	svcvs	0x00636e69
    cab0:	63657272 	cmnvs	r5, #536870919	; 0x20000007
    cab4:	65682074 	strbvs	r2, [r8, #-116]!	; 0x74
    cab8:	72656461 	rsbvc	r6, r5, #1627389952	; 0x61000000
    cabc:	65686320 	strbvs	r6, [r8, #-800]!	; 0x320
    cac0:	00006b63 	andeq	r6, r0, r3, ror #22
    cac4:	6e6b6e75 	mcrvs	14, 3, r6, cr11, cr5, {3}
    cac8:	206e776f 	rsbcs	r7, lr, pc, ror #14
    cacc:	706d6f63 	rsbvc	r6, sp, r3, ror #30
    cad0:	73736572 	cmnvc	r3, #478150656	; 0x1c800000
    cad4:	206e6f69 	rsbcs	r6, lr, r9, ror #30
    cad8:	6874656d 	ldmdavs	r4!, {r0, r2, r3, r5, r6, r8, sl, sp, lr}^
    cadc:	0000646f 	andeq	r6, r0, pc, ror #8
    cae0:	61766e69 	cmnvs	r6, r9, ror #28
    cae4:	2064696c 	rsbcs	r6, r4, ip, ror #18
    cae8:	646e6977 	strbtvs	r6, [lr], #-2423	; 0x977
    caec:	7320776f 	teqvc	r0, #29097984	; 0x1bc0000
    caf0:	00657a69 	rsbeq	r7, r5, r9, ror #20
    caf4:	6e6b6e75 	mcrvs	14, 3, r6, cr11, cr5, {3}
    caf8:	206e776f 	rsbcs	r7, lr, pc, ror #14
    cafc:	64616568 	strbtvs	r6, [r1], #-1384	; 0x568
    cb00:	66207265 	strtvs	r7, [r0], -r5, ror #4
    cb04:	7367616c 	cmnvc	r7, #27
    cb08:	74657320 	strbtvc	r7, [r5], #-800	; 0x320
    cb0c:	00000000 	andeq	r0, r0, r0
    cb10:	64616568 	strbtvs	r6, [r1], #-1384	; 0x568
    cb14:	63207265 	teqvs	r0, #1342177286	; 0x50000006
    cb18:	6d206372 	stcvs	3, cr6, [r0, #-456]!	; 0xfffffe38
    cb1c:	616d7369 	cmnvs	sp, r9, ror #6
    cb20:	00686374 	rsbeq	r6, r8, r4, ror r3
    cb24:	61766e69 	cmnvs	r6, r9, ror #28
    cb28:	2064696c 	rsbcs	r6, r4, ip, ror #18
    cb2c:	636f6c62 	cmnvs	pc, #25088	; 0x6200
    cb30:	7974206b 	ldmdbvc	r4!, {r0, r1, r3, r5, r6, sp}^
    cb34:	00006570 	andeq	r6, r0, r0, ror r5
    cb38:	61766e69 	cmnvs	r6, r9, ror #28
    cb3c:	2064696c 	rsbcs	r6, r4, ip, ror #18
    cb40:	726f7473 	rsbvc	r7, pc, #1929379840	; 0x73000000
    cb44:	62206465 	eorvs	r6, r0, #1694498816	; 0x65000000
    cb48:	6b636f6c 	blvs	18e8900 <complen+0x18d6e08>
    cb4c:	6e656c20 	cdpvs	12, 6, cr6, cr5, cr0, {1}
    cb50:	73687467 	cmnvc	r8, #1728053248	; 0x67000000
    cb54:	00000000 	andeq	r0, r0, r0
    cb58:	206f6f74 	rsbcs	r6, pc, r4, ror pc	; <UNPREDICTABLE>
    cb5c:	796e616d 	stmdbvc	lr!, {r0, r2, r3, r5, r6, r8, sp, lr}^
    cb60:	6e656c20 	cdpvs	12, 6, cr6, cr5, cr0, {1}
    cb64:	20687467 	rsbcs	r7, r8, r7, ror #8
    cb68:	6420726f 	strtvs	r7, [r0], #-623	; 0x26f
    cb6c:	61747369 	cmnvs	r4, r9, ror #6
    cb70:	2065636e 	rsbcs	r6, r5, lr, ror #6
    cb74:	626d7973 	rsbvs	r7, sp, #1884160	; 0x1cc000
    cb78:	00736c6f 	rsbseq	r6, r3, pc, ror #24
    cb7c:	61766e69 	cmnvs	r6, r9, ror #28
    cb80:	2064696c 	rsbcs	r6, r4, ip, ror #18
    cb84:	65646f63 	strbvs	r6, [r4, #-3939]!	; 0xf63
    cb88:	6e656c20 	cdpvs	12, 6, cr6, cr5, cr0, {1}
    cb8c:	73687467 	cmnvc	r8, #1728053248	; 0x67000000
    cb90:	74657320 	strbtvc	r7, [r5], #-800	; 0x320
    cb94:	00000000 	andeq	r0, r0, r0
    cb98:	61766e69 	cmnvs	r6, r9, ror #28
    cb9c:	2064696c 	rsbcs	r6, r4, ip, ror #18
    cba0:	20746962 	rsbscs	r6, r4, r2, ror #18
    cba4:	676e656c 	strbvs	r6, [lr, -ip, ror #10]!
    cba8:	72206874 	eorvc	r6, r0, #7602176	; 0x740000
    cbac:	61657065 	cmnvs	r5, r5, rrx
    cbb0:	00000074 	andeq	r0, r0, r4, ror r0
    cbb4:	61766e69 	cmnvs	r6, r9, ror #28
    cbb8:	2064696c 	rsbcs	r6, r4, ip, ror #18
    cbbc:	65646f63 	strbvs	r6, [r4, #-3939]!	; 0xf63
    cbc0:	202d2d20 	eorcs	r2, sp, r0, lsr #26
    cbc4:	7373696d 	cmnvc	r3, #1785856	; 0x1b4000
    cbc8:	20676e69 	rsbcs	r6, r7, r9, ror #28
    cbcc:	2d646e65 	stclcs	14, cr6, [r4, #-404]!	; 0xfffffe6c
    cbd0:	622d666f 	eorvs	r6, sp, #116391936	; 0x6f00000
    cbd4:	6b636f6c 	blvs	18e898c <complen+0x18d6e94>
    cbd8:	00000000 	andeq	r0, r0, r0
    cbdc:	61766e69 	cmnvs	r6, r9, ror #28
    cbe0:	2064696c 	rsbcs	r6, r4, ip, ror #18
    cbe4:	6574696c 	ldrbvs	r6, [r4, #-2412]!	; 0x96c
    cbe8:	2f6c6172 	svccs	0x006c6172
    cbec:	676e656c 	strbvs	r6, [lr, -ip, ror #10]!
    cbf0:	20736874 	rsbscs	r6, r3, r4, ror r8
    cbf4:	00746573 	rsbseq	r6, r4, r3, ror r5
    cbf8:	61766e69 	cmnvs	r6, r9, ror #28
    cbfc:	2064696c 	rsbcs	r6, r4, ip, ror #18
    cc00:	74736964 	ldrbtvc	r6, [r3], #-2404	; 0x964
    cc04:	65636e61 	strbvs	r6, [r3, #-3681]!	; 0xe61
    cc08:	65732073 	ldrbvs	r2, [r3, #-115]!	; 0x73
    cc0c:	00000074 	andeq	r0, r0, r4, ror r0
    cc10:	61766e69 	cmnvs	r6, r9, ror #28
    cc14:	2064696c 	rsbcs	r6, r4, ip, ror #18
    cc18:	6574696c 	ldrbvs	r6, [r4, #-2412]!	; 0x96c
    cc1c:	2f6c6172 	svccs	0x006c6172
    cc20:	676e656c 	strbvs	r6, [lr, -ip, ror #10]!
    cc24:	63206874 	teqvs	r0, #7602176	; 0x740000
    cc28:	0065646f 	rsbeq	r6, r5, pc, ror #8
    cc2c:	61766e69 	cmnvs	r6, r9, ror #28
    cc30:	2064696c 	rsbcs	r6, r4, ip, ror #18
    cc34:	74736964 	ldrbtvc	r6, [r3], #-2404	; 0x964
    cc38:	65636e61 	strbvs	r6, [r3, #-3681]!	; 0xe61
    cc3c:	646f6320 	strbtvs	r6, [pc], #-800	; cc44 <inflate_copyright+0x250>
    cc40:	00000065 	andeq	r0, r0, r5, rrx
    cc44:	61766e69 	cmnvs	r6, r9, ror #28
    cc48:	2064696c 	rsbcs	r6, r4, ip, ror #18
    cc4c:	74736964 	ldrbtvc	r6, [r3], #-2404	; 0x964
    cc50:	65636e61 	strbvs	r6, [r3, #-3681]!	; 0xe61
    cc54:	6f6f7420 	svcvs	0x006f7420
    cc58:	72616620 	rsbvc	r6, r1, #33554432	; 0x2000000
    cc5c:	63616220 	cmnvs	r1, #2
    cc60:	0000006b 	andeq	r0, r0, fp, rrx
    cc64:	6f636e69 	svcvs	0x00636e69
    cc68:	63657272 	cmnvs	r5, #536870919	; 0x20000007
    cc6c:	61642074 	smcvs	16900	; 0x4204
    cc70:	63206174 	teqvs	r0, #29
    cc74:	6b636568 	blvs	18e621c <complen+0x18d4724>
    cc78:	00000000 	andeq	r0, r0, r0
    cc7c:	6f636e69 	svcvs	0x00636e69
    cc80:	63657272 	cmnvs	r5, #536870919	; 0x20000007
    cc84:	656c2074 	strbvs	r2, [ip, #-116]!	; 0x74
    cc88:	6874676e 	ldmdavs	r4!, {r1, r2, r3, r5, r6, r8, r9, sl, sp, lr}^
    cc8c:	65686320 	strbvs	r6, [r8, #-800]!	; 0x320
    cc90:	00006b63 	andeq	r6, r0, r3, ror #22

Disassembly of section .data:

0000cc94 <static_l_desc>:
    cc94:	0000bb08 	andeq	fp, r0, r8, lsl #22
    cc98:	0000b71c 	andeq	fp, r0, ip, lsl r7
    cc9c:	00000101 	andeq	r0, r0, r1, lsl #2
    cca0:	0000011e 	andeq	r0, r0, lr, lsl r1
    cca4:	0000000f 	andeq	r0, r0, pc

0000cca8 <static_d_desc>:
    cca8:	0000bf88 	andeq	fp, r0, r8, lsl #31
    ccac:	0000ba04 	andeq	fp, r0, r4, lsl #20
    ccb0:	00000000 	andeq	r0, r0, r0
    ccb4:	0000001e 	andeq	r0, r0, lr, lsl r0
    ccb8:	0000000f 	andeq	r0, r0, pc

0000ccbc <static_bl_desc>:
    ccbc:	00000000 	andeq	r0, r0, r0
    ccc0:	0000c000 	andeq	ip, r0, r0
    ccc4:	00000000 	andeq	r0, r0, r0
    ccc8:	00000013 	andeq	r0, r0, r3, lsl r0
    cccc:	00000007 	andeq	r0, r0, r7

Disassembly of section .bss:

0000ccd0 <uncomplen>:
    ccd0:	00000000 	andeq	r0, r0, r0

0000ccd4 <uncompressed>:
	...

0000f3e4 <heap_offset>:
    f3e4:	00000000 	andeq	r0, r0, r0

0000f3e8 <compressed>:
	...

00011af8 <complen>:
   11af8:	00000000 	andeq	r0, r0, r0

Disassembly of section .ARM.attributes:

00000000 <.ARM.attributes>:
   0:	00002e41 	andeq	r2, r0, r1, asr #28
   4:	61656100 	cmnvs	r5, r0, lsl #2
   8:	01006962 	tsteq	r0, r2, ror #18
   c:	00000024 	andeq	r0, r0, r4, lsr #32
  10:	06003605 	streq	r3, [r0], -r5, lsl #12
  14:	09010806 	stmdbeq	r1, {r1, r2, fp}
  18:	12020a01 	andne	r0, r2, #4096	; 0x1000
  1c:	15011404 	strne	r1, [r1, #-1028]	; 0x404
  20:	18031701 	stmdane	r3, {r0, r8, r9, sl, ip}
  24:	1b021a01 	blne	86830 <complen+0x74d38>
  28:	22011c03 	andcs	r1, r1, #768	; 0x300
  2c:	Address 0x0000002c is out of bounds.


Disassembly of section .comment:

00000000 <.comment>:
   0:	3a434347 	bcc	10d0d24 <complen+0x10bf22c>
   4:	72632820 	rsbvc	r2, r3, #2097152	; 0x200000
   8:	7473736f 	ldrbtvc	r7, [r3], #-879	; 0x36f
   c:	2d6c6f6f 	stclcs	15, cr6, [ip, #-444]!	; 0xfffffe44
  10:	6c20474e 	stcvs	7, cr4, [r0], #-312	; 0xfffffec8
  14:	72616e69 	rsbvc	r6, r1, #1680	; 0x690
  18:	2e312d6f 	cdpcs	13, 3, cr2, cr1, cr15, {3}
  1c:	312e3331 	teqcc	lr, r1, lsr r3
  20:	727a622b 	rsbsvc	r6, sl, #-1342177278	; 0xb0000002
  24:	38353432 	ldmdacc	r5!, {r1, r4, r5, sl, ip, sp}
  28:	4c202d20 	stcmi	13, cr2, [r0], #-128	; 0xffffff80
  2c:	72616e69 	rsbvc	r6, r1, #1680	; 0x690
  30:	4347206f 	movtmi	r2, #28783	; 0x706f
  34:	30322043 	eorscc	r2, r2, r3, asr #32
  38:	302e3231 	eorcc	r3, lr, r1, lsr r2
  3c:	34202938 	strtcc	r2, [r0], #-2360	; 0x938
  40:	322e372e 	eorcc	r3, lr, #12058624	; 0xb80000
  44:	31303220 	teqcc	r0, r0, lsr #4
  48:	33373032 	teqcc	r7, #50	; 0x32
  4c:	70282031 	eorvc	r2, r8, r1, lsr r0
  50:	65726572 	ldrbvs	r6, [r2, #-1394]!	; 0x572
  54:	7361656c 	cmnvc	r1, #452984832	; 0x1b000000
  58:	Address 0x00000058 is out of bounds.

